(dp0
S'limited'
p1
(F0.25
F0.875
F1.0
F0.25
F0.875
F1.0
tp2
sS'magnetic'
p3
(F0.625
F0.0
F1.0
F0.625
F0.0
F1.0
tp4
sS'disappointement'
p5
(I-1
I-1
I-1
I-1
I-1
I-1
tp6
sS'dynamic'
p7
(F0.5
F0.25
F1.0
F0.375
F0.25
F1.0
tp8
sS'yellow'
p9
(F0.0
F0.75
F1.0
F0.0
F0.75
F1.0
tp10
sS'sleek'
p11
(F0.375
F0.125
F1.0
F0.375
F0.125
F0.875
tp12
sS'hasselfree'
p13
g6
sS'better4'
p14
g6
sS'sleep'
p15
(F0.0
F0.125
F1.0
I0
I0
I0
tp16
sS'reliablewonderful'
p17
g6
sS'hanging'
p18
(F0.125
F0.25
F1.0
I0
I0
I0
tp19
sS'hate'
p20
(F0.125
F0.75
F0.5
I0
I0
I0
tp21
sS'goodawesome'
p22
g6
sS'aug'
p23
(F0.0
F0.0
F1.0
I0
I0
I0
tp24
sS'eligible'
p25
(F0.5
F0.0
F0.5
F0.5
F0.0
F0.5
tp26
sS'swappable'
p27
g6
sS'fingure'
p28
(I-1
I-1
I-1
I-1
I-1
I-1
tp29
sS'unanswered'
p30
(F0.0
F0.625
F0.375
F0.0
F0.625
F0.375
tp31
sS'aur'
p32
g6
sS'lifeexcellent'
p33
g6
sS'aux'
p34
g6
sS'sorry'
p35
(F0.5
F1.0
F0.5
F0.5
F1.0
F0.5
tp36
sS'spec'
p37
(F0.0
F0.0
F1.0
I0
I0
I0
tp38
sS'updated'
p39
(F0.0
F0.0
F1.0
I0
I0
I0
tp40
sS'chennai'
p41
(F0.0
F0.0
F1.0
I0
I0
I0
tp42
sS'mobilecoolpad'
p43
g6
sS'every'
p44
(F0.125
F0.0
F1.0
F0.125
F0.0
F1.0
tp45
sS'updates'
p46
(F0.0
F0.0
F1.0
I0
I0
I0
tp47
sS'wich'
p48
g6
sS'affect'
p49
(F0.125
F0.25
F1.0
I0
I0
I0
tp50
sS'amazonvibrant'
p51
g6
sS'bettery'
p52
g6
sS'delicated'
p53
g6
sS'upo'
p54
(I-1
I-1
I-1
I-1
I-1
I-1
tp55
sS'reddish'
p56
(F0.0
F0.0
F1.0
F0.0
F0.0
F1.0
tp57
sS'ontime'
p58
g55
sS'customizable'
p59
g55
sS'viable'
p60
(F0.5
F0.0
F0.625
F0.5
F0.0
F0.625
tp61
sS'awesomenice'
p62
g6
sS'flashy'
p63
(F0.25
F0.5
F0.75
F0.25
F0.5
F0.75
tp64
sS'pricecamera'
p65
g6
sS'ups'
p66
(F0.0
F0.0
F1.0
I0
I0
I0
tp67
sS'usetwo'
p68
g6
sS'chep'
p69
g6
sS'phones'
p70
(F0.0
F0.0
F1.0
I0
I0
I0
tp71
sS'consistent'
p72
(F0.25
F0.0
F1.0
F0.25
F0.0
F1.0
tp73
sS'hating'
p74
(F0.0
F0.75
F1.0
I0
I0
I0
tp75
sS'goodinternal'
p76
g6
sS'direct'
p77
(F0.75
F0.25
F1.0
F0.75
F0.25
F1.0
tp78
sS'starbuild'
p79
g6
sS'screengaurd'
p80
g55
sS'elegant'
p81
(F0.5
F0.125
F0.625
F0.5
F0.125
F0.625
tp82
sS'second'
p83
(F0.5
F0.25
F1.0
F0.0
F0.0
F1.0
tp84
sS'fabulous'
p85
(F0.875
F0.25
F0.75
F0.875
F0.25
F0.75
tp86
sS'rigorous'
p87
(F0.5
F0.375
F0.5
F0.5
F0.375
F0.5
tp88
sS'nigt'
p89
g6
sS'estimated'
p90
(F0.0
F0.0
F1.0
I0
I0
I0
tp91
sS'colourful'
p92
(F0.125
F0.0
F1.0
F0.125
F0.0
F1.0
tp93
sS'specs'
p94
(F0.0
F0.0
F1.0
I0
I0
I0
tp95
sS'tactile'
p96
(F0.0
F0.375
F1.0
F0.0
F0.375
F1.0
tp97
sS'blue'
p98
(F0.375
F0.875
F1.0
F0.375
F0.875
F1.0
tp99
sS'moneythe'
p100
g6
sS'incompatible'
p101
(F0.333
F0.875
F1.0
F0.333
F0.875
F1.0
tp102
sS'sfter'
p103
g6
sS'supplied'
p104
(F0.125
F0.0
F1.0
I0
I0
I0
tp105
sS'policybrilliant'
p106
g6
sS'absolute'
p107
(F0.625
F0.75
F0.75
F0.625
F0.75
F0.5
tp108
sS'meizu'
p109
g6
sS'above'
p110
(F0.125
F0.125
F1.0
F0.125
F0.125
F1.0
tp111
sS'blur'
p112
(F0.25
F0.375
F1.0
I0
I0
I0
tp113
sS'new'
p114
(F0.375
F0.625
F1.0
F0.375
F0.625
F1.0
tp115
sS'net'
p116
(F0.0
F0.0
F1.0
F0.0
F0.0
F1.0
tp117
sS'lighty'
p118
g6
sS'itvery'
p119
g6
sS'centric'
p120
(F0.0
F0.0
F1.0
F0.0
F0.0
F1.0
tp121
sS'behavior'
p122
(F0.25
F0.0
F1.0
I0
I0
I0
tp123
sS'itpoor'
p124
g6
sS'mem'
p125
(F0.0
F0.0
F1.0
I0
I0
I0
tp126
sS'ulterior'
p127
(F0.25
F0.375
F1.0
F0.25
F0.375
F1.0
tp128
sS'china'
p129
(F0.5
F0.0
F1.0
I0
I0
I0
tp130
sS'superbbest'
p131
g6
sS'internl'
p132
g6
sS'active'
p133
(F0.5
F0.5
F1.0
F0.5
F0.5
F1.0
tp134
sS'workingthe'
p135
g6
sS'narmal'
p136
g29
sS'dry'
p137
(F0.5
F0.75
F1.0
F0.5
F0.75
F1.0
tp138
sS'voice'
p139
(F0.25
F0.0
F1.0
I0
I0
I0
tp140
sS'furnaceoverall'
p141
g6
sS'k'
p142
(F0.0
F0.0
F1.0
F0.0
F0.0
F1.0
tp143
sS'interupt'
p144
g6
sS'quadcore'
p145
g55
sS'biometric'
p146
g6
sS'browsing'
p147
(F0.0
F0.5
F1.0
I0
I0
I0
tp148
sS'symmetrical'
p149
(F0.125
F0.0
F1.0
F0.125
F0.0
F1.0
tp150
sS'suitable'
p151
(F0.5
F0.0
F0.875
F0.5
F0.0
F0.875
tp152
sS'less3'
p153
g6
sS'golden'
p154
(F0.875
F0.25
F1.0
F0.875
F0.25
F1.0
tp155
sS'fantastic'
p156
(F0.75
F0.625
F0.625
F0.75
F0.625
F0.625
tp157
sS'dhamaka'
p158
g6
sS'secure'
p159
(F0.5
F0.625
F1.0
F0.5
F0.625
F0.875
tp160
sS'slicey'
p161
g6
sS'allcoolpad'
p162
g6
sS'visible'
p163
(F0.5
F0.0
F0.875
F0.5
F0.0
F0.875
tp164
sS'bestsuper'
p165
g6
sS'awsomeinbuilt'
p166
g6
sS'offi'
p167
g6
sS'costly'
p168
(F0.5
F0.0
F1.0
F0.5
F0.0
F1.0
tp169
sS'total'
p170
(F0.0
F0.0
F1.0
F0.0
F0.0
F1.0
tp171
sS'forums'
p172
(F0.0
F0.0
F1.0
I0
I0
I0
tp173
sS'problemnetwork'
p174
g6
sS'browse'
p175
(F0.0
F0.5
F1.0
I0
I0
I0
tp176
sS'm.'
p177
g6
sS'negative'
p178
(F0.125
F0.875
F1.0
F0.125
F0.875
F1.0
tp179
sS'betterawesome'
p180
g6
sS'dnt'
p181
g6
sS'music'
p182
(F0.875
F0.0
F1.0
I0
I0
I0
tp183
sS'recommend'
p184
(F0.5
F0.125
F0.875
I0
I0
I0
tp185
sS'type'
p186
(F0.0
F0.0
F1.0
I0
I0
I0
tp187
sS'thereno'
p188
g6
sS'successful'
p189
(F0.625
F0.0
F0.375
F0.625
F0.0
F0.375
tp190
sS'loong'
p191
g55
sS'aware'
p192
(F0.625
F0.0
F0.5
F0.625
F0.0
F0.5
tp193
sS'glass'
p194
(F0.0
F0.125
F1.0
I0
I0
I0
tp195
sS'warm'
p196
(F0.625
F0.75
F1.0
F0.625
F0.75
F1.0
tp197
sS'discussed'
p198
(F0.0
F0.0
F1.0
I0
I0
I0
tp199
sS'excellent'
p200
(F1.0
F0.0
F0.0
F1.0
F0.0
F0.0
tp201
sS'doesnot'
p202
g6
sS'adamant'
p203
(F0.0
F0.75
F1.0
F0.0
F0.75
F0.25
tp204
sS'goodtakes'
p205
g6
sS'higher2'
p206
g6
sS'ii'
p207
(F0.0
F0.0
F1.0
F0.0
F0.0
F1.0
tp208
sS'camra'
p209
g29
sS'tnq'
p210
g55
sS'goodworst'
p211
g6
sS'mb'
p212
(F0.0
F0.0
F1.0
I0
I0
I0
tp213
sS'mm'
p214
(F0.0
F0.0
F1.0
I0
I0
I0
tp215
sS'goodnot'
p216
g6
sS'mi'
p217
(F0.0
F0.0
F1.0
I0
I0
I0
tp218
sS'mh'
p219
g29
sS'unfortunately'
p220
(F0.0
F0.875
F0.125
F0.0
F0.875
F0.125
tp221
sS'worth'
p222
(F0.75
F0.0
F1.0
F0.25
F0.0
F1.0
tp223
sS'mw'
p224
g29
sS'mp'
p225
(F0.0
F0.0
F1.0
I0
I0
I0
tp226
sS'install'
p227
(F0.0
F0.0
F1.0
I0
I0
I0
tp228
sS'mr'
p229
(F0.0
F0.0
F1.0
I0
I0
I0
tp230
sS'wifigood'
p231
g6
sS'applaudable'
p232
(F0.625
F0.0
F0.375
F0.625
F0.0
F0.375
tp233
sS'excellant'
p234
g55
sS'root'
p235
(F0.0
F0.0
F1.0
I0
I0
I0
tp236
sS'16gb'
p237
g6
sS'hittingavg'
p238
g6
sS'mallow'
p239
(F0.0
F0.125
F0.875
I0
I0
I0
tp240
sS'indicated'
p241
(F0.0
F0.0
F1.0
I0
I0
I0
tp242
sS'give'
p243
(F0.75
F0.5
F1.0
I0
I0
I0
tp244
sS'mpevery'
p245
g6
sS'india'
p246
(F0.0
F0.0
F1.0
I0
I0
I0
tp247
sS'owesome'
p248
g6
sS'ia'
p249
(F0.0
F0.0
F1.0
I0
I0
I0
tp250
sS'excallent'
p251
g6
sS'want'
p252
(F0.5
F0.625
F1.0
I0
I0
I0
tp253
sS'unsatisfying'
p254
(F0.0
F0.75
F0.25
F0.0
F0.75
F0.25
tp255
sS'feasible'
p256
(F0.375
F0.0
F0.625
F0.375
F0.0
F0.625
tp257
sS'attract'
p258
(F0.625
F0.0
F1.0
I0
I0
I0
tp259
sS'exityu'
p260
g6
sS'returned'
p261
(F0.5
F0.125
F1.0
I0
I0
I0
tp262
sS'devicesthe'
p263
g6
sS'end'
p264
(F0.0
F0.0
F1.0
I0
I0
I0
tp265
sS'provide'
p266
(F0.125
F0.0
F1.0
I0
I0
I0
tp267
sS'verify'
p268
(F0.5
F0.0
F1.0
I0
I0
I0
tp269
sS'awesomebattery'
p270
g6
sS'heatany'
p271
g6
sS'damage'
p272
(F0.0
F0.75
F1.0
I0
I0
I0
tp273
sS'electonic'
p274
g6
sS'faults'
p275
(F0.0
F0.875
F1.0
I0
I0
I0
tp276
sS'amazing'
p277
(F0.875
F0.25
F0.75
F0.875
F0.25
F0.25
tp278
sS'playback'
p279
(F0.0
F0.0
F1.0
I0
I0
I0
tp280
sS'heatand'
p281
g6
sS'disappoint'
p282
(F0.0
F0.25
F0.75
I0
I0
I0
tp283
sS'ordinary'
p284
(F0.375
F0.5
F1.0
F0.375
F0.5
F0.5
tp285
sS'faulty'
p286
(F0.5
F0.75
F0.5
F0.5
F0.75
F0.5
tp287
sS'charginf'
p288
g55
sS'charging'
p289
(F0.25
F0.25
F1.0
I0
I0
I0
tp290
sS'inexpandable'
p291
g6
sS'gaming'
p292
(F0.0
F0.0
F1.0
I0
I0
I0
tp293
sS'untill'
p294
g6
sS'beauty'
p295
(F0.5
F0.0
F0.75
I0
I0
I0
tp296
sS'ya3gb'
p297
g6
sS'appriciable'
p298
g55
sS'earlier'
p299
(F0.0
F0.25
F1.0
F0.0
F0.25
F1.0
tp300
sS'damaged'
p301
(F0.375
F0.75
F0.25
F0.375
F0.75
F0.25
tp302
sS'thankyou'
p303
g6
sS'wrong'
p304
(F0.25
F0.875
F1.0
F0.25
F0.875
F1.0
tp305
sS'bsnl'
p306
g6
sS'badle'
p307
g6
sS'splendid'
p308
(F1.0
F0.25
F0.25
F1.0
F0.25
F0.25
tp309
sS'effective'
p310
(F0.5
F0.125
F1.0
F0.5
F0.125
F1.0
tp311
sS'appreciate'
p312
(F0.375
F0.125
F1.0
I0
I0
I0
tp313
sS'goodfinger'
p314
g6
sS'dragontrail'
p315
g6
sS'green'
p316
(F0.5
F0.75
F1.0
F0.5
F0.75
F1.0
tp317
sS'ultimate'
p318
(F0.0
F0.125
F1.0
F0.0
F0.125
F1.0
tp319
sS'browsingexcellent'
p320
g6
sS'operate'
p321
(F0.0
F0.0
F1.0
I0
I0
I0
tp322
sS'displaystylish'
p323
g6
sS'fifa'
p324
g55
sS'itnow'
p325
g6
sS'phoneredmi'
p326
g6
sS'priding'
p327
(F0.25
F0.5
F0.25
I0
I0
I0
tp328
sS'zen'
p329
(F0.0
F0.0
F1.0
I0
I0
I0
tp330
sS'satisfied'
p331
(F0.5
F0.0
F1.0
F0.375
F0.0
F1.0
tp332
sS'fab'
p333
(F0.875
F0.125
F0.0
F0.875
F0.125
F0.0
tp334
sS'gorila'
p335
g55
sS'updateshybrid'
p336
g6
sS'responsive'
p337
(F0.5
F0.125
F1.0
F0.5
F0.125
F1.0
tp338
sS'fit'
p339
(F0.75
F0.5
F1.0
F0.75
F0.0
F0.625
tp340
sS'personal'
p341
(F0.5
F0.0
F1.0
F0.5
F0.0
F1.0
tp342
sS'fix'
p343
(F0.0
F0.5
F1.0
I0
I0
I0
tp344
sS'uuim'
p345
g6
sS'better'
p346
(F1.0
F0.333
F1.0
F1.0
F0.333
F1.0
tp347
sS'imp'
p348
(F0.125
F0.0
F1.0
I0
I0
I0
tp349
sS'complex'
p350
(F0.0
F0.125
F1.0
F0.0
F0.0
F1.0
tp351
sS'fade'
p352
(F0.5
F0.375
F1.0
I0
I0
I0
tp353
sS'persist'
p354
(F0.0
F0.25
F1.0
I0
I0
I0
tp355
sS'awfuli'
p356
g6
sS'hidden'
p357
(F0.25
F0.75
F1.0
F0.25
F0.75
F0.75
tp358
sS'admirable'
p359
(F0.875
F0.0
F0.25
F0.875
F0.0
F0.25
tp360
sS'easier'
p361
(F0.75
F0.625
F1.0
F0.75
F0.625
F1.0
tp362
sS'android6'
p363
g6
sS'thee'
p364
g6
sS'safe'
p365
(F0.625
F0.375
F1.0
F0.5
F0.375
F1.0
tp366
sS'competive'
p367
g29
sS'badphone'
p368
g6
sS'shameful'
p369
(F0.125
F0.5
F0.5
F0.125
F0.5
F0.5
tp370
sS'lifelong'
p371
(F0.0
F0.0
F1.0
F0.0
F0.0
F1.0
tp372
sS'defected'
p373
(F0.0
F0.125
F0.875
I0
I0
I0
tp374
sS'brightness'
p375
(F0.5
F0.25
F0.875
I0
I0
I0
tp376
sS'l'
p377
(F0.0
F0.0
F1.0
F0.0
F0.0
F1.0
tp378
sS'flawlss'
p379
g6
sS'utna'
p380
g6
sS'noticable'
p381
g29
sS'reasonable'
p382
(F0.5
F0.125
F0.75
F0.5
F0.125
F0.75
tp383
sS'side'
p384
(F0.0
F0.125
F1.0
F0.0
F0.0
F1.0
tp385
sS'lasting'
p386
(F0.0
F0.625
F1.0
F0.0
F0.625
F1.0
tp387
sS'problemexcellent'
p388
g6
sS'prolonged'
p389
(F0.0
F0.0
F1.0
F0.0
F0.0
F1.0
tp390
sS'serviceexcellent'
p391
g6
sS'latst'
p392
g6
sS'superbelow'
p393
g6
sS'gon'
p394
g55
sS'ovwr'
p395
g6
sS'rs'
p396
(F0.0
F0.0
F1.0
I0
I0
I0
tp397
sS'god'
p398
(F0.125
F0.0
F1.0
I0
I0
I0
tp399
sS'crucial'
p400
(F0.75
F0.25
F0.625
F0.75
F0.25
F0.625
tp401
sS'rd'
p402
g55
sS're'
p403
(F0.0
F0.0
F1.0
I0
I0
I0
tp404
sS'moneymeizu'
p405
g6
sS'intrernal'
p406
g6
sS'sluggish'
p407
(F0.25
F0.5
F1.0
F0.25
F0.5
F1.0
tp408
sS'gor'
p409
g55
sS'sept.'
p410
g55
sS'assured'
p411
(F0.625
F0.375
F1.0
F0.625
F0.375
F0.375
tp412
sS'whifi'
p413
g29
sS'tops'
p414
(F0.625
F0.375
F1.0
F0.625
F0.0
F0.375
tp415
sS'looong'
p416
g55
sS'free'
p417
(F0.5
F0.75
F1.0
F0.375
F0.75
F1.0
tp418
sS'standard'
p419
(F0.375
F0.375
F1.0
F0.375
F0.375
F1.0
tp420
sS'sensory'
p421
(F0.25
F0.0
F1.0
F0.25
F0.0
F1.0
tp422
sS'updatedin'
p423
g6
sS'backlit'
p424
g6
sS'operable'
p425
(F0.5
F0.0
F1.0
F0.5
F0.0
F1.0
tp426
sS'lollipop'
p427
(F0.0
F0.0
F1.0
I0
I0
I0
tp428
sS'enormous'
p429
(F0.0
F0.0
F1.0
F0.0
F0.0
F1.0
tp430
sS'iss'
p431
(F0.0
F0.0
F1.0
I0
I0
I0
tp432
sS'camera3'
p433
g6
sS'intrnl'
p434
g6
sS'lousy'
p435
(F0.0
F0.75
F0.375
F0.0
F0.75
F0.375
tp436
sS'ish'
p437
g55
sS'speedy'
p438
(F0.5
F0.0
F1.0
F0.5
F0.0
F1.0
tp439
sS'hopeless'
p440
(F0.125
F0.75
F1.0
F0.125
F0.75
F1.0
tp441
sS'selfy'
p442
g6
sS'loudness'
p443
(F0.125
F0.125
F1.0
I0
I0
I0
tp444
sS'loud'
p445
(F0.375
F0.5
F1.0
F0.375
F0.5
F1.0
tp446
sS'purpose'
p447
(F0.125
F0.25
F1.0
I0
I0
I0
tp448
sS'oktouch'
p449
g6
sS'laggy'
p450
g55
sS'qki'
p451
g6
sS'waste4'
p452
g6
sS'supper'
p453
(F0.0
F0.0
F1.0
I0
I0
I0
tp454
sS'nhi'
p455
g6
sS'primary'
p456
(F0.75
F0.5
F1.0
F0.75
F0.5
F0.875
tp457
sS'hearing'
p458
(F0.0
F0.0
F1.0
F0.0
F0.0
F1.0
tp459
sS'featured'
p460
(F0.375
F0.25
F1.0
F0.0
F0.125
F1.0
tp461
sS'bohot'
p462
g6
sS'delicious'
p463
(F0.75
F0.25
F1.0
F0.75
F0.25
F0.25
tp464
sS'clarity'
p465
(F0.5
F0.125
F0.5
I0
I0
I0
tp466
sS'electronic'
p467
(F0.0
F0.0
F1.0
F0.0
F0.0
F1.0
tp468
sS'internetits'
p469
g6
sS'service'
p470
(F0.0
F0.125
F1.0
I0
I0
I0
tp471
sS'top'
p472
(F0.125
F0.375
F1.0
F0.0
F0.0
F1.0
tp473
sS'gudno'
p474
g6
sS'tou'
p475
g6
sS'multitaskingbe'
p476
g6
sS'listed'
p477
(F0.0
F0.0
F1.0
F0.0
F0.0
F1.0
tp478
sS'bitter'
p479
(F0.5
F0.875
F1.0
F0.5
F0.875
F0.625
tp480
sS'listen'
p481
(F0.0
F0.0
F1.0
I0
I0
I0
tp482
sS'phonescam'
p483
g6
sS'fastwith'
p484
g6
sS'tooo'
p485
g6
sS'tool'
p486
(F0.0
F0.5
F1.0
I0
I0
I0
tp487
sS'rejected'
p488
(F0.125
F0.875
F1.0
F0.0
F0.5
F0.5
tp489
sS'nonsethe'
p490
g6
sS'wasted'
p491
(F0.5
F0.75
F1.0
F0.25
F0.75
F0.875
tp492
sS'p55'
p493
g29
sS'requisite'
p494
(F0.125
F0.125
F0.875
F0.125
F0.0
F0.875
tp495
sS'technic'
p496
g6
sS'miui'
p497
g6
sS'lenovo'
p498
g29
sS'showed'
p499
(F0.5
F0.0
F1.0
I0
I0
I0
tp500
sS'okcoolpad'
p501
g6
sS'gameloft'
p502
g6
sS'enabled'
p503
(F0.375
F0.0
F0.625
I0
I0
I0
tp504
sS'likely'
p505
(F0.5
F0.75
F1.0
F0.5
F0.75
F1.0
tp506
sS'useing'
p507
(F0.25
F0.0
F1.0
I0
I0
I0
tp508
sS'idle'
p509
(F0.125
F0.75
F1.0
F0.125
F0.75
F0.625
tp510
sS'louder'
p511
(F0.375
F0.5
F1.0
F0.375
F0.5
F1.0
tp512
sS'silly'
p513
(F0.0
F0.625
F0.875
F0.0
F0.625
F0.75
tp514
sS'aftrr'
p515
g6
sS'iron'
p516
(F0.5
F0.5
F1.0
F0.5
F0.5
F0.0
tp517
sS'minus'
p518
(F0.0
F0.875
F1.0
F0.0
F0.875
F0.875
tp519
sS'continiouslytotal'
p520
g6
sS'recomendedfirst'
p521
g6
sS'longr'
p522
g55
sS'updategot'
p523
g6
sS'ram'
p524
(F0.0
F0.25
F1.0
I0
I0
I0
tp525
sS'mind'
p526
(F0.5
F0.5
F1.0
I0
I0
I0
tp527
sS'mine'
p528
(F0.0
F0.125
F1.0
I0
I0
I0
tp529
sS'ginger'
p530
(F0.25
F0.0
F1.0
F0.0
F0.0
F1.0
tp531
sS'avarage4'
p532
g6
sS'raw'
p533
(F0.625
F0.75
F1.0
F0.625
F0.75
F1.0
tp534
sS'fasti'
p535
g6
sS'somethingafter'
p536
g6
sS'seen'
p537
(F0.75
F0.125
F1.0
I0
I0
I0
tp538
sS'connecetd'
p539
g6
sS'unaffected'
p540
(F0.75
F0.375
F0.75
F0.75
F0.375
F0.75
tp541
sS'improvedbest'
p542
g6
sS'inefficient'
p543
(F0.25
F0.5
F0.5
F0.25
F0.5
F0.5
tp544
sS'genuine'
p545
(F0.375
F0.636
F0.75
F0.375
F0.636
F0.75
tp546
sS'reall'
p547
g6
sS'convenient'
p548
(F0.625
F0.25
F1.0
F0.625
F0.25
F1.0
tp549
sS'latter'
p550
(F0.0
F0.0
F1.0
F0.0
F0.0
F1.0
tp551
sS'firmware'
p552
(F0.0
F0.0
F1.0
I0
I0
I0
tp553
sS'neglagible'
p554
g6
sS'isolated'
p555
(F0.5
F0.625
F1.0
F0.5
F0.625
F1.0
tp556
sS'metallic'
p557
(F0.0
F0.0
F1.0
F0.0
F0.0
F1.0
tp558
sS'realy'
p559
g6
sS'recommended'
p560
(F0.5
F0.125
F0.875
I0
I0
I0
tp561
sS'goodgreat'
p562
g6
sS'tym'
p563
g55
sS'esceptional'
p564
g6
sS'object'
p565
(F0.125
F0.25
F1.0
I0
I0
I0
tp566
sS'outdoori'
p567
g6
sS'optimized'
p568
(F0.125
F0.0
F1.0
I0
I0
I0
tp569
sS'regular'
p570
(F0.375
F0.5
F1.0
F0.375
F0.5
F1.0
tp571
sS'plenty'
p572
(F0.125
F0.375
F1.0
F0.125
F0.0
F0.875
tp573
sS'fastheating'
p574
g6
sS'dummy'
p575
(F0.375
F0.25
F1.0
F0.0
F0.25
F0.75
tp576
sS'oneplus'
p577
g6
sS'don'
p578
(F0.125
F0.0
F1.0
I0
I0
I0
tp579
sS'atthe'
p580
g6
sS'mithis'
p581
g6
sS'incomplete'
p582
(F0.5
F0.25
F0.875
F0.5
F0.25
F0.875
tp583
sS'flop'
p584
(F0.375
F0.625
F1.0
F0.0
F0.0
F1.0
tp585
sS'metal'
p586
(F0.0
F0.0
F1.0
F0.0
F0.0
F1.0
tp587
sS'exlent'
p588
g6
sS'musical'
p589
(F0.625
F0.125
F1.0
F0.625
F0.125
F1.0
tp590
sS'alas'
p591
(F0.0
F0.875
F1.0
F0.0
F0.875
F0.125
tp592
sS'tech'
p593
(F0.0
F0.0
F1.0
I0
I0
I0
tp594
sS'hotdidnt'
p595
g6
sS'consumes'
p596
(F0.125
F0.375
F1.0
I0
I0
I0
tp597
sS'coppy'
p598
g6
sS'sims'
p599
g6
sS'overpriced'
p600
(F0.5
F0.0
F0.875
F0.125
F0.0
F0.875
tp601
sS'contacted'
p602
(F0.0
F0.0
F1.0
I0
I0
I0
tp603
sS'moneyawesome'
p604
g6
sS'guyzzz'
p605
g6
sS'asowme'
p606
g55
sS'enjoyed'
p607
(F1.0
F0.25
F0.75
I0
I0
I0
tp608
sS'persistentits'
p609
g6
sS'par'
p610
(F0.0
F0.0
F1.0
I0
I0
I0
tp611
sS'badas'
p612
g6
sS'busy'
p613
(F0.375
F0.75
F1.0
F0.375
F0.75
F1.0
tp614
sS'spite'
p615
(F0.0
F0.875
F0.375
I0
I0
I0
tp616
sS'ment'
p617
g6
sS'myth'
p618
(F0.0
F0.0
F1.0
I0
I0
I0
tp619
sS'incrediblea'
p620
g6
sS'hrs'
p621
(F0.0
F0.0
F1.0
I0
I0
I0
tp622
sS'phoneexcellentexcellentdon'
p623
g6
sS'theme'
p624
(F0.125
F0.0
F1.0
I0
I0
I0
tp625
sS'rich'
p626
(F0.625
F0.375
F1.0
F0.625
F0.375
F1.0
tp627
sS'perfect4'
p628
g6
sS'issuesnice'
p629
g6
sS'adequate'
p630
(F0.25
F0.375
F1.0
F0.25
F0.375
F1.0
tp631
sS'oct'
p632
(F0.0
F0.0
F1.0
I0
I0
I0
tp633
sS'goodfingre'
p634
g6
sS'do'
p635
(F0.125
F0.5
F1.0
I0
I0
I0
tp636
sS'workingpls'
p637
g6
sS'yunyc'
p638
g6
sS'inoperative'
p639
(F0.0
F0.125
F0.875
F0.0
F0.125
F0.875
tp640
sS'watch'
p641
(F0.375
F0.125
F1.0
I0
I0
I0
tp642
sS'fluid'
p643
(F0.25
F0.125
F1.0
F0.25
F0.125
F1.0
tp644
sS'da'
p645
(F0.0
F0.0
F1.0
I0
I0
I0
tp646
sS'themgood'
p647
g6
sS'amazon'
p648
(F0.125
F0.0
F1.0
I0
I0
I0
tp649
sS'incedible'
p650
g55
sS'onboard'
p651
g6
sS'heatedcustomer'
p652
g6
sS'intrested'
p653
g29
sS'assigned'
p654
(F0.0
F0.0
F1.0
F0.0
F0.0
F1.0
tp655
sS'bad'
p656
(F0.25
F1.0
F0.625
F0.25
F1.0
F0.625
tp657
sS'wordnice'
p658
g6
sS'automatic'
p659
(F0.0
F0.5
F1.0
F0.0
F0.5
F1.0
tp660
sS'thanks'
p661
(F0.125
F0.125
F1.0
I0
I0
I0
tp662
sS'mandatory'
p663
(F0.25
F0.0
F1.0
F0.25
F0.0
F0.75
tp664
sS'throway'
p665
g6
sS'fair'
p666
(F0.75
F0.625
F1.0
F0.75
F0.625
F1.0
tp667
sS'memmory'
p668
g6
sS'issusenice'
p669
g6
sS'observed'
p670
(F0.375
F0.0
F1.0
F0.0
F0.0
F1.0
tp671
sS'allure'
p672
(F0.25
F0.0
F1.0
I0
I0
I0
tp673
sS'horrendous'
p674
(F0.0
F0.625
F0.375
F0.0
F0.625
F0.375
tp675
sS'perchage'
p676
g6
sS'optimum'
p677
(F0.5
F0.0
F0.875
F0.5
F0.0
F0.5
tp678
sS'best'
p679
(F1.0
F0.333
F1.0
F1.0
F0.333
F1.0
tp680
sS'gudits'
p681
g6
sS'pressured'
p682
(F0.375
F0.125
F1.0
I0
I0
I0
tp683
sS'muchmobile'
p684
g6
sS'lots'
p685
(F0.25
F0.5
F1.0
F0.25
F0.0
F0.75
tp686
sS'scrap'
p687
(F0.25
F0.125
F1.0
I0
I0
I0
tp688
sS'stealthy'
p689
(F0.625
F0.0
F0.375
F0.625
F0.0
F0.375
tp690
sS'camerabad'
p691
g6
sS'dolbby'
p692
g6
sS'yallow'
p693
g6
sS'unable'
p694
(F0.125
F0.75
F0.625
F0.125
F0.75
F0.625
tp695
sS'finger'
p696
(F0.0
F0.0
F1.0
I0
I0
I0
tp697
sS'simplest'
p698
(F0.875
F0.625
F0.625
F0.875
F0.625
F0.625
tp699
sS'co.'
p700
g6
sS'replaceable'
p701
(F0.625
F0.125
F0.25
F0.625
F0.125
F0.25
tp702
sS'prblmrear'
p703
g6
sS'hai'
p704
g6
sS'purrfect'
p705
g6
sS'weak'
p706
(F0.375
F0.5
F1.0
F0.375
F0.5
F1.0
tp707
sS'fisrt'
p708
g55
sS'refunteble'
p709
g6
sS'oversatisfied'
p710
g55
sS'touchpad'
p711
g6
sS'expectationsredmi'
p712
g6
sS'received'
p713
(F0.75
F0.0
F1.0
F0.5
F0.0
F0.875
tp714
sS'bettermentthw'
p715
g6
sS'resistant'
p716
(F0.125
F0.625
F0.875
F0.125
F0.625
F0.875
tp717
sS'fault'
p718
(F0.0
F0.875
F1.0
I0
I0
I0
tp719
sS'ill'
p720
(F0.25
F0.875
F0.625
F0.25
F0.875
F0.625
tp721
sS'coz'
p722
g55
sS'heating'
p723
(F0.375
F0.25
F1.0
I0
I0
I0
tp724
sS'selective'
p725
(F0.625
F0.125
F0.375
F0.625
F0.125
F0.375
tp726
sS'gamer'
p727
(F0.125
F0.5
F0.5
F0.125
F0.5
F0.5
tp728
sS'prity'
p729
g6
sS'con'
p730
(F0.0
F0.125
F1.0
F0.0
F0.0
F1.0
tp731
sS'tough'
p732
(F0.375
F0.875
F1.0
F0.375
F0.875
F0.625
tp733
sS'unclear'
p734
(F0.375
F0.625
F0.625
F0.375
F0.625
F0.625
tp735
sS'2nd'
p736
(F0.0
F0.0
F1.0
F0.0
F0.0
F1.0
tp737
sS'matte'
p738
(F0.0
F0.25
F1.0
F0.0
F0.25
F0.75
tp739
sS'initiative'
p740
(F0.375
F0.0
F1.0
F0.0
F0.0
F1.0
tp741
sS'customisable'
p742
g6
sS'wider'
p743
(F0.375
F0.625
F1.0
F0.375
F0.625
F1.0
tp744
sS'loaded'
p745
(F0.25
F0.375
F1.0
F0.25
F0.375
F1.0
tp746
sS'mc5'
p747
g6
sS'trust'
p748
(F0.625
F0.25
F1.0
I0
I0
I0
tp749
sS'operatinggood'
p750
g6
sS'petty'
p751
(F0.25
F0.75
F1.0
F0.25
F0.75
F0.625
tp752
sS'incomparable'
p753
(F0.375
F0.25
F0.375
F0.375
F0.25
F0.375
tp754
sS'slimmest'
p755
(F0.5
F0.125
F0.875
F0.5
F0.125
F0.875
tp756
sS'smartthanku'
p757
g6
sS'fro'
p758
g6
sS'frm'
p759
g55
sS'unmatchable'
p760
(F0.5
F0.0
F0.5
F0.5
F0.0
F0.5
tp761
sS'noo'
p762
g6
sS'much'
p763
(F0.375
F0.125
F1.0
F0.375
F0.125
F1.0
tp764
sS'refurbished'
p765
(F0.25
F0.0
F0.75
I0
I0
I0
tp766
sS'smoothfinger'
p767
g6
sS'basic'
p768
(F0.25
F0.0
F1.0
F0.25
F0.0
F1.0
tp769
sS'expected'
p770
(F0.25
F0.25
F1.0
F0.0
F0.125
F0.875
tp771
sS'flexible'
p772
(F0.375
F0.125
F1.0
F0.375
F0.125
F1.0
tp773
sS'discpointed'
p774
g6
sS'lovely'
p775
(F0.625
F0.0
F0.75
F0.625
F0.0
F0.5
tp776
sS'awesum'
p777
g6
sS'departmentsthere'
p778
g6
sS'website'
p779
(F0.0
F0.0
F1.0
I0
I0
I0
tp780
sS'crady'
p781
g6
sS'graphical'
p782
(F0.0
F0.0
F1.0
F0.0
F0.0
F1.0
tp783
sS'awsm'
p784
g29
sS'upgradebal'
p785
g55
sS'osum'
p786
g6
sS'irresponsive'
p787
g6
sS'uncommon'
p788
(F0.5
F0.25
F0.25
F0.5
F0.25
F0.25
tp789
sS'child'
p790
(F0.125
F0.0
F1.0
I0
I0
I0
tp791
sS'onlythe'
p792
g6
sS'gracious'
p793
(F0.875
F0.125
F0.625
F0.875
F0.125
F0.625
tp794
sS'play'
p795
(F0.5
F0.5
F1.0
I0
I0
I0
tp796
sS'nicewonderful'
p797
g6
sS'managble'
p798
g6
sS'issuebest'
p799
g6
sS'n'
p800
(F0.0
F0.0
F1.0
I0
I0
I0
tp801
sS'lesser'
p802
(F0.375
F0.5
F1.0
F0.375
F0.5
F1.0
tp803
sS'ugly'
p804
(F0.0
F0.75
F0.625
F0.0
F0.75
F0.625
tp805
sS'near'
p806
(F0.5
F0.5
F1.0
F0.5
F0.5
F1.0
tp807
sS'suppose'
p808
(F0.25
F0.0
F1.0
I0
I0
I0
tp809
sS'yesterdayprosthe'
p810
g6
sS'cracked'
p811
(F0.125
F0.5
F1.0
F0.0
F0.375
F0.875
tp812
sS'nicepoor'
p813
g6
sS'dificult'
p814
g6
sS'iz'
p815
g6
sS'played'
p816
(F0.5
F0.25
F1.0
F0.0
F0.0
F1.0
tp817
sS'whithin'
p818
g6
sS'ir'
p819
(F0.0
F0.0
F1.0
I0
I0
I0
tp820
sS'awazem'
p821
g6
sS'battrey'
p822
g6
sS'letdown'
p823
(F0.0
F0.75
F0.25
I0
I0
I0
tp824
sS'usejust'
p825
g6
sS'cant'
p826
(F0.0
F0.125
F1.0
I0
I0
I0
tp827
sS'im'
p828
g29
sS'camear'
p829
g6
sS'comparative'
p830
(F0.25
F0.5
F1.0
F0.25
F0.5
F1.0
tp831
sS'ic'
p832
(F0.0
F0.0
F1.0
F0.0
F0.0
F1.0
tp833
sS'smoothest'
p834
(F0.625
F0.375
F1.0
F0.625
F0.375
F1.0
tp835
sS'coustumer'
p836
g6
sS'trusted'
p837
(F0.5
F0.125
F1.0
F0.5
F0.0
F0.5
tp838
sS'showa'
p839
g6
sS'redmi'
p840
g29
sS'descent'
p841
(F0.0
F0.0
F1.0
I0
I0
I0
tp842
sS'perform'
p843
(F0.0
F0.0
F1.0
I0
I0
I0
tp844
sS'suggest'
p845
(F0.5
F0.125
F1.0
I0
I0
I0
tp846
sS'vannila'
p847
g6
sS'redme'
p848
g6
sS'rectifiable'
p849
(F0.625
F0.0
F0.375
F0.625
F0.0
F0.375
tp850
sS'gueys'
p851
g6
sS'batteruy'
p852
g6
sS'pricethis'
p853
g6
sS'several'
p854
(F0.25
F0.5
F0.875
F0.25
F0.5
F0.875
tp855
sS'itmble'
p856
g6
sS'independent'
p857
(F0.25
F0.625
F1.0
F0.25
F0.625
F1.0
tp858
sS'displaycool'
p859
g6
sS'nil'
p860
(F0.25
F0.25
F0.5
I0
I0
I0
tp861
sS'disappointmen'
p862
g6
sS'nic'
p863
g55
sS'pick'
p864
(F0.25
F0.375
F1.0
I0
I0
I0
tp865
sS'hang'
p866
(F0.125
F0.25
F1.0
I0
I0
I0
tp867
sS'muchgood'
p868
g6
sS'portal'
p869
(F0.0
F0.0
F1.0
I0
I0
I0
tp870
sS'i.'
p871
g6
sS'handyno'
p872
g6
sS'qualiy'
p873
g6
sS'betterpicture'
p874
g6
sS'butter'
p875
(F0.0
F0.0
F1.0
I0
I0
I0
tp876
sS'prescribed'
p877
(F0.25
F0.0
F1.0
F0.25
F0.0
F1.0
tp878
sS'inndesign'
p879
g6
sS'stipulated'
p880
(F0.0
F0.0
F1.0
I0
I0
I0
tp881
sS'stupendous'
p882
(F0.125
F0.125
F0.75
F0.125
F0.125
F0.75
tp883
sS'addlitional'
p884
g29
sS'tht'
p885
g6
sS'ths'
p886
(F0.0
F0.0
F1.0
I0
I0
I0
tp887
sS'nower'
p888
g6
sS'contact'
p889
(F0.375
F0.0
F1.0
I0
I0
I0
tp890
sS'greatest'
p891
(F0.875
F0.125
F1.0
F0.875
F0.125
F1.0
tp892
sS'mother'
p893
(F0.0
F0.0
F1.0
I0
I0
I0
tp894
sS'phoneevery'
p895
g6
sS'unbelievalble'
p896
g6
sS'tha'
p897
g6
sS'bellow'
p898
(F0.0
F0.125
F1.0
I0
I0
I0
tp899
sS'cam'
p900
(F0.0
F0.0
F1.0
I0
I0
I0
tp901
sS'upadate'
p902
g6
sS'photo'
p903
(F0.0
F0.0
F1.0
I0
I0
I0
tp904
sS'laptop'
p905
(F0.0
F0.0
F1.0
I0
I0
I0
tp906
sS'unfair'
p907
(F0.375
F0.375
F0.25
F0.375
F0.375
F0.25
tp908
sS'problemwonderful'
p909
g6
sS'thanku'
p910
g6
sS'thumbs'
p911
(F0.25
F0.0
F1.0
I0
I0
I0
tp912
sS'superbut'
p913
g6
sS'novery'
p914
g6
sS'yes'
p915
(F0.25
F0.0
F0.75
I0
I0
I0
tp916
sS'godd'
p917
g6
sS'previous'
p918
(F0.0
F0.25
F1.0
F0.0
F0.25
F1.0
tp919
sS'puny'
p920
(F0.25
F0.75
F0.375
F0.25
F0.75
F0.375
tp921
sS'awsum2'
p922
g6
sS'coolpad'
p923
g6
sS'coolpaf'
p924
g6
sS'royal'
p925
(F0.5
F0.125
F1.0
F0.5
F0.125
F1.0
tp926
sS'wright'
p927
(F0.0
F0.0
F1.0
I0
I0
I0
tp928
sS'easy'
p929
(F0.75
F0.625
F1.0
F0.75
F0.625
F1.0
tp930
sS'butif'
p931
g6
sS'whatsapp'
p932
g55
sS'save'
p933
(F0.5
F0.625
F1.0
I0
I0
I0
tp934
sS'tolerable'
p935
(F0.25
F0.375
F0.875
F0.25
F0.375
F0.875
tp936
sS'opt'
p937
(F0.0
F0.0
F1.0
I0
I0
I0
tp938
sS'usable'
p939
(F0.25
F0.0
F1.0
F0.25
F0.0
F1.0
tp940
sS'insensitive'
p941
(F0.0
F0.75
F0.375
F0.0
F0.75
F0.375
tp942
sS'which'
p943
g6
sS'titling'
p944
(F0.0
F0.0
F1.0
I0
I0
I0
tp945
sS'possible'
p946
(F0.75
F0.25
F1.0
F0.5
F0.25
F0.75
tp947
sS'lcd'
p948
(F0.0
F0.0
F1.0
I0
I0
I0
tp949
sS'background'
p950
(F0.625
F0.125
F1.0
I0
I0
I0
tp951
sS'awsomevery'
p952
g6
sS'unique'
p953
(F0.5
F0.0
F1.0
F0.5
F0.0
F1.0
tp954
sS'advanced'
p955
(F0.5
F0.25
F1.0
F0.5
F0.25
F1.0
tp956
sS'stepaside'
p957
g6
sS'scan'
p958
(F0.375
F0.0
F1.0
I0
I0
I0
tp959
sS'concious'
p960
g6
sS'manual'
p961
(F0.125
F0.375
F1.0
F0.125
F0.375
F1.0
tp962
sS'unnecessary'
p963
(F0.25
F0.25
F0.5
F0.25
F0.25
F0.5
tp964
sS'worstest'
p965
(F0.25
F0.75
F0.0
F0.25
F0.75
F0.0
tp966
sS'specific'
p967
(F0.0
F0.0
F1.0
F0.0
F0.0
F1.0
tp968
sS'moneysuper'
p969
g6
sS'notorious'
p970
(F0.0
F0.875
F0.125
F0.0
F0.875
F0.125
tp971
sS'beneficial'
p972
(F0.625
F0.0
F0.375
F0.625
F0.0
F0.375
tp973
sS'right'
p974
(F0.875
F0.25
F1.0
F0.875
F0.25
F1.0
tp975
sS'old'
p976
(F0.5
F0.375
F1.0
F0.5
F0.375
F1.0
tp977
sS'deal'
p978
(F0.0
F0.0
F1.0
I0
I0
I0
tp979
sS'callevery'
p980
g6
sS'dishonest'
p981
(F0.625
F0.875
F0.375
F0.625
F0.875
F0.375
tp982
sS'averagebattery'
p983
g6
sS'dead'
p984
(F0.625
F0.75
F1.0
F0.625
F0.75
F1.0
tp985
sS'awesomeworth'
p986
g6
sS'goodredmi'
p987
g6
sS'hassle'
p988
(F0.0
F0.5
F0.875
I0
I0
I0
tp989
sS'dear'
p990
(F0.75
F0.125
F1.0
F0.75
F0.125
F1.0
tp991
sS'surb'
p992
g6
sS'excellentgood'
p993
g6
sS'fot'
p994
g55
sS'totaly'
p995
g6
sS'bottom'
p996
(F0.25
F0.375
F1.0
F0.25
F0.375
F1.0
tp997
sS'stronger'
p998
(F0.75
F0.875
F1.0
F0.75
F0.875
F1.0
tp999
sS'notification'
p1000
(F0.0
F0.0
F1.0
I0
I0
I0
tp1001
sS'unavoidable'
p1002
(F0.0
F0.5
F0.5
F0.0
F0.5
F0.5
tp1003
sS'soonfast'
p1004
g6
sS'offcourse'
p1005
g29
sS'warmbest'
p1006
g6
sS'fon'
p1007
g6
sS'adorable'
p1008
(F0.5
F0.0
F0.5
F0.5
F0.0
F0.5
tp1009
sS'morevalue'
p1010
g6
sS'pls'
p1011
g55
sS'plz'
p1012
g55
sS'yetawesome'
p1013
g6
sS'ple'
p1014
g55
sS'cheating'
p1015
(F0.625
F0.75
F1.0
F0.375
F0.75
F0.25
tp1016
sS'post'
p1017
(F0.0
F0.25
F1.0
I0
I0
I0
tp1018
sS'super'
p1019
(F0.625
F0.375
F1.0
F0.625
F0.375
F0.875
tp1020
sS'permitted'
p1021
(F0.0
F0.25
F1.0
I0
I0
I0
tp1022
sS'underpowered'
p1023
g6
sS'fps'
p1024
(F0.0
F0.0
F1.0
I0
I0
I0
tp1025
sS'irtill'
p1026
g6
sS'months'
p1027
(F0.0
F0.0
F1.0
I0
I0
I0
tp1028
sS'o'
p1029
(F0.0
F0.0
F1.0
I0
I0
I0
tp1030
sS'trustworthy'
p1031
(F0.5
F0.0
F1.0
F0.5
F0.0
F1.0
tp1032
sS'unibody'
p1033
g29
sS'dinner'
p1034
(F0.0
F0.0
F1.0
I0
I0
I0
tp1035
sS'misleading'
p1036
(F0.125
F1.0
F0.75
F0.125
F0.75
F0.125
tp1037
sS'plus'
p1038
(F0.75
F0.0
F1.0
F0.75
F0.0
F1.0
tp1039
sS'continous'
p1040
g6
sS'moneydnt'
p1041
g6
sS'youafter'
p1042
g6
sS'connected'
p1043
(F0.0
F0.0
F1.0
F0.0
F0.0
F1.0
tp1044
sS'sept'
p1045
(F0.0
F0.0
F1.0
I0
I0
I0
tp1046
sS'produc'
p1047
g6
sS'compatable'
p1048
g6
sS'experienced'
p1049
(F0.5
F0.25
F1.0
F0.5
F0.0
F0.5
tp1050
sS'material'
p1051
(F0.5
F0.125
F1.0
F0.5
F0.125
F1.0
tp1052
sS'selfie'
p1053
g29
sS'delighted'
p1054
(F0.625
F0.75
F0.875
F0.5
F0.75
F0.25
tp1055
sS'soo'
p1056
g6
sS'poorfake'
p1057
g6
sS'low6'
p1058
g6
sS'thankful'
p1059
(F0.5
F0.25
F0.25
F0.5
F0.25
F0.25
tp1060
sS'overkill'
p1061
(F0.0
F0.25
F1.0
I0
I0
I0
tp1062
sS'everage'
p1063
g55
sS'formidable'
p1064
(F0.875
F0.0
F0.375
F0.875
F0.0
F0.375
tp1065
sS'wrust'
p1066
g6
sS'servish'
p1067
g6
sS'goodwould'
p1068
g6
sS'wan'
p1069
(F0.25
F0.625
F1.0
F0.25
F0.625
F0.5
tp1070
sS'centreits'
p1071
g6
sS'goodflyme'
p1072
g6
sS'productworst'
p1073
g6
sS'initial'
p1074
(F0.0
F0.0
F1.0
F0.0
F0.0
F1.0
tp1075
sS'sunlight'
p1076
(F0.0
F0.0
F1.0
I0
I0
I0
tp1077
sS'lags'
p1078
(F0.0
F0.0
F1.0
I0
I0
I0
tp1079
sS'avail'
p1080
(F0.5
F0.0
F1.0
I0
I0
I0
tp1081
sS'stuck'
p1082
(F0.25
F0.875
F1.0
F0.0
F0.0
F1.0
tp1083
sS'gid'
p1084
g6
sS'authorized'
p1085
(F0.125
F0.375
F1.0
F0.125
F0.375
F0.625
tp1086
sS'call'
p1087
(F0.375
F0.5
F1.0
I0
I0
I0
tp1088
sS'faultcoolpad'
p1089
g6
sS'launching'
p1090
(F0.0
F0.0
F1.0
I0
I0
I0
tp1091
sS'happy'
p1092
(F0.875
F0.0
F0.875
F0.875
F0.0
F0.875
tp1093
sS'lowest'
p1094
(F0.375
F0.875
F1.0
F0.375
F0.875
F1.0
tp1095
sS'havingnithishkaveripattinamkrishnagiri'
p1096
g6
sS'medium'
p1097
(F0.25
F0.25
F1.0
F0.0
F0.25
F1.0
tp1098
sS'amphs'
p1099
g6
sS'abysmal'
p1100
(F0.25
F0.25
F1.0
F0.25
F0.25
F1.0
tp1101
sS'offer'
p1102
(F0.25
F0.0
F1.0
I0
I0
I0
tp1103
sS'attempted'
p1104
(F0.0
F0.25
F1.0
F0.0
F0.25
F0.75
tp1105
sS'm2'
p1106
(F0.0
F0.0
F1.0
I0
I0
I0
tp1107
sS'okyesterday'
p1108
g6
sS'wireless'
p1109
(F0.0
F0.0
F1.0
F0.0
F0.0
F1.0
tp1110
sS'heat'
p1111
(F0.5
F0.25
F1.0
I0
I0
I0
tp1112
sS'hear'
p1113
(F0.0
F0.0
F1.0
I0
I0
I0
tp1114
sS'patient'
p1115
(F0.5
F0.5
F0.875
F0.5
F0.25
F0.25
tp1116
sS'true'
p1117
(F0.5
F0.375
F1.0
F0.5
F0.375
F1.0
tp1118
sS'absent'
p1119
(F0.375
F0.625
F1.0
F0.375
F0.625
F0.5
tp1120
sS'duel'
p1121
(F0.0
F0.0
F1.0
I0
I0
I0
tp1122
sS'vive'
p1123
g6
sS'fastbattery'
p1124
g6
sS'understood'
p1125
(F0.5
F0.0
F1.0
F0.5
F0.0
F0.75
tp1126
sS'musik'
p1127
g6
sS'inside'
p1128
(F0.125
F0.125
F1.0
F0.125
F0.125
F1.0
tp1129
sS'maximum'
p1130
(F0.5
F0.25
F1.0
F0.5
F0.25
F0.25
tp1131
sS'inbulit'
p1132
g6
sS'crystal'
p1133
(F0.25
F0.25
F1.0
I0
I0
I0
tp1134
sS'flkrt'
p1135
g6
sS'mighty'
p1136
(F0.375
F0.0
F0.875
F0.375
F0.0
F0.875
tp1137
sS'pendrive'
p1138
g55
sS'temper'
p1139
(F0.0
F0.5
F1.0
I0
I0
I0
tp1140
sS'camara'
p1141
g29
sS'proud'
p1142
(F0.75
F0.25
F0.375
F0.75
F0.25
F0.375
tp1143
sS'turbo'
p1144
g29
sS'request'
p1145
(F0.25
F0.0
F1.0
I0
I0
I0
tp1146
sS'redimi'
p1147
g6
sS'sticky'
p1148
(F0.125
F0.75
F1.0
F0.125
F0.75
F1.0
tp1149
sS'sometime'
p1150
(F0.0
F0.625
F1.0
F0.0
F0.625
F1.0
tp1151
sS'exist'
p1152
(F0.125
F0.0
F1.0
I0
I0
I0
tp1153
sS'promised'
p1154
(F0.0
F0.0
F1.0
I0
I0
I0
tp1155
sS'compative'
p1156
g6
sS'averagefingerprint'
p1157
g6
sS'mediocre'
p1158
(F0.25
F0.778
F0.125
F0.25
F0.778
F0.125
tp1159
sS'annoying'
p1160
(F0.0
F0.5
F1.0
F0.0
F0.5
F0.5
tp1161
sS'check'
p1162
(F0.5
F0.25
F1.0
I0
I0
I0
tp1163
sS'shit'
p1164
(F0.125
F0.625
F1.0
I0
I0
I0
tp1165
sS'physical'
p1166
(F0.5
F0.5
F1.0
F0.5
F0.5
F1.0
tp1167
sS'expectedi'
p1168
g6
sS'snappier'
p1169
(F0.375
F0.5
F0.75
F0.375
F0.5
F0.75
tp1170
sS'useis'
p1171
g6
sS'nc'
p1172
(F0.0
F0.0
F1.0
I0
I0
I0
tp1173
sS'nd'
p1174
(F0.0
F0.0
F1.0
I0
I0
I0
tp1175
sS'handed'
p1176
(F0.0
F0.0
F1.0
F0.0
F0.0
F1.0
tp1177
sS'evvening'
p1178
g55
sS'tottaly'
p1179
g6
sS'interested'
p1180
(F0.625
F0.125
F0.875
F0.625
F0.125
F0.875
tp1181
sS'digital'
p1182
(F0.125
F0.0
F1.0
F0.125
F0.0
F1.0
tp1183
sS'nt'
p1184
(F0.0
F0.0
F1.0
I0
I0
I0
tp1185
sS'problesawesome'
p1186
g6
sS'nw'
p1187
(F0.0
F0.0
F1.0
I0
I0
I0
tp1188
sS'picture'
p1189
(F0.0
F0.375
F1.0
I0
I0
I0
tp1190
sS'reconsider'
p1191
(F0.0
F0.0
F1.0
I0
I0
I0
tp1192
sS'a13'
p1193
g6
sS'delivered'
p1194
(F0.5
F0.25
F1.0
I0
I0
I0
tp1195
sS'meizuexcellent'
p1196
g6
sS'update'
p1197
(F0.0
F0.0
F1.0
I0
I0
I0
tp1198
sS'belive'
p1199
g55
sS'pathetic4'
p1200
g6
sS'exilent'
p1201
g29
sS'phns'
p1202
g29
sS'awesomevery'
p1203
g6
sS'lightin'
p1204
g6
sS'longer'
p1205
(F0.375
F0.5
F1.0
F0.375
F0.5
F1.0
tp1206
sS'heatingmobile'
p1207
g6
sS'pefect'
p1208
g6
sS'daily'
p1209
(F0.5
F0.375
F1.0
F0.5
F0.375
F1.0
tp1210
sS'soleworst'
p1211
g6
sS'gorilla'
p1212
(F0.0
F0.0
F1.0
I0
I0
I0
tp1213
sS'loyal'
p1214
(F0.5
F0.0
F0.875
F0.5
F0.0
F0.875
tp1215
sS'cheater'
p1216
(F0.0
F0.0
F1.0
I0
I0
I0
tp1217
sS'qualityawesome'
p1218
g6
sS'phenomenal'
p1219
(F0.375
F0.0
F1.0
F0.375
F0.0
F1.0
tp1220
sS'serious'
p1221
(F0.75
F0.75
F0.875
F0.75
F0.75
F0.875
tp1222
sS'sony'
p1223
g6
sS'usedall'
p1224
g6
sS'audiable'
p1225
g6
sS'rom'
p1226
(F0.0
F0.0
F1.0
I0
I0
I0
tp1227
sS'remarkable'
p1228
(F0.375
F0.25
F0.625
F0.375
F0.25
F0.625
tp1229
sS'global'
p1230
(F0.125
F0.375
F0.875
F0.125
F0.375
F0.875
tp1231
sS'satisfiedwith'
p1232
g6
sS'mild'
p1233
(F1.0
F0.125
F0.75
F1.0
F0.125
F0.75
tp1234
sS'osm'
p1235
g6
sS'grateful'
p1236
(F0.5
F0.375
F0.25
F0.5
F0.375
F0.25
tp1237
sS'heatingpoor'
p1238
g6
sS'ros'
p1239
(F0.0
F0.0
F1.0
I0
I0
I0
tp1240
sS'recharge'
p1241
(F0.0
F0.0
F1.0
I0
I0
I0
tp1242
sS'poori'
p1243
g6
sS'unremovable'
p1244
g55
sS'depend'
p1245
(F0.25
F0.0
F1.0
I0
I0
I0
tp1246
sS'goodbadwifi'
p1247
g6
sS'removeable'
p1248
g55
sS'flash'
p1249
(F0.375
F0.5
F1.0
F0.0
F0.5
F0.5
tp1250
sS'daysthe'
p1251
g6
sS'uninstallable'
p1252
g6
sS'satisfiedexcellent'
p1253
g6
sS'charge'
p1254
(F0.25
F0.375
F1.0
I0
I0
I0
tp1255
sS'unpleasant'
p1256
(F0.125
F0.625
F0.25
F0.125
F0.625
F0.25
tp1257
sS'dissatisfied'
p1258
(F0.125
F0.5
F0.875
F0.0
F0.5
F0.5
tp1259
sS'managable'
p1260
g6
sS'suberb'
p1261
g6
sS'downloading'
p1262
(F0.0
F0.0
F1.0
I0
I0
I0
tp1263
sS'prepaid'
p1264
(F0.0
F0.0
F1.0
F0.0
F0.0
F1.0
tp1265
sS'sayng'
p1266
g6
sS'openrd'
p1267
g6
sS'usewill'
p1268
g6
sS'rangebest'
p1269
g6
sS'handalle'
p1270
g6
sS'sud'
p1271
g6
sS'exact'
p1272
(F0.125
F0.0
F1.0
F0.125
F0.0
F1.0
tp1273
sS'feeble'
p1274
(F0.375
F0.5
F0.5
F0.375
F0.5
F0.5
tp1275
sS'cool'
p1276
(F0.5
F0.5
F1.0
F0.5
F0.5
F1.0
tp1277
sS'dim'
p1278
(F0.375
F0.75
F0.875
F0.375
F0.75
F0.75
tp1279
sS'impressive'
p1280
(F0.375
F0.0
F0.875
F0.375
F0.0
F0.875
tp1281
sS'gud'
p1282
g29
sS'die'
p1283
(F0.25
F0.375
F1.0
I0
I0
I0
tp1284
sS'fragile'
p1285
(F0.25
F0.625
F1.0
F0.25
F0.625
F1.0
tp1286
sS'solved'
p1287
(F0.0
F0.0
F1.0
F0.0
F0.0
F1.0
tp1288
sS'fornt'
p1289
g6
sS'subway'
p1290
(F0.0
F0.0
F1.0
I0
I0
I0
tp1291
sS'team'
p1292
(F0.0
F0.0
F1.0
I0
I0
I0
tp1293
sS'quick'
p1294
(F0.25
F0.25
F1.0
F0.25
F0.25
F1.0
tp1295
sS'quich'
p1296
g29
sS'poor5'
p1297
g6
sS'round'
p1298
(F0.375
F0.25
F1.0
F0.375
F0.25
F1.0
tp1299
sS'unaware'
p1300
(F0.0
F0.25
F0.75
F0.0
F0.25
F0.75
tp1301
sS'dis'
p1302
(F0.0
F0.0
F1.0
I0
I0
I0
tp1303
sS'upper'
p1304
(F0.75
F0.0
F1.0
F0.75
F0.0
F1.0
tp1305
sS'talked'
p1306
(F0.0
F0.0
F1.0
I0
I0
I0
tp1307
sS'htc'
p1308
g6
sS'regret'
p1309
(F0.0
F0.875
F1.0
I0
I0
I0
tp1310
sS'run'
p1311
(F0.5
F0.5
F1.0
I0
I0
I0
tp1312
sS'helpless'
p1313
(F0.0
F0.875
F0.5
F0.0
F0.875
F0.5
tp1314
sS'dolby'
p1315
(F0.0
F0.0
F1.0
I0
I0
I0
tp1316
sS'usepros'
p1317
g6
sS'irritated'
p1318
(F0.375
F0.625
F1.0
F0.0
F0.625
F0.375
tp1319
sS'headset'
p1320
(F0.0
F0.0
F1.0
I0
I0
I0
tp1321
sS'loudspeakr'
p1322
g55
sS'current'
p1323
(F0.0
F0.0
F1.0
F0.0
F0.0
F1.0
tp1324
sS'hdfc'
p1325
g6
sS'optional'
p1326
(F0.0
F0.0
F1.0
F0.0
F0.0
F1.0
tp1327
sS'international'
p1328
(F0.0
F0.5
F1.0
F0.0
F0.5
F0.875
tp1329
sS'freaky'
p1330
(F0.0
F0.25
F0.75
F0.0
F0.25
F0.75
tp1331
sS'heatedexcellent'
p1332
g6
sS'itthis'
p1333
g6
sS'satisfy'
p1334
(F0.5
F0.0
F0.875
I0
I0
I0
tp1335
sS'dullso'
p1336
g6
sS'awesomebuild'
p1337
g6
sS'sweeter'
p1338
(F0.875
F0.75
F1.0
F0.875
F0.75
F1.0
tp1339
sS'somethingbest'
p1340
g6
sS'understanding'
p1341
(F0.5
F0.125
F1.0
F0.5
F0.125
F0.375
tp1342
sS'water'
p1343
(F0.125
F0.125
F1.0
I0
I0
I0
tp1344
sS'downloaded'
p1345
(F0.0
F0.0
F1.0
I0
I0
I0
tp1346
sS'slow'
p1347
(F0.0
F0.5
F1.0
F0.0
F0.5
F1.0
tp1348
sS'bestexpandable'
p1349
g6
sS'alone'
p1350
(F0.375
F0.25
F1.0
F0.375
F0.25
F1.0
tp1351
sS'change'
p1352
(F0.625
F0.375
F1.0
I0
I0
I0
tp1353
sS'wait'
p1354
(F0.0
F0.25
F1.0
I0
I0
I0
tp1355
sS'box'
p1356
(F0.5
F0.125
F1.0
I0
I0
I0
tp1357
sS'asalpht8'
p1358
g6
sS'incoming'
p1359
(F0.0
F0.0
F1.0
F0.0
F0.0
F1.0
tp1360
sS'noticeable'
p1361
(F0.625
F0.125
F0.875
F0.625
F0.125
F0.875
tp1362
sS'brilliant'
p1363
(F0.875
F0.25
F1.0
F0.875
F0.25
F1.0
tp1364
sS'specialized'
p1365
(F0.375
F0.0
F1.0
F0.0
F0.0
F1.0
tp1366
sS'problemfor'
p1367
g6
sS'simultaneous'
p1368
(F0.0
F0.0
F1.0
F0.0
F0.0
F1.0
tp1369
sS'heatinglow'
p1370
g6
sS'worthful'
p1371
(F0.625
F0.0
F0.375
F0.625
F0.0
F0.375
tp1372
sS'weird'
p1373
(F0.5
F0.75
F1.0
F0.5
F0.75
F0.5
tp1374
sS'vesry'
p1375
g55
sS'bearable'
p1376
(F0.125
F0.75
F0.125
F0.125
F0.75
F0.125
tp1377
sS'priceawesome'
p1378
g6
sS'purchaser'
p1379
(F0.0
F0.0
F1.0
I0
I0
I0
tp1380
sS'adjustable'
p1381
(F0.625
F0.0
F0.875
F0.625
F0.0
F0.875
tp1382
sS'useful'
p1383
(F0.0
F0.0
F1.0
F0.0
F0.0
F1.0
tp1384
sS'helpthe'
p1385
g6
sS'extra'
p1386
(F0.375
F0.5
F1.0
F0.375
F0.5
F1.0
tp1387
sS'problematic'
p1388
(F0.0
F0.5
F1.0
F0.0
F0.5
F1.0
tp1389
sS'excellentbattery'
p1390
g6
sS'inls'
p1391
g6
sS'bloody'
p1392
(F0.125
F0.25
F1.0
F0.125
F0.25
F0.75
tp1393
sS'customised'
p1394
(F0.0
F0.0
F1.0
I0
I0
I0
tp1395
sS'marvelous'
p1396
(F0.75
F0.375
F0.625
F0.75
F0.375
F0.625
tp1397
sS'paralyzed'
p1398
(F0.0
F0.5
F0.75
F0.0
F0.5
F0.5
tp1399
sS'possiblegood'
p1400
g6
sS'1st'
p1401
(F0.0
F0.0
F1.0
F0.0
F0.0
F1.0
tp1402
sS'prompt'
p1403
(F0.25
F0.0
F1.0
F0.25
F0.0
F1.0
tp1404
sS'monthfirst'
p1405
g6
sS'challenging'
p1406
(F0.5
F0.5
F1.0
F0.5
F0.5
F0.875
tp1407
sS'thro'
p1408
g29
sS'working'
p1409
(F0.375
F0.25
F1.0
F0.25
F0.25
F1.0
tp1410
sS'memori'
p1411
g6
sS'touchable'
p1412
(F0.5
F0.0
F0.5
F0.5
F0.0
F0.5
tp1413
sS'positive'
p1414
(F0.75
F0.875
F1.0
F0.75
F0.875
F1.0
tp1415
sS'angry'
p1416
(F0.375
F0.875
F0.25
F0.375
F0.875
F0.25
tp1417
sS'mst'
p1418
(F0.0
F0.0
F1.0
I0
I0
I0
tp1419
sS'aya'
p1420
g6
sS'live'
p1421
(F0.625
F0.0
F1.0
F0.625
F0.0
F1.0
tp1422
sS'os'
p1423
(F0.0
F0.125
F1.0
I0
I0
I0
tp1424
sS'memory'
p1425
(F0.125
F0.0
F1.0
I0
I0
I0
tp1426
sS'mobilesexcellent'
p1427
g6
sS'prev'
p1428
g55
sS'quickly2'
p1429
g6
sS'mobileawesome'
p1430
g6
sS'sleeky'
p1431
g6
sS'acceptable'
p1432
(F0.625
F0.0
F0.875
F0.625
F0.0
F0.875
tp1433
sS'clue'
p1434
(F0.0
F0.0
F1.0
I0
I0
I0
tp1435
sS'upgradable'
p1436
g55
sS'visual'
p1437
(F0.0
F0.375
F1.0
F0.0
F0.375
F1.0
tp1438
sS'rigid'
p1439
(F0.125
F0.75
F1.0
F0.125
F0.75
F1.0
tp1440
sS'pricegood'
p1441
g6
sS'probexcellent'
p1442
g6
sS'phoneexcellent'
p1443
g6
sS'tampared'
p1444
g6
sS'graphic'
p1445
(F0.625
F0.0
F1.0
F0.625
F0.0
F1.0
tp1446
sS'slogan'
p1447
(F0.0
F0.0
F1.0
I0
I0
I0
tp1448
sS'probleman'
p1449
g6
sS'dialed'
p1450
(F0.0
F0.0
F1.0
I0
I0
I0
tp1451
sS'overloaded'
p1452
(F0.0
F0.125
F1.0
F0.0
F0.125
F0.875
tp1453
sS'allit'
p1454
g6
sS'reviews'
p1455
(F0.125
F0.0
F1.0
I0
I0
I0
tp1456
sS'exaggerated'
p1457
(F0.625
F0.5
F0.875
F0.125
F0.5
F0.875
tp1458
sS'slowness'
p1459
(F0.0
F0.5
F0.75
I0
I0
I0
tp1460
sS'cal'
p1461
g55
sS'following'
p1462
(F0.375
F0.0
F1.0
F0.125
F0.0
F1.0
tp1463
sS'goodall'
p1464
(F0.0
F0.0
F1.0
I0
I0
I0
tp1465
sS'slightest'
p1466
(F0.5
F0.375
F1.0
F0.5
F0.375
F1.0
tp1467
sS'usability'
p1468
(F0.5
F0.0
F0.5
I0
I0
I0
tp1469
sS'nearest'
p1470
(F0.5
F0.5
F1.0
F0.5
F0.5
F1.0
tp1471
sS'crazy'
p1472
(F0.625
F0.5
F0.75
F0.625
F0.5
F0.75
tp1473
sS'fastadaptive'
p1474
g6
sS'poorfor'
p1475
g6
sS'nexus'
p1476
(F0.0
F0.0
F1.0
I0
I0
I0
tp1477
sS'awesome'
p1478
(F0.875
F0.125
F0.0
F0.875
F0.125
F0.0
tp1479
sS'confused'
p1480
(F0.25
F0.75
F1.0
F0.125
F0.75
F1.0
tp1481
sS'soonperfect'
p1482
g6
sS'sample'
p1483
(F0.0
F0.0
F1.0
I0
I0
I0
tp1484
sS'surround'
p1485
(F0.125
F0.125
F1.0
I0
I0
I0
tp1486
sS'moneylow'
p1487
g6
sS'neglibile'
p1488
g6
sS'awesomr'
p1489
g55
sS'productive'
p1490
(F0.625
F0.0
F1.0
F0.625
F0.0
F1.0
tp1491
sS'networkonly'
p1492
g6
sS's7'
p1493
g6
sS'snapdragon'
p1494
(F0.0
F0.0
F1.0
I0
I0
I0
tp1495
sS'write'
p1496
(F0.0
F0.0
F1.0
I0
I0
I0
tp1497
sS'till'
p1498
(F0.0
F0.0
F1.0
I0
I0
I0
tp1499
sS'vital'
p1500
(F0.5
F0.25
F1.0
F0.5
F0.25
F1.0
tp1501
sS'actual'
p1502
(F0.5
F0.5
F0.875
F0.5
F0.5
F0.875
tp1503
sS'pure'
p1504
(F0.625
F0.75
F1.0
F0.625
F0.75
F1.0
tp1505
sS'nyc'
p1506
g29
sS'autofocus'
p1507
(F0.0
F0.0
F1.0
I0
I0
I0
tp1508
sS'orginal'
p1509
g55
sS'unbelievable'
p1510
(F0.0
F0.5
F1.0
F0.0
F0.5
F1.0
tp1511
sS'irrational'
p1512
(F0.125
F0.5
F1.0
F0.125
F0.5
F1.0
tp1513
sS'max'
p1514
(F0.0
F0.0
F1.0
I0
I0
I0
tp1515
sS'bestfront'
p1516
g6
sS'respective'
p1517
(F0.25
F0.0
F0.75
F0.25
F0.0
F0.75
tp1518
sS'birthday'
p1519
(F0.0
F0.0
F1.0
I0
I0
I0
tp1520
sS'mad'
p1521
(F0.5
F0.5
F0.875
F0.5
F0.5
F0.875
tp1522
sS'drastic'
p1523
(F0.375
F0.375
F0.25
F0.375
F0.375
F0.25
tp1524
sS'guys'
p1525
(F0.0
F0.0
F1.0
I0
I0
I0
tp1526
sS'times'
p1527
(F0.75
F0.0
F1.0
I0
I0
I0
tp1528
sS'stress'
p1529
(F0.25
F0.375
F1.0
I0
I0
I0
tp1530
sS'surfing'
p1531
(F0.0
F0.5
F1.0
I0
I0
I0
tp1532
sS'natural'
p1533
(F0.375
F0.625
F1.0
F0.375
F0.625
F1.0
tp1534
sS'drained'
p1535
(F0.0
F0.25
F1.0
F0.0
F0.0
F1.0
tp1536
sS'conscious'
p1537
(F0.625
F0.25
F0.625
F0.625
F0.25
F0.625
tp1538
sS'facile'
p1539
(F0.5
F0.5
F0.5
F0.5
F0.5
F0.5
tp1540
sS'sw'
p1541
(F0.0
F0.0
F1.0
I0
I0
I0
tp1542
sS'ghz'
p1543
(F0.0
F0.125
F0.875
I0
I0
I0
tp1544
sS'fluent'
p1545
(F0.375
F0.125
F0.875
F0.375
F0.125
F0.875
tp1546
sS'poornot'
p1547
g6
sS'si'
p1548
(F0.0
F0.0
F1.0
I0
I0
I0
tp1549
sS'so'
p1550
(F0.0
F0.0
F1.0
F0.0
F0.0
F1.0
tp1551
sS'bqttery'
p1552
g6
sS'tall'
p1553
(F0.5
F0.875
F1.0
F0.5
F0.875
F0.5
tp1554
sS'typical'
p1555
(F0.5
F0.0
F1.0
F0.5
F0.0
F1.0
tp1556
sS'refund'
p1557
(F0.0
F0.0
F1.0
I0
I0
I0
tp1558
sS'cute'
p1559
(F0.625
F0.0
F0.5
F0.625
F0.0
F0.5
tp1560
sS'approx'
p1561
g29
sS'early2'
p1562
g6
sS'unacceptable'
p1563
(F0.375
F0.875
F0.625
F0.375
F0.875
F0.625
tp1564
sS'lst'
p1565
g6
sS'phoneits'
p1566
g6
sS'exp'
p1567
g6
sS'no1'
p1568
g6
sS'avid'
p1569
(F0.5
F0.25
F0.5
F0.5
F0.25
F0.5
tp1570
sS'disconnect'
p1571
(F0.0
F0.25
F1.0
I0
I0
I0
tp1572
sS'thank'
p1573
(F0.0
F0.0
F1.0
I0
I0
I0
tp1574
sS'interesting'
p1575
(F0.625
F0.125
F0.875
F0.375
F0.0
F0.625
tp1576
sS'hot'
p1577
(F0.75
F0.75
F1.0
F0.75
F0.75
F1.0
tp1578
sS'thanx'
p1579
g55
sS'ly'
p1580
g6
sS'main'
p1581
(F0.375
F0.375
F1.0
F0.375
F0.375
F0.75
tp1582
sS'ppi'
p1583
g55
sS'non'
p1584
(F0.0
F0.625
F0.375
F0.0
F0.625
F0.375
tp1585
sS'okish'
p1586
g6
sS'rebootingworth'
p1587
g6
sS'belowe'
p1588
g6
sS'awesomepoor'
p1589
g6
sS'killer'
p1590
(F0.0
F0.375
F1.0
I0
I0
I0
tp1591
sS'shatter'
p1592
(F0.0
F0.0
F1.0
I0
I0
I0
tp1593
sS'dischage'
p1594
g6
sS'inthis'
p1595
g6
sS'intellectual'
p1596
(F0.875
F0.25
F1.0
F0.875
F0.25
F0.5
tp1597
sS'gorilaa'
p1598
g6
sS'half'
p1599
(F0.0
F0.375
F1.0
F0.0
F0.375
F1.0
tp1600
sS'widespread'
p1601
(F0.0
F0.0
F1.0
F0.0
F0.0
F1.0
tp1602
sS'wont'
p1603
(F0.0
F0.0
F1.0
I0
I0
I0
tp1604
sS'down'
p1605
(F0.5
F0.875
F1.0
F0.5
F0.875
F1.0
tp1606
sS'name'
p1607
(F0.5
F0.125
F1.0
I0
I0
I0
tp1608
sS'goodfront'
p1609
g6
sS'didn'
p1610
g6
sS'realistic'
p1611
(F0.375
F0.625
F1.0
F0.375
F0.625
F1.0
tp1612
sS'orher'
p1613
g6
sS'repaired'
p1614
(F0.25
F0.125
F1.0
I0
I0
I0
tp1615
sS'hotan'
p1616
g6
sS'flipkart'
p1617
g29
sS'owsom'
p1618
g6
sS'r'
p1619
(F0.0
F0.0
F1.0
I0
I0
I0
tp1620
sS'yeaa'
p1621
g6
sS'itgood'
p1622
g6
sS'secondary'
p1623
(F0.333
F0.75
F1.0
F0.333
F0.75
F0.75
tp1624
sS'amazonyour'
p1625
g6
sS'eg'
p1626
g6
sS'torch'
p1627
(F0.0
F0.125
F1.0
I0
I0
I0
tp1628
sS'abnormal'
p1629
(F0.5
F0.75
F0.75
F0.5
F0.75
F0.75
tp1630
sS'yeah'
p1631
(F0.0
F0.0
F1.0
F0.0
F0.0
F1.0
tp1632
sS'iternal'
p1633
g6
sS'unlock'
p1634
(F0.25
F0.0
F1.0
I0
I0
I0
tp1635
sS'ft'
p1636
(F0.0
F0.0
F1.0
I0
I0
I0
tp1637
sS'happen'
p1638
(F0.0
F0.375
F1.0
I0
I0
I0
tp1639
sS'summary'
p1640
(F0.375
F0.125
F1.0
F0.375
F0.125
F0.875
tp1641
sS'unbelievablevolte'
p1642
g6
sS'predefined'
p1643
g6
sS'updxiaomi'
p1644
g6
sS'opened'
p1645
(F0.0
F0.75
F1.0
F0.0
F0.75
F1.0
tp1646
sS'unsupportable'
p1647
(F0.0
F0.625
F0.375
F0.0
F0.625
F0.375
tp1648
sS'factory'
p1649
(F0.0
F0.0
F1.0
I0
I0
I0
tp1650
sS'presnt'
p1651
g6
sS'nominal'
p1652
(F0.0
F0.125
F1.0
F0.0
F0.125
F1.0
tp1653
sS'internet'
p1654
(F0.0
F0.0
F1.0
I0
I0
I0
tp1655
sS'diffrnt'
p1656
g6
sS'sensor'
p1657
(F0.0
F0.0
F1.0
I0
I0
I0
tp1658
sS'correct'
p1659
(F0.625
F0.75
F1.0
F0.625
F0.125
F0.375
tp1660
sS'lag'
p1661
(F0.0
F0.0
F1.0
I0
I0
I0
tp1662
sS'monster'
p1663
(F0.0
F0.5
F1.0
I0
I0
I0
tp1664
sS'hefty'
p1665
(F0.125
F0.0
F1.0
F0.125
F0.0
F1.0
tp1666
sS'badand'
p1667
g6
sS'seventh'
p1668
(F0.0
F0.0
F1.0
F0.0
F0.0
F1.0
tp1669
sS'quite'
p1670
(F0.5
F0.625
F0.5
F0.5
F0.625
F0.5
tp1671
sS'unfriendly'
p1672
(F0.25
F0.875
F0.625
F0.25
F0.875
F0.625
tp1673
sS'unwanted'
p1674
(F0.125
F0.5
F0.75
F0.125
F0.5
F0.75
tp1675
sS'nightmarish'
p1676
(F0.25
F0.625
F0.125
F0.25
F0.625
F0.125
tp1677
sS'ominous'
p1678
(F0.25
F0.75
F0.25
F0.25
F0.75
F0.25
tp1679
sS'inevitable'
p1680
(F0.0
F0.625
F1.0
F0.0
F0.625
F1.0
tp1681
sS'card'
p1682
(F0.125
F0.0
F1.0
I0
I0
I0
tp1683
sS'bloatware'
p1684
g55
sS'advance'
p1685
(F0.5
F0.125
F1.0
F0.125
F0.0
F1.0
tp1686
sS'beautify'
p1687
(F0.5
F0.0
F1.0
I0
I0
I0
tp1688
sS'bizzare'
p1689
g6
sS'standby'
p1690
(F0.375
F0.0
F1.0
F0.25
F0.0
F0.75
tp1691
sS'headphones'
p1692
(F0.0
F0.0
F1.0
I0
I0
I0
tp1693
sS'honest'
p1694
(F0.75
F0.625
F0.625
F0.75
F0.625
F0.625
tp1695
sS'usedgreat'
p1696
g6
sS'massive'
p1697
(F0.0
F0.0
F1.0
F0.0
F0.0
F1.0
tp1698
sS'think'
p1699
(F0.75
F0.125
F1.0
I0
I0
I0
tp1700
sS'frequent'
p1701
(F0.125
F0.0
F1.0
F0.125
F0.0
F1.0
tp1702
sS'first'
p1703
(F0.625
F0.0
F1.0
F0.625
F0.0
F1.0
tp1704
sS'wonderfulbill'
p1705
g6
sS'striking'
p1706
(F0.25
F0.125
F1.0
F0.25
F0.125
F0.75
tp1707
sS'itthe'
p1708
g6
sS'long'
p1709
(F0.375
F0.5
F1.0
F0.375
F0.5
F1.0
tp1710
sS'overheating'
p1711
(F0.0
F0.625
F0.875
I0
I0
I0
tp1712
sS'impossible'
p1713
(F0.5
F0.75
F0.875
F0.5
F0.75
F0.625
tp1714
sS'ring'
p1715
(F0.125
F0.0
F1.0
I0
I0
I0
tp1716
sS'open'
p1717
(F0.5
F0.75
F1.0
F0.5
F0.75
F1.0
tp1718
sS'oudoor'
p1719
g29
sS'iam'
p1720
g29
sS'gig'
p1721
(F0.0
F0.0
F1.0
I0
I0
I0
tp1722
sS'little'
p1723
(F0.125
F0.75
F1.0
F0.125
F0.75
F1.0
tp1724
sS'checked'
p1725
(F0.5
F0.25
F1.0
F0.0
F0.0
F1.0
tp1726
sS'silent'
p1727
(F0.5
F0.625
F1.0
F0.5
F0.625
F1.0
tp1728
sS'virgin'
p1729
(F0.25
F0.125
F1.0
F0.25
F0.0
F1.0
tp1730
sS'good5'
p1731
g6
sS'callous'
p1732
(F0.125
F0.25
F0.875
F0.125
F0.25
F0.875
tp1733
sS'plastic'
p1734
(F0.5
F0.0
F1.0
F0.5
F0.0
F1.0
tp1735
sS'u.'
p1736
g6
sS'flipakart'
p1737
g55
sS'white'
p1738
(F0.75
F0.5
F1.0
F0.75
F0.5
F1.0
tp1739
sS'hugeonly'
p1740
g6
sS'lenovno'
p1741
g6
sS'happyworst'
p1742
g6
sS'courier'
p1743
(F0.0
F0.0
F1.0
I0
I0
I0
tp1744
sS'poorvery'
p1745
g6
sS'continuous'
p1746
(F0.0
F0.5
F1.0
F0.0
F0.5
F1.0
tp1747
sS'smooth4'
p1748
g6
sS'featuresgreat'
p1749
g6
sS'ridiculous'
p1750
(F0.625
F0.625
F0.375
F0.625
F0.625
F0.375
tp1751
sS'antic'
p1752
(F0.5
F0.25
F0.75
F0.375
F0.0
F0.625
tp1753
sS'minimalistic'
p1754
g29
sS'notevery'
p1755
g6
sS'quad'
p1756
(F0.0
F0.0
F1.0
I0
I0
I0
tp1757
sS'veery'
p1758
(F0.0
F0.0
F1.0
I0
I0
I0
tp1759
sS'than'
p1760
g6
sS'wide'
p1761
(F0.375
F0.625
F1.0
F0.375
F0.625
F1.0
tp1762
sS'sopk'
p1763
g6
sS'rugged'
p1764
(F0.125
F0.875
F1.0
F0.125
F0.875
F1.0
tp1765
sS'third'
p1766
(F0.0
F0.0
F1.0
F0.0
F0.0
F1.0
tp1767
sS'greatpar'
p1768
g6
sS'future'
p1769
(F0.25
F0.125
F1.0
F0.25
F0.125
F1.0
tp1770
sS'fakesleek'
p1771
g6
sS'glossy'
p1772
(F0.5
F0.375
F1.0
F0.5
F0.375
F1.0
tp1773
sS'issubest'
p1774
g6
sS'aesthetic'
p1775
(F0.875
F0.0
F1.0
F0.875
F0.0
F1.0
tp1776
sS'deffective'
p1777
g6
sS'userthe'
p1778
g6
sS'pre'
p1779
g6
sS'ane'
p1780
(F0.0
F0.25
F0.75
F0.0
F0.25
F0.75
tp1781
sS'pro'
p1782
(F0.0
F0.0
F1.0
F0.0
F0.0
F1.0
tp1783
sS'premier'
p1784
(F0.25
F0.25
F1.0
F0.25
F0.25
F1.0
tp1785
sS'sad'
p1786
(F0.125
F1.0
F0.75
F0.125
F1.0
F0.75
tp1787
sS'ant'
p1788
(F0.0
F0.0
F1.0
I0
I0
I0
tp1789
sS'prestigious'
p1790
(F0.75
F0.0
F0.5
F0.75
F0.0
F0.5
tp1791
sS'uninterrupted'
p1792
(F0.0
F0.0
F1.0
F0.0
F0.0
F1.0
tp1793
sS'sar'
p1794
g6
sS'occupied'
p1795
(F0.375
F0.25
F1.0
F0.125
F0.25
F1.0
tp1796
sS'adter'
p1797
g6
sS'phonethis'
p1798
g6
sS'efficient'
p1799
(F0.5
F0.375
F0.5
F0.5
F0.375
F0.5
tp1800
sS'shocked'
p1801
(F0.375
F0.5
F1.0
F0.25
F0.0
F0.75
tp1802
sS'note'
p1803
(F0.875
F0.25
F1.0
I0
I0
I0
tp1804
sS'ideal'
p1805
(F0.75
F0.0
F1.0
F0.75
F0.0
F1.0
tp1806
sS'potential'
p1807
(F0.0
F0.25
F1.0
F0.0
F0.25
F0.75
tp1808
sS'online'
p1809
(F0.0
F0.0
F1.0
F0.0
F0.0
F1.0
tp1810
sS'registered'
p1811
(F0.375
F0.0
F1.0
F0.0
F0.0
F1.0
tp1812
sS'skceptic'
p1813
g6
sS'sure'
p1814
(F0.625
F0.625
F1.0
F0.625
F0.625
F1.0
tp1815
sS'multiple'
p1816
(F0.0
F0.0
F1.0
F0.0
F0.0
F1.0
tp1817
sS'collpad'
p1818
g6
sS'normal'
p1819
(F0.5
F0.5
F1.0
F0.5
F0.5
F1.0
tp1820
sS'sloly'
p1821
g6
sS'form'
p1822
(F0.375
F0.0
F1.0
I0
I0
I0
tp1823
sS'hellcontonuous'
p1824
g6
sS'execellent'
p1825
g6
sS'unistallable'
p1826
g55
sS'faje'
p1827
g6
sS'battary'
p1828
g55
sS'surprising'
p1829
(F0.125
F0.625
F1.0
F0.0
F0.625
F0.375
tp1830
sS'average'
p1831
(F0.375
F0.625
F1.0
F0.375
F0.625
F1.0
tp1832
sS'later'
p1833
(F0.125
F0.25
F1.0
F0.125
F0.25
F1.0
tp1834
sS'steady'
p1835
(F0.375
F0.75
F1.0
F0.375
F0.75
F1.0
tp1836
sS'hungry'
p1837
(F0.125
F0.5
F0.75
F0.125
F0.5
F0.75
tp1838
sS'everry'
p1839
g29
sS'phonemuch'
p1840
g6
sS'iski'
p1841
g6
sS'itlow'
p1842
g6
sS'launchingnicebut'
p1843
g6
sS'professional'
p1844
(F0.25
F0.125
F1.0
F0.25
F0.0
F1.0
tp1845
sS'senior'
p1846
(F0.5
F0.0
F1.0
F0.5
F0.0
F1.0
tp1847
sS'iska'
p1848
g6
sS'width'
p1849
(F0.0
F0.0
F1.0
I0
I0
I0
tp1850
sS'badi'
p1851
g6
sS'precise'
p1852
(F0.75
F0.0
F0.875
F0.75
F0.0
F0.875
tp1853
sS'show'
p1854
(F0.5
F0.0
F1.0
I0
I0
I0
tp1855
sS'geniun'
p1856
g55
sS'cheap'
p1857
(F0.125
F0.875
F0.75
F0.125
F0.875
F0.75
tp1858
sS'bright'
p1859
(F0.75
F0.75
F1.0
F0.75
F0.75
F1.0
tp1860
sS'inconsistent'
p1861
(F0.25
F0.75
F0.5
F0.25
F0.75
F0.5
tp1862
sS'aggressive'
p1863
(F0.5
F0.25
F1.0
F0.5
F0.25
F1.0
tp1864
sS'everywherehas'
p1865
g6
sS'maine'
p1866
(F0.0
F0.0
F1.0
I0
I0
I0
tp1867
sS'fifth'
p1868
(F0.0
F0.0
F1.0
F0.0
F0.0
F1.0
tp1869
sS'everyyy'
p1870
g6
sS'waited'
p1871
(F0.0
F0.25
F1.0
I0
I0
I0
tp1872
sS'upgrade'
p1873
(F0.5
F0.125
F1.0
I0
I0
I0
tp1874
sS'lagsno'
p1875
g6
sS'recomended'
p1876
g6
sS'outside'
p1877
(F0.125
F0.125
F1.0
F0.125
F0.125
F1.0
tp1878
sS'dull'
p1879
(F0.5
F0.5
F1.0
F0.375
F0.5
F1.0
tp1880
sS'only'
p1881
(F0.25
F0.25
F1.0
F0.25
F0.25
F1.0
tp1882
sS'theatremax'
p1883
g6
sS'black'
p1884
(F0.25
F0.75
F1.0
F0.25
F0.75
F1.0
tp1885
sS'backalso'
p1886
g6
sS'probablya'
p1887
g55
sS'jellybean'
p1888
g29
sS'vary'
p1889
(F0.125
F0.375
F1.0
I0
I0
I0
tp1890
sS'exellent'
p1891
g6
sS'ki'
p1892
(F0.25
F0.0
F1.0
I0
I0
I0
tp1893
sS'truly'
p1894
(F0.625
F0.125
F1.0
F0.625
F0.125
F1.0
tp1895
sS'lighter'
p1896
(F0.625
F0.625
F1.0
F0.625
F0.625
F1.0
tp1897
sS'ita'
p1898
g55
sS'uninstalled'
p1899
g55
sS'freaking'
p1900
(F0.0
F0.0
F1.0
I0
I0
I0
tp1901
sS'prime'
p1902
(F0.625
F0.25
F1.0
F0.625
F0.25
F1.0
tp1903
sS'awaited'
p1904
(F0.25
F0.25
F0.75
F0.25
F0.0
F0.75
tp1905
sS'leight'
p1906
g6
sS'sametimeexecellent'
p1907
g6
sS'buyunbearable'
p1908
g6
sS'wellcamera'
p1909
g6
sS'leather'
p1910
(F0.125
F0.0
F1.0
I0
I0
I0
tp1911
sS'upthe'
p1912
g6
sS'thermal'
p1913
(F0.0
F0.0
F1.0
F0.0
F0.0
F1.0
tp1914
sS'worried'
p1915
(F0.375
F0.875
F1.0
F0.0
F0.875
F0.25
tp1916
sS'finemusic'
p1917
g6
sS'stupid'
p1918
(F0.0
F0.75
F0.875
F0.0
F0.75
F0.875
tp1919
sS'finishing'
p1920
(F0.0
F0.125
F1.0
I0
I0
I0
tp1921
sS'superr'
p1922
g6
sS'longvery'
p1923
g6
sS'user'
p1924
(F0.0
F0.0
F1.0
I0
I0
I0
tp1925
sS'badbut'
p1926
g6
sS'oven'
p1927
(F0.0
F0.0
F1.0
I0
I0
I0
tp1928
sS'fastbaterry'
p1929
g6
sS'innovative'
p1930
(F0.625
F0.0
F0.5
F0.625
F0.0
F0.5
tp1931
sS'excllent'
p1932
g55
sS'stylist'
p1933
(F0.125
F0.0
F1.0
I0
I0
I0
tp1934
sS'nicenice'
p1935
g6
sS'availaible'
p1936
g29
sS'amezon'
p1937
g6
sS'thisredmi'
p1938
g6
sS'itt'
p1939
g55
sS'reputed'
p1940
(F0.0
F0.0
F1.0
I0
I0
I0
tp1941
sS'loudspeaker'
p1942
(F0.0
F0.0
F1.0
I0
I0
I0
tp1943
sS'satisfying'
p1944
(F0.5
F0.0
F0.875
F0.25
F0.0
F0.75
tp1945
sS'subsequent'
p1946
(F0.0
F0.0
F1.0
F0.0
F0.0
F1.0
tp1947
sS'coolexcellent'
p1948
g6
sS'definite'
p1949
(F0.75
F0.0
F1.0
F0.75
F0.0
F1.0
tp1950
sS'colours'
p1951
(F0.375
F0.25
F1.0
I0
I0
I0
tp1952
sS'glorious'
p1953
(F0.625
F0.625
F0.25
F0.625
F0.625
F0.25
tp1954
sS'enough'
p1955
(F0.125
F0.0
F1.0
F0.125
F0.0
F0.875
tp1956
sS'goodmobile'
p1957
g6
sS'justified'
p1958
(F0.125
F0.0
F1.0
F0.125
F0.0
F0.875
tp1959
sS'exapndable'
p1960
g6
sS'affordable'
p1961
(F0.0
F0.0
F1.0
F0.0
F0.0
F1.0
tp1962
sS'notice'
p1963
(F0.625
F0.0
F1.0
I0
I0
I0
tp1964
sS'august'
p1965
(F0.5
F0.25
F1.0
F0.5
F0.25
F0.75
tp1966
sS'vertical'
p1967
(F0.0
F0.0
F1.0
F0.0
F0.0
F1.0
tp1968
sS'singal'
p1969
g6
sS'iworth'
p1970
g6
sS'screen'
p1971
(F0.375
F0.375
F1.0
I0
I0
I0
tp1972
sS'bestbest'
p1973
g6
sS'adept'
p1974
(F0.625
F0.0
F0.875
F0.625
F0.0
F0.375
tp1975
sS'spare'
p1976
(F0.25
F0.625
F1.0
F0.25
F0.5
F1.0
tp1977
sS'ud'
p1978
g6
sS'thouch'
p1979
g6
sS'come'
p1980
(F0.5
F0.125
F1.0
I0
I0
I0
tp1981
sS'manu'
p1982
g6
sS'crisper'
p1983
(F0.5
F0.125
F1.0
F0.5
F0.125
F1.0
tp1984
sS'many'
p1985
(F0.0
F0.0
F1.0
F0.0
F0.0
F1.0
tp1986
sS'goodnice'
p1987
g6
sS'quiet'
p1988
(F0.625
F0.625
F1.0
F0.5
F0.625
F0.875
tp1989
sS's'
p1990
(F0.0
F0.0
F1.0
I0
I0
I0
tp1991
sS'disappointment'
p1992
(F0.0
F0.75
F1.0
I0
I0
I0
tp1993
sS'wiyh'
p1994
g6
sS'competent'
p1995
(F0.75
F0.0
F0.75
F0.75
F0.0
F0.75
tp1996
sS'nearby'
p1997
(F0.0
F0.625
F1.0
F0.0
F0.625
F1.0
tp1998
sS'jitter'
p1999
(F0.0
F0.0
F1.0
I0
I0
I0
tp2000
sS'antu'
p2001
g6
sS'por'
p2002
g6
sS'lookoutstanding'
p2003
g6
sS'twin'
p2004
(F0.125
F0.0
F1.0
F0.0
F0.0
F1.0
tp2005
sS'anti'
p2006
(F0.0
F0.375
F1.0
F0.0
F0.375
F0.625
tp2007
sS'pleasenice'
p2008
g6
sS'moreover'
p2009
(F0.0
F0.0
F1.0
F0.0
F0.0
F1.0
tp2010
sS'awsome'
p2011
g29
sS'capable'
p2012
(F0.375
F0.25
F1.0
F0.375
F0.25
F1.0
tp2013
sS'expectationsbecome'
p2014
g6
sS'classic'
p2015
(F0.75
F0.125
F1.0
F0.5
F0.125
F1.0
tp2016
sS'up3'
p2017
g6
sS'undertake'
p2018
(F0.0
F0.25
F1.0
I0
I0
I0
tp2019
sS'goodsmart'
p2020
g6
sS'highgood'
p2021
g6
sS'dependable'
p2022
(F0.5
F0.0
F0.625
F0.5
F0.0
F0.625
tp2023
sS'combined'
p2024
(F0.375
F0.125
F1.0
F0.0
F0.0
F1.0
tp2025
sS'aewsome'
p2026
g6
sS'reflective'
p2027
(F0.5
F0.0
F0.75
F0.5
F0.0
F0.75
tp2028
sS'jerky'
p2029
(F0.25
F0.75
F1.0
F0.25
F0.75
F0.75
tp2030
sS'returnawesome'
p2031
g6
sS'enable'
p2032
(F0.375
F0.0
F0.625
I0
I0
I0
tp2033
sS'shopping'
p2034
(F0.0
F0.25
F1.0
I0
I0
I0
tp2035
sS'phonebig'
p2036
g6
sS'use1'
p2037
g6
sS'offered'
p2038
(F0.25
F0.0
F1.0
I0
I0
I0
tp2039
sS'workable'
p2040
(F0.375
F0.0
F0.625
F0.375
F0.0
F0.625
tp2041
sS'itexcellent'
p2042
g6
sS'photos'
p2043
(F0.0
F0.0
F1.0
I0
I0
I0
tp2044
sS'observe'
p2045
(F0.375
F0.0
F1.0
I0
I0
I0
tp2046
sS'external'
p2047
(F0.0
F0.25
F1.0
F0.0
F0.25
F1.0
tp2048
sS'lene'
p2049
g6
sS'displayawesome'
p2050
g6
sS'careful'
p2051
(F0.5
F0.25
F0.75
F0.5
F0.25
F0.75
tp2052
sS'tamil'
p2053
(F0.0
F0.0
F1.0
F0.0
F0.0
F1.0
tp2054
sS'sound'
p2055
(F0.75
F0.125
F1.0
F0.75
F0.125
F1.0
tp2056
sS'pricenice'
p2057
g6
sS'phonevalue'
p2058
g6
sS'ongoing'
p2059
(F0.0
F0.0
F1.0
F0.0
F0.0
F1.0
tp2060
sS'promising'
p2061
(F0.75
F0.375
F1.0
F0.75
F0.375
F0.625
tp2062
sS'fm'
p2063
(F0.0
F0.0
F1.0
I0
I0
I0
tp2064
sS'unsatisfactory'
p2065
(F0.0
F0.5
F0.5
F0.0
F0.5
F0.5
tp2066
sS'irritatingpoor'
p2067
g6
sS'sincere'
p2068
(F0.625
F0.0
F0.625
F0.625
F0.0
F0.625
tp2069
sS'dubious'
p2070
(F0.0
F0.25
F0.875
F0.0
F0.25
F0.875
tp2071
sS'sleeping'
p2072
(F0.125
F0.25
F1.0
F0.0
F0.0
F1.0
tp2073
sS'blah'
p2074
(F0.0
F0.0
F1.0
I0
I0
I0
tp2075
sS'sudden'
p2076
(F0.0
F0.5
F0.5
F0.0
F0.5
F0.5
tp2077
sS'ambient'
p2078
(F0.375
F0.0
F0.625
F0.375
F0.0
F0.625
tp2079
sS'loosing'
p2080
(F0.375
F0.125
F1.0
I0
I0
I0
tp2081
sS'return'
p2082
(F0.5
F0.125
F1.0
I0
I0
I0
tp2083
sS'everyday'
p2084
(F0.5
F0.25
F0.875
F0.5
F0.25
F0.875
tp2085
sS'avereage'
p2086
g6
sS'mobileexcellent'
p2087
g6
sS'fulfilled'
p2088
(F0.5
F0.0
F1.0
F0.375
F0.0
F0.625
tp2089
sS'different'
p2090
(F0.625
F0.625
F1.0
F0.625
F0.625
F1.0
tp2091
sS'verified'
p2092
(F0.5
F0.0
F1.0
F0.25
F0.0
F0.75
tp2093
sS'compromised'
p2094
(F0.0
F0.25
F1.0
I0
I0
I0
tp2095
sS'april'
p2096
(F0.0
F0.0
F1.0
I0
I0
I0
tp2097
sS'cooolll'
p2098
g6
sS'suprb'
p2099
g55
sS'same'
p2100
(F0.25
F0.375
F1.0
F0.25
F0.375
F1.0
tp2101
sS'configurable'
p2102
g6
sS'lookdecent'
p2103
g6
sS'pad'
p2104
(F0.125
F0.0
F1.0
I0
I0
I0
tp2105
sS'underestimate'
p2106
(F0.125
F0.5
F1.0
I0
I0
I0
tp2107
sS'lite'
p2108
(F0.0
F0.0
F1.0
F0.0
F0.0
F1.0
tp2109
sS'awesomefinger'
p2110
g6
sS'personsfantastic'
p2111
g6
sS'costbest'
p2112
g6
sS'exhaust'
p2113
(F0.375
F0.25
F1.0
I0
I0
I0
tp2114
sS'finish'
p2115
(F0.625
F0.125
F1.0
I0
I0
I0
tp2116
sS'closest'
p2117
(F0.625
F0.375
F1.0
F0.625
F0.375
F1.0
tp2118
sS'wellgood'
p2119
g6
sS'assist'
p2120
(F0.5
F0.0
F1.0
I0
I0
I0
tp2121
sS'finebattery'
p2122
g6
sS'rainy'
p2123
(F0.0
F0.25
F0.75
F0.0
F0.25
F0.75
tp2124
sS'nowtotal'
p2125
g6
sS'wired'
p2126
(F0.0
F0.375
F1.0
F0.0
F0.375
F1.0
tp2127
sS'delicate'
p2128
(F0.75
F0.75
F0.625
F0.75
F0.75
F0.625
tp2129
sS'talkingevery'
p2130
g6
sS'callexcellant'
p2131
g6
sS'drain'
p2132
(F0.0
F0.25
F1.0
I0
I0
I0
tp2133
sS'intermittent'
p2134
(F0.0
F0.0
F1.0
F0.0
F0.0
F1.0
tp2135
sS'charger'
p2136
(F0.125
F0.0
F1.0
I0
I0
I0
tp2137
sS'customized'
p2138
(F0.0
F0.0
F1.0
I0
I0
I0
tp2139
sS'eureka'
p2140
(F0.0
F0.0
F1.0
I0
I0
I0
tp2141
sS'sreen'
p2142
g6
sS'severe'
p2143
(F0.5
F0.875
F0.5
F0.5
F0.875
F0.5
tp2144
sS'problemcan'
p2145
g6
sS'solve'
p2146
(F0.0
F0.0
F1.0
I0
I0
I0
tp2147
sS'averagethe'
p2148
g6
sS'happyawesome'
p2149
g6
sS'intime'
p2150
g6
sS'outdoor'
p2151
(F0.125
F0.0
F1.0
F0.125
F0.0
F1.0
tp2152
sS'aspect3'
p2153
g6
sS'qualityiam'
p2154
g6
sS'setbacksit'
p2155
g6
sS'valuable'
p2156
(F0.625
F0.0
F1.0
F0.625
F0.0
F1.0
tp2157
sS'unofficial'
p2158
(F0.0
F0.75
F0.375
F0.0
F0.75
F0.375
tp2159
sS'poorgood'
p2160
g6
sS'aspect'
p2161
(F0.0
F0.0
F1.0
I0
I0
I0
tp2162
sS'touch'
p2163
(F0.5
F0.375
F1.0
I0
I0
I0
tp2164
sS'speed'
p2165
(F0.0
F0.0
F1.0
I0
I0
I0
tp2166
sS'automaticallycoolpade'
p2167
g6
sS'weekly'
p2168
(F0.0
F0.375
F1.0
F0.0
F0.375
F1.0
tp2169
sS'displaymany'
p2170
g6
sS'ofcourse'
p2171
g6
sS'clueless'
p2172
(F0.125
F0.5
F0.375
F0.125
F0.5
F0.375
tp2173
sS'litte'
p2174
g6
sS'jarred'
p2175
(F0.25
F0.5
F1.0
I0
I0
I0
tp2176
sS'littl'
p2177
g6
sS'desktop'
p2178
(F0.0
F0.0
F1.0
I0
I0
I0
tp2179
sS'wall'
p2180
(F0.0
F0.625
F1.0
I0
I0
I0
tp2181
sS'setting'
p2182
(F0.5
F0.125
F1.0
I0
I0
I0
tp2183
sS'superbb'
p2184
g55
sS'letv'
p2185
g29
sS'extensive'
p2186
(F0.375
F0.0
F1.0
F0.375
F0.0
F1.0
tp2187
sS'heavier'
p2188
(F0.375
F0.5
F1.0
F0.375
F0.5
F1.0
tp2189
sS'joyful'
p2190
(F0.5
F0.625
F0.25
F0.5
F0.625
F0.25
tp2191
sS'scheduled'
p2192
(F0.125
F0.0
F1.0
F0.125
F0.0
F0.875
tp2193
sS'spectacular'
p2194
(F0.25
F0.125
F1.0
F0.25
F0.125
F1.0
tp2195
sS'read'
p2196
(F0.25
F0.0
F1.0
I0
I0
I0
tp2197
sS'marshmellow'
p2198
g55
sS'early'
p2199
(F0.375
F0.25
F1.0
F0.375
F0.25
F1.0
tp2200
sS'preinstalled'
p2201
g55
sS'darn'
p2202
(F0.125
F0.125
F1.0
I0
I0
I0
tp2203
sS'alredy'
p2204
g29
sS'disappointed'
p2205
(F0.0
F0.5
F0.75
F0.0
F0.5
F0.5
tp2206
sS'rear'
p2207
(F0.0
F0.0
F1.0
F0.0
F0.0
F1.0
tp2208
sS'callat'
p2209
g6
sS'goodthis'
p2210
g6
sS'intel'
p2211
g6
sS'iphone6'
p2212
g6
sS'exxxxcellent'
p2213
g6
sS'goog'
p2214
g6
sS'remdi'
p2215
g6
sS'shutter'
p2216
(F0.25
F0.25
F1.0
I0
I0
I0
tp2217
sS'v029'
p2218
g6
sS'uncompetive'
p2219
g6
sS't'
p2220
(F0.0
F0.0
F1.0
I0
I0
I0
tp2221
sS'substandard'
p2222
(F0.0
F0.25
F0.75
F0.0
F0.25
F0.75
tp2223
sS'reduced'
p2224
(F0.125
F0.25
F1.0
F0.0
F0.25
F0.875
tp2225
sS'unbranded'
p2226
(F0.0
F0.75
F0.25
F0.0
F0.75
F0.25
tp2227
sS'fulfil'
p2228
(F0.5
F0.0
F1.0
I0
I0
I0
tp2229
sS'satisfactory'
p2230
(F0.5
F0.125
F0.875
F0.5
F0.125
F0.875
tp2231
sS'adviceablea'
p2232
g6
sS'thisalso'
p2233
g6
sS'draw'
p2234
(F0.125
F0.0
F1.0
I0
I0
I0
tp2235
sS'appreciablephone'
p2236
g6
sS'than1gb'
p2237
g6
sS'romwithin'
p2238
g6
sS'specified'
p2239
(F0.5
F0.125
F1.0
F0.375
F0.0
F0.625
tp2240
sS'intact'
p2241
(F0.5
F0.0
F1.0
F0.5
F0.0
F1.0
tp2242
sS'excelent'
p2243
g29
sS'provided'
p2244
(F0.125
F0.0
F1.0
I0
I0
I0
tp2245
sS'thatawesome'
p2246
g6
sS'servicesmooth'
p2247
g6
sS'legal'
p2248
(F0.25
F0.0
F1.0
F0.25
F0.0
F1.0
tp2249
sS'slick'
p2250
(F0.625
F0.375
F1.0
F0.625
F0.375
F1.0
tp2251
sS'unmatched'
p2252
(F0.5
F0.0
F1.0
F0.5
F0.0
F1.0
tp2253
sS'problembest'
p2254
g6
sS'critical'
p2255
(F0.5
F0.5
F1.0
F0.5
F0.5
F1.0
tp2256
sS'aweaome'
p2257
g55
sS'moderate'
p2258
(F0.5
F0.625
F1.0
F0.5
F0.625
F0.5
tp2259
sS'veryslow'
p2260
g6
sS'outstandinggot'
p2261
g6
sS'stilish'
p2262
g6
sS'equivalent'
p2263
(F0.125
F0.0
F1.0
F0.125
F0.0
F0.875
tp2264
sS'notable'
p2265
(F0.375
F0.0
F1.0
F0.375
F0.0
F0.625
tp2266
sS'iconic'
p2267
(F0.0
F0.0
F1.0
F0.0
F0.0
F1.0
tp2268
sS'loudest'
p2269
(F0.375
F0.5
F1.0
F0.375
F0.5
F1.0
tp2270
sS'broken'
p2271
(F0.75
F0.5
F1.0
F0.125
F0.5
F1.0
tp2272
sS'fanabtastic'
p2273
g6
sS'hectic'
p2274
(F0.375
F0.375
F0.25
F0.375
F0.375
F0.25
tp2275
sS'openmeizu'
p2276
g6
sS'ol'
p2277
g6
sS'ok'
p2278
(F0.375
F0.125
F1.0
F0.375
F0.0
F0.75
tp2279
sS'oh'
p2280
(F0.0
F0.0
F1.0
I0
I0
I0
tp2281
sS'favorite'
p2282
(F0.375
F0.125
F1.0
F0.375
F0.125
F0.875
tp2283
sS'practical'
p2284
(F0.5
F0.0
F1.0
F0.5
F0.0
F1.0
tp2285
sS'camerabest'
p2286
g6
sS'goodvery'
p2287
g6
sS'muje'
p2288
g6
sS'west'
p2289
(F0.0
F0.0
F1.0
F0.0
F0.0
F1.0
tp2290
sS'mixed'
p2291
(F0.125
F0.25
F1.0
F0.125
F0.25
F1.0
tp2292
sS'fork3'
p2293
g6
sS'luck'
p2294
(F0.25
F0.125
F1.0
I0
I0
I0
tp2295
sS'backup'
p2296
(F0.0
F0.5
F1.0
I0
I0
I0
tp2297
sS'processor'
p2298
(F0.0
F0.0
F1.0
I0
I0
I0
tp2299
sS'amazonmultiple'
p2300
g6
sS'strangeawesome'
p2301
g6
sS'heater'
p2302
(F0.0
F0.0
F1.0
I0
I0
I0
tp2303
sS'problamatic'
p2304
g6
sS'marshmallow'
p2305
(F0.0
F0.125
F0.875
I0
I0
I0
tp2306
sS'slippery'
p2307
(F0.0
F0.75
F1.0
F0.0
F0.75
F1.0
tp2308
sS'ridiculousok'
p2309
g6
sS'overiusenota'
p2310
g6
sS'heated'
p2311
(F0.375
F0.25
F1.0
F0.375
F0.25
F0.875
tp2312
sS'micromaxthe'
p2313
g6
sS'movable'
p2314
(F0.125
F0.0
F1.0
F0.125
F0.0
F1.0
tp2315
sS'sensetive'
p2316
g6
sS'upawesome'
p2317
g6
sS'removabal'
p2318
g6
sS'loe'
p2319
g6
sS'slotsawesome'
p2320
g6
sS'start'
p2321
(F0.125
F0.375
F1.0
I0
I0
I0
tp2322
sS'low'
p2323
(F0.0
F0.875
F1.0
F0.0
F0.875
F1.0
tp2324
sS'lot'
p2325
(F0.0
F0.5
F1.0
I0
I0
I0
tp2326
sS'hen'
p2327
(F0.625
F0.0
F1.0
I0
I0
I0
tp2328
sS'treat'
p2329
(F0.5
F0.125
F1.0
I0
I0
I0
tp2330
sS'complete'
p2331
(F0.75
F0.0
F1.0
F0.75
F0.0
F1.0
tp2332
sS'goodrear'
p2333
g6
sS'regard'
p2334
(F0.75
F0.0
F1.0
I0
I0
I0
tp2335
sS'sophisticated'
p2336
(F0.75
F0.125
F1.0
F0.75
F0.0
F1.0
tp2337
sS'goodcamera'
p2338
g6
sS'metalic'
p2339
g29
sS'draing'
p2340
g6
sS'strenuous'
p2341
(F0.375
F0.5
F0.625
F0.375
F0.5
F0.625
tp2342
sS'e'
p2343
(F0.375
F0.0
F1.0
I0
I0
I0
tp2344
sS'blueish'
p2345
(F0.0
F0.0
F1.0
F0.0
F0.0
F1.0
tp2346
sS'faster'
p2347
(F0.5
F0.625
F1.0
F0.5
F0.625
F1.0
tp2348
sS'rush'
p2349
(F0.25
F0.25
F1.0
F0.125
F0.125
F1.0
tp2350
sS'darken'
p2351
(F0.0
F0.0
F1.0
I0
I0
I0
tp2352
sS'largest'
p2353
(F0.5
F0.25
F1.0
F0.5
F0.25
F1.0
tp2354
sS'workingbattery'
p2355
g6
sS'afordable'
p2356
g6
sS'issue3g'
p2357
g6
sS'callsawesome'
p2358
g6
sS'receptive'
p2359
(F0.25
F0.125
F1.0
F0.25
F0.125
F1.0
tp2360
sS'awesme'
p2361
g6
sS'dirty'
p2362
(F0.375
F0.75
F1.0
F0.375
F0.75
F1.0
tp2363
sS'agree'
p2364
(F0.875
F0.25
F1.0
I0
I0
I0
tp2365
sS'beware'
p2366
(F0.5
F0.0
F0.5
I0
I0
I0
tp2367
sS'detailed'
p2368
(F0.5
F0.0
F1.0
F0.5
F0.0
F0.5
tp2369
sS'ae'
p2370
g6
sS'scanner'
p2371
(F0.0
F0.0
F1.0
I0
I0
I0
tp2372
sS'videos'
p2373
(F0.0
F0.0
F1.0
I0
I0
I0
tp2374
sS'complicated'
p2375
(F0.125
F0.625
F0.875
F0.125
F0.625
F0.25
tp2376
sS'migrate'
p2377
(F0.0
F0.0
F1.0
I0
I0
I0
tp2378
sS'certain'
p2379
(F0.625
F0.5
F1.0
F0.625
F0.5
F1.0
tp2380
sS'formattig'
p2381
g55
sS'flagship'
p2382
(F0.0
F0.0
F1.0
I0
I0
I0
tp2383
sS'al'
p2384
(F0.0
F0.0
F1.0
I0
I0
I0
tp2385
sS'deep'
p2386
(F0.625
F0.375
F1.0
F0.625
F0.375
F1.0
tp2387
sS'general'
p2388
(F0.0
F0.125
F1.0
F0.0
F0.125
F1.0
tp2389
sS'kuch'
p2390
g6
sS'deem'
p2391
(F0.25
F0.0
F0.75
I0
I0
I0
tp2392
sS'together'
p2393
(F0.375
F0.0
F1.0
F0.375
F0.0
F1.0
tp2394
sS'buiild'
p2395
g6
sS'thisgood'
p2396
g6
sS'comparitve'
p2397
g29
sS'fill'
p2398
(F0.25
F0.375
F1.0
I0
I0
I0
tp2399
sS'sucksthe'
p2400
g6
sS'nova'
p2401
(F0.0
F0.0
F1.0
I0
I0
I0
tp2402
sS'problemawesome'
p2403
g6
sS'v25'
p2404
g6
sS'hybrid'
p2405
(F0.0
F0.0
F1.0
F0.0
F0.0
F1.0
tp2406
sS'depth'
p2407
(F0.375
F0.25
F1.0
I0
I0
I0
tp2408
sS'repent'
p2409
(F0.25
F0.5
F0.75
I0
I0
I0
tp2410
sS'tight'
p2411
(F0.5
F0.75
F1.0
F0.5
F0.75
F1.0
tp2412
sS'badlyvery'
p2413
g6
sS'fools'
p2414
(F0.625
F0.125
F1.0
I0
I0
I0
tp2415
sS'sufferingg'
p2416
g6
sS'poor'
p2417
(F0.125
F0.875
F1.0
F0.125
F0.875
F1.0
tp2418
sS'amoled'
p2419
g55
sS'separate'
p2420
(F0.0
F0.5
F1.0
F0.0
F0.5
F1.0
tp2421
sS'mettalic'
p2422
g29
sS'a.'
p2423
g55
sS'expectedmobile'
p2424
g6
sS'hardware'
p2425
(F0.0
F0.0
F1.0
I0
I0
I0
tp2426
sS'important'
p2427
(F0.875
F0.25
F0.875
F0.875
F0.25
F0.875
tp2428
sS'peak'
p2429
(F0.375
F0.25
F1.0
I0
I0
I0
tp2430
sS'suited'
p2431
(F0.875
F0.25
F0.875
F0.125
F0.25
F0.875
tp2432
sS'excellenti'
p2433
g6
sS'chargevery'
p2434
g6
sS'otg'
p2435
g55
sS'unresponsive'
p2436
(F0.25
F0.75
F0.375
F0.25
F0.75
F0.375
tp2437
sS'tricky'
p2438
(F0.625
F0.75
F0.25
F0.625
F0.75
F0.25
tp2439
sS'remote'
p2440
(F0.125
F0.0
F1.0
F0.125
F0.0
F1.0
tp2441
sS'invest'
p2442
(F0.0
F0.125
F1.0
I0
I0
I0
tp2443
sS'wifi'
p2444
(F0.0
F0.0
F1.0
I0
I0
I0
tp2445
sS'fraudulent'
p2446
(F0.0
F0.625
F0.375
F0.0
F0.625
F0.375
tp2447
sS'u'
p2448
(F0.0
F0.0
F1.0
F0.0
F0.0
F1.0
tp2449
sS'alright'
p2450
(F0.625
F0.25
F1.0
F0.625
F0.25
F1.0
tp2451
sS'starting'
p2452
(F0.125
F0.375
F1.0
F0.0
F0.0
F1.0
tp2453
sS'cpu'
p2454
(F0.0
F0.0
F1.0
I0
I0
I0
tp2455
sS'liar'
p2456
(F0.0
F0.625
F0.375
I0
I0
I0
tp2457
sS'consider'
p2458
(F0.75
F0.0
F1.0
I0
I0
I0
tp2459
sS'chinese'
p2460
(F0.0
F0.0
F1.0
F0.0
F0.0
F1.0
tp2461
sS'sms'
p2462
(F0.0
F0.0
F1.0
I0
I0
I0
tp2463
sS'hesitationredmi'
p2464
g6
sS'lack'
p2465
(F0.125
F0.125
F0.875
I0
I0
I0
tp2466
sS'upsuperi'
p2467
g6
sS'cooperative'
p2468
(F0.0
F0.0
F1.0
F0.0
F0.0
F1.0
tp2469
sS'styile'
p2470
g55
sS'reluctant'
p2471
(F0.125
F0.625
F0.625
F0.125
F0.625
F0.625
tp2472
sS'plese'
p2473
g6
sS'shattered'
p2474
(F0.0
F0.5
F1.0
F0.0
F0.5
F0.5
tp2475
sS'ladiesmicromax'
p2476
g6
sS'goodbest'
p2477
g6
sS'scared'
p2478
(F0.375
F0.25
F1.0
F0.0
F0.125
F0.875
tp2479
sS'removal'
p2480
(F0.0
F0.0
F1.0
I0
I0
I0
tp2481
sS'nonse'
p2482
g6
sS'to'
p2483
g6
sS'disappoiting'
p2484
g6
sS'th'
p2485
(F0.0
F0.0
F1.0
I0
I0
I0
tp2486
sS'lenovok3'
p2487
g55
sS'smoothbeautifulrear'
p2488
g6
sS'1080p'
p2489
g6
sS'premium'
p2490
(F0.75
F0.375
F1.0
F0.75
F0.0
F0.25
tp2491
sS'worse'
p2492
(F0.625
F1.0
F0.625
F0.625
F1.0
F0.625
tp2493
sS'lenoivo'
p2494
g6
sS'very'
p2495
(F0.5
F0.25
F0.75
F0.5
F0.25
F0.75
tp2496
sS'fas'
p2497
(F0.0
F0.0
F1.0
I0
I0
I0
tp2498
sS'selfiei'
p2499
g6
sS'fav'
p2500
g6
sS'irritatedas'
p2501
g6
sS'wrst'
p2502
g55
sS'worst'
p2503
(F0.25
F1.0
F0.625
F0.25
F1.0
F0.625
tp2504
sS'chargingawsome'
p2505
g6
sS'awful'
p2506
(F0.875
F0.875
F0.75
F0.875
F0.875
F0.75
tp2507
sS'pleasedont'
p2508
g6
sS'manageable'
p2509
(F0.625
F0.0
F0.75
F0.625
F0.0
F0.75
tp2510
sS'fourth'
p2511
(F0.0
F0.0
F1.0
F0.0
F0.0
F1.0
tp2512
sS'toopoor'
p2513
g6
sS'allgood'
p2514
(F0.0
F0.0
F1.0
I0
I0
I0
tp2515
sS'ausom'
p2516
g55
sS'nito'
p2517
g6
sS'list'
p2518
(F0.0
F0.0
F1.0
I0
I0
I0
tp2519
sS'applicable'
p2520
(F0.5
F0.0
F0.5
F0.5
F0.0
F0.5
tp2521
sS'large'
p2522
(F0.5
F0.25
F1.0
F0.5
F0.25
F1.0
tp2523
sS'malwareso'
p2524
g6
sS'itunbelievable'
p2525
g6
sS'ashplat'
p2526
g6
sS'small'
p2527
(F0.125
F0.875
F1.0
F0.125
F0.875
F1.0
tp2528
sS'goodafter'
p2529
g6
sS'blackout'
p2530
(F0.0
F0.25
F1.0
I0
I0
I0
tp2531
sS'humongous'
p2532
(F0.0
F0.0
F1.0
F0.0
F0.0
F1.0
tp2533
sS'quicker'
p2534
(F0.25
F0.25
F1.0
F0.25
F0.25
F1.0
tp2535
sS'portable'
p2536
(F0.25
F0.0
F1.0
F0.25
F0.0
F1.0
tp2537
sS'ten'
p2538
(F0.0
F0.0
F1.0
F0.0
F0.0
F1.0
tp2539
sS'goodworth'
p2540
g6
sS'sync'
p2541
(F0.0
F0.0
F1.0
I0
I0
I0
tp2542
sS'past'
p2543
(F0.0
F0.25
F1.0
F0.0
F0.25
F1.0
tp2544
sS'perception'
p2545
(F0.5
F0.0
F1.0
I0
I0
I0
tp2546
sS'design'
p2547
(F0.375
F0.0
F1.0
I0
I0
I0
tp2548
sS'enhancement'
p2549
(F0.375
F0.0
F0.625
I0
I0
I0
tp2550
sS'pass'
p2551
(F0.5
F0.875
F1.0
F0.0
F0.0
F1.0
tp2552
sS'further'
p2553
(F0.375
F0.125
F1.0
F0.125
F0.125
F1.0
tp2554
sS'morethan'
p2555
g6
sS'casual'
p2556
(F0.5
F0.75
F1.0
F0.5
F0.75
F1.0
tp2557
sS'dial'
p2558
(F0.0
F0.0
F1.0
I0
I0
I0
tp2559
sS'goodcam'
p2560
g6
sS'sub'
p2561
(F0.0
F0.25
F1.0
I0
I0
I0
tp2562
sS'nano'
p2563
g6
sS'skeptic'
p2564
(F0.125
F0.0
F0.875
I0
I0
I0
tp2565
sS'sun'
p2566
(F0.125
F0.0
F1.0
I0
I0
I0
tp2567
sS'brief'
p2568
(F0.0
F0.0
F1.0
F0.0
F0.0
F1.0
tp2569
sS'plusd'
p2570
g6
sS'gfive'
p2571
g6
sS'abt'
p2572
g55
sS'infamous'
p2573
(F0.0
F0.875
F0.125
F0.0
F0.875
F0.125
tp2574
sS'worthawesome'
p2575
g6
sS'movement'
p2576
(F0.0
F0.125
F1.0
I0
I0
I0
tp2577
sS'usecool'
p2578
g6
sS'outgoing'
p2579
(F0.125
F0.125
F1.0
F0.125
F0.125
F1.0
tp2580
sS'full'
p2581
(F0.375
F0.125
F1.0
F0.375
F0.125
F1.0
tp2582
sS'ferocious'
p2583
(F0.25
F0.25
F0.5
F0.25
F0.25
F0.5
tp2584
sS'thisan'
p2585
g6
sS'unprofessional'
p2586
(F0.0
F0.625
F0.375
F0.0
F0.625
F0.375
tp2587
sS'loose'
p2588
(F0.375
F0.75
F1.0
F0.0
F0.75
F1.0
tp2589
sS'thingsbattery'
p2590
g6
sS'aesome'
p2591
g29
sS'selfiesthe'
p2592
g6
sS'uneven'
p2593
(F0.625
F0.375
F0.625
F0.625
F0.375
F0.625
tp2594
sS'annoyingoverall'
p2595
g6
sS'excess'
p2596
(F0.375
F0.5
F0.875
F0.0
F0.5
F0.5
tp2597
sS'strong'
p2598
(F0.75
F0.875
F1.0
F0.75
F0.875
F1.0
tp2599
sS'breakable'
p2600
(F0.25
F0.5
F0.625
F0.25
F0.5
F0.25
tp2601
sS'verry'
p2602
g55
sS'prior'
p2603
(F0.0
F0.0
F1.0
F0.0
F0.0
F1.0
tp2604
sS'social'
p2605
(F0.125
F0.25
F1.0
F0.125
F0.25
F1.0
tp2606
sS'real'
p2607
(F0.375
F0.625
F1.0
F0.375
F0.625
F1.0
tp2608
sS'note3'
p2609
g6
sS'amazingtouch'
p2610
g6
sS'salerear'
p2611
g6
sS'vid'
p2612
g29
sS'ive'
p2613
g29
sS'marginal'
p2614
(F0.5
F0.375
F0.875
F0.5
F0.375
F0.875
tp2615
sS'vii'
p2616
(F0.0
F0.0
F1.0
F0.0
F0.0
F1.0
tp2617
sS'cardbest'
p2618
g6
sS'bright5'
p2619
g6
sS'note4'
p2620
g6
sS'likable'
p2621
(F0.75
F0.375
F0.5
F0.75
F0.375
F0.5
tp2622
sS'select'
p2623
(F0.625
F0.0
F1.0
F0.625
F0.0
F1.0
tp2624
sS'conventional'
p2625
(F0.75
F0.625
F1.0
F0.75
F0.625
F1.0
tp2626
sS'flaws'
p2627
(F0.0
F0.125
F1.0
I0
I0
I0
tp2628
sS'saprate'
p2629
g6
sS'hurray'
p2630
g6
sS'greathorrible'
p2631
g6
sS'awosm'
p2632
g6
sS'gorgeous'
p2633
(F0.75
F0.0
F0.25
F0.75
F0.0
F0.25
tp2634
sS'mysterious'
p2635
(F0.5
F0.5
F0.25
F0.5
F0.5
F0.25
tp2636
sS'otherthan'
p2637
g6
sS'branded'
p2638
(F0.25
F0.25
F1.0
F0.25
F0.0
F0.875
tp2639
sS'nothingi'
p2640
g6
sS'preloaded'
p2641
g55
sS'minor'
p2642
(F0.375
F0.75
F1.0
F0.375
F0.75
F1.0
tp2643
sS'more'
p2644
(F0.0
F0.0
F1.0
F0.0
F0.0
F1.0
tp2645
sS'flat'
p2646
(F0.5
F0.625
F1.0
F0.5
F0.625
F1.0
tp2647
sS'xpandable'
p2648
g55
sS'door'
p2649
(F0.0
F0.0
F1.0
I0
I0
I0
tp2650
sS'initiated'
p2651
(F0.0
F0.0
F1.0
I0
I0
I0
tp2652
sS'disappointedgood'
p2653
g6
sS'undifined'
p2654
g55
sS'company'
p2655
(F0.0
F0.0
F1.0
I0
I0
I0
tp2656
sS'tested'
p2657
(F0.625
F0.125
F1.0
F0.625
F0.0
F0.625
tp2658
sS'nicegood'
p2659
g6
sS'mobilemi'
p2660
g6
sS'particular'
p2661
(F0.25
F0.125
F1.0
F0.25
F0.125
F1.0
tp2662
sS'known'
p2663
(F0.5
F0.25
F1.0
F0.5
F0.0
F0.5
tp2664
sS'hurry'
p2665
(F0.0
F0.25
F1.0
I0
I0
I0
tp2666
sS'nomal'
p2667
g55
sS'glad'
p2668
(F0.75
F0.625
F1.0
F0.75
F0.625
F0.5
tp2669
sS'alldamage'
p2670
g6
sS'grill'
p2671
(F0.0
F0.0
F1.0
I0
I0
I0
tp2672
sS'thread'
p2673
(F0.0
F0.0
F1.0
I0
I0
I0
tp2674
sS'middle'
p2675
(F0.0
F0.0
F1.0
F0.0
F0.0
F1.0
tp2676
sS'cameravry'
p2677
g6
sS'nicephone'
p2678
g6
sS'testnice'
p2679
g6
sS'itredmi'
p2680
g6
sS'v'
p2681
(F0.0
F0.0
F1.0
F0.0
F0.0
F1.0
tp2682
sS'playable'
p2683
(F0.625
F0.0
F0.375
F0.625
F0.0
F0.375
tp2684
sS'spontaneous'
p2685
(F0.25
F0.625
F0.75
F0.25
F0.625
F0.75
tp2686
sS'beautiful'
p2687
(F0.75
F0.0
F0.375
F0.75
F0.0
F0.375
tp2688
sS'compare'
p2689
(F0.5
F0.25
F1.0
I0
I0
I0
tp2690
sS'atrocious'
p2691
(F0.0
F0.875
F0.375
F0.0
F0.875
F0.375
tp2692
sS'qualityvivid'
p2693
g6
sS'stated'
p2694
(F0.5
F0.0
F1.0
F0.5
F0.0
F0.5
tp2695
sS'f9'
p2696
g6
sS'hours3'
p2697
g6
sS'accept'
p2698
(F0.625
F0.125
F1.0
I0
I0
I0
tp2699
sS'unsatishfy'
p2700
g55
sS'unbiased'
p2701
(F0.125
F0.5
F1.0
F0.125
F0.5
F1.0
tp2702
sS'valueable'
p2703
g55
sS'minimum'
p2704
(F0.0
F0.125
F1.0
F0.0
F0.0
F1.0
tp2705
sS'purchased'
p2706
(F0.0
F0.0
F1.0
I0
I0
I0
tp2707
sS'sharp'
p2708
(F0.5
F0.625
F1.0
F0.5
F0.625
F1.0
tp2709
sS'cheper'
p2710
g6
sS'earpiece'
p2711
(F0.0
F0.0
F1.0
I0
I0
I0
tp2712
sS'huge'
p2713
(F0.0
F0.125
F0.875
F0.0
F0.125
F0.875
tp2714
sS'stil'
p2715
g55
sS'wellexcellent'
p2716
g6
sS'badmany'
p2717
g6
sS'awkward'
p2718
(F0.5
F0.75
F0.625
F0.5
F0.75
F0.625
tp2719
sS'flawless'
p2720
(F0.0
F0.375
F0.625
F0.0
F0.375
F0.625
tp2721
sS'comfort'
p2722
(F0.5
F0.875
F1.0
I0
I0
I0
tp2723
sS'unlucky'
p2724
(F0.125
F0.75
F0.125
F0.125
F0.75
F0.125
tp2725
sS'producti'
p2726
g6
sS'goldawsmm'
p2727
g6
sS'disign'
p2728
g6
sS'cmpletd'
p2729
g6
sS'resistard'
p2730
g6
sS'isn'
p2731
(F0.0
F0.0
F1.0
I0
I0
I0
tp2732
sS'upto'
p2733
g29
sS'fr'
p2734
(F0.0
F0.0
F1.0
I0
I0
I0
tp2735
sS'okay'
p2736
(F0.625
F0.125
F1.0
F0.625
F0.0
F0.625
tp2737
sS'tried'
p2738
(F0.625
F0.5
F1.0
F0.625
F0.0
F0.625
tp2739
sS'rude'
p2740
(F0.875
F0.625
F1.0
F0.875
F0.625
F1.0
tp2741
sS'variant'
p2742
(F0.125
F0.5
F1.0
F0.125
F0.5
F0.375
tp2743
sS'avilable'
p2744
g6
sS'connectivity'
p2745
(F0.0
F0.0
F1.0
I0
I0
I0
tp2746
sS'disable'
p2747
(F0.0
F0.375
F0.625
I0
I0
I0
tp2748
sS'lighting'
p2749
(F0.0
F0.125
F1.0
I0
I0
I0
tp2750
sS'coming'
p2751
(F0.5
F0.125
F1.0
F0.0
F0.0
F1.0
tp2752
sS'fi'
p2753
g55
sS'horizontal'
p2754
(F0.0
F0.0
F1.0
F0.0
F0.0
F1.0
tp2755
sS'muchnice'
p2756
g6
sS'response'
p2757
(F0.5
F0.0
F1.0
I0
I0
I0
tp2758
sS'fo'
p2759
(F0.25
F0.0
F0.75
I0
I0
I0
tp2760
sS'ulta'
p2761
g6
sS'short'
p2762
(F0.375
F0.75
F1.0
F0.375
F0.75
F1.0
tp2763
sS'workingawsome'
p2764
g6
sS'callback'
p2765
(F0.0
F0.0
F1.0
I0
I0
I0
tp2766
sS'negligible'
p2767
(F0.125
F0.5
F0.875
F0.125
F0.5
F0.875
tp2768
sS'dialar'
p2769
g6
sS'amaging'
p2770
g6
sS'uninstall'
p2771
g55
sS'coston'
p2772
g6
sS'showhappy'
p2773
g6
sS'iti'
p2774
g6
sS'ite'
p2775
g55
sS'sooo'
p2776
g6
sS'voiceexcellent'
p2777
g6
sS'installed'
p2778
(F0.0
F0.0
F1.0
I0
I0
I0
tp2779
sS'disabled'
p2780
(F0.0
F0.75
F0.875
F0.0
F0.75
F0.25
tp2781
sS'isnt'
p2782
g29
sS'itz'
p2783
g6
sS'greate'
p2784
g55
sS'committed'
p2785
(F0.375
F0.125
F1.0
F0.125
F0.125
F1.0
tp2786
sS'hell'
p2787
(F0.0
F0.75
F1.0
I0
I0
I0
tp2788
sS'concentric'
p2789
(F0.0
F0.0
F1.0
F0.0
F0.0
F1.0
tp2790
sS'softwer'
p2791
g6
sS'arrogant'
p2792
(F0.5
F0.375
F0.125
F0.5
F0.375
F0.125
tp2793
sS'ok.'
p2794
g29
sS'bettary'
p2795
g6
sS'zippy'
p2796
(F0.375
F0.0
F0.625
F0.375
F0.0
F0.625
tp2797
sS'thnq'
p2798
g55
sS'continued'
p2799
(F0.0
F0.375
F1.0
F0.0
F0.375
F0.625
tp2800
sS'thnx'
p2801
g55
sS'alll'
p2802
g6
sS'responsible'
p2803
(F0.625
F0.0
F1.0
F0.625
F0.0
F1.0
tp2804
sS'late'
p2805
(F0.125
F0.25
F1.0
F0.125
F0.25
F1.0
tp2806
sS'nifty'
p2807
(F0.875
F0.0
F0.125
F0.875
F0.0
F0.125
tp2808
sS'speech'
p2809
(F0.0
F0.25
F1.0
I0
I0
I0
tp2810
sS'travelling'
p2811
(F0.0
F0.0
F1.0
I0
I0
I0
tp2812
sS'urself'
p2813
g6
sS'fool'
p2814
(F0.625
F0.125
F1.0
I0
I0
I0
tp2815
sS'goof'
p2816
(F0.125
F0.25
F1.0
I0
I0
I0
tp2817
sS'good'
p2818
(F1.0
F0.125
F1.0
F1.0
F0.125
F1.0
tp2819
sS'aswmnot'
p2820
g6
sS'great4'
p2821
g6
sS'ya'
p2822
g6
sS'grippy'
p2823
g55
sS'speechless'
p2824
(F0.0
F0.625
F0.375
F0.0
F0.625
F0.375
tp2825
sS'goodanother'
p2826
g6
sS'oki'
p2827
g6
sS'okk'
p2828
g55
sS'yr'
p2829
(F0.0
F0.0
F1.0
I0
I0
I0
tp2830
sS'yu'
p2831
g6
sS'complain'
p2832
(F0.25
F0.75
F0.75
I0
I0
I0
tp2833
sS'bigger'
p2834
(F0.5
F0.5
F1.0
F0.5
F0.5
F1.0
tp2835
sS'itbest'
p2836
g6
sS'everytime'
p2837
g6
sS'supersensitive'
p2838
(F0.0
F0.25
F0.75
F0.0
F0.25
F0.75
tp2839
sS'micro'
p2840
(F0.125
F0.25
F0.625
F0.125
F0.25
F0.625
tp2841
sS'2g'
p2842
g6
sS'chipest'
p2843
g6
sS'shocking'
p2844
(F0.375
F0.5
F1.0
F0.375
F0.5
F0.5
tp2845
sS'imageinfact'
p2846
g6
sS'intolerable'
p2847
(F0.0
F0.625
F0.375
F0.0
F0.625
F0.375
tp2848
sS'heavy'
p2849
(F0.375
F0.5
F1.0
F0.375
F0.5
F1.0
tp2850
sS'averagemade'
p2851
g6
sS'weight'
p2852
(F0.5
F0.375
F1.0
I0
I0
I0
tp2853
sS'hard'
p2854
(F0.25
F0.875
F1.0
F0.25
F0.875
F1.0
tp2855
sS'expectedevery'
p2856
g6
sS'goodnd'
p2857
g6
sS'extended'
p2858
(F0.375
F0.25
F1.0
F0.375
F0.25
F1.0
tp2859
sS'expect'
p2860
(F0.25
F0.25
F1.0
I0
I0
I0
tp2861
sS'fist'
p2862
(F0.0
F0.0
F1.0
I0
I0
I0
tp2863
sS'xiomi'
p2864
g29
sS'moneyworest'
p2865
g6
sS'heave'
p2866
(F0.125
F0.5
F1.0
I0
I0
I0
tp2867
sS'silky'
p2868
(F0.125
F0.0
F0.875
F0.125
F0.0
F0.875
tp2869
sS'rs20'
p2870
g55
sS'missed'
p2871
(F0.125
F0.625
F1.0
F0.125
F0.625
F0.25
tp2872
sS'unnatural'
p2873
(F0.0
F0.75
F1.0
F0.0
F0.75
F1.0
tp2874
sS'projected'
p2875
(F0.0
F0.0
F1.0
F0.0
F0.0
F1.0
tp2876
sS'therexiomi'
p2877
g6
sS'badgreat'
p2878
g6
sS'excellent2'
p2879
g6
sS'primium'
p2880
g6
sS'execllent'
p2881
g6
sS'belief'
p2882
(F0.125
F0.0
F1.0
I0
I0
I0
tp2883
sS'pathetic'
p2884
(F0.333
F0.875
F0.375
F0.333
F0.875
F0.375
tp2885
sS'dirt'
p2886
(F0.0
F0.625
F1.0
F0.0
F0.625
F0.375
tp2887
sS'upon'
p2888
g6
sS'patheticgood'
p2889
g6
sS'offphone'
p2890
g6
sS'pleasant'
p2891
(F0.75
F0.125
F0.25
F0.75
F0.125
F0.25
tp2892
sS'extraordinary'
p2893
(F0.625
F0.375
F1.0
F0.625
F0.375
F1.0
tp2894
sS'lowcamera'
p2895
g6
sS'v.'
p2896
g6
sS'ask'
p2897
(F0.25
F0.25
F1.0
I0
I0
I0
tp2898
sS'laughable'
p2899
(F0.625
F0.0
F0.5
F0.625
F0.0
F0.5
tp2900
sS'earliest'
p2901
(F0.0
F0.25
F1.0
F0.0
F0.25
F1.0
tp2902
sS'generate'
p2903
(F0.0
F0.0
F1.0
I0
I0
I0
tp2904
sS'itbuilt'
p2905
g6
sS'revolutionary'
p2906
(F0.375
F0.25
F1.0
F0.375
F0.25
F1.0
tp2907
sS'underwhelming'
p2908
g55
sS'launch'
p2909
(F0.0
F0.0
F1.0
I0
I0
I0
tp2910
sS'allvery'
p2911
g6
sS'properly3'
p2912
g6
sS'terrible'
p2913
(F0.125
F0.875
F0.625
F0.125
F0.875
F0.625
tp2914
sS'choicebuild'
p2915
g6
sS'issuethe'
p2916
g6
sS'goodits'
p2917
g6
sS'w'
p2918
(F0.0
F0.0
F1.0
I0
I0
I0
tp2919
sS'best4'
p2920
g6
sS'filpkart'
p2921
g6
sS'dissatisfy'
p2922
(F0.125
F0.0
F0.875
I0
I0
I0
tp2923
sS'major'
p2924
(F0.625
F0.375
F1.0
F0.625
F0.375
F1.0
tp2925
sS'smoother'
p2926
(F0.625
F0.375
F1.0
F0.625
F0.375
F1.0
tp2927
sS'dont'
p2928
g29
sS'prevent'
p2929
(F0.25
F0.0
F1.0
I0
I0
I0
tp2930
sS'feel'
p2931
(F0.375
F0.25
F1.0
I0
I0
I0
tp2932
sS'fancy'
p2933
(F0.5
F0.625
F1.0
F0.0
F0.375
F0.625
tp2934
sS'infinite'
p2935
(F0.125
F0.5
F1.0
F0.125
F0.5
F1.0
tp2936
sS'dint'
p2937
(F0.0
F0.0
F1.0
I0
I0
I0
tp2938
sS'possiblebetter'
p2939
g6
sS'blank'
p2940
(F0.0
F0.625
F1.0
F0.0
F0.625
F1.0
tp2941
sS'slower'
p2942
(F0.0
F0.5
F1.0
F0.0
F0.5
F1.0
tp2943
sS'miss'
p2944
(F0.125
F0.5
F1.0
I0
I0
I0
tp2945
sS'asual'
p2946
g29
sS'guest'
p2947
(F0.0
F0.0
F1.0
I0
I0
I0
tp2948
sS'good1'
p2949
g6
sS'twenty'
p2950
(F0.0
F0.0
F1.0
F0.0
F0.0
F1.0
tp2951
sS'5th'
p2952
(F0.0
F0.0
F1.0
F0.0
F0.0
F1.0
tp2953
sS'swipe'
p2954
(F0.0
F0.125
F1.0
I0
I0
I0
tp2955
sS'least'
p2956
(F0.0
F0.0
F1.0
F0.0
F0.0
F1.0
tp2957
sS'flimsy'
p2958
(F0.0
F0.5
F1.0
F0.0
F0.5
F1.0
tp2959
sS'wonderful'
p2960
(F0.75
F0.0
F0.25
F0.75
F0.0
F0.25
tp2961
sS'builddecent'
p2962
g6
sS'hota'
p2963
g6
sS'gpu'
p2964
g6
sS'kow'
p2965
g6
sS'goodonly'
p2966
g6
sS'samne'
p2967
g6
sS'relieved'
p2968
(F0.625
F0.75
F1.0
F0.0
F0.75
F1.0
tp2969
sS'needle'
p2970
(F0.0
F0.125
F1.0
I0
I0
I0
tp2971
sS'servicegreat'
p2972
g6
sS'immediate'
p2973
(F0.0
F0.0
F1.0
F0.0
F0.0
F1.0
tp2974
sS'itnormal'
p2975
g6
sS'focusing'
p2976
(F0.125
F0.0
F1.0
I0
I0
I0
tp2977
sS'excalent'
p2978
g55
sS'buythree'
p2979
g6
sS'perfectmobile'
p2980
g6
sS'polarized'
p2981
(F0.125
F0.0
F1.0
I0
I0
I0
tp2982
sS'double'
p2983
(F0.5
F0.625
F1.0
F0.5
F0.625
F1.0
tp2984
sS'bedcharging'
p2985
g6
sS'grey'
p2986
(F0.5
F0.125
F1.0
F0.5
F0.0
F1.0
tp2987
sS'greatnd'
p2988
g6
sS'twomarvelous'
p2989
g6
sS'kindle'
p2990
(F0.25
F0.25
F1.0
I0
I0
I0
tp2991
sS'risky'
p2992
(F0.25
F0.75
F0.625
F0.25
F0.75
F0.625
tp2993
sS'aug.'
p2994
g6
sS'kart'
p2995
g6
sS'outstanding'
p2996
(F0.75
F0.125
F1.0
F0.75
F0.125
F1.0
tp2997
sS'heaviest'
p2998
(F0.375
F0.5
F1.0
F0.375
F0.5
F1.0
tp2999
sS'defect'
p3000
(F0.0
F0.25
F1.0
I0
I0
I0
tp3001
sS'goodgoodgoodexcellent'
p3002
g6
sS'needs'
p3003
(F0.375
F0.375
F1.0
F0.25
F0.0
F0.75
tp3004
sS'karo'
p3005
g6
sS'vulnerable'
p3006
(F0.5
F0.375
F0.625
F0.5
F0.375
F0.625
tp3007
sS'sell'
p3008
(F0.25
F0.5
F1.0
I0
I0
I0
tp3009
sS'sharps'
p3010
(F0.0
F0.0
F1.0
I0
I0
I0
tp3011
sS'blanck'
p3012
g6
sS'built'
p3013
(F0.0
F0.0
F1.0
F0.0
F0.0
F1.0
tp3014
sS'useaux'
p3015
g6
sS'lil'
p3016
g6
sS'self'
p3017
(F0.0
F0.0
F1.0
F0.0
F0.0
F1.0
tp3018
sS'alsp'
p3019
g6
sS'k3'
p3020
g55
sS'internal'
p3021
(F0.5
F0.0
F1.0
F0.5
F0.0
F1.0
tp3022
sS'lip'
p3023
(F0.0
F0.0
F1.0
I0
I0
I0
tp3024
sS'build'
p3025
(F0.0
F0.0
F1.0
I0
I0
I0
tp3026
sS'yeahh'
p3027
g6
sS'k4'
p3028
g29
sS'ipx7'
p3029
g55
sS'wwwoww'
p3030
g6
sS'muffled'
p3031
(F0.125
F0.0
F1.0
F0.125
F0.0
F1.0
tp3032
sS'donot'
p3033
g6
sS'such'
p3034
(F0.0
F0.125
F1.0
F0.0
F0.125
F1.0
tp3035
sS'added'
p3036
(F0.5
F0.25
F1.0
I0
I0
I0
tp3037
sS'electric'
p3038
(F0.125
F0.5
F1.0
F0.125
F0.5
F1.0
tp3039
sS'goodheadphone'
p3040
g6
sS'wate'
p3041
g6
sS'friendlybest'
p3042
g6
sS'buget'
p3043
g55
sS'regionable'
p3044
g55
sS'unused'
p3045
(F0.5
F0.75
F0.875
F0.5
F0.75
F0.875
tp3046
sS'most'
p3047
(F0.0
F0.0
F1.0
F0.0
F0.0
F1.0
tp3048
sS'virus'
p3049
(F0.375
F0.625
F1.0
I0
I0
I0
tp3050
sS'heatup'
p3051
g6
sS'significant'
p3052
(F0.375
F0.0
F1.0
F0.375
F0.0
F1.0
tp3053
sS'watt'
p3054
(F0.0
F0.0
F1.0
I0
I0
I0
tp3055
sS'rhe'
p3056
g55
sS'buybest'
p3057
g6
sS'patterned'
p3058
(F0.0
F0.0
F1.0
F0.0
F0.0
F1.0
tp3059
sS'dullback'
p3060
g6
sS'sturdy'
p3061
(F0.5
F0.25
F0.625
F0.5
F0.25
F0.625
tp3062
sS'mobile'
p3063
(F0.125
F0.0
F1.0
F0.125
F0.0
F1.0
tp3064
sS'clear'
p3065
(F0.625
F0.625
F1.0
F0.625
F0.625
F1.0
tp3066
sS'sometimes'
p3067
(F0.0
F0.0
F1.0
F0.0
F0.0
F1.0
tp3068
sS'cover'
p3069
(F0.625
F0.25
F1.0
I0
I0
I0
tp3070
sS'traditional'
p3071
(F0.0
F0.0
F1.0
F0.0
F0.0
F1.0
tp3072
sS'gorrila'
p3073
g6
sS'unremoveable'
p3074
g55
sS'clean'
p3075
(F0.875
F0.625
F1.0
F0.875
F0.625
F1.0
tp3076
sS'asus'
p3077
g55
sS'usual'
p3078
(F0.125
F0.0
F0.875
F0.125
F0.0
F0.875
tp3079
sS'microsoft'
p3080
g55
sS'unbearable4'
p3081
g6
sS'goodthe'
p3082
g6
sS'asphalt'
p3083
(F0.0
F0.0
F1.0
I0
I0
I0
tp3084
sS'phenomenol'
p3085
g6
sS'itjust'
p3086
g6
sS'slowphone'
p3087
g6
sS'golddelivery'
p3088
g6
sS'hyped'
p3089
(F0.25
F0.0
F0.75
I0
I0
I0
tp3090
sS'underdog'
p3091
(F0.0
F0.75
F0.25
I0
I0
I0
tp3092
sS'comman'
p3093
g6
sS'fine'
p3094
(F0.625
F0.125
F1.0
F0.625
F0.125
F1.0
tp3095
sS'impact'
p3096
(F0.125
F0.0
F1.0
I0
I0
I0
tp3097
sS'giant'
p3098
(F0.375
F0.25
F1.0
F0.375
F0.0
F0.625
tp3099
sS'sturdiest'
p3100
(F0.5
F0.25
F0.625
F0.5
F0.25
F0.625
tp3101
sS'nervous'
p3102
(F0.125
F0.625
F1.0
F0.125
F0.625
F1.0
tp3103
sS'unhappy'
p3104
(F0.125
F0.875
F0.5
F0.125
F0.875
F0.5
tp3105
sS'adhaar'
p3106
g6
sS'beat'
p3107
(F0.625
F0.375
F1.0
F0.0
F0.0
F1.0
tp3108
sS'failed'
p3109
(F0.0
F0.5
F0.875
I0
I0
I0
tp3110
sS'pretty'
p3111
(F0.875
F0.875
F0.625
F0.875
F0.875
F0.625
tp3112
sS'hardened'
p3113
(F0.25
F0.125
F1.0
F0.25
F0.125
F1.0
tp3114
sS'bloddy'
p3115
g6
sS'touchscreen'
p3116
(F0.0
F0.0
F1.0
I0
I0
I0
tp3117
sS'legible'
p3118
(F0.0
F0.0
F1.0
F0.0
F0.0
F1.0
tp3119
sS'freefast'
p3120
g6
sS'waterproof'
p3121
(F0.0
F0.625
F1.0
F0.0
F0.625
F0.375
tp3122
sS'badnice'
p3123
g6
sS'express'
p3124
(F0.125
F0.625
F1.0
F0.125
F0.625
F1.0
tp3125
sS'sunny'
p3126
(F0.5
F0.0
F0.5
F0.5
F0.0
F0.5
tp3127
sS'cheaper'
p3128
(F0.125
F0.875
F0.75
F0.125
F0.875
F0.75
tp3129
sS'famous'
p3130
(F0.375
F0.0
F0.625
F0.375
F0.0
F0.625
tp3131
sS'feels'
p3132
(F0.375
F0.25
F1.0
I0
I0
I0
tp3133
sS'okexcellent'
p3134
g6
sS'batter'
p3135
(F0.0
F0.0
F1.0
I0
I0
I0
tp3136
sS'replacable'
p3137
g55
sS'oneexcellent'
p3138
g6
sS'operative'
p3139
(F0.5
F0.0
F1.0
F0.5
F0.0
F1.0
tp3140
sS'satisfiedworst'
p3141
g6
sS'restart'
p3142
(F0.0
F0.0
F1.0
I0
I0
I0
tp3143
sS'inbuild'
p3144
g6
sS'uncomfort'
p3145
g6
sS'moneymy'
p3146
g6
sS'poorbattery'
p3147
g6
sS'inbuilt'
p3148
(F0.0
F0.0
F1.0
F0.0
F0.0
F1.0
tp3149
sS'monsterous'
p3150
g6
sS'common'
p3151
(F0.25
F0.778
F1.0
F0.25
F0.778
F1.0
tp3152
sS'logistic'
p3153
(F0.0
F0.0
F1.0
F0.0
F0.0
F1.0
tp3154
sS'hype'
p3155
(F0.25
F0.0
F0.875
I0
I0
I0
tp3156
sS'x'
p3157
(F0.0
F0.0
F1.0
F0.0
F0.0
F1.0
tp3158
sS'ph'
p3159
(F0.0
F0.0
F1.0
I0
I0
I0
tp3160
sS'insensible'
p3161
(F0.5
F0.5
F0.625
F0.5
F0.5
F0.625
tp3162
sS'bulky'
p3163
(F0.0
F0.0
F1.0
F0.0
F0.0
F1.0
tp3164
sS'dump'
p3165
(F0.125
F0.5
F1.0
I0
I0
I0
tp3166
sS'sep'
p3167
(F0.0
F0.0
F1.0
I0
I0
I0
tp3168
sS'undergoes'
p3169
(F0.0
F0.0
F1.0
I0
I0
I0
tp3170
sS'upbattery'
p3171
g6
sS'lenova'
p3172
g29
sS'arc'
p3173
(F0.0
F0.0
F1.0
I0
I0
I0
tp3174
sS'sec'
p3175
(F0.0
F0.0
F1.0
F0.0
F0.0
F1.0
tp3176
sS'irredeemable'
p3177
(F0.0
F0.75
F0.5
F0.0
F0.75
F0.5
tp3178
sS'close'
p3179
(F0.625
F0.375
F1.0
F0.625
F0.375
F1.0
tp3180
sS'changeable'
p3181
(F0.625
F0.25
F1.0
F0.625
F0.25
F1.0
tp3182
sS'deliverycoolest'
p3183
g6
sS'horrid'
p3184
(F0.0
F0.875
F0.125
F0.0
F0.875
F0.125
tp3185
sS'distinctive'
p3186
(F0.0
F0.0
F1.0
F0.0
F0.0
F1.0
tp3187
sS'wow'
p3188
(F0.375
F0.375
F0.625
I0
I0
I0
tp3189
sS'please'
p3190
(F0.625
F0.0
F1.0
F0.125
F0.0
F0.875
tp3191
sS'goodlittle'
p3192
g6
sS'various'
p3193
(F0.25
F0.375
F0.75
F0.25
F0.375
F0.75
tp3194
sS'photograpic'
p3195
g6
sS'consecutive'
p3196
(F0.125
F0.375
F1.0
F0.125
F0.375
F1.0
tp3197
sS'mouthful'
p3198
(F0.0
F0.125
F1.0
I0
I0
I0
tp3199
sS'numerous'
p3200
(F0.0
F0.125
F0.875
F0.0
F0.125
F0.875
tp3201
sS'creative'
p3202
(F0.375
F0.0
F1.0
F0.375
F0.0
F1.0
tp3203
sS'alsobut'
p3204
g6
sS'available'
p3205
(F0.375
F0.0
F1.0
F0.375
F0.0
F1.0
tp3206
sS'missing'
p3207
(F0.125
F0.625
F1.0
F0.0
F0.625
F0.5
tp3208
sS'sole'
p3209
(F0.125
F0.75
F1.0
F0.0
F0.75
F1.0
tp3210
sS'awsomeexcellent'
p3211
g6
sS'poorer'
p3212
(F0.125
F0.875
F1.0
F0.125
F0.875
F1.0
tp3213
sS'moneymobile'
p3214
g6
sS'invisible'
p3215
(F0.25
F0.625
F0.375
F0.25
F0.625
F0.375
tp3216
sS'good13'
p3217
g55
sS'good16'
p3218
g6
sS'avialable'
p3219
g55
sS'c'
p3220
(F0.0
F0.0
F1.0
F0.0
F0.0
F1.0
tp3221
sS'improved'
p3222
(F0.5
F0.25
F1.0
F0.5
F0.25
F1.0
tp3223
sS'reverse'
p3224
(F0.125
F0.25
F1.0
F0.125
F0.125
F1.0
tp3225
sS'mega'
p3226
g29
sS'onenice'
p3227
g6
sS'sensitive'
p3228
(F0.375
F0.625
F1.0
F0.375
F0.625
F1.0
tp3229
sS'hotspot'
p3230
(F0.25
F0.0
F1.0
I0
I0
I0
tp3231
sS'focused'
p3232
(F0.375
F0.0
F1.0
F0.375
F0.0
F1.0
tp3233
sS'mean'
p3234
(F1.0
F0.75
F1.0
F1.0
F0.75
F1.0
tp3235
sS'whole'
p3236
(F0.75
F0.125
F1.0
F0.75
F0.125
F1.0
tp3237
sS'experimental'
p3238
(F0.5
F0.0
F1.0
F0.5
F0.0
F1.0
tp3239
sS'load'
p3240
(F0.125
F0.875
F1.0
I0
I0
I0
tp3241
sS'subpar'
p3242
g6
sS'airborne'
p3243
(F0.0
F0.0
F1.0
F0.0
F0.0
F1.0
tp3244
sS'expendable'
p3245
(F0.75
F0.0
F1.0
F0.75
F0.0
F1.0
tp3246
sS'pennythis'
p3247
g6
sS'simple'
p3248
(F0.875
F0.625
F1.0
F0.875
F0.625
F0.625
tp3249
sS'sweet'
p3250
(F0.875
F0.75
F1.0
F0.875
F0.75
F1.0
tp3251
sS'useits'
p3252
g6
sS'tremandous'
p3253
g6
sS'megapixel'
p3254
g29
sS'sencer'
p3255
g6
sS'quality7'
p3256
g6
sS'crispy'
p3257
(F0.0
F0.0
F1.0
F0.0
F0.0
F1.0
tp3258
sS'price6'
p3259
g6
sS'expensive'
p3260
(F0.5
F0.0
F0.5
F0.5
F0.0
F0.5
tp3261
sS'backend'
p3262
g55
sS'worthless'
p3263
(F0.0
F0.5
F0.5
F0.0
F0.5
F0.5
tp3264
sS'cheapest'
p3265
(F0.125
F0.875
F0.75
F0.125
F0.875
F0.75
tp3266
sS'greatit'
p3267
g6
sS'smoth'
p3268
g6
sS'uske'
p3269
g6
sS'due'
p3270
(F0.75
F0.25
F1.0
F0.75
F0.25
F1.0
tp3271
sS'hitting'
p3272
(F0.0
F0.625
F1.0
I0
I0
I0
tp3273
sS'practicle'
p3274
g6
sS'damn'
p3275
(F0.375
F0.5
F1.0
F0.375
F0.375
F1.0
tp3276
sS'damm'
p3277
g6
sS'collected'
p3278
(F0.25
F0.25
F1.0
F0.25
F0.25
F1.0
tp3279
sS'inear'
p3280
g6
sS'operatable'
p3281
g6
sS'empty'
p3282
(F0.5
F0.0
F1.0
F0.5
F0.0
F1.0
tp3283
sS'budgeted'
p3284
(F0.0
F0.0
F1.0
I0
I0
I0
tp3285
sS'dragontail'
p3286
g6
sS'modern'
p3287
(F0.5
F0.25
F1.0
F0.5
F0.25
F1.0
tp3288
sS'else'
p3289
g29
sS'adaptable'
p3290
(F0.0
F0.0
F1.0
F0.0
F0.0
F1.0
tp3291
sS'understand'
p3292
(F0.375
F0.0
F1.0
I0
I0
I0
tp3293
sS'disruptive'
p3294
(F0.0
F0.75
F0.25
F0.0
F0.75
F0.25
tp3295
sS'systematic'
p3296
(F0.0
F0.5
F1.0
F0.0
F0.5
F1.0
tp3297
sS'receive'
p3298
(F0.75
F0.0
F1.0
I0
I0
I0
tp3299
sS'struck'
p3300
(F0.125
F0.375
F1.0
F0.0
F0.375
F0.625
tp3301
sS'unnecessarily'
p3302
(F0.375
F0.0
F1.0
F0.375
F0.0
F1.0
tp3303
sS'tweaked'
p3304
(F0.375
F0.0
F1.0
I0
I0
I0
tp3305
sS'charginghybrid'
p3306
g6
sS'starno'
p3307
g6
sS'utmost'
p3308
(F0.25
F0.25
F1.0
F0.25
F0.25
F1.0
tp3309
sS'goodsuper'
p3310
g6
sS'solid'
p3311
(F0.875
F0.75
F1.0
F0.875
F0.75
F1.0
tp3312
sS'reliable'
p3313
(F0.625
F0.0
F0.625
F0.625
F0.0
F0.625
tp3314
sS'grainy'
p3315
(F0.0
F0.0
F1.0
F0.0
F0.0
F1.0
tp3316
sS'pricepoor'
p3317
g6
sS'healthy'
p3318
(F0.875
F0.0
F1.0
F0.875
F0.0
F1.0
tp3319
sS'while'
p3320
(F0.0
F0.0
F1.0
I0
I0
I0
tp3321
sS'replaced'
p3322
(F0.0
F0.5
F1.0
I0
I0
I0
tp3323
sS'pressed'
p3324
(F0.125
F0.25
F1.0
F0.125
F0.0
F0.875
tp3325
sS'iys'
p3326
g6
sS'impacted'
p3327
(F0.125
F0.0
F1.0
F0.0
F0.0
F1.0
tp3328
sS'plzz'
p3329
g6
sS'oneaverage'
p3330
g6
sS'grip'
p3331
(F0.375
F0.125
F1.0
I0
I0
I0
tp3332
sS'avrg'
p3333
g29
sS'greatnot'
p3334
g6
sS'muchexcept'
p3335
g6
sS'moto'
p3336
g55
sS'disappointing'
p3337
(F0.0
F0.75
F0.75
F0.0
F0.75
F0.25
tp3338
sS'use5'
p3339
g6
sS'annoyingindia'
p3340
g6
sS'triple'
p3341
(F0.125
F0.25
F1.0
F0.125
F0.0
F1.0
tp3342
sS'skype'
p3343
g6
sS'ready'
p3344
(F0.5
F0.25
F1.0
F0.5
F0.0
F1.0
tp3345
sS'rid'
p3346
(F0.5
F0.0
F0.5
I0
I0
I0
tp3347
sS'panasonic'
p3348
g29
sS'funny'
p3349
(F0.5
F0.5
F1.0
F0.5
F0.5
F0.5
tp3350
sS'handsome'
p3351
(F0.625
F0.0
F0.5
F0.625
F0.0
F0.5
tp3352
sS'aroung'
p3353
g55
sS'srikanth'
p3354
g6
sS'camarathe'
p3355
g6
sS'reachable'
p3356
(F0.375
F0.0
F0.625
F0.375
F0.0
F0.625
tp3357
sS'grand'
p3358
(F0.75
F0.25
F1.0
F0.75
F0.25
F1.0
tp3359
sS'miplz'
p3360
g6
sS'stung'
p3361
(F0.0
F0.875
F1.0
F0.0
F0.625
F0.375
tp3362
sS'superfast'
p3363
g55
sS'higher'
p3364
(F0.5
F0.25
F1.0
F0.5
F0.25
F1.0
tp3365
sS'outstandingi'
p3366
g6
sS'internetit'
p3367
g6
sS'used'
p3368
(F0.375
F0.125
F1.0
F0.375
F0.125
F1.0
tp3369
sS'temporary'
p3370
(F0.5
F0.25
F1.0
F0.5
F0.25
F0.625
tp3371
sS'bonus'
p3372
(F0.375
F0.0
F1.0
I0
I0
I0
tp3373
sS'comprehensive'
p3374
(F0.0
F0.0
F1.0
F0.0
F0.0
F1.0
tp3375
sS'appreciable'
p3376
(F0.0
F0.0
F1.0
F0.0
F0.0
F1.0
tp3377
sS'robust'
p3378
(F0.375
F0.375
F0.75
F0.375
F0.375
F0.75
tp3379
sS'3gb'
p3380
g29
sS'focal'
p3381
(F0.0
F0.0
F1.0
F0.0
F0.0
F1.0
tp3382
sS'recent'
p3383
(F0.25
F0.0
F1.0
F0.0
F0.0
F1.0
tp3384
sS'dark'
p3385
(F0.25
F0.75
F1.0
F0.25
F0.75
F1.0
tp3386
sS'lower'
p3387
(F0.0
F0.875
F1.0
F0.0
F0.875
F1.0
tp3388
sS'older'
p3389
(F0.5
F0.375
F1.0
F0.5
F0.375
F1.0
tp3390
sS'anybody'
p3391
g55
sS'cheep'
p3392
(F0.0
F0.0
F1.0
I0
I0
I0
tp3393
sS'costthe'
p3394
g6
sS'experiencre'
p3395
g6
sS'y'
p3396
(F0.0
F0.0
F1.0
I0
I0
I0
tp3397
sS'gsm'
p3398
g6
sS'alluring'
p3399
(F0.5
F0.0
F1.0
F0.5
F0.0
F0.5
tp3400
sS'cous'
p3401
g6
sS'foolian'
p3402
g29
sS'ergonomic'
p3403
(F0.0
F0.0
F1.0
F0.0
F0.0
F1.0
tp3404
sS'overgood'
p3405
g6
sS'4th'
p3406
(F0.0
F0.0
F1.0
F0.0
F0.0
F1.0
tp3407
sS'vga'
p3408
g6
sS'inactive'
p3409
(F0.375
F0.625
F1.0
F0.375
F0.625
F1.0
tp3410
sS'nonremovable'
p3411
g6
sS'irritable'
p3412
(F0.5
F0.375
F0.75
F0.5
F0.375
F0.75
tp3413
sS'alternative'
p3414
(F0.125
F0.125
F0.875
F0.125
F0.125
F0.875
tp3415
sS'wearable'
p3416
(F0.375
F0.125
F1.0
F0.375
F0.125
F0.5
tp3417
sS'accepted'
p3418
(F0.625
F0.125
F1.0
F0.5
F0.0
F0.5
tp3419
sS'free7'
p3420
g6
sS'hated'
p3421
(F0.25
F0.75
F1.0
F0.25
F0.25
F0.5
tp3422
sS'snappy'
p3423
(F0.375
F0.5
F0.75
F0.375
F0.5
F0.75
tp3424
sS'snap'
p3425
(F0.375
F0.125
F1.0
I0
I0
I0
tp3426
sS'solvable'
p3427
(F0.0
F0.25
F0.75
F0.0
F0.25
F0.75
tp3428
sS'excited'
p3429
(F0.5
F0.625
F1.0
F0.5
F0.5
F1.0
tp3430
sS'surprised'
p3431
(F0.125
F0.25
F1.0
F0.125
F0.25
F0.625
tp3432
sS'useless'
p3433
(F0.125
F0.625
F0.25
F0.125
F0.625
F0.25
tp3434
sS'sim2'
p3435
g6
sS'sim1'
p3436
g6
sS'march'
p3437
(F0.0
F0.125
F1.0
I0
I0
I0
tp3438
sS'k5'
p3439
g6
sS'lacking'
p3440
(F0.125
F0.625
F0.875
F0.0
F0.625
F0.375
tp3441
sS'nightfront'
p3442
g6
sS'big'
p3443
(F0.5
F0.5
F1.0
F0.5
F0.5
F1.0
tp3444
sS'unlimited'
p3445
(F0.375
F0.5
F0.5
F0.375
F0.5
F0.5
tp3446
sS'metlic'
p3447
g29
sS'shitty'
p3448
(F0.0
F0.75
F0.25
F0.0
F0.75
F0.25
tp3449
sS'camerathe'
p3450
g6
sS'unbilievable'
p3451
g6
sS'necessary'
p3452
(F0.625
F0.125
F0.875
F0.625
F0.0
F0.875
tp3453
sS'bit'
p3454
(F0.0
F0.875
F1.0
I0
I0
I0
tp3455
sS'helpful'
p3456
(F0.25
F0.0
F0.75
F0.25
F0.0
F0.75
tp3457
sS'awsum'
p3458
g55
sS'skeptical'
p3459
(F0.375
F0.375
F0.5
F0.375
F0.375
F0.5
tp3460
sS'outright'
p3461
(F0.25
F0.5
F1.0
F0.25
F0.5
F1.0
tp3462
sS'seperate'
p3463
g55
sS'd'
p3464
(F0.125
F0.25
F1.0
F0.0
F0.0
F1.0
tp3465
sS'wasteokokoknookreasonable'
p3466
g6
sS'issuecharging'
p3467
g6
sS'signal'
p3468
(F0.125
F0.0
F1.0
F0.125
F0.0
F0.875
tp3469
sS'safest'
p3470
(F0.5
F0.375
F1.0
F0.5
F0.375
F1.0
tp3471
sS'continue'
p3472
(F0.0
F0.0
F1.0
I0
I0
I0
tp3473
sS'unstable'
p3474
(F0.625
F0.75
F1.0
F0.625
F0.75
F1.0
tp3475
sS'popular'
p3476
(F0.125
F0.0
F1.0
F0.125
F0.0
F1.0
tp3477
sS'stylish'
p3478
(F0.5
F0.125
F1.0
F0.5
F0.125
F1.0
tp3479
sS'foolish'
p3480
(F0.625
F0.375
F0.375
F0.625
F0.375
F0.375
tp3481
sS'essential'
p3482
(F0.75
F0.125
F1.0
F0.75
F0.125
F1.0
tp3483
sS'google'
p3484
(F0.125
F0.25
F1.0
I0
I0
I0
tp3485
sS'amosome'
p3486
g6
sS'weakheat'
p3487
g6
sS'lastest'
p3488
(F0.375
F0.625
F1.0
F0.375
F0.625
F1.0
tp3489
sS'improvedcoolpad'
p3490
g6
sS'aprox'
p3491
g6
sS'fake'
p3492
(F0.125
F0.875
F1.0
F0.125
F0.875
F0.25
tp3493
sS'magnificent'
p3494
(F0.5
F0.25
F0.25
F0.5
F0.25
F0.25
tp3495
sS'back'
p3496
(F0.5
F0.25
F1.0
F0.0
F0.125
F1.0
tp3497
sS'uplatest'
p3498
g6
sS'urgent'
p3499
(F0.0
F0.0
F1.0
F0.0
F0.0
F1.0
tp3500
sS'strongest'
p3501
(F0.75
F0.875
F1.0
F0.75
F0.875
F1.0
tp3502
sS'economic'
p3503
(F0.5
F0.0
F1.0
F0.5
F0.0
F1.0
tp3504
sS'loudy'
p3505
g55
sS'sight'
p3506
(F0.125
F0.0
F1.0
I0
I0
I0
tp3507
sS'trendy'
p3508
(F0.5
F0.0
F0.5
F0.5
F0.0
F0.5
tp3509
sS'curious'
p3510
(F0.125
F0.375
F1.0
F0.125
F0.375
F1.0
tp3511
sS'facing'
p3512
(F0.0
F0.5
F1.0
I0
I0
I0
tp3513
sS'good2'
p3514
g6
sS'good3'
p3515
g6
sS'good4'
p3516
g6
sS'innovativetouch'
p3517
g6
sS'good6'
p3518
g6
sS'good7'
p3519
g6
sS'good9'
p3520
g6
sS'pros'
p3521
(F0.0
F0.0
F1.0
I0
I0
I0
tp3522
sS'per'
p3523
g29
sS'pen'
p3524
(F0.0
F0.0
F1.0
I0
I0
I0
tp3525
sS'bogus'
p3526
(F0.0
F0.75
F0.25
F0.0
F0.75
F0.25
tp3527
sS'batary'
p3528
g6
sS'superbpoor'
p3529
g6
sS'temple'
p3530
(F0.125
F0.0
F1.0
I0
I0
I0
tp3531
sS'minimal'
p3532
(F0.0
F0.0
F1.0
F0.0
F0.0
F1.0
tp3533
sS'akward'
p3534
g6
sS'costlier'
p3535
(F0.5
F0.0
F1.0
F0.5
F0.0
F1.0
tp3536
sS'vedio'
p3537
g6
sS'refused'
p3538
(F0.0
F0.375
F1.0
I0
I0
I0
tp3539
sS'bt'
p3540
g6
sS'phonebest'
p3541
g6
sS'affroadble'
p3542
g6
sS'feb'
p3543
(F0.0
F0.0
F1.0
I0
I0
I0
tp3544
sS'lauched'
p3545
g55
sS'intense'
p3546
(F0.5
F0.25
F0.75
F0.5
F0.25
F0.75
tp3547
sS'heatingbest'
p3548
g6
sS'phonealpesh'
p3549
g6
sS'jst'
p3550
g6
sS'cautious'
p3551
(F0.75
F0.0
F0.75
F0.75
F0.0
F0.75
tp3552
sS'sharper'
p3553
(F0.5
F0.625
F1.0
F0.5
F0.625
F1.0
tp3554
sS'bestamazon'
p3555
g6
sS'ranjit'
p3556
g55
sS'sunlightawesome'
p3557
g6
sS'goodb'
p3558
g6
sS'upto7'
p3559
g6
sS'goodi'
p3560
g6
sS'thisnice'
p3561
g6
sS'shiny'
p3562
(F0.5
F0.0
F1.0
F0.5
F0.0
F1.0
tp3563
sS'somethingdefective'
p3564
g6
sS'tilll'
p3565
g6
sS'competative'
p3566
g6
sS'darkdisappointedvery'
p3567
g6
sS'diwali'
p3568
g6
sS'within'
p3569
(F0.0
F0.0
F1.0
F0.0
F0.0
F1.0
tp3570
sS'muchbut'
p3571
g6
sS'awasome'
p3572
g55
sS'appropriate'
p3573
(F0.125
F0.0
F1.0
F0.0
F0.0
F1.0
tp3574
sS'lesson'
p3575
(F0.0
F0.0
F1.0
I0
I0
I0
tp3576
sS'impressed'
p3577
(F0.5
F0.5
F1.0
F0.5
F0.5
F0.0
tp3578
sS'leneovo'
p3579
g6
sS'been'
p3580
(F0.25
F0.125
F1.0
I0
I0
I0
tp3581
sS'fast'
p3582
(F0.5
F0.625
F1.0
F0.5
F0.625
F1.0
tp3583
sS'creamish'
p3584
g55
sS'weekother'
p3585
g6
sS'bored'
p3586
(F0.375
F0.25
F1.0
F0.375
F0.25
F1.0
tp3587
sS'mobiledont'
p3588
g6
sS'apps4'
p3589
g6
sS'relaxed'
p3590
(F0.125
F0.625
F1.0
F0.0
F0.625
F0.375
tp3591
sS'buttery'
p3592
(F0.25
F0.5
F1.0
F0.25
F0.5
F1.0
tp3593
sS'toooo'
p3594
g6
sS'betterall'
p3595
g6
sS'betterthe'
p3596
g6
sS'properly'
p3597
(F0.25
F0.0
F0.875
F0.25
F0.0
F0.875
tp3598
sS'feelworst'
p3599
g6
sS'atom'
p3600
(F0.0
F0.0
F1.0
I0
I0
I0
tp3601
sS'lowlight'
p3602
g55
sS'supercool'
p3603
g29
sS'considerable'
p3604
(F0.0
F0.0
F1.0
F0.0
F0.0
F1.0
tp3605
sS'info'
p3606
(F0.0
F0.0
F1.0
I0
I0
I0
tp3607
sS'thru'
p3608
g6
sS'intuitive'
p3609
(F0.25
F0.0
F1.0
F0.25
F0.0
F1.0
tp3610
sS'faad'
p3611
g55
sS'ut'
p3612
(F0.0
F0.0
F1.0
I0
I0
I0
tp3613
sS'detachable'
p3614
(F0.25
F0.0
F0.75
F0.25
F0.0
F0.75
tp3615
sS'up'
p3616
(F0.75
F0.25
F1.0
F0.75
F0.25
F1.0
tp3617
sS'ur'
p3618
(F0.0
F0.0
F1.0
I0
I0
I0
tp3619
sS'note3bad'
p3620
g6
sS'un'
p3621
(F0.0
F0.0
F1.0
I0
I0
I0
tp3622
sS'ui'
p3623
g55
sS'capacitive'
p3624
(F0.0
F0.0
F1.0
F0.0
F0.0
F1.0
tp3625
sS'highlight'
p3626
(F0.125
F0.0
F1.0
I0
I0
I0
tp3627
sS'frnt'
p3628
g6
sS'similar'
p3629
(F0.5
F0.25
F0.875
F0.5
F0.25
F0.875
tp3630
sS'called'
p3631
(F0.375
F0.5
F1.0
I0
I0
I0
tp3632
sS'intenal'
p3633
g6
sS'uber'
p3634
g6
sS'constant'
p3635
(F0.75
F0.25
F1.0
F0.75
F0.125
F1.0
tp3636
sS'mindful'
p3637
(F0.625
F0.0
F0.375
F0.625
F0.0
F0.375
tp3638
sS'm'
p3639
(F0.0
F0.0
F1.0
F0.0
F0.0
F1.0
tp3640
sS'fantasticnetwork'
p3641
g6
sS'hoursstartup'
p3642
g6
sS'doesn'
p3643
g55
sS'single'
p3644
(F0.0
F0.75
F1.0
F0.0
F0.75
F1.0
tp3645
sS'doest'
p3646
g6
sS'fastnice'
p3647
g6
sS'graceful'
p3648
(F0.5
F0.125
F0.625
F0.5
F0.125
F0.625
tp3649
sS'grt'
p3650
g29
sS'issueexcellent'
p3651
g6
sS'updates9'
p3652
g6
sS'vvvv'
p3653
g6
sS'worstgood'
p3654
g6
sS'occasional'
p3655
(F0.125
F0.125
F1.0
F0.125
F0.125
F1.0
tp3656
sS'electrical'
p3657
(F0.125
F0.0
F1.0
F0.125
F0.0
F1.0
tp3658
sS'tuff'
p3659
(F0.0
F0.0
F1.0
I0
I0
I0
tp3660
sS'pooor'
p3661
g29
sS'phonethe'
p3662
g6
sS'nice'
p3663
(F0.875
F0.375
F1.0
F0.875
F0.375
F0.625
tp3664
sS'lena'
p3665
(F0.0
F0.0
F1.0
I0
I0
I0
tp3666
sS'heavior'
p3667
g55
sS'accidental'
p3668
(F0.0
F0.125
F0.875
F0.0
F0.125
F0.875
tp3669
sS'o.'
p3670
g6
sS'favourite'
p3671
(F0.375
F0.125
F1.0
F0.375
F0.125
F0.875
tp3672
sS'xiaomi'
p3673
g29
sS'floted'
p3674
g29
sS'luxurious'
p3675
(F0.75
F0.0
F0.375
F0.75
F0.0
F0.375
tp3676
sS'drag'
p3677
(F0.5
F0.375
F1.0
I0
I0
I0
tp3678
sS'utterly'
p3679
(F0.5
F0.0
F0.5
F0.5
F0.0
F0.5
tp3680
sS'angrycamera'
p3681
g6
sS'satistfy'
p3682
g55
sS'bcoz'
p3683
g6
sS'goodgood'
p3684
g6
sS'happier'
p3685
(F0.875
F0.0
F0.875
F0.875
F0.0
F0.875
tp3686
sS'required'
p3687
(F0.25
F0.25
F1.0
F0.25
F0.0
F0.875
tp3688
sS'youtube'
p3689
g6
sS'gr8'
p3690
g55
sS'offordable'
p3691
g6
sS'heats'
p3692
(F0.5
F0.25
F1.0
I0
I0
I0
tp3693
sS'dot'
p3694
(F0.125
F0.125
F1.0
I0
I0
I0
tp3695
sS'nowgood'
p3696
g6
sS'fresh'
p3697
(F0.5
F0.75
F1.0
F0.5
F0.75
F1.0
tp3698
sS'hello'
p3699
(F0.0
F0.0
F1.0
I0
I0
I0
tp3700
sS'partial'
p3701
(F0.625
F0.0
F1.0
F0.625
F0.0
F1.0
tp3702
sS'upphone'
p3703
g6
sS'enjoyable'
p3704
(F0.5
F0.25
F0.25
F0.5
F0.25
F0.25
tp3705
sS'gd'
p3706
(F0.125
F0.0
F1.0
I0
I0
I0
tp3707
sS'achha'
p3708
g6
sS'gb'
p3709
(F0.0
F0.0
F1.0
I0
I0
I0
tp3710
sS'go'
p3711
(F0.375
F0.125
F1.0
F0.25
F0.0
F0.75
tp3712
sS'solwpoor'
p3713
g6
sS'morei'
p3714
g6
sS'backlight'
p3715
g6
sS'seemed'
p3716
(F0.5
F0.125
F1.0
I0
I0
I0
tp3717
sS'compact'
p3718
(F0.375
F0.0
F1.0
F0.375
F0.0
F1.0
tp3719
sS'trueanyone'
p3720
g6
sS'gold'
p3721
(F0.25
F0.125
F1.0
F0.0
F0.125
F1.0
tp3722
sS'concerned'
p3723
(F0.5
F0.375
F1.0
F0.5
F0.375
F1.0
tp3724
sS'workingservice'
p3725
g6
sS'speakerphone'
p3726
(F0.0
F0.0
F1.0
I0
I0
I0
tp3727
sS'intensive'
p3728
(F0.5
F0.25
F1.0
F0.5
F0.25
F1.0
tp3729
sS'lolipop'
p3730
g6
sS'amazonnot'
p3731
g6
sS'stable'
p3732
(F0.5
F0.375
F1.0
F0.5
F0.375
F1.0
tp3733
sS'cluttered'
p3734
(F0.0
F0.5
F1.0
F0.0
F0.5
F0.5
tp3735
sS'fatal'
p3736
(F0.625
F0.75
F0.875
F0.625
F0.75
F0.875
tp3737
sS'friendly'
p3738
(F0.625
F0.25
F1.0
F0.625
F0.25
F1.0
tp3739
sS'toughened'
p3740
(F0.375
F0.25
F1.0
F0.375
F0.25
F1.0
tp3741
sS'goodunable'
p3742
g6
sS'g3'
p3743
g55
sS'poormobile'
p3744
g6
sS'cellular'
p3745
(F0.0
F0.0
F1.0
F0.0
F0.0
F1.0
tp3746
sS'stackoverflow'
p3747
g6
sS'defetive'
p3748
g6
sS'soonmy'
p3749
g6
sS'issue3'
p3750
g6
sS'octa'
p3751
g29
sS'timely'
p3752
(F0.0
F0.0
F1.0
F0.0
F0.0
F1.0
tp3753
sS'entire'
p3754
(F0.5
F0.0
F1.0
F0.5
F0.0
F1.0
tp3755
sS'prefect'
p3756
(F0.0
F0.0
F1.0
I0
I0
I0
tp3757
sS'magic'
p3758
(F0.125
F0.25
F1.0
F0.0
F0.25
F0.75
tp3759
sS'redmi2'
p3760
g6
sS'heatingwhy'
p3761
g6
sS'unusual'
p3762
(F0.375
F0.625
F0.875
F0.375
F0.625
F0.875
tp3763
sS'anxious'
p3764
(F0.125
F0.625
F0.875
F0.125
F0.625
F0.875
tp3765
sS'havent'
p3766
g55
sS'unsatisfied'
p3767
(F0.125
F0.875
F0.25
F0.125
F0.875
F0.25
tp3768
sS'smaller'
p3769
(F0.125
F0.875
F1.0
F0.125
F0.875
F1.0
tp3770
sS'goodsystem'
p3771
g6
sS'suuper'
p3772
g6
sS'video'
p3773
(F0.0
F0.0
F1.0
I0
I0
I0
tp3774
sS'uncomfortable'
p3775
(F0.0
F0.75
F0.375
F0.0
F0.75
F0.375
tp3776
sS'download'
p3777
(F0.0
F0.0
F1.0
I0
I0
I0
tp3778
sS'issuesgot'
p3779
g6
sS'odd'
p3780
(F0.5
F0.5
F1.0
F0.5
F0.5
F1.0
tp3781
sS'downingi'
p3782
g6
sS'sureawesome'
p3783
g6
sS'responble'
p3784
g6
sS'font'
p3785
(F0.0
F0.0
F1.0
I0
I0
I0
tp3786
sS'nicebattery'
p3787
g6
sS'multimedia'
p3788
(F0.0
F0.0
F1.0
I0
I0
I0
tp3789
sS'buyingsuch'
p3790
g6
sS'playg'
p3791
g6
sS'indian'
p3792
(F0.0
F0.0
F1.0
F0.0
F0.0
F1.0
tp3793
sS'nonremoval'
p3794
g6
sS'pristine'
p3795
(F0.375
F0.5
F0.375
F0.375
F0.5
F0.375
tp3796
sS'wastehandz'
p3797
g6
sS'hangingtouch'
p3798
g55
sS'westted'
p3799
g6
sS'betterplzzz'
p3800
g6
sS'led'
p3801
(F0.625
F0.125
F1.0
I0
I0
I0
tp3802
sS'ull'
p3803
(F0.5
F0.0
F0.5
I0
I0
I0
tp3804
sS'degree'
p3805
(F0.0
F0.25
F1.0
I0
I0
I0
tp3806
sS'delivering'
p3807
(F0.5
F0.25
F1.0
I0
I0
I0
tp3808
sS'desired'
p3809
(F0.625
F0.125
F1.0
F0.625
F0.0
F0.5
tp3810
sS'let'
p3811
(F0.0
F0.25
F1.0
I0
I0
I0
tp3812
sS'unpack'
p3813
(F0.0
F0.0
F1.0
I0
I0
I0
tp3814
sS'sexy'
p3815
(F0.625
F0.0
F0.375
F0.625
F0.0
F0.375
tp3816
sS'fifteen'
p3817
(F0.0
F0.0
F1.0
F0.0
F0.0
F1.0
tp3818
sS'irritating'
p3819
(F0.375
F0.625
F1.0
F0.125
F0.625
F0.75
tp3820
sS'extreme'
p3821
(F0.25
F0.25
F1.0
F0.25
F0.25
F1.0
tp3822
sS'great'
p3823
(F0.875
F0.125
F1.0
F0.875
F0.125
F1.0
tp3824
sS'arrive'
p3825
(F0.0
F0.0
F1.0
I0
I0
I0
tp3826
sS'fastgood'
p3827
g6
sS'micromax'
p3828
g55
sS'technical'
p3829
(F0.5
F0.0
F1.0
F0.5
F0.0
F1.0
tp3830
sS'32'
p3831
(F0.0
F0.0
F1.0
F0.0
F0.0
F1.0
tp3832
sS'froont'
p3833
g6
sS'larger'
p3834
(F0.5
F0.25
F1.0
F0.5
F0.25
F1.0
tp3835
sS'flyme'
p3836
g6
sS'ekart'
p3837
g6
sS'good2500'
p3838
g6
sS'decrese'
p3839
g6
sS'comingexcellent'
p3840
g6
sS'chutiyapaaexcept'
p3841
g6
sS'mindblowing'
p3842
g6
sS'implement'
p3843
(F0.0
F0.125
F1.0
I0
I0
I0
tp3844
sS'phon'
p3845
(F0.0
F0.0
F1.0
I0
I0
I0
tp3846
sS'commendable'
p3847
(F0.625
F0.0
F0.5
F0.625
F0.0
F0.5
tp3848
sS'honor'
p3849
(F0.75
F0.0
F1.0
I0
I0
I0
tp3850
sS'thanksthe'
p3851
g6
sS'motog'
p3852
g55
sS'apr'
p3853
(F0.0
F0.0
F1.0
I0
I0
I0
tp3854
sS'quiote'
p3855
g6
sS'app'
p3856
g29
sS'dedicated'
p3857
(F0.125
F0.0
F1.0
F0.125
F0.0
F0.875
tp3858
sS'apt'
p3859
(F0.5
F0.75
F0.625
F0.5
F0.75
F0.625
tp3860
sS'manny'
p3861
g6
sS'wit'
p3862
(F0.25
F0.0
F1.0
I0
I0
I0
tp3863
sS'awsom'
p3864
g55
sS'dumbest'
p3865
(F0.0
F0.625
F1.0
F0.0
F0.625
F1.0
tp3866
sS'proprietary'
p3867
(F0.0
F0.0
F1.0
F0.0
F0.0
F1.0
tp3868
sS'dosent'
p3869
g6
sS'use'
p3870
(F0.25
F0.0
F1.0
I0
I0
I0
tp3871
sS'camerq'
p3872
g6
sS'crap'
p3873
(F0.0
F0.375
F1.0
I0
I0
I0
tp3874
sS'usb'
p3875
g29
sS'yog4pap8blthe'
p3876
g6
sS'aswome'
p3877
g6
sS'fem'
p3878
g6
sS'readable'
p3879
(F0.5
F0.0
F0.5
F0.5
F0.0
F0.5
tp3880
sS'seamless'
p3881
(F0.5
F0.625
F1.0
F0.5
F0.625
F1.0
tp3882
sS'next'
p3883
(F0.0
F0.125
F1.0
F0.0
F0.125
F1.0
tp3884
sS'few'
p3885
(F0.0
F0.0
F1.0
F0.0
F0.0
F1.0
tp3886
sS'duplicate'
p3887
(F0.25
F0.125
F1.0
F0.0
F0.125
F1.0
tp3888
sS'camera'
p3889
(F0.0
F0.0
F1.0
I0
I0
I0
tp3890
sS'usr'
p3891
g6
sS'ooriginal'
p3892
g6
sS'average3'
p3893
g6
sS'awesomee'
p3894
g6
sS'talkingnice'
p3895
g6
sS'modrate'
p3896
g29
sS'upcoming'
p3897
(F0.0
F0.0
F1.0
F0.0
F0.0
F1.0
tp3898
sS'on'
p3899
(F0.125
F0.0
F1.0
F0.125
F0.0
F1.0
tp3900
sS'started'
p3901
(F0.125
F0.375
F1.0
I0
I0
I0
tp3902
sS'freezing'
p3903
(F0.125
F0.125
F1.0
I0
I0
I0
tp3904
sS'32gb'
p3905
g6
sS'rubbish'
p3906
(F0.125
F0.125
F1.0
I0
I0
I0
tp3907
sS'mene'
p3908
g6
sS'central'
p3909
(F0.0
F0.0
F1.0
F0.0
F0.0
F1.0
tp3910
sS'badworst'
p3911
g6
sS'slipery'
p3912
g6
sS'thiz'
p3913
g6
sS'a6000'
p3914
g6
sS'adieu'
p3915
(F0.0
F0.0
F1.0
I0
I0
I0
tp3916
sS'averagei'
p3917
g6
sS'f'
p3918
(F0.0
F0.0
F1.0
I0
I0
I0
tp3919
sS'this'
p3920
g55
sS'flipcart'
p3921
g6
sS'redplacement'
p3922
g6
sS'boxexcellent'
p3923
g6
sS'obvious'
p3924
(F0.5
F0.0
F0.5
F0.5
F0.0
F0.5
tp3925
sS'thin'
p3926
(F0.5
F0.25
F1.0
F0.5
F0.25
F1.0
tp3927
sS'thia'
p3928
g55
sS'aweful'
p3929
g6
sS'thid'
p3930
g55
sS'tat'
p3931
(F0.25
F0.75
F1.0
I0
I0
I0
tp3932
sS'tap'
p3933
(F0.25
F0.0
F1.0
I0
I0
I0
tp3934
sS'muchno'
p3935
g6
sS'lock'
p3936
(F0.0
F0.375
F1.0
I0
I0
I0
tp3937
sS'caual'
p3938
g6
sS'slim'
p3939
(F0.5
F0.125
F1.0
F0.5
F0.125
F0.875
tp3940
sS'thisthe'
p3941
g6
sS'promotional'
p3942
(F0.0
F0.0
F1.0
F0.0
F0.0
F1.0
tp3943
sS'high'
p3944
(F0.5
F0.25
F1.0
F0.5
F0.25
F1.0
tp3945
sS'tag'
p3946
(F0.0
F0.0
F1.0
I0
I0
I0
tp3947
sS'wowww'
p3948
g6
sS'monthcoolpad'
p3949
g6
sS'exllent'
p3950
g6
sS'expandable'
p3951
(F0.5
F0.0
F1.0
F0.5
F0.0
F1.0
tp3952
sS'awesomer'
p3953
(F0.875
F0.125
F0.0
F0.875
F0.125
F0.0
tp3954
sS'hesitate'
p3955
(F0.0
F0.125
F1.0
I0
I0
I0
tp3956
sS'colorful'
p3957
(F0.125
F0.0
F1.0
F0.125
F0.0
F1.0
tp3958
sS'defective'
p3959
(F0.5
F0.75
F0.75
F0.5
F0.75
F0.75
tp3960
sS'lame'
p3961
(F0.125
F0.5
F1.0
F0.125
F0.5
F0.5
tp3962
sS'vibe'
p3963
(F0.0
F0.125
F0.875
I0
I0
I0
tp3964
sS'justifiable'
p3965
(F0.625
F0.0
F0.375
F0.625
F0.0
F0.375
tp3966
sS'gudcamera'
p3967
g6
sS'chahiye'
p3968
g6
sS'disgusting'
p3969
(F0.25
F0.75
F0.875
F0.25
F0.75
F0.0
tp3970
sS'sensorsi'
p3971
g6
sS'anywhereno'
p3972
g6
sS'photopoor'
p3973
g6
sS'qualitythe'
p3974
g6
sS'intelligent'
p3975
(F0.75
F0.0
F0.875
F0.75
F0.0
F0.875
tp3976
sS'sim'
p3977
g6
sS'timeredmi'
p3978
g6
sS'fare'
p3979
(F0.0
F0.0
F1.0
I0
I0
I0
tp3980
sS'yellowish'
p3981
(F0.0
F0.0
F1.0
F0.0
F0.0
F1.0
tp3982
sS'npo'
p3983
g6
sS'bettergood'
p3984
g6
sS'waitlist'
p3985
g6
sS'stop'
p3986
(F0.125
F0.375
F1.0
I0
I0
I0
tp3987
sS'leftnice'
p3988
g6
sS'faltu'
p3989
g6
sS'badbattery'
p3990
g6
sS'tubelight'
p3991
g55
sS'evry'
p3992
g6
sS'awesomeso'
p3993
g6
sS'awesome1'
p3994
g6
sS'isse'
p3995
g55
sS'alrightexcellent'
p3996
g6
sS'dreadful'
p3997
(F0.125
F0.875
F0.375
F0.125
F0.875
F0.375
tp3998
sS'light'
p3999
(F0.625
F0.625
F1.0
F0.625
F0.625
F1.0
tp4000
sS'goodexcellent'
p4001
g6
sS'issu'
p4002
g6
sS'theatermax'
p4003
g6
sS'allow'
p4004
(F0.375
F0.25
F1.0
I0
I0
I0
tp4005
sS'classy'
p4006
(F0.375
F0.0
F0.625
F0.375
F0.0
F0.625
tp4007
sS'furious'
p4008
(F0.375
F0.5
F0.5
F0.375
F0.5
F0.5
tp4009
sS'worthable'
p4010
g6
sS'hangexcellent'
p4011
g6
sS'm1'
p4012
(F0.0
F0.0
F1.0
I0
I0
I0
tp4013
sS'classs'
p4014
(F0.625
F0.125
F1.0
I0
I0
I0
tp4015
sS'fastest'
p4016
(F0.5
F0.625
F1.0
F0.5
F0.625
F1.0
tp4017
sS'troublebut'
p4018
g6
sS'looka'
p4019
g55
sS'balanced'
p4020
(F0.125
F0.0
F1.0
F0.125
F0.0
F0.875
tp4021
sS'doubtful'
p4022
(F0.5
F0.125
F0.875
F0.5
F0.125
F0.875
tp4023
sS'poorcamera'
p4024
g6
sS'looks'
p4025
(F0.375
F0.375
F1.0
I0
I0
I0
tp4026
sS'mentioned'
p4027
(F0.0
F0.0
F1.0
I0
I0
I0
tp4028
sS'good3gb'
p4029
g6
sS'giftingworst'
p4030
g6
sS'galaxy'
p4031
(F0.0
F0.0
F1.0
I0
I0
I0
tp4032
sS'perfect'
p4033
(F0.75
F0.125
F1.0
F0.75
F0.125
F0.375
tp4034
sS'superior'
p4035
(F0.75
F0.0
F1.0
F0.625
F0.0
F1.0
tp4036
sS'le'
p4037
(F0.125
F0.375
F0.5
I0
I0
I0
tp4038
sS'goodto'
p4039
g6
sS'll'
p4040
g6
sS'permanent'
p4041
(F0.0
F0.625
F1.0
F0.0
F0.625
F0.375
tp4042
sS'choose'
p4043
(F0.0
F0.0
F1.0
I0
I0
I0
tp4044
sS'soonbest'
p4045
g6
sS'utilizable'
p4046
(F0.5
F0.0
F0.5
F0.5
F0.0
F0.5
tp4047
sS'criminal'
p4048
(F0.375
F0.875
F0.75
F0.375
F0.875
F0.625
tp4049
sS'pixel'
p4050
(F0.0
F0.0
F1.0
I0
I0
I0
tp4051
sS's.'
p4052
g6
sS'gudi'
p4053
g6
sS'greater'
p4054
(F0.875
F0.25
F1.0
F0.875
F0.25
F1.0
tp4055
sS'orthodox'
p4056
(F0.625
F0.0
F1.0
F0.625
F0.0
F1.0
tp4057
sS'woww'
p4058
g6
sS'frontal'
p4059
(F0.0
F0.125
F1.0
F0.0
F0.0
F1.0
tp4060
sS'frong'
p4061
g6
sS'ship'
p4062
(F0.0
F0.0
F1.0
I0
I0
I0
tp4063
sS'negligent'
p4064
(F0.25
F0.5
F0.25
F0.25
F0.5
F0.25
tp4065
sS'assistive'
p4066
(F0.5
F0.0
F0.5
F0.5
F0.0
F0.5
tp4067
sS'thrice'
p4068
(F0.25
F0.0
F0.75
F0.25
F0.0
F0.75
tp4069
sS'legendary'
p4070
(F0.875
F0.625
F0.375
F0.875
F0.625
F0.375
tp4071
sS'optimal'
p4072
(F0.5
F0.0
F0.5
F0.5
F0.0
F0.5
tp4073
sS'front'
p4074
(F0.0
F0.125
F1.0
F0.0
F0.0
F1.0
tp4075
sS'deliveryawesome'
p4076
g6
sS'fluidic'
p4077
g6
sS'handy'
p4078
(F0.25
F0.25
F1.0
F0.25
F0.25
F0.75
tp4079
sS'manfactured'
p4080
g55
sS'tray'
p4081
(F0.0
F0.0
F1.0
I0
I0
I0
tp4082
sS'dirac'
p4083
(F0.0
F0.0
F1.0
I0
I0
I0
tp4084
sS'radiant'
p4085
(F0.125
F0.0
F0.875
F0.125
F0.0
F0.875
tp4086
sS'blazing'
p4087
(F0.625
F0.125
F1.0
F0.625
F0.125
F0.625
tp4088
sS'unpredictable'
p4089
(F0.0
F0.625
F0.75
F0.0
F0.625
F0.75
tp4090
sS'delightful'
p4091
(F0.75
F0.0
F0.25
F0.75
F0.0
F0.25
tp4092
sS'worlda'
p4093
g6
sS'mode'
p4094
(F0.0
F0.0
F1.0
I0
I0
I0
tp4095
sS'supernice'
p4096
g6
sS'shaking'
p4097
(F0.25
F0.625
F1.0
I0
I0
I0
tp4098
sS'l8'
p4099
g55
sS'tooaweomeexcellent'
p4100
g6
sS'itfinger'
p4101
g6
sS'mi4i'
p4102
g55
sS'related'
p4103
(F0.25
F0.0
F1.0
F0.0
F0.0
F1.0
tp4104
sS'whitish'
p4105
(F0.5
F0.25
F0.75
F0.5
F0.25
F0.75
tp4106
sS'wrost'
p4107
g6
sS'lowlooks'
p4108
g6
sS'bitconfused'
p4109
g6
sS'special'
p4110
(F0.25
F0.0
F1.0
F0.25
F0.0
F1.0
tp4111
sS'category'
p4112
(F0.0
F0.0
F1.0
I0
I0
I0
tp4113
sS'matt'
p4114
(F0.0
F0.25
F0.75
F0.0
F0.25
F0.75
tp4115
sS'heatng'
p4116
g6
sS'req'
p4117
g55
sS'yurekha'
p4118
g6
sS'time2'
p4119
g6
sS'your'
p4120
g6
sS'specificationrear'
p4121
g6
sS'okey'
p4122
(F0.125
F0.125
F0.75
I0
I0
I0
tp4123
sS'rec'
p4124
g6
sS'adaptive'
p4125
(F0.25
F0.0
F0.75
F0.25
F0.0
F0.75
tp4126
sS'mediatek'
p4127
g6
sS'unsufficient'
p4128
g6
sS'red'
p4129
(F0.25
F0.625
F1.0
F0.25
F0.625
F1.0
tp4130
sS'marvelousbeen'
p4131
g6
sS'eco'
p4132
g55
sS'frank'
p4133
(F0.5
F0.375
F1.0
F0.5
F0.375
F0.875
tp4134
sS'toovery'
p4135
g6
sS'displeasing'
p4136
(F0.375
F0.625
F0.75
F0.375
F0.625
F0.0
tp4137
sS'quiccklygreat'
p4138
g6
sS'compro'
p4139
g6
sS'bettr'
p4140
g6
sS'moody'
p4141
(F0.25
F0.625
F1.0
F0.25
F0.625
F0.75
tp4142
sS'7th'
p4143
(F0.0
F0.0
F1.0
F0.0
F0.0
F1.0
tp4144
sS'g'
p4145
(F0.0
F0.0
F1.0
I0
I0
I0
tp4146
sS'steal'
p4147
(F0.5
F0.625
F1.0
I0
I0
I0
tp4148
sS'keep'
p4149
(F0.0
F0.625
F1.0
I0
I0
I0
tp4150
sS'keen'
p4151
(F0.875
F0.375
F1.0
F0.875
F0.375
F1.0
tp4152
sS'frent'
p4153
g29
sS'follows1'
p4154
g6
sS'timei'
p4155
g6
sS'lte'
p4156
g6
sS'qualitysuperb'
p4157
g6
sS'retail'
p4158
(F0.0
F0.0
F1.0
F0.0
F0.0
F1.0
tp4159
sS'insane'
p4160
(F0.375
F0.5
F0.5
F0.375
F0.5
F0.5
tp4161
sS'upnice'
p4162
g6
sS'powerful'
p4163
(F0.5
F0.0
F1.0
F0.5
F0.0
F1.0
tp4164
sS'normalsound'
p4165
g6
sS'uptill'
p4166
g29
sS'lagging'
p4167
(F0.0
F0.0
F1.0
I0
I0
I0
tp4168
sS'mah'
p4169
g55
sS'bakup'
p4170
g6
sS'bugeted'
p4171
g6
sS'valuble'
p4172
g55
sS'quality'
p4173
(F0.625
F0.0
F1.0
F0.625
F0.0
F0.625
tp4174
sS'straight'
p4175
(F0.625
F0.625
F1.0
F0.625
F0.625
F1.0
tp4176
sS'deceptive'
p4177
(F0.125
F0.75
F0.375
F0.125
F0.75
F0.375
tp4178
sS'keypad'
p4179
(F0.0
F0.0
F1.0
I0
I0
I0
tp4180
sS'strict'
p4181
(F0.5
F0.625
F0.75
F0.5
F0.625
F0.75
tp4182
sS'durable'
p4183
(F0.0
F0.0
F1.0
F0.0
F0.0
F1.0
tp4184
sS'wrapped'
p4185
(F0.25
F0.125
F1.0
F0.25
F0.125
F1.0
tp4186
sS'final'
p4187
(F0.0
F0.625
F1.0
F0.0
F0.625
F1.0
tp4188
sS'painful'
p4189
(F0.125
F0.875
F0.375
F0.125
F0.875
F0.375
tp4190
sS'prone'
p4191
(F0.0
F0.375
F1.0
F0.0
F0.375
F1.0
tp4192
sS'stablepros'
p4193
g6
sS'vigorous'
p4194
(F0.5
F0.0
F0.5
F0.5
F0.0
F0.5
tp4195
sS'nitro'
p4196
g6
sS'havey'
p4197
g6
sS'nonbranded'
p4198
g6
sS'laargee'
p4199
g6
sS'megal'
p4200
g6
sS'bulid'
p4201
g6
sS'chutiyahbest'
p4202
g6
sS'overwhelming'
p4203
(F0.375
F0.375
F1.0
F0.25
F0.25
F0.5
tp4204
sS'updating'
p4205
(F0.0
F0.0
F1.0
I0
I0
I0
tp4206
sS'loved'
p4207
(F1.0
F0.125
F0.5
F0.5
F0.0
F0.5
tp4208
sS'glamorous'
p4209
(F0.375
F0.0
F0.625
F0.375
F0.0
F0.625
tp4210
sS'underpriced'
p4211
(F0.0
F0.5
F0.5
I0
I0
I0
tp4212
sS'boring'
p4213
(F0.125
F0.25
F1.0
F0.0
F0.25
F0.75
tp4214
sS'bed'
p4215
(F0.375
F0.125
F1.0
I0
I0
I0
tp4216
sS'touted'
p4217
(F0.0
F0.0
F1.0
I0
I0
I0
tp4218
sS'weightthe'
p4219
g6
sS'whenever'
p4220
g6
sS'appealing'
p4221
(F0.625
F0.375
F1.0
F0.25
F0.375
F0.75
tp4222
sS'individual'
p4223
(F0.0
F0.0
F1.0
F0.0
F0.0
F1.0
tp4224
sS'nownice'
p4225
g6
sS'frimware'
p4226
g55
sS'dumb'
p4227
(F0.0
F0.625
F1.0
F0.0
F0.625
F1.0
tp4228
sS'steep'
p4229
(F0.375
F0.75
F1.0
F0.375
F0.75
F1.0
tp4230
sS'phonecoolpad'
p4231
g6
sS'false'
p4232
(F0.25
F0.875
F1.0
F0.25
F0.875
F1.0
tp4233
sS'charginggood'
p4234
g6
sS'ringer'
p4235
(F0.0
F0.0
F1.0
I0
I0
I0
tp4236
sS'onwer'
p4237
g6
sS'guysmust'
p4238
g6
sS'comebattery'
p4239
g6
sS'unkown'
p4240
g6
sS'comfortable'
p4241
(F0.75
F0.75
F0.75
F0.75
F0.75
F0.75
tp4242
sS'thankshi'
p4243
g6
sS'alwys'
p4244
g6
sS'unlikely'
p4245
(F0.0
F0.625
F1.0
F0.0
F0.625
F1.0
tp4246
sS'have'
p4247
(F0.25
F0.75
F1.0
I0
I0
I0
tp4248
sS'need'
p4249
(F0.375
F0.375
F1.0
I0
I0
I0
tp4250
sS'curved'
p4251
(F0.125
F0.125
F1.0
F0.125
F0.125
F0.75
tp4252
sS'thepast'
p4253
g6
sS'handsfree'
p4254
g6
sS'unbearable'
p4255
(F0.0
F0.625
F0.375
F0.0
F0.625
F0.375
tp4256
sS'microphone'
p4257
(F0.0
F0.0
F1.0
I0
I0
I0
tp4258
sS'afraid'
p4259
(F0.375
F0.75
F0.5
F0.375
F0.75
F0.5
tp4260
sS'angle'
p4261
(F0.0
F0.375
F1.0
I0
I0
I0
tp4262
sS'min'
p4263
(F0.0
F0.0
F1.0
I0
I0
I0
tp4264
sS'mble'
p4265
g6
sS'mic'
p4266
g29
sS'able'
p4267
(F0.25
F0.0
F0.875
F0.25
F0.0
F0.875
tp4268
sS'mid'
p4269
(F0.0
F0.0
F1.0
F0.0
F0.0
F1.0
tp4270
sS'dubba'
p4271
g6
sS'mix'
p4272
(F0.0
F0.0
F1.0
I0
I0
I0
tp4273
sS'scree'
p4274
(F0.0
F0.0
F1.0
I0
I0
I0
tp4275
sS'proble'
p4276
g55
sS'toughest'
p4277
(F0.375
F0.875
F0.625
F0.375
F0.875
F0.625
tp4278
sS'buggy'
p4279
(F0.0
F0.625
F1.0
F0.0
F0.625
F0.625
tp4280
sS'centre'
p4281
(F0.25
F0.0
F1.0
I0
I0
I0
tp4282
sS'prblm'
p4283
g55
sS'awesomeoverall'
p4284
g6
sS'harmful'
p4285
(F0.0
F0.625
F0.375
F0.0
F0.625
F0.375
tp4286
sS'reboot'
p4287
(F0.0
F0.0
F1.0
I0
I0
I0
tp4288
sS'unnessary'
p4289
g55
sS'device'
p4290
(F0.125
F0.25
F1.0
I0
I0
I0
tp4291
sS'sbapdragon'
p4292
g6
sS'refreshing'
p4293
(F0.5
F0.125
F1.0
F0.5
F0.0
F0.625
tp4294
sS'eject'
p4295
(F0.0
F0.0
F1.0
I0
I0
I0
tp4296
sS'saddest'
p4297
(F0.125
F1.0
F0.75
F0.125
F1.0
F0.75
tp4298
sS'stranded'
p4299
(F0.0
F0.125
F1.0
F0.0
F0.0
F1.0
tp4300
sS'upset'
p4301
(F0.25
F0.875
F1.0
F0.0
F0.875
F1.0
tp4302
sS'astonishing'
p4303
(F0.5
F0.25
F0.75
F0.5
F0.25
F0.5
tp4304
sS'workingexcellent'
p4305
g6
sS'betery'
p4306
g55
sS'commendablebattery'
p4307
g6
sS'sd'
p4308
(F0.0
F0.0
F1.0
I0
I0
I0
tp4309
sS'enhansment'
p4310
g6
sS'promisethe'
p4311
g6
sS'exclusive'
p4312
(F0.0
F0.75
F1.0
F0.0
F0.75
F1.0
tp4313
sS'text'
p4314
(F0.0
F0.0
F1.0
I0
I0
I0
tp4315
sS'indoor'
p4316
(F0.125
F0.0
F1.0
F0.125
F0.0
F1.0
tp4317
sS'technician'
p4318
(F0.0
F0.0
F1.0
I0
I0
I0
tp4319
sS'artificial'
p4320
(F0.25
F0.75
F0.75
F0.25
F0.75
F0.75
tp4321
sS'unreliable'
p4322
(F0.25
F0.875
F0.625
F0.25
F0.875
F0.625
tp4323
sS'tcoolpad'
p4324
g6
sS'rough'
p4325
(F0.25
F0.875
F1.0
F0.25
F0.875
F1.0
tp4326
sS'pleased'
p4327
(F0.625
F0.375
F1.0
F0.625
F0.375
F0.375
tp4328
sS'ni'
p4329
(F0.0
F0.0
F1.0
I0
I0
I0
tp4330
sS'ear'
p4331
(F0.75
F0.25
F1.0
I0
I0
I0
tp4332
sS'xpected'
p4333
g6
sS'unfinished'
p4334
(F0.0
F0.625
F0.75
F0.0
F0.625
F0.75
tp4335
sS'excellentgreat'
p4336
g6
sS'nightcamera'
p4337
g6
sS'gatiya'
p4338
g6
sS'extensible'
p4339
(F0.5
F0.0
F0.5
F0.5
F0.0
F0.5
tp4340
sS'atmos'
p4341
g6
sS'ethan'
p4342
g6
sS'b'
p4343
(F0.0
F0.0
F1.0
I0
I0
I0
tp4344
sS'local'
p4345
(F0.0
F0.0
F1.0
F0.0
F0.0
F1.0
tp4346
sS'flahs'
p4347
g55
sS'inferior'
p4348
(F0.0
F0.875
F1.0
F0.0
F0.875
F1.0
tp4349
sS'lotn'
p4350
g6
sS'handle'
p4351
(F0.0
F0.25
F1.0
I0
I0
I0
tp4352
sS'exceptional'
p4353
(F0.25
F0.375
F0.75
F0.25
F0.375
F0.75
tp4354
sS'wonderfull'
p4355
g6
sS'familiar'
p4356
(F0.5
F0.125
F1.0
F0.5
F0.125
F0.625
tp4357
sS'unbeatable'
p4358
(F0.0
F0.5
F0.75
F0.0
F0.5
F0.75
tp4359
sS'overall'
p4360
(F0.0
F0.125
F1.0
F0.0
F0.0
F1.0
tp4361
sS'lucky'
p4362
(F0.875
F0.0
F0.25
F0.875
F0.0
F0.25
tp4363
sS'ghatiya'
p4364
g6
sS'hourstoo'
p4365
g6
sS'hifi'
p4366
g6
sS'yureka'
p4367
g55
sS'aforementioned'
p4368
(F0.0
F0.0
F1.0
F0.0
F0.0
F1.0
tp4369
sS'swiftest'
p4370
(F0.0
F0.0
F1.0
F0.0
F0.0
F1.0
tp4371
sS'routine'
p4372
(F0.25
F0.0
F1.0
F0.125
F0.0
F0.875
tp4373
sS'goodonebest'
p4374
g6
sS'gray'
p4375
(F0.5
F0.25
F1.0
F0.5
F0.0
F1.0
tp4376
sS'amazing5'
p4377
g6
sS'amazing4'
p4378
g6
sS'evident'
p4379
(F0.625
F0.0
F0.5
F0.625
F0.0
F0.5
tp4380
sS'coll'
p4381
g6
sS'usageall'
p4382
g6
sS'qa'
p4383
g6
sS'default'
p4384
(F0.125
F0.25
F1.0
I0
I0
I0
tp4385
sS'workingyu'
p4386
g6
sS'avoidable'
p4387
(F0.625
F0.0
F0.375
F0.625
F0.0
F0.375
tp4388
sS'wish'
p4389
(F0.5
F0.5
F1.0
I0
I0
I0
tp4390
sS'grab'
p4391
(F0.0
F0.125
F1.0
I0
I0
I0
tp4392
sS'conform'
p4393
(F0.0
F0.0
F1.0
I0
I0
I0
tp4394
sS'fabulousexpandable'
p4395
g6
sS'callawesome'
p4396
g6
sS'btr'
p4397
g6
sS'configured'
p4398
(F0.0
F0.0
F1.0
F0.0
F0.0
F1.0
tp4399
sS'freeze'
p4400
(F0.125
F0.125
F1.0
I0
I0
I0
tp4401
sS'deliveredfantastic'
p4402
g6
sS'enhanced'
p4403
(F0.5
F0.125
F1.0
F0.5
F0.125
F0.375
tp4404
sS'gudheating'
p4405
g6
sS'packed'
p4406
(F0.0
F0.125
F1.0
F0.0
F0.125
F1.0
tp4407
sS'superi'
p4408
g6
sS'complementary'
p4409
(F0.125
F0.625
F1.0
F0.125
F0.625
F0.75
tp4410
sS'itna'
p4411
g6
sS'avaliable'
p4412
g6
sS'superb'
p4413
(F0.875
F0.0
F0.125
F0.875
F0.0
F0.125
tp4414
sS'quickest'
p4415
(F0.25
F0.25
F1.0
F0.25
F0.25
F1.0
tp4416
sS'entrant'
p4417
(F0.0
F0.0
F1.0
I0
I0
I0
tp4418
sS'closed'
p4419
(F0.25
F0.75
F1.0
F0.0
F0.75
F1.0
tp4420
sS'horrible'
p4421
(F0.0
F0.625
F0.375
F0.0
F0.625
F0.375
tp4422
sS'crude'
p4423
(F0.5
F0.75
F1.0
F0.5
F0.75
F0.625
tp4424
sS'lastday'
p4425
g6
sS'luk'
p4426
g6
sS'frustrated'
p4427
(F0.0
F0.5
F1.0
F0.0
F0.5
F0.5
tp4428
sS'unbelieveable'
p4429
g55
sS'bought'
p4430
(F0.5
F0.0
F1.0
I0
I0
I0
tp4431
sS'greatful'
p4432
g6
sS'comparable'
p4433
(F0.5
F0.0
F0.5
F0.5
F0.0
F0.5
tp4434
sS'vry'
p4435
g55
sS'deliver'
p4436
(F0.5
F0.25
F1.0
I0
I0
I0
tp4437
sS'casedvery'
p4438
g6
sS'key'
p4439
(F0.125
F0.0
F1.0
F0.0
F0.0
F1.0
tp4440
sS'mobileheavy'
p4441
g6
sS'interchangeable'
p4442
(F0.5
F0.0
F1.0
F0.5
F0.0
F1.0
tp4443
sS'precious'
p4444
(F0.75
F0.25
F0.75
F0.75
F0.25
F0.75
tp4445
sS'moneyoverall'
p4446
g6
sS'swift'
p4447
(F0.0
F0.0
F1.0
F0.0
F0.0
F1.0
tp4448
sS'succesful'
p4449
g6
sS'extendable'
p4450
(F0.625
F0.0
F0.375
F0.625
F0.0
F0.375
tp4451
sS'instant'
p4452
(F0.25
F0.375
F1.0
F0.25
F0.375
F1.0
tp4453
sS'fitst'
p4454
g6
sS'taking'
p4455
(F0.625
F0.5
F1.0
F0.625
F0.0
F0.375
tp4456
sS'equal'
p4457
(F0.5
F0.25
F1.0
F0.125
F0.0
F1.0
tp4458
sS'featurebuilt'
p4459
g6
sS'swapable'
p4460
g6
sS'lollipo'
p4461
g55
sS'etc'
p4462
g29
sS'atleast'
p4463
g29
sS'webstite'
p4464
g6
sS'vadiant'
p4465
g6
sS'sadvery'
p4466
g6
sS'relevant'
p4467
(F0.0
F0.0
F1.0
F0.0
F0.0
F1.0
tp4468
sS'lefthybrid'
p4469
g6
sS'authorised'
p4470
(F0.125
F0.375
F1.0
F0.125
F0.375
F0.625
tp4471
sS'upfront'
p4472
(F0.625
F0.125
F0.25
F0.625
F0.125
F0.25
tp4473
sS'interface'
p4474
(F0.0
F0.0
F1.0
I0
I0
I0
tp4475
sS'crafted'
p4476
(F0.0
F0.0
F1.0
I0
I0
I0
tp4477
sS'cs'
p4478
(F0.0
F0.0
F1.0
I0
I0
I0
tp4479
sS'crystalline'
p4480
(F0.625
F0.0
F1.0
F0.625
F0.0
F1.0
tp4481
sS'neat'
p4482
(F0.875
F0.375
F0.75
F0.875
F0.375
F0.75
tp4483
sS'protective'
p4484
(F0.375
F0.375
F0.875
F0.375
F0.375
F0.875
tp4485
sS'j7overall'
p4486
g6
sS'tremendous'
p4487
(F0.75
F0.25
F1.0
F0.75
F0.25
F1.0
tp4488
sS'decent'
p4489
(F0.875
F0.0
F1.0
F0.875
F0.0
F1.0
tp4490
sS'flipmsy'
p4491
g55
sS'letvs'
p4492
g6
sS'gr83'
p4493
g6
sS'immense'
p4494
(F0.0
F0.125
F0.875
F0.0
F0.125
F0.875
tp4495
sS'genetic'
p4496
(F0.0
F0.125
F1.0
F0.0
F0.125
F1.0
tp4497
sS'willing'
p4498
(F0.5
F0.625
F1.0
F0.5
F0.625
F0.5
tp4499
sS'willl'
p4500
g55
sS'krke'
p4501
g6
sS'lifebest'
p4502
g6
sS'feather'
p4503
(F0.125
F0.0
F1.0
I0
I0
I0
tp4504
sS'waste'
p4505
(F0.5
F0.5
F1.0
F0.0
F0.0
F1.0
tp4506
sS'ignorable'
p4507
g29
sS'handset'
p4508
(F0.0
F0.0
F1.0
I0
I0
I0
tp4509
sS'quik'
p4510
g55
sS'itfantastic'
p4511
g6
sS'flipkat'
p4512
g55
sS'angled'
p4513
(F0.0
F0.375
F1.0
F0.0
F0.0
F1.0
tp4514
sS'senser'
p4515
g55
sS'flipkar'
p4516
g6
sS'disadvantagous'
p4517
g6
sS'ota'
p4518
g29
sS'sufficient'
p4519
(F0.125
F0.75
F0.125
F0.125
F0.75
F0.125
tp4520
sS'lga'
p4521
g6
sS'biuld'
p4522
g6
sS'crappy'
p4523
(F0.0
F0.75
F0.25
F0.0
F0.75
F0.25
tp4524
sS'hmm'
p4525
g6
sS'finished'
p4526
(F0.75
F0.5
F1.0
F0.75
F0.5
F1.0
tp4527
sS'upthis'
p4528
g6
sS'fineother'
p4529
g6
sS'last'
p4530
(F0.375
F0.625
F1.0
F0.375
F0.625
F1.0
tp4531
sS'averge'
p4532
g6
sS'present'
p4533
(F0.125
F0.125
F1.0
F0.0
F0.125
F1.0
tp4534
sS'multi'
p4535
g6
sS'pricelow'
p4536
g6
sS'laser'
p4537
(F0.0
F0.0
F1.0
I0
I0
I0
tp4538
sS'awesom'
p4539
g6
sS'harder'
p4540
(F0.25
F0.875
F1.0
F0.25
F0.875
F1.0
tp4541
sS'stunning'
p4542
(F0.75
F0.75
F1.0
F0.75
F0.75
F1.0
tp4543
sS'scanned'
p4544
(F0.375
F0.0
F1.0
I0
I0
I0
tp4545
sS'encountered'
p4546
(F0.0
F0.25
F1.0
I0
I0
I0
tp4547
sS'positivescrystal'
p4548
g6
sS'wild'
p4549
(F0.5
F0.75
F1.0
F0.5
F0.75
F1.0
tp4550
sS'advisable'
p4551
(F0.625
F0.0
F0.375
F0.625
F0.0
F0.375
tp4552
sS'ultra'
p4553
(F0.125
F0.125
F0.75
F0.125
F0.125
F0.75
tp4554
sS'frustrating'
p4555
(F0.625
F0.375
F1.0
F0.625
F0.375
F0.625
tp4556
sS'xpress'
p4557
g55
sS've'
p4558
g6
sS'almost'
p4559
(F0.0
F0.0
F1.0
F0.0
F0.0
F1.0
tp4560
sS'vi'
p4561
(F0.0
F0.0
F1.0
F0.0
F0.0
F1.0
tp4562
sS'alsothis'
p4563
g6
sS'inteactive'
p4564
g55
sS'vr'
p4565
g6
sS'vs'
p4566
(F0.0
F0.0
F1.0
I0
I0
I0
tp4567
sS'tampered'
p4568
(F0.0
F0.0
F1.0
I0
I0
I0
tp4569
sS'optimistic'
p4570
(F0.75
F0.25
F0.25
F0.75
F0.25
F0.25
tp4571
sS'dual'
p4572
(F0.5
F0.25
F1.0
F0.5
F0.25
F1.0
tp4573
sS'lightweight'
p4574
(F0.25
F0.5
F1.0
F0.25
F0.5
F1.0
tp4575
sS'claimed'
p4576
(F0.0
F0.0
F1.0
I0
I0
I0
tp4577
sS'avg'
p4578
g29
sS'sdbest'
p4579
g6
sS'liitle'
p4580
g55
sS'uptime'
p4581
(F0.0
F0.0
F1.0
I0
I0
I0
tp4582
sS'thathappy'
p4583
g6
sS'generic'
p4584
(F0.125
F0.375
F1.0
F0.125
F0.375
F1.0
tp4585
sS'guranteed'
p4586
g6
sS'chargingsome'
p4587
g6
sS'anythingworst'
p4588
g6
sS'highlighted'
p4589
(F0.0
F0.0
F1.0
I0
I0
I0
tp4590
sS'strange'
p4591
(F0.375
F0.375
F1.0
F0.375
F0.375
F1.0
tp4592
sS'speaker'
p4593
(F0.0
F0.0
F1.0
I0
I0
I0
tp4594
sS'dam'
p4595
(F0.0
F0.0
F1.0
I0
I0
I0
tp4596
sS'inch'
p4597
(F0.0
F0.0
F1.0
I0
I0
I0
tp4598
sS'android'
p4599
(F0.0
F0.0
F1.0
I0
I0
I0
tp4600
sS'difficult'
p4601
(F0.0
F0.75
F0.375
F0.0
F0.75
F0.375
tp4602
sS'unimaginable'
p4603
(F0.5
F0.375
F0.125
F0.5
F0.375
F0.125
tp4604
sS'overal'
p4605
g6
sS'http'
p4606
(F0.0
F0.0
F1.0
I0
I0
I0
tp4607
sS'phn'
p4608
g6
sS'earphones'
p4609
(F0.0
F0.0
F1.0
I0
I0
I0
tp4610
sS'ios'
p4611
(F0.125
F0.0
F1.0
I0
I0
I0
tp4612
sS'outstandingexcellent'
p4613
g6
sS'dust'
p4614
(F0.0
F0.375
F1.0
I0
I0
I0
tp4615
sS'lenvo'
p4616
g55
sS'impeccable'
p4617
(F0.125
F0.625
F0.375
F0.125
F0.625
F0.375
tp4618
sS'historyyeswawyesworst'
p4619
g6
sS'okthis'
p4620
g6
sS'discounted'
p4621
(F0.0
F0.0
F1.0
I0
I0
I0
tp4622
sS'center'
p4623
(F0.25
F0.25
F1.0
F0.0
F0.0
F1.0
tp4624
sS'mobilewasted'
p4625
g6
sS'ultrasmooth'
p4626
g6
sS'i'
p4627
(F0.0
F0.25
F1.0
F0.0
F0.25
F0.75
tp4628
sS'colour'
p4629
(F0.625
F0.25
F1.0
F0.625
F0.0
F0.375
tp4630
sS'expectedbattery'
p4631
g6
sS'sensorbest'
p4632
g6
sS'thought'
p4633
(F0.75
F0.625
F1.0
I0
I0
I0
tp4634
sS'distateful'
p4635
g6
sS'english'
p4636
(F0.0
F0.0
F1.0
F0.0
F0.0
F1.0
tp4637
sS'audio'
p4638
(F0.0
F0.0
F1.0
I0
I0
I0
tp4639
sS'latest'
p4640
(F0.125
F0.25
F1.0
F0.125
F0.25
F1.0
tp4641
sS'upgraded'
p4642
(F0.5
F0.125
F0.875
I0
I0
I0
tp4643
sS'excessive'
p4644
(F0.125
F0.5
F0.5
F0.125
F0.5
F0.5
tp4645
sS'andriod'
p4646
g6
sS'less'
p4647
(F0.125
F0.5
F1.0
F0.125
F0.5
F1.0
tp4648
sS'accurate'
p4649
(F0.5
F0.0
F0.875
F0.5
F0.0
F0.875
tp4650
sS'fingerprint'
p4651
(F0.0
F0.625
F1.0
I0
I0
I0
tp4652
sS'goodmicromax'
p4653
g6
sS'flsah'
p4654
g6
sS'dose'
p4655
(F0.125
F0.0
F1.0
I0
I0
I0
tp4656
sS'sooperb'
p4657
g55
sS'advertised'
p4658
(F0.0
F0.0
F1.0
F0.0
F0.0
F1.0
tp4659
sS'exemplary'
p4660
(F0.625
F0.25
F0.875
F0.625
F0.25
F0.875
tp4661
sS'rest'
p4662
(F0.125
F0.25
F1.0
I0
I0
I0
tp4663
sS'generous'
p4664
(F0.25
F0.625
F1.0
F0.25
F0.625
F1.0
tp4665
sS'rapid'
p4666
(F0.5
F0.0
F1.0
F0.5
F0.0
F1.0
tp4667
sS'wen'
p4668
(F0.0
F0.0
F1.0
I0
I0
I0
tp4669
sS'microsd'
p4670
g6
sS'battery'
p4671
(F0.0
F0.25
F1.0
I0
I0
I0
tp4672
sS'touchexcellent'
p4673
g6
sS'attractive'
p4674
(F0.875
F0.0
F1.0
F0.875
F0.0
F1.0
tp4675
sS'usage'
p4676
(F0.375
F0.0
F1.0
I0
I0
I0
tp4677
sS'simxiaomi'
p4678
g6
sS'xender'
p4679
g6
sS'smart'
p4680
(F0.75
F0.875
F0.875
F0.75
F0.875
F0.875
tp4681
sS'identical'
p4682
(F0.5
F0.5
F1.0
F0.5
F0.5
F1.0
tp4683
sS'worest'
p4684
g6
sS'ample'
p4685
(F0.125
F0.0
F1.0
F0.125
F0.0
F1.0
tp4686
sS'punctual'
p4687
(F0.0
F0.0
F1.0
F0.0
F0.0
F1.0
tp4688
sS'fyn'
p4689
g6
sS'highthis'
p4690
g6
sS'know'
p4691
(F0.625
F0.25
F1.0
I0
I0
I0
tp4692
sS'goodhi'
p4693
g6
sS'passable'
p4694
(F0.25
F0.375
F1.0
F0.25
F0.375
F1.0
tp4695
sS'mtouch'
p4696
g6
sS'goodmetallic'
p4697
g6
sS'prominent'
p4698
(F0.5
F0.125
F0.625
F0.5
F0.125
F0.625
tp4699
sS'insert'
p4700
(F0.0
F0.25
F1.0
I0
I0
I0
tp4701
sS'motorola'
p4702
g55
sS'crisp'
p4703
(F0.5
F0.125
F1.0
F0.5
F0.125
F1.0
tp4704
sS'like'
p4705
(F1.0
F0.25
F1.0
F0.5
F0.25
F0.75
tp4706
sS'bulge'
p4707
(F0.0
F0.0
F1.0
I0
I0
I0
tp4708
sS'vibrant'
p4709
(F0.625
F0.25
F0.375
F0.625
F0.25
F0.375
tp4710
sS'asphalt8'
p4711
g6
sS'flickering'
p4712
(F0.25
F0.25
F1.0
F0.25
F0.0
F0.75
tp4713
sS'become'
p4714
(F0.125
F0.0
F1.0
I0
I0
I0
tp4715
sS'works'
p4716
(F0.375
F0.25
F1.0
I0
I0
I0
tp4717
sS'soft'
p4718
(F1.0
F0.75
F1.0
F1.0
F0.75
F1.0
tp4719
sS'audible'
p4720
(F0.375
F0.0
F1.0
F0.375
F0.0
F0.625
tp4721
sS'smoothness'
p4722
(F0.75
F0.125
F1.0
I0
I0
I0
tp4723
sS'replacement'
p4724
(F0.0
F0.0
F1.0
I0
I0
I0
tp4725
sS'accessible'
p4726
(F0.625
F0.125
F0.875
F0.625
F0.125
F0.875
tp4727
sS'dindnt'
p4728
g6
sS'guaranty'
p4729
(F0.0
F0.0
F1.0
I0
I0
I0
tp4730
sS'smoothly'
p4731
(F0.125
F0.0
F0.875
F0.125
F0.0
F0.875
tp4732
sS'techincal'
p4733
g29
sS'alive'
p4734
(F0.625
F0.0
F1.0
F0.625
F0.0
F1.0
tp4735
sS'tempered'
p4736
(F0.0
F0.0
F1.0
F0.0
F0.0
F1.0
tp4737
sS'daylight'
p4738
(F0.0
F0.0
F1.0
I0
I0
I0
tp4739
sS'warmer'
p4740
(F0.625
F0.75
F1.0
F0.625
F0.75
F1.0
tp4741
sS'flush'
p4742
(F0.625
F0.625
F1.0
F0.0
F0.25
F1.0
tp4743
sS'proper'
p4744
(F0.75
F0.0
F1.0
F0.75
F0.0
F1.0
tp4745
sS'thier'
p4746
g6
sS'hissing'
p4747
(F0.0
F0.125
F1.0
I0
I0
I0
tp4748
sS'nokia'
p4749
g6
sS'broad'
p4750
(F0.625
F0.5
F1.0
F0.625
F0.5
F1.0
tp4751
sS'avoid'
p4752
(F0.0
F0.375
F1.0
I0
I0
I0
tp4753
sS'appreciative'
p4754
(F0.5
F0.75
F0.5
F0.5
F0.75
F0.5
tp4755
sS'friendslow'
p4756
g6
sS'economical'
p4757
(F0.25
F0.25
F1.0
F0.25
F0.25
F1.0
tp4758
sS'cerified'
p4759
g55
sS'noise'
p4760
(F0.5
F0.375
F1.0
I0
I0
I0
tp4761
sS'slight'
p4762
(F0.5
F0.5
F1.0
F0.5
F0.375
F1.0
tp4763
sS'excat'
p4764
g6
sS'expiry'
p4765
(F0.0
F0.0
F1.0
I0
I0
I0
tp4766
sS'stellar'
p4767
(F0.25
F0.0
F0.875
F0.25
F0.0
F0.875
tp4768
sS'sir'
p4769
(F0.0
F0.0
F1.0
I0
I0
I0
tp4770
sS'goodbaterry'
p4771
g6
sS'worthy'
p4772
(F0.875
F0.0
F0.5
F0.875
F0.0
F0.5
tp4773
sS'imaginary'
p4774
(F0.0
F0.75
F1.0
F0.0
F0.75
F0.25
tp4775
sS'stay'
p4776
(F0.125
F0.375
F1.0
I0
I0
I0
tp4777
sS'noisy'
p4778
(F0.375
F0.375
F0.25
F0.375
F0.375
F0.25
tp4779
sS'jam'
p4780
(F0.125
F0.5
F1.0
I0
I0
I0
tp4781
sS'rare'
p4782
(F0.5
F0.875
F1.0
F0.5
F0.875
F1.0
tp4783
sS'worstcamara'
p4784
g6
sS'promble'
p4785
g6
sS'rockstable'
p4786
g6
sS'upgradeable'
p4787
g6
sS'serviceable'
p4788
(F0.75
F0.0
F1.0
F0.75
F0.0
F1.0
tp4789
sS'compatible'
p4790
(F0.5
F0.0
F0.625
F0.5
F0.0
F0.625
tp4791
sS'chrome'
p4792
(F0.0
F0.125
F1.0
I0
I0
I0
tp4793
sS'yr.'
p4794
g6
sS'goodpoor'
p4795
g6
sS'insufficient'
p4796
(F0.125
F0.875
F0.0
F0.125
F0.875
F0.0
tp4797
sS'removable'
p4798
(F0.625
F0.125
F0.75
F0.625
F0.125
F0.75
tp4799
sS'software'
p4800
(F0.0
F0.0
F1.0
I0
I0
I0
tp4801
sS'warranty'
p4802
(F0.0
F0.0
F1.0
I0
I0
I0
tp4803
sS'heactic'
p4804
g6
sS'own'
p4805
(F0.0
F0.0
F1.0
F0.0
F0.0
F1.0
tp4806
sS'polished'
p4807
(F0.5
F0.125
F1.0
F0.5
F0.125
F1.0
tp4808
sS'functional'
p4809
(F0.5
F0.0
F1.0
F0.5
F0.0
F1.0
tp4810
sS'headphone'
p4811
(F0.0
F0.0
F1.0
I0
I0
I0
tp4812
sS'doesnt'
p4813
g55
sS'h.'
p4814
g29
sS'tiny'
p4815
(F0.0
F0.0
F1.0
F0.0
F0.0
F1.0
tp4816
sS'gudamazingamazingawsome'
p4817
g6
sS'mere'
p4818
(F0.25
F0.375
F1.0
F0.25
F0.375
F0.625
tp4819
sS'superbbb'
p4820
g6
sS'okkk'
p4821
g6
sS'additional'
p4822
(F0.0
F0.0
F1.0
F0.0
F0.0
F1.0
tp4823
sS'apps'
p4824
g29
sS'noticed'
p4825
(F0.125
F0.0
F1.0
F0.125
F0.0
F0.875
tp4826
sS'efficent'
p4827
g6
sS'settings5'
p4828
g6
sS'recommendable'
p4829
g55
sS'biggest'
p4830
(F0.5
F0.5
F1.0
F0.5
F0.5
F1.0
tp4831
sS'minutesmobile'
p4832
g6
sS'goodjust'
p4833
g6
sS'agian'
p4834
g6
sS'buy'
p4835
(F0.5
F0.0
F1.0
I0
I0
I0
tp4836
sS'bobble'
p4837
(F0.0
F0.75
F1.0
I0
I0
I0
tp4838
sS'hr'
p4839
(F0.0
F0.0
F1.0
I0
I0
I0
tp4840
sS'awesomegood'
p4841
g6
sS'okayish'
p4842
g6
sS'hv'
p4843
g55
sS'happey'
p4844
g55
sS'cusomer'
p4845
g6
sS'neutral'
p4846
(F0.5
F0.75
F0.875
F0.5
F0.75
F0.875
tp4847
sS'hi'
p4848
(F0.0
F0.0
F1.0
I0
I0
I0
tp4849
sS'grate'
p4850
(F0.125
F0.25
F1.0
I0
I0
I0
tp4851
sS'didnt'
p4852
g6
sS'backup3'
p4853
g6
sS'highest'
p4854
(F0.5
F0.25
F1.0
F0.5
F0.25
F1.0
tp4855
sS'backup5'
p4856
g6
sS'intrusive'
p4857
(F0.125
F0.5
F1.0
F0.125
F0.5
F1.0
tp4858
sS'hd'
p4859
g55
sS'leftsound'
p4860
g6
sS'wise'
p4861
(F0.625
F0.125
F1.0
F0.625
F0.125
F1.0
tp4862
sS'temp'
p4863
(F0.0
F0.0
F1.0
I0
I0
I0
tp4864
sS'dangerous'
p4865
(F0.0
F0.75
F0.375
F0.0
F0.75
F0.375
tp4866
sS'official'
p4867
(F0.25
F0.0
F1.0
F0.25
F0.0
F1.0
tp4868
sS'smooth'
p4869
(F0.625
F0.375
F1.0
F0.625
F0.375
F1.0
tp4870
sS'flip'
p4871
(F0.25
F0.5
F1.0
F0.25
F0.5
F0.25
tp4872
sS'aftersome'
p4873
g6
sS'below'
p4874
(F0.0
F0.0
F1.0
F0.0
F0.0
F1.0
tp4875
sS'arnd'
p4876
g6
sS'lenevo'
p4877
g29
sS'piece'
p4878
(F0.125
F0.0
F1.0
I0
I0
I0
tp4879
sS'display'
p4880
(F0.125
F0.0
F1.0
I0
I0
I0
tp4881
sS'supreme'
p4882
(F0.75
F0.25
F1.0
F0.75
F0.25
F1.0
tp4883
sS'rupeesit'
p4884
g6
sS'inadequate'
p4885
(F0.0
F0.625
F0.5
F0.0
F0.625
F0.5
tp4886
sS'universal'
p4887
(F0.0
F0.125
F1.0
F0.0
F0.0
F1.0
tp4888
sS'pic'
p4889
(F0.0
F0.0
F1.0
I0
I0
I0
tp4890
sS'life'
p4891
(F0.25
F0.0
F1.0
I0
I0
I0
tp4892
sS'tb'
p4893
(F0.0
F0.0
F1.0
I0
I0
I0
tp4894
sS'twist'
p4895
(F0.125
F0.25
F1.0
I0
I0
I0
tp4896
sS'priceexcellent'
p4897
g6
sS'sooper'
p4898
g6
sS'inf'
p4899
g6
sS'verymuch'
p4900
g6
sS'awsme'
p4901
g55
sS'incredible'
p4902
(F0.0
F0.0
F1.0
F0.0
F0.0
F1.0
tp4903
sS'functionigwrote'
p4904
g6
sS'mch'
p4905
g6
sS'percent'
p4906
(F0.0
F0.0
F1.0
I0
I0
I0
tp4907
sS'detail'
p4908
(F0.125
F0.0
F1.0
I0
I0
I0
tp4909
sS'surreal'
p4910
(F0.25
F0.5
F0.625
F0.25
F0.5
F0.625
tp4911
sS'updatesatisfied'
p4912
g6
sS'other'
p4913
(F0.375
F0.625
F1.0
F0.375
F0.625
F1.0
tp4914
sS'boom'
p4915
(F0.375
F0.25
F1.0
I0
I0
I0
tp4916
sS'sick'
p4917
(F0.5
F0.75
F1.0
F0.5
F0.75
F0.5
tp4918
sS'reckless'
p4919
(F0.125
F0.75
F0.125
F0.125
F0.75
F0.125
tp4920
sS'badgood'
p4921
g6
sS'star'
p4922
(F0.375
F0.0
F1.0
F0.125
F0.0
F0.875
tp4923
sS'ecstatic'
p4924
(F0.25
F0.5
F0.25
F0.25
F0.5
F0.25
tp4925
sS'soonaspossible'
p4926
g6
sS'in1'
p4927
g6
sS'in2'
p4928
g6
sS'frustrate'
p4929
(F0.0
F0.125
F1.0
I0
I0
I0
tp4930
sS'goid'
p4931
g6
sS'kinda'
p4932
(F0.0
F0.0
F1.0
F0.0
F0.0
F1.0
tp4933
sS'undelivered'
p4934
g6
sS'friends'
p4935
(F0.25
F0.0
F1.0
I0
I0
I0
tp4936
sS'exposure'
p4937
(F0.125
F0.75
F1.0
I0
I0
I0
tp4938
sS'goodbattery'
p4939
g6
sS'samsung'
p4940
g29
sS'vibeui'
p4941
g6
sS'versionpathetic'
p4942
g6
sS'usefull'
p4943
g29
sS'original'
p4944
(F0.625
F0.5
F1.0
F0.25
F0.5
F1.0
tp4945
sS'compete'
p4946
(F0.0
F0.0
F1.0
I0
I0
I0
tp4947
sS'itpros'
p4948
g6
sS'4g'
p4949
g6
sS'suportd'
p4950
g6
sS'8th'
p4951
(F0.0
F0.0
F1.0
F0.0
F0.0
F1.0
tp4952
s.