(dp0
(S'screen'
p1
S'size'
p2
tp3
(lp4
(I7
I4
I0
S'screen'
p5
I1
tp6
a(I213
I4
I0
S'screen'
p7
I1
tp8
a(I219
I1
I0
S'screen'
p9
I1
tp10
a(I248
I0
I0
S'screen'
p11
I1
tp12
a(I258
I5
I0
S'bigger'
p13
I1
tp14
a(I258
I5
I0
S'screen'
p15
I1
tp16
a(I358
I13
I0
S'screen'
p17
I1
tp18
a(I634
I3
I0
S'screen'
p19
I1
tp20
a(I634
I3
F-0.75
S'difficult'
p21
I1
tp22
as(S'hanging'
p23
tp24
(lp25
(I1002
I1
F0.75
S'constant'
p26
I6
tp27
as(S'2'
p28
S'gb'
p29
S'ram'
p30
tp31
(lp32
(I7
I13
F-0.75
S'free'
p33
I4
tp34
a(I20
I0
F1.0
S'better'
p35
I4
tp36
a(I73
I1
F0.5
S'internal'
p37
I4
tp38
a(I109
I4
I0
S'ridiculous'
p39
I4
tp40
a(I213
I13
F-0.75
S'free'
p41
I4
tp42
a(I686
I13
F0.125
S'enough'
p43
I4
tp44
as(S'1'
p45
S'battery'
p46
tp47
(lp48
(I16
I6
F-0.5
S'unbeatable'
p49
I0
tp50
a(I26
I0
I0
S'big'
p51
I0
tp52
a(I89
I3
F0.625
S'smooth'
p53
I0
tp54
a(I214
I0
F0.875
S'amazing'
p55
I0
tp56
a(I236
I10
F-1.0
S'worse'
p57
I0
tp58
a(I236
I10
F-0.625
S'last'
p59
I0
tp60
a(I269
I0
I0
S'enormous'
p61
I0
tp62
a(I360
I0
F1.0
S'best'
p63
I0
tp64
a(I374
I5
F1.0
S'good'
p65
I0
tp66
a(I374
I5
F-0.625
S'last'
p67
I0
tp68
a(I406
I1
F0.625
S'major'
p69
I0
tp70
a(I406
I1
I0
S'pro'
p71
I0
tp72
a(I413
I1
F-0.125
S'huge'
p73
I0
tp74
a(I439
I0
F1.0
S'good'
p75
I0
tp76
a(I572
I1
F1.0
S'good'
p77
I0
tp78
a(I595
I1
I0
S'normal'
p79
I0
tp80
a(I595
I1
F0.375
S'usage'
p81
I0
tp82
a(I650
I13
F-0.125
S'huge'
p83
I0
tp84
a(I663
I0
F-0.5
S'long'
p85
I0
tp86
a(I663
I0
F-0.625
S'lasting'
p87
I0
tp88
a(I777
I0
F0.875
S'great'
p89
I0
tp90
a(I872
I0
F0.875
S'awesome'
p91
I0
tp92
a(I885
I12
F0.75
S'outstanding'
p93
I0
tp94
as(S'week'
p95
tp96
(lp97
(I47
I7
F0.625
S'first'
p98
I9
tp99
a(I47
I7
F-0.75
S'warm'
p100
I9
tp101
a(I295
I0
F0.375
S'usage'
p102
I9
tp103
a(I295
I0
I0
S's'
p104
I9
tp105
a(I441
I1
F-0.625
S'last'
p106
I9
tp107
a(I449
I3
F0.625
S'first'
p108
I9
tp109
a(I479
I2
F-0.625
S'last'
p110
I9
tp111
a(I479
I6
F-0.625
S'last'
p112
I9
tp113
a(I705
I10
F-0.625
S'last'
p114
I9
tp115
a(I705
I10
F-0.375
S'half'
p116
I9
tp117
a(I864
I15
F-0.625
S'last'
p118
I9
tp119
a(I864
I15
F0.625
S'smooth'
p120
I9
tp121
a(I936
I10
F0.125
S'mobile'
p122
I9
tp123
a(I936
I10
F-0.625
S'last'
p124
I9
tp125
a(I1000
I5
F1.0
S'enjoyed'
p126
I9
tp127
a(I1012
I3
F-0.625
S'last'
p128
I9
tp129
as(S'5'
p130
g130
S'screen'
p131
tp132
(lp133
(I209
I3
I0
S'big'
p134
I0
tp135
a(I491
I2
I0
S'inch'
p136
I0
tp137
as(S'heavy'
p138
S'in'
p139
S'weight'
p140
tp141
(lp142
(I8
I43
F-0.5
S'heavy'
p143
I0
tp144
a(I565
I0
F-0.5
S'heavy'
p145
I0
tp146
a(I568
I2
F-0.75
S'little'
p147
I0
tp148
a(I568
I2
F-0.5
S'heavy'
p149
I0
tp150
a(I635
I0
F0.375
S'much'
p151
I0
tp152
a(I864
I15
F0.375
S'ok'
p153
I0
tp154
a(I1116
I3
F-0.5
S'heavy'
p155
I0
tp156
a(I8
I43
F-0.5
g143
I4
tp157
a(I253
I0
I0
S'more'
p158
I4
tp159
a(I565
I0
F-0.5
g145
I4
tp160
a(I568
I2
F-0.75
g147
I4
tp161
a(I568
I2
F-0.5
g149
I4
tp162
a(I593
I3
F-0.5
S'heavy'
p163
I4
tp164
a(I593
I3
F-0.875
S'poor'
p165
I4
tp166
a(I864
I15
F0.375
g153
I4
tp167
a(I864
I18
F0.375
S'much'
p168
I4
tp169
a(I868
I1
F-0.75
S'little'
p170
I4
tp171
a(I868
I1
F-0.5
S'heavy'
p172
I4
tp173
a(I885
I8
F0.5
S'high'
p174
I4
tp175
a(I885
I8
F0.75
S'due'
p176
I4
tp177
a(I1084
I0
F0.375
S'much'
p178
I4
tp179
a(I1116
I3
F-0.5
g155
I4
tp180
a(I295
I4
I0
S'big'
p181
I2
tp182
a(I635
I0
F0.375
g151
I2
tp183
as(S'zenfone'
p184
g28
S'laser'
p185
tp186
(lp187
(I190
I0
I0
S's'
p188
I0
tp189
a(I190
I0
F-0.375
S'same'
p190
I0
tp191
a(I190
I0
I0
g188
I0
tp192
a(I190
I0
F-0.375
g190
I0
tp193
a(I197
I3
F0.625
S'fine'
p194
I0
tp195
a(I238
I2
F-0.25
S'potential'
p196
I0
tp197
a(I313
I3
F1.0
S'good'
p198
I0
tp199
a(I639
I8
F-0.625
S'other'
p200
I0
tp201
a(I786
I2
F-0.25
S'previous'
p202
I0
tp203
a(I786
I5
F0.125
S'usual'
p204
I0
tp205
a(I834
I0
F1.0
S'good'
p206
I0
tp207
a(I990
I0
F0.125
S'mobile'
p208
I0
tp209
a(I990
I0
F-1.0
S'bad'
p210
I0
tp211
a(I998
I21
F0.875
S'great'
p212
I0
tp213
as(S'overall'
p214
S'a'
p215
S'good'
p216
tp217
(lp218
(I430
I0
F-0.125
S'overall'
p219
I0
tp220
a(I790
I0
F-0.125
S'overall'
p221
I0
tp222
as(S'best'
p223
S'budget'
p224
tp225
(lp226
(I225
I2
F1.0
S'best'
p227
I0
tp228
a(I459
I2
F1.0
S'best'
p229
I0
tp230
a(I705
I15
F1.0
S'best'
p231
I0
tp232
a(I768
I0
F1.0
S'best'
p233
I0
tp234
as(S'performance'
p235
S'battery'
p236
S'life'
p237
tp238
(lp239
(I47
I4
F0.375
S'early'
p240
I0
tp241
a(I127
I0
F0.875
S'decent'
p242
I0
tp243
a(I12
I3
F-0.125
S'huge'
p244
I3
tp245
a(I55
I1
F1.0
S'good'
p246
I3
tp247
a(I98
I3
F0.75
S'outstanding'
p248
I3
tp249
a(I210
I3
F0.875
S'awesome'
p250
I3
tp251
a(I234
I2
F1.0
S'excellent'
p252
I3
tp253
a(I234
I25
I0
S'more'
p254
I3
tp255
a(I238
I6
F0.875
S'great'
p256
I3
tp257
a(I257
I1
F0.875
S'superb'
p258
I3
tp259
a(I258
I1
F1.0
S'good'
p260
I3
tp261
a(I258
I12
F0.875
S'awesome'
p262
I3
tp263
a(I269
I7
F0.875
S'great'
p264
I3
tp265
a(I273
I4
F1.0
S'good'
p266
I3
tp267
a(I273
I4
F1.0
S'good'
p268
I3
tp269
a(I274
I1
F-0.25
S'battery'
p270
I3
tp271
a(I323
I0
F0.875
S'great'
p272
I3
tp273
a(I391
I2
F1.0
S'good'
p274
I3
tp275
a(I405
I0
F-0.5
S'long'
p276
I3
tp277
a(I405
I0
F-0.625
S'lasting'
p278
I3
tp279
a(I410
I0
F1.0
S'best'
p280
I3
tp281
a(I432
I0
F0.375
S'remarkable'
p282
I3
tp283
a(I433
I5
F0.875
S'great'
p284
I3
tp285
a(I449
I15
F-0.25
S'battery'
p286
I3
tp287
a(I460
I0
F1.0
S'good'
p288
I3
tp289
a(I460
I0
F1.0
S'good'
p290
I3
tp291
a(I470
I0
F1.0
S'good'
p292
I3
tp293
a(I479
I11
F0.875
S'nice'
p294
I3
tp295
a(I567
I0
F1.0
S'good'
p296
I3
tp297
a(I567
I0
F-0.5
S'long'
p298
I3
tp299
a(I593
I8
F0.125
S'mobile'
p300
I3
tp301
a(I593
I8
F0.875
S'awesome'
p302
I3
tp303
a(I593
I8
F-0.5
S'long'
p304
I3
tp305
a(I639
I6
F0.875
S'superb'
p306
I3
tp307
a(I647
I3
F1.0
S'excellent'
p308
I3
tp309
a(I650
I7
F-0.125
S'ultimate'
p310
I3
tp311
a(I703
I0
F-0.125
S'huge'
p312
I3
tp313
a(I749
I0
F-0.125
S'huge'
p314
I3
tp315
a(I863
I7
F1.0
S'excellent'
p316
I3
tp317
a(I863
I11
F0.875
S'important'
p318
I3
tp319
a(I864
I20
F1.0
S'good'
p320
I3
tp321
a(I918
I10
F0.875
S'awesome'
p322
I3
tp323
a(I992
I1
F0.625
S'okay'
p324
I3
tp325
a(I992
I1
I0
S'normal'
p326
I3
tp327
a(I1001
I12
F0.875
S'awesome'
p328
I3
tp329
a(I1050
I0
F0.875
S'great'
p330
I3
tp331
a(I1054
I0
F1.0
S'good'
p332
I3
tp333
a(I1082
I1
F1.0
S'good'
p334
I3
tp335
a(I14
I2
F1.0
S'good'
p336
I13
tp337
a(I32
I10
F1.0
S'good'
p338
I13
tp339
a(I47
I4
F0.375
g240
I13
tp340
a(I89
I3
F1.0
S'good'
p341
I13
tp342
a(I127
I0
F0.875
g242
I13
tp343
a(I184
I0
F0.875
S'decent'
p344
I13
tp345
a(I240
I10
F1.0
S'good'
p346
I13
tp347
a(I275
I3
F0.875
S'great'
p348
I13
tp349
a(I285
I0
F1.0
S'good'
p350
I13
tp351
a(I295
I7
F-0.125
S'overall'
p352
I13
tp353
a(I295
I7
F1.0
S'good'
p354
I13
tp355
a(I324
I4
F-0.125
S'overall'
p356
I13
tp357
a(I361
I10
F0.625
S'certain'
p358
I13
tp359
a(I367
I4
F0.875
S'great'
p360
I13
tp361
a(I368
I3
F1.0
S'good'
p362
I13
tp363
a(I368
I3
F1.0
S'good'
p364
I13
tp365
a(I390
I5
F0.875
S'happy'
p366
I13
tp367
a(I390
I5
F-0.625
S'other'
p368
I13
tp369
a(I413
I0
F1.0
S'good'
p370
I13
tp371
a(I420
I1
I0
S'overwhelming'
p372
I13
tp373
a(I431
I13
F0.375
S'ok'
p374
I13
tp375
a(I515
I7
F0.625
S'extraordinary'
p376
I13
tp377
a(I568
I1
F0.875
S'awesome'
p378
I13
tp379
a(I584
I1
F1.0
S'good'
p380
I13
tp381
a(I590
I1
F1.0
S'good'
p382
I13
tp383
a(I590
I2
F1.0
S'excellent'
p384
I13
tp385
a(I627
I1
F1.0
S'better'
p386
I13
tp387
a(I686
I1
F1.0
S'good'
p388
I13
tp389
a(I687
I0
F1.0
S'good'
p390
I13
tp391
a(I710
I0
F0.875
S'great'
p392
I13
tp393
a(I710
I0
F0.875
S'awesome'
p394
I13
tp395
a(I719
I2
F1.0
S'better'
p396
I13
tp397
a(I734
I1
F1.0
S'good'
p398
I13
tp399
a(I850
I12
F1.0
S'good'
p400
I13
tp401
a(I882
I4
F0.875
S'nice'
p402
I13
tp403
a(I904
I2
F0.125
S'mobile'
p404
I13
tp405
a(I991
I2
F0.875
S'happy'
p406
I13
tp407
a(I1004
I5
F-0.5
S'slow'
p408
I13
tp409
a(I1031
I0
F0.5
S'high'
p410
I13
tp411
a(I1088
I0
F0.875
S'decent'
p412
I13
tp413
a(I1116
I3
F1.0
S'good'
p414
I13
tp415
a(I98
I3
F0.75
g248
I8
tp416
a(I234
I2
F1.0
g252
I8
tp417
a(I234
I25
I0
g254
I8
tp418
a(I257
I1
F0.875
g258
I8
tp419
a(I258
I12
F0.875
g262
I8
tp420
a(I273
I4
F1.0
g268
I8
tp421
a(I274
I1
F-0.25
g270
I8
tp422
a(I391
I2
F1.0
g274
I8
tp423
a(I449
I15
F-0.25
g286
I8
tp424
a(I460
I0
F1.0
g290
I8
tp425
a(I567
I0
F-0.5
g298
I8
tp426
a(I593
I8
F-0.5
g304
I8
tp427
a(I639
I6
F0.875
g306
I8
tp428
a(I647
I3
F1.0
g308
I8
tp429
a(I863
I7
F1.0
g316
I8
tp430
a(I863
I11
F0.875
g318
I8
tp431
a(I918
I10
F0.875
g322
I8
tp432
a(I992
I1
F0.625
g324
I8
tp433
a(I992
I1
I0
g326
I8
tp434
a(I1001
I12
F0.875
g328
I8
tp435
as(S'waste'
p436
S'of'
p437
S'money'
p438
tp439
(lp440
(I1061
I6
F0.125
S'mobile'
p441
I5
tp442
a(I1075
I2
I0
S'total'
p443
I5
tp444
as(S'ws'
p445
S'retail'
p446
tp447
(lp448
(I8
I37
F0.5
S'high'
p449
I0
tp450
a(I1103
I16
I0
S'retail'
p451
I0
tp452
as(S'mode'
p453
tp454
(lp455
(I50
I8
I0
S'light'
p456
I13
tp457
a(I50
I8
F0.75
S'perfect'
p458
I13
tp459
a(I159
I5
F0.625
S'fine'
p460
I13
tp461
a(I238
I5
F-0.375
S'manual'
p462
I13
tp463
a(I305
I2
F0.875
S'awesome'
p464
I13
tp465
a(I492
I5
F-0.375
S'manual'
p466
I13
tp467
a(I529
I1
F-0.875
S'low'
p468
I13
tp469
a(I529
I1
I0
S'light'
p470
I13
tp471
a(I769
I3
F0.875
S'worthy'
p472
I13
tp473
a(I780
I2
F-0.375
S'manual'
p474
I13
tp475
a(I922
I2
F-0.375
S'manual'
p476
I13
tp477
a(I922
I2
F1.0
S'good'
p478
I13
tp479
as(S'gaming'
p480
tp481
(lp482
(I93
I1
F-0.75
S'casual'
p483
I5
tp484
a(I147
I0
F0.875
S'nice'
p485
I5
tp486
a(I265
I1
I0
S'online'
p487
I5
tp488
a(I325
I2
F-0.5
S'heavy'
p489
I5
tp490
a(I390
I2
F-0.5
S'heavy'
p491
I5
tp492
a(I590
I2
F-0.875
S'low'
p493
I5
tp494
a(I691
I0
I0
S'normal'
p495
I5
tp496
a(I831
I0
I0
S'nd'
p497
I5
tp498
a(I1057
I2
F1.0
S'best'
p499
I5
tp500
as(S'pre'
p501
S'loaded'
p502
S'apps'
p503
tp504
(lp505
(I1
I18
F-0.625
S'useless'
p506
I0
tp507
a(I14
I13
I0
S'many'
p508
I0
tp509
a(I54
I12
F-0.625
S'useless'
p510
I0
tp511
a(I338
I14
I0
S'many'
p512
I0
tp513
a(I914
I4
I0
S'pretty'
p514
I0
tp515
a(I914
I4
I0
S'cool'
p516
I0
tp517
a(I1
I18
F-0.625
g506
I4
tp518
a(I7
I14
I0
S'more'
p519
I4
tp520
a(I25
I0
F-0.625
S'other'
p521
I4
tp522
a(I44
I4
I0
S'many'
p523
I4
tp524
a(I50
I12
F-0.5
S'unwanted'
p525
I4
tp526
a(I54
I12
F-0.625
g510
I4
tp527
a(I105
I0
I0
S'different'
p528
I4
tp529
a(I125
I1
I0
S'many'
p530
I4
tp531
a(I167
I5
I0
S'many'
p532
I4
tp533
a(I213
I14
I0
S'more'
p534
I4
tp535
a(I265
I6
F1.0
S'excellent'
p536
I4
tp537
a(I265
I6
I0
S'useful'
p538
I4
tp539
a(I556
I3
I0
S'most'
p540
I4
tp541
a(I569
I0
I0
S'many'
p542
I4
tp543
a(I569
I1
I0
S'normal'
p544
I4
tp545
a(I577
I6
I0
S'many'
p546
I4
tp547
a(I669
I0
F-0.5
S'unwanted'
p548
I4
tp549
a(I677
I1
F-0.375
S'disable'
p550
I4
tp551
a(I679
I1
F0.5
S'slight'
p552
I4
tp553
a(I829
I1
F-0.625
S'useless'
p554
I4
tp555
a(I914
I4
I0
g514
I4
tp556
a(I914
I4
I0
g516
I4
tp557
a(I1019
I3
F-0.5
S'unwanted'
p558
I4
tp559
a(I1062
I5
F-0.75
S'unable'
p560
I4
tp561
as(S'love'
p562
tp563
(lp564
(I460
I2
F0.375
S'early'
p565
I6
tp566
as(S'best'
p567
S'in'
p568
S'class'
p569
tp570
(lp571
(I49
I2
F1.0
S'best'
p572
I0
tp573
a(I323
I1
F1.0
S'best'
p574
I0
tp575
a(I1074
I0
F1.0
S'best'
p576
I0
tp577
as(S'great'
p578
S'battery'
p579
S'life'
p580
tp581
(lp582
(I238
I6
F0.875
g256
I0
tp583
a(I258
I12
F0.875
g262
I0
tp584
a(I269
I7
F0.875
g264
I0
tp585
a(I273
I4
F1.0
g266
I0
tp586
a(I273
I4
F1.0
g268
I0
tp587
a(I323
I0
F0.875
g272
I0
tp588
a(I433
I5
F0.875
g284
I0
tp589
a(I449
I15
F-0.25
g286
I0
tp590
a(I1050
I0
F0.875
g330
I0
tp591
a(I1
I3
F0.875
S'great'
p592
I0
tp593
a(I1
I3
I0
S'massive'
p594
I0
tp595
a(I54
I2
F0.875
S'great'
p596
I0
tp597
a(I54
I2
I0
S'massive'
p598
I0
tp599
a(I107
I3
F0.875
S'great'
p600
I0
tp601
a(I238
I6
F0.875
g256
I0
tp602
a(I258
I4
F0.875
S'great'
p603
I0
tp604
a(I269
I7
F0.875
g264
I0
tp605
a(I273
I4
F1.0
g266
I0
tp606
a(I323
I0
F0.875
g272
I0
tp607
a(I324
I4
F1.0
S'excellent'
p608
I0
tp609
a(I325
I1
F0.875
S'great'
p610
I0
tp611
a(I351
I0
F0.875
S'great'
p612
I0
tp613
a(I373
I4
F-0.125
S'huge'
p614
I0
tp615
a(I430
I1
F0.875
S'great'
p616
I0
tp617
a(I433
I5
F0.875
g284
I0
tp618
a(I446
I3
F0.875
S'great'
p619
I0
tp620
a(I522
I0
F0.875
S'great'
p621
I0
tp622
a(I577
I1
I0
S'big'
p623
I0
tp624
a(I613
I1
F0.875
S'great'
p625
I0
tp626
a(I618
I5
F0.875
S'great'
p627
I0
tp628
a(I686
I52
F0.875
S'great'
p629
I0
tp630
a(I777
I0
F0.875
g89
I0
tp631
a(I904
I0
F0.875
S'great'
p632
I0
tp633
a(I1050
I0
F0.875
g330
I0
tp634
as(S'pros'
p635
tp636
(lp637
(I449
I18
F0.625
S'first'
p638
I2
tp639
a(I588
I4
F0.625
S'major'
p640
I2
tp641
as(S'design'
p642
tp643
(lp644
(I50
I5
I0
S'arc'
p645
I4
tp646
a(I135
I0
F0.875
S'great'
p647
I4
tp648
a(I234
I8
F1.0
S'good'
p649
I4
tp650
a(I261
I0
F1.0
S'good'
p651
I4
tp652
a(I328
I0
F1.0
S'good'
p653
I4
tp654
a(I350
I0
F1.0
S'good'
p655
I4
tp656
a(I380
I1
F1.0
S'good'
p657
I4
tp658
a(I630
I0
I0
S'pretty'
p659
I4
tp660
a(I630
I0
F-0.875
S'smart'
p661
I4
tp662
a(I705
I7
F1.0
S'best'
p663
I4
tp664
a(I840
I0
F1.0
S'good'
p665
I4
tp666
a(I897
I0
F1.0
S'good'
p667
I4
tp668
a(I918
I3
F0.875
S'attractive'
p669
I4
tp670
a(I926
I0
F0.875
S'nice'
p671
I4
tp672
a(I945
I1
F1.0
S'good'
p673
I4
tp674
a(I955
I3
F1.0
S'good'
p675
I4
tp676
a(I1001
I18
F1.0
S'good'
p677
I4
tp678
a(I1055
I0
F1.0
S'good'
p679
I4
tp680
as(S'sound'
p681
S'quality'
p682
tp683
(lp684
(I22
I0
F0.75
S'sound'
p685
I5
tp686
a(I22
I0
F1.0
S'good'
p687
I5
tp688
a(I108
I7
F-0.5
S'less'
p689
I5
tp690
a(I427
I1
F-0.5
S'loud'
p691
I5
tp692
a(I427
I1
F1.0
S'good'
p693
I5
tp694
a(I478
I42
F0.75
S'sound'
p695
I5
tp696
a(I478
I42
F-0.875
S'poor'
p697
I5
tp698
a(I529
I7
F0.75
S'sound'
p699
I5
tp700
a(I600
I0
F0.75
S'sound'
p701
I5
tp702
a(I634
I0
F-0.875
S'poor'
p703
I5
tp704
a(I686
I29
F0.75
S'sound'
p705
I5
tp706
a(I686
I29
F1.0
S'good'
p707
I5
tp708
a(I799
I1
I0
S'clear'
p709
I5
tp710
a(I1081
I5
F0.75
S'sound'
p711
I5
tp712
a(I1081
I5
F1.0
S'good'
p713
I5
tp714
a(I1111
I5
F-1.0
S'bad'
p715
I5
tp716
a(I44
I1
F-0.875
S'low'
p717
I15
tp718
a(I108
I7
F-0.5
g689
I15
tp719
a(I142
I5
I0
S'clear'
p720
I15
tp721
a(I172
I0
F1.0
S'good'
p722
I15
tp723
a(I192
I11
F1.0
S'good'
p724
I15
tp725
a(I240
I0
F1.0
S'good'
p726
I15
tp727
a(I427
I1
F-0.5
g691
I15
tp728
a(I587
I4
F0.625
S'smooth'
p729
I15
tp730
a(I634
I0
F-0.875
g703
I15
tp731
a(I701
I0
F1.0
S'good'
p732
I15
tp733
a(I722
I1
F1.0
S'good'
p734
I15
tp735
a(I972
I1
F1.0
S'good'
p736
I15
tp737
a(I993
I1
F1.0
S'good'
p738
I15
tp739
a(I1023
I0
F1.0
S'good'
p740
I15
tp741
as(S'memory'
p742
S'card'
p743
tp744
(lp745
(I74
I0
F-0.25
S'external'
p746
I4
tp747
a(I99
I2
F-0.375
S'same'
p748
I4
tp749
a(I99
I3
F-0.375
S'same'
p750
I4
tp751
a(I99
I8
I0
S'normal'
p752
I4
tp753
a(I215
I14
I0
S'more'
p754
I4
tp755
a(I265
I7
F-0.25
S'external'
p756
I4
tp757
a(I73
I1
F-0.75
S'sufficient'
p758
I10
tp759
a(I74
I0
F-0.25
g746
I10
tp760
a(I99
I3
F-0.375
g750
I10
tp761
a(I99
I8
I0
g752
I10
tp762
a(I215
I13
I0
S'gb'
p763
I10
tp764
a(I215
I13
F0.5
S'internal'
p765
I10
tp766
a(I215
I14
I0
g754
I10
tp767
a(I265
I7
F-0.25
g756
I10
tp768
a(I295
I6
F0.5
S'internal'
p769
I10
tp770
a(I312
I0
I0
S'lagging'
p771
I10
tp772
a(I407
I6
F-0.75
S'free'
p773
I10
tp774
a(I468
I2
F-0.25
S'ram'
p775
I10
tp776
a(I468
I2
F-0.5
S'worthless'
p777
I10
tp778
a(I578
I1
F1.0
S'good'
p779
I10
tp780
a(I578
I1
F1.0
S'good'
p781
I10
tp782
a(I884
I2
F0.5
S'internal'
p783
I10
tp784
as(S'no'
p785
S'heating'
p786
S'issue'
p787
tp788
(lp789
(I567
I9
F-0.875
S'small'
p790
I0
tp791
a(I864
I15
I0
S'uninterrupted'
p792
I0
tp793
a(I406
I7
F0.375
S'heating'
p794
I2
tp795
a(I567
I9
F-0.875
g790
I2
tp796
a(I864
I15
I0
g792
I2
tp797
as(S'heavy'
p798
S'usage'
p799
tp800
(lp801
(I109
I16
F-0.5
S'heavy'
p802
I0
tp803
a(I338
I2
I0
S'normal'
p804
I0
tp805
a(I338
I2
F-0.5
S'heavy'
p806
I0
tp807
a(I374
I6
F-0.5
S'heavy'
p808
I0
tp809
a(I594
I1
F-0.5
S'heavy'
p810
I0
tp811
a(I595
I1
F-0.5
S'heavy'
p812
I0
tp813
a(I702
I7
F-0.5
S'heavy'
p814
I0
tp815
a(I786
I4
F-0.5
S'heavy'
p816
I0
tp817
a(I864
I1
F-0.5
S'heavy'
p818
I0
tp819
a(I902
I6
F-0.5
S'heavy'
p820
I0
tp821
a(I1014
I4
F-0.5
S'heavy'
p822
I0
tp823
a(I1072
I1
F-0.5
S'heavy'
p824
I0
tp825
as(S'days'
p826
S'of'
p827
S'battery'
p828
tp829
(lp830
(I71
I1
F-0.625
S'last'
p831
I0
tp832
a(I215
I3
F0.375
S'full'
p833
I0
tp834
a(I449
I5
F-0.375
S'half'
p835
I0
tp836
a(I523
I5
F-0.375
S'half'
p837
I0
tp838
as(S'huge'
p839
S'battery'
p840
tp841
(lp842
(I12
I3
F-0.125
g244
I0
tp843
a(I12
I7
F-0.125
S'huge'
p844
I0
tp845
a(I97
I1
F-0.125
S'huge'
p846
I0
tp847
a(I97
I1
I0
S'massive'
p848
I0
tp849
a(I183
I0
F-0.125
S'huge'
p850
I0
tp851
a(I191
I0
F-0.125
S'huge'
p852
I0
tp853
a(I240
I5
F-0.125
S'huge'
p854
I0
tp855
a(I373
I4
F-0.125
g614
I0
tp856
a(I413
I1
F-0.125
g73
I0
tp857
a(I478
I0
F-0.125
S'huge'
p858
I0
tp859
a(I478
I0
F-0.125
S'huge'
p860
I0
tp861
a(I526
I6
F-0.125
S'huge'
p862
I0
tp863
a(I593
I1
F-0.125
S'huge'
p864
I0
tp865
a(I650
I13
F-0.125
g83
I0
tp866
a(I703
I0
F-0.125
g312
I0
tp867
a(I705
I22
F-0.125
S'huge'
p868
I0
tp869
a(I749
I0
F-0.125
g314
I0
tp870
as(S'one'
p871
S'day'
p872
tp873
(lp874
(I15
I1
I0
S'normal'
p875
I1
tp876
a(I138
I1
F0.5
S'second'
p877
I1
tp878
a(I338
I2
F-0.375
S'half'
p879
I1
tp880
a(I478
I33
F0.625
S'first'
p881
I1
tp882
a(I686
I17
F-0.625
S'other'
p883
I1
tp884
a(I694
I0
F0.5
S'second'
p885
I1
tp886
a(I997
I3
I0
S'urgent'
p887
I1
tp888
a(I1040
I2
F0.375
S'full'
p889
I1
tp890
a(I1074
I0
F0.75
S'perfect'
p891
I1
tp892
a(I1093
I9
F0.5
S'second'
p893
I1
tp894
as(S'at'
p895
S'price'
p896
S'range'
p897
tp898
(lp899
(I7
I7
F1.0
S'good'
p900
I0
tp901
a(I213
I7
F1.0
S'good'
p902
I0
tp903
a(I999
I8
F1.0
S'best'
p904
I0
tp905
as(S'laser'
p906
S'auto'
p907
S'focus'
p908
tp909
(lp910
(I705
I23
I0
S'laser'
p911
I0
tp912
a(I719
I0
I0
S'laser'
p913
I0
tp914
as(S'need'
p915
tp916
(lp917
(I145
I0
I0
S'u'
p918
I9
tp919
a(I955
I4
F-0.5
S'loud'
p920
I9
tp921
as(S'gorilla'
p922
S'glass'
p923
tp924
(lp925
(I133
I2
F0.625
S'smooth'
p926
I2
tp927
a(I133
I2
F0.5
S'touch'
p928
I2
tp929
a(I234
I17
F1.0
S'good'
p930
I2
tp931
a(I234
I19
F-0.25
S'latest'
p932
I2
tp933
a(I445
I4
I0
S'gorilla'
p934
I2
tp935
a(I478
I39
I0
S'gorilla'
p936
I2
tp937
a(I491
I4
I0
S'tampered'
p938
I2
tp939
a(I686
I28
I0
S'clear'
p940
I2
tp941
a(I7
I5
F1.0
S'good'
p942
I10
tp943
a(I157
I13
F1.0
S'good'
p944
I10
tp945
a(I157
I13
I0
S'tempered'
p946
I10
tp947
a(I213
I5
F1.0
S'good'
p948
I10
tp949
a(I234
I17
F1.0
g930
I10
tp950
a(I391
I4
I0
S'tempered'
p951
I10
tp952
a(I445
I4
I0
g934
I10
tp953
a(I460
I0
I0
S'tempered'
p954
I10
tp955
a(I478
I39
I0
g936
I10
tp956
a(I491
I4
I0
g938
I10
tp957
a(I670
I1
F-0.5
S'temper'
p958
I10
tp959
a(I686
I28
I0
g940
I10
tp960
a(I911
I1
F0.375
S'available'
p961
I10
tp962
a(I1103
I3
I0
S'normal'
p963
I10
tp964
as(g215
S'little'
p965
S'bit'
p966
tp967
(lp968
(I12
I6
F-0.75
S'little'
p969
I0
tp970
a(I12
I6
F-0.5
S'heavy'
p971
I0
tp972
a(I50
I23
F-0.25
S'i'
p973
I0
tp974
a(I50
I23
F-0.75
S'little'
p975
I0
tp976
a(I98
I2
F-0.75
S'little'
p977
I0
tp978
a(I98
I2
F-0.5
S'heavy'
p979
I0
tp980
a(I119
I1
F-0.75
S'little'
p981
I0
tp982
a(I237
I1
F-0.75
S'little'
p983
I0
tp984
a(I237
I1
F-0.125
S'overall'
p985
I0
tp986
a(I390
I10
F-0.75
S'little'
p987
I0
tp988
a(I459
I2
F-0.75
S'little'
p989
I0
tp990
a(I467
I0
F-0.75
S'little'
p991
I0
tp992
a(I467
I0
F-0.5
S'heavy'
p993
I0
tp994
a(I514
I0
F-0.75
S'little'
p995
I0
tp996
a(I514
I0
F-0.5
S'heavy'
p997
I0
tp998
a(I672
I5
F0.75
S'white'
p999
I0
tp1000
a(I672
I5
F-0.75
S'little'
p1001
I0
tp1002
a(I672
I5
F-0.5
S'dull'
p1003
I0
tp1004
a(I672
I5
F0.75
S'white'
p1005
I0
tp1006
a(I705
I22
F-0.75
S'little'
p1007
I0
tp1008
a(I705
I22
F-0.5
S'heavy'
p1009
I0
tp1010
a(I705
I22
F0.75
S'due'
p1011
I0
tp1012
a(I851
I1
F-0.75
S'little'
p1013
I0
tp1014
a(I851
I1
F-0.5
S'heavy'
p1015
I0
tp1016
a(I969
I1
F-0.75
S'little'
p1017
I0
tp1018
a(I1001
I9
F-0.75
S'little'
p1019
I0
tp1020
a(I1008
I0
F-0.75
S'little'
p1021
I0
tp1022
a(I12
I6
F-0.75
g969
I4
tp1023
a(I12
I6
F-0.5
g971
I4
tp1024
a(I50
I23
F-0.25
g973
I4
tp1025
a(I50
I23
F-0.75
g975
I4
tp1026
a(I98
I2
F-0.75
g977
I4
tp1027
a(I98
I2
F-0.5
g979
I4
tp1028
a(I119
I1
F-0.75
g981
I4
tp1029
a(I237
I1
F-0.75
g983
I4
tp1030
a(I237
I1
F-0.125
g985
I4
tp1031
a(I390
I10
F-0.75
g987
I4
tp1032
a(I459
I2
F-0.75
g989
I4
tp1033
a(I467
I0
F-0.75
g991
I4
tp1034
a(I467
I0
F-0.5
g993
I4
tp1035
a(I514
I0
F-0.75
g995
I4
tp1036
a(I514
I0
F-0.5
g997
I4
tp1037
a(I672
I5
F0.75
g999
I4
tp1038
a(I672
I5
F-0.75
g1001
I4
tp1039
a(I672
I5
F-0.5
g1003
I4
tp1040
a(I672
I5
F0.75
g1005
I4
tp1041
a(I705
I22
F-0.75
g1007
I4
tp1042
a(I705
I22
F-0.5
g1009
I4
tp1043
a(I705
I22
F0.75
g1011
I4
tp1044
a(I851
I1
F-0.75
g1013
I4
tp1045
a(I851
I1
F-0.5
g1015
I4
tp1046
a(I969
I1
F-0.75
g1017
I4
tp1047
a(I1001
I9
F-0.75
g1019
I4
tp1048
a(I1008
I0
F-0.75
g1021
I4
tp1049
as(S'build'
p1050
S'quality'
p1051
tp1052
(lp1053
(I10
I0
F1.0
S'good'
p1054
I2
tp1055
a(I157
I9
I0
S'build'
p1056
I2
tp1057
a(I363
I0
F-0.5
S'heavy'
p1058
I2
tp1059
a(I375
I2
I0
S'build'
p1060
I2
tp1061
a(I375
I2
F0.875
S'great'
p1062
I2
tp1063
a(I391
I3
I0
S'build'
p1064
I2
tp1065
a(I391
I3
F0.875
S'awesome'
p1066
I2
tp1067
a(I391
I3
I0
S'screen'
p1068
I2
tp1069
a(I391
I3
F-0.875
S'tough'
p1070
I2
tp1071
a(I473
I0
F1.0
S'good'
p1072
I2
tp1073
a(I673
I5
F1.0
S'good'
p1074
I2
tp1075
a(I686
I27
F0.875
S'decent'
p1076
I2
tp1077
a(I769
I8
F1.0
S'good'
p1078
I2
tp1079
a(I866
I0
F1.0
S'good'
p1080
I2
tp1081
a(I890
I0
F1.0
S'good'
p1082
I2
tp1083
a(I893
I0
F1.0
S'good'
p1084
I2
tp1085
a(I919
I1
F1.0
S'excellent'
p1086
I2
tp1087
a(I978
I1
I0
S'build'
p1088
I2
tp1089
a(I1121
I3
F0.875
S'nice'
p1090
I2
tp1091
as(g45
g130
S'days'
p1092
tp1093
(lp1094
(I257
I0
F0.125
S'mobile'
p1095
I0
tp1096
a(I257
I0
F-0.625
S'last'
p1097
I0
tp1098
a(I130
I2
F-0.625
S'last'
p1099
I2
tp1100
a(I257
I0
F0.125
g1095
I2
tp1101
a(I257
I0
F-0.625
g1097
I2
tp1102
a(I374
I6
I0
S'normal'
p1103
I2
tp1104
a(I374
I6
F0.375
S'usage'
p1105
I2
tp1106
a(I388
I18
F-0.625
S'last'
p1107
I2
tp1108
a(I524
I8
I0
S'launch'
p1109
I2
tp1110
a(I590
I2
I0
S'net'
p1111
I2
tp1112
a(I850
I9
I0
S'normal'
p1113
I2
tp1114
a(I850
I9
F0.375
S'usage'
p1115
I2
tp1116
a(I990
I3
F-0.25
S'i'
p1117
I2
tp1118
a(I1091
I3
F0.125
S'mobile'
p1119
I2
tp1120
as(S'well'
p1121
tp1122
(lp1123
(I21
I0
F-0.5
S'heavy'
p1124
I9
tp1125
a(I63
I7
F0.375
S'much'
p1126
I9
tp1127
as(S'hours'
p1128
S'to'
p1129
S'charge'
p1130
tp1131
(lp1132
(I50
I17
F0.375
S'full'
p1133
I0
tp1134
a(I50
I17
I0
S'least'
p1135
I0
tp1136
a(I63
I2
F0.25
S'able'
p1137
I0
tp1138
a(I95
I3
F0.375
S'full'
p1139
I0
tp1140
a(I869
I6
I0
S'least'
p1141
I0
tp1142
a(I1
I20
I0
S'pretty'
p1143
I14
tp1144
a(I50
I17
I0
g1135
I14
tp1145
a(I63
I2
F0.25
g1137
I14
tp1146
a(I338
I12
F-0.375
S'half'
p1147
I14
tp1148
a(I360
I2
I0
S'more'
p1149
I14
tp1150
a(I428
I0
F-0.125
S'minimum'
p1151
I14
tp1152
a(I705
I21
I0
S'normal'
p1153
I14
tp1154
a(I869
I6
I0
g1141
I14
tp1155
a(I937
I10
I0
S'wifi'
p1156
I14
tp1157
as(g215
S'long'
p1158
S'time'
p1159
tp1160
(lp1161
(I272
I0
F-0.5
S'long'
p1162
I0
tp1163
a(I338
I10
F0.375
S'full'
p1164
I0
tp1165
a(I440
I4
F-0.5
S'long'
p1166
I0
tp1167
a(I479
I6
F-0.5
S'long'
p1168
I0
tp1169
a(I577
I0
F-0.375
S'vary'
p1170
I0
tp1171
a(I577
I0
F-0.5
S'long'
p1172
I0
tp1173
a(I705
I20
F-0.5
S'long'
p1174
I0
tp1175
a(I758
I2
F-0.5
S'long'
p1176
I0
tp1177
a(I758
I2
F0.375
S'full'
p1178
I0
tp1179
a(I769
I1
F-0.5
S'long'
p1180
I0
tp1181
a(I846
I0
F-0.5
S'long'
p1182
I0
tp1183
a(I885
I10
F-0.625
S'last'
p1184
I0
tp1185
a(I885
I10
F-0.5
S'long'
p1186
I0
tp1187
a(I937
I7
F-0.5
S'long'
p1188
I0
tp1189
a(I989
I0
F-0.5
S'long'
p1190
I0
tp1191
a(I998
I19
F-0.5
S'long'
p1192
I0
tp1193
a(I1049
I1
F-0.5
S'long'
p1194
I0
tp1195
a(I1062
I14
F-0.5
S'long'
p1196
I0
tp1197
a(I1062
I14
F0.5
S'dual'
p1198
I0
tp1199
a(I272
I0
F-0.5
g1162
I5
tp1200
a(I338
I10
F0.375
g1164
I5
tp1201
a(I440
I4
F-0.5
g1166
I5
tp1202
a(I479
I6
F-0.5
g1168
I5
tp1203
a(I577
I0
F-0.375
g1170
I5
tp1204
a(I577
I0
F-0.5
g1172
I5
tp1205
a(I705
I20
F-0.5
g1174
I5
tp1206
a(I758
I2
F-0.5
g1176
I5
tp1207
a(I758
I2
F0.375
g1178
I5
tp1208
a(I769
I1
F-0.5
g1180
I5
tp1209
a(I846
I0
F-0.5
g1182
I5
tp1210
a(I885
I10
F-0.625
g1184
I5
tp1211
a(I885
I10
F-0.5
g1186
I5
tp1212
a(I937
I7
F-0.5
g1188
I5
tp1213
a(I989
I0
F-0.5
g1190
I5
tp1214
a(I998
I19
F-0.5
g1192
I5
tp1215
a(I1049
I1
F-0.5
g1194
I5
tp1216
a(I1062
I14
F-0.5
g1196
I5
tp1217
a(I1062
I14
F0.5
g1198
I5
tp1218
a(I1104
I4
F-0.5
S'long'
p1219
I5
tp1220
as(S'good'
p1221
S'product'
p1222
tp1223
(lp1224
(I108
I6
F1.0
S'good'
p1225
I5
tp1226
a(I197
I0
F1.0
S'good'
p1227
I5
tp1228
a(I216
I0
F1.0
S'good'
p1229
I5
tp1230
a(I262
I2
F1.0
S'good'
p1231
I5
tp1232
a(I269
I7
F1.0
S'good'
p1233
I5
tp1234
a(I291
I0
F1.0
S'good'
p1235
I5
tp1236
a(I302
I0
F1.0
S'good'
p1237
I5
tp1238
a(I367
I10
F0.875
S'great'
p1239
I5
tp1240
a(I405
I0
F1.0
S'good'
p1241
I5
tp1242
a(I408
I0
F1.0
S'good'
p1243
I5
tp1244
a(I414
I0
F1.0
S'good'
p1245
I5
tp1246
a(I439
I0
F0.375
S'satisfied'
p1247
I5
tp1248
a(I567
I0
F0.875
S'nice'
p1249
I5
tp1250
a(I618
I4
F1.0
S'good'
p1251
I5
tp1252
a(I618
I4
F-0.625
S'other'
p1253
I5
tp1254
a(I657
I2
F1.0
S'good'
p1255
I5
tp1256
a(I706
I7
F1.0
S'good'
p1257
I5
tp1258
a(I987
I0
F1.0
S'best'
p1259
I5
tp1260
a(I1001
I0
F1.0
S'good'
p1261
I5
tp1262
a(I1082
I1
F1.0
S'excellent'
p1263
I5
tp1264
a(I1103
I0
I0
S'durable'
p1265
I5
tp1266
as(S'for'
p1267
g28
S'days'
p1268
tp1269
(lp1270
(I1
I20
F-0.125
S'next'
p1271
I0
tp1272
a(I50
I3
F-0.25
S'i'
p1273
I0
tp1274
a(I130
I9
F0.625
S'alive'
p1275
I0
tp1276
a(I215
I3
F0.375
g833
I0
tp1277
a(I265
I1
F0.75
S'complete'
p1278
I0
tp1279
a(I374
I6
I0
g1103
I0
tp1280
a(I374
I6
F0.375
g1105
I0
tp1281
a(I594
I1
F-0.375
S'half'
p1282
I0
tp1283
a(I717
I1
F-0.625
S'last'
p1284
I0
tp1285
a(I717
I1
F0.75
S'whole'
p1286
I0
tp1287
a(I770
I3
I0
S'least'
p1288
I0
tp1289
a(I850
I9
I0
g1113
I0
tp1290
a(I850
I9
F0.375
g1115
I0
tp1291
a(I904
I11
F-0.625
S'moderate'
p1292
I0
tp1293
a(I990
I3
F-0.25
g1117
I0
tp1294
a(I1091
I3
F0.125
g1119
I0
tp1295
a(I1
I20
F-0.125
g1271
I2
tp1296
a(I50
I3
F-0.25
g1273
I2
tp1297
a(I130
I9
F0.625
g1275
I2
tp1298
a(I215
I3
F0.375
g833
I2
tp1299
a(I265
I1
F0.75
g1278
I2
tp1300
a(I374
I6
I0
g1103
I2
tp1301
a(I374
I6
F0.375
g1105
I2
tp1302
a(I388
I18
F-0.625
g1107
I2
tp1303
a(I414
I6
I0
S'more'
p1304
I2
tp1305
a(I502
I4
I0
S'u'
p1306
I2
tp1307
a(I518
I3
F-0.375
S'half'
p1308
I2
tp1309
a(I523
I5
F-0.375
g837
I2
tp1310
a(I594
I1
F-0.375
g1282
I2
tp1311
a(I717
I1
F-0.625
g1284
I2
tp1312
a(I717
I1
F0.75
g1286
I2
tp1313
a(I770
I3
I0
g1288
I2
tp1314
a(I850
I9
I0
g1113
I2
tp1315
a(I850
I9
F0.375
g1115
I2
tp1316
a(I882
I2
F0.875
S'awesome'
p1317
I2
tp1318
a(I882
I2
F-0.5
S'heavy'
p1319
I2
tp1320
a(I904
I11
F-0.625
g1292
I2
tp1321
a(I977
I0
F-0.25
S'past'
p1322
I2
tp1323
a(I990
I3
F-0.25
g1117
I2
tp1324
a(I1091
I3
F0.125
g1119
I2
tp1325
a(I1118
I4
F-0.125
S'mine'
p1326
I2
tp1327
as(S'no'
p1328
S'heating'
p1329
S'problem'
p1330
tp1331
(lp1332
(I706
I1
F-0.625
S'last'
p1333
I1
tp1334
a(I706
I1
I0
S'least'
p1335
I1
tp1336
a(I8
I1
F0.75
S'wonderful'
p1337
I6
tp1338
as(S'no'
p1339
S'heating'
p1340
S'issues'
p1341
tp1342
(lp1343
(I864
I15
I0
g792
I0
tp1344
a(I864
I15
I0
g792
I0
tp1345
a(I98
I8
F-0.375
S'same'
p1346
I4
tp1347
a(I152
I0
F-0.5
S'slow'
p1348
I4
tp1349
a(I562
I1
F0.75
S'perfect'
p1350
I4
tp1351
a(I1001
I16
I0
S'lagging'
p1352
I4
tp1353
a(I1001
I16
F-0.125
S'next'
p1354
I4
tp1355
a(I1049
I0
F0.5
S'touch'
p1356
I4
tp1357
as(S'4'
p1358
S'days'
p1359
tp1360
(lp1361
(I1
I20
F-0.125
g1271
I3
tp1362
a(I8
I6
F0.75
S'whole'
p1363
I3
tp1364
a(I8
I6
I0
S'wifi'
p1365
I3
tp1366
a(I50
I3
F-0.25
g1273
I3
tp1367
a(I257
I0
F0.125
g1095
I3
tp1368
a(I257
I0
F-0.625
g1097
I3
tp1369
a(I339
I2
F0.125
S'mobile'
p1370
I3
tp1371
a(I568
I3
F-0.25
S'i'
p1372
I3
tp1373
a(I568
I3
F-0.625
S'last'
p1374
I3
tp1375
a(I590
I2
I0
g1111
I3
tp1376
as(S'service'
p1377
S'center'
p1378
tp1379
(lp1380
(I1064
I2
I0
S'center'
p1381
I5
tp1382
as(S'good'
p1383
S'mobile'
p1384
tp1385
(lp1386
(I50
I24
F-0.625
S'other'
p1387
I1
tp1388
a(I109
I10
F1.0
S'good'
p1389
I1
tp1390
a(I215
I21
F1.0
S'good'
p1391
I1
tp1392
a(I215
I21
I0
S'more'
p1393
I1
tp1394
a(I238
I8
F-0.75
S'little'
p1395
I1
tp1396
a(I238
I8
F-0.5
S'heavy'
p1397
I1
tp1398
a(I367
I9
F1.0
S'good'
p1399
I1
tp1400
a(I387
I0
F0.375
S'full'
p1401
I1
tp1402
a(I431
I12
F1.0
S'good'
p1403
I1
tp1404
a(I520
I0
F1.0
S'good'
p1405
I1
tp1406
a(I522
I6
F1.0
S'good'
p1407
I1
tp1408
a(I525
I0
F1.0
S'good'
p1409
I1
tp1410
a(I526
I1
F0.75
S'due'
p1411
I1
tp1412
a(I569
I2
F1.0
S'good'
p1413
I1
tp1414
a(I569
I2
F-0.25
S'i'
p1415
I1
tp1416
a(I672
I4
F0.125
S'mobile'
p1417
I1
tp1418
a(I672
I4
F1.0
S'good'
p1419
I1
tp1420
a(I926
I0
F1.0
S'good'
p1421
I1
tp1422
a(I1072
I5
F1.0
S'good'
p1423
I1
tp1424
as(S'front'
p1425
S'camera'
p1426
tp1427
(lp1428
(I7
I19
F0.875
S'decent'
p1429
I6
tp1430
a(I8
I24
F0.875
S'decent'
p1431
I6
tp1432
a(I8
I24
F1.0
S'good'
p1433
I6
tp1434
a(I47
I0
I0
S'main'
p1435
I6
tp1436
a(I47
I0
F-0.125
S'front'
p1437
I6
tp1438
a(I50
I23
F-0.125
S'front'
p1439
I6
tp1440
a(I50
I23
F1.0
S'good'
p1441
I6
tp1442
a(I50
I23
F-0.875
S'rare'
p1443
I6
tp1444
a(I53
I4
F1.0
S'good'
p1445
I6
tp1446
a(I53
I4
I0
S'main'
p1447
I6
tp1448
a(I53
I4
F-0.875
S'low'
p1449
I6
tp1450
a(I129
I2
I0
S'rear'
p1451
I6
tp1452
a(I129
I2
F1.0
S'good'
p1453
I6
tp1454
a(I213
I19
F0.875
S'decent'
p1455
I6
tp1456
a(I265
I4
F1.0
S'good'
p1457
I6
tp1458
a(I374
I5
F1.0
S'good'
p1459
I6
tp1460
a(I374
I5
F-0.125
S'front'
p1461
I6
tp1462
a(I425
I13
F0.875
S'amazing'
p1463
I6
tp1464
a(I426
I10
F1.0
S'good'
p1465
I6
tp1466
a(I463
I0
F1.0
S'excellent'
p1467
I6
tp1468
a(I463
I0
I0
S'rear'
p1469
I6
tp1470
a(I463
I0
F-0.125
S'front'
p1471
I6
tp1472
a(I478
I45
F-0.125
S'front'
p1473
I6
tp1474
a(I478
I45
F0.875
S'awesome'
p1475
I6
tp1476
a(I522
I2
F-0.125
S'front'
p1477
I6
tp1478
a(I607
I0
I0
S'rear'
p1479
I6
tp1480
a(I637
I0
F1.0
S'good'
p1481
I6
tp1482
a(I686
I30
F1.0
S'good'
p1483
I6
tp1484
a(I705
I2
F0.875
S'awesome'
p1485
I6
tp1486
a(I705
I23
F-0.125
S'front'
p1487
I6
tp1488
a(I712
I1
I0
S'main'
p1489
I6
tp1490
a(I712
I1
F-0.125
S'front'
p1491
I6
tp1492
a(I772
I2
F0.625
S'okay'
p1493
I6
tp1494
a(I772
I2
F1.0
S'good'
p1495
I6
tp1496
a(I875
I1
F-0.125
S'front'
p1497
I6
tp1498
a(I875
I1
F1.0
S'good'
p1499
I6
tp1500
a(I881
I0
F1.0
S'good'
p1501
I6
tp1502
a(I881
I0
F-0.125
S'front'
p1503
I6
tp1504
a(I895
I8
F1.0
S'good'
p1505
I6
tp1506
a(I914
I0
F-0.125
S'front'
p1507
I6
tp1508
a(I1018
I0
F-0.125
S'front'
p1509
I6
tp1510
a(I1072
I9
F-0.125
S'front'
p1511
I6
tp1512
as(S'multi'
p1513
S'tasking'
p1514
tp1515
(lp1516
(I453
I1
F1.0
S'good'
p1517
I2
tp1518
as(S'excellent'
p1519
S'battery'
p1520
S'backup'
p1521
tp1522
(lp1523
(I50
I25
F1.0
S'excellent'
p1524
I0
tp1525
a(I324
I4
F1.0
g608
I0
tp1526
a(I324
I4
F0.875
S'great'
p1527
I0
tp1528
a(I649
I0
F1.0
S'excellent'
p1529
I0
tp1530
a(I684
I1
F1.0
S'excellent'
p1531
I0
tp1532
a(I699
I1
F1.0
S'excellent'
p1533
I0
tp1534
a(I868
I12
F1.0
S'excellent'
p1535
I0
tp1536
a(I884
I1
F1.0
S'excellent'
p1537
I0
tp1538
a(I982
I0
F1.0
S'excellent'
p1539
I0
tp1540
a(I1132
I0
F1.0
S'good'
p1541
I0
tp1542
a(I2
I0
F1.0
S'excellent'
p1543
I0
tp1544
a(I50
I25
F1.0
g1524
I0
tp1545
a(I96
I5
F1.0
S'excellent'
p1546
I0
tp1547
a(I114
I1
F1.0
S'excellent'
p1548
I0
tp1549
a(I261
I0
F1.0
S'excellent'
p1550
I0
tp1551
a(I324
I4
F1.0
g608
I0
tp1552
a(I445
I1
F1.0
S'excellent'
p1553
I0
tp1554
a(I474
I0
F0.75
S'beautiful'
p1555
I0
tp1556
a(I518
I2
F1.0
S'excellent'
p1557
I0
tp1558
a(I618
I1
F1.0
S'excellent'
p1559
I0
tp1560
a(I639
I3
F1.0
S'good'
p1561
I0
tp1562
a(I639
I3
F1.0
S'excellent'
p1563
I0
tp1564
a(I649
I0
F1.0
g1529
I0
tp1565
a(I684
I1
F1.0
g1531
I0
tp1566
a(I690
I0
F1.0
S'excellent'
p1567
I0
tp1568
a(I699
I1
F1.0
g1533
I0
tp1569
a(I703
I0
F-0.125
g312
I0
tp1570
a(I868
I12
F1.0
g1535
I0
tp1571
a(I884
I1
F1.0
g1537
I0
tp1572
a(I982
I0
F1.0
g1539
I0
tp1573
a(I1063
I0
F0.875
S'superb'
p1574
I0
tp1575
a(I1082
I1
F1.0
g334
I0
tp1576
a(I1063
I0
F0.875
g1574
I4
tp1577
as(S'fine'
p1578
tp1579
(lp1580
(I338
I3
I0
S'more'
p1581
I15
tp1582
as(S'user'
p1583
S'interface'
p1584
tp1585
(lp1586
(I5
I0
F1.0
S'good'
p1587
I1
tp1588
a(I238
I5
F0.625
S'friendly'
p1589
I1
tp1590
a(I474
I0
I0
S'user'
p1591
I1
tp1592
a(I523
I13
I0
S'different'
p1593
I1
tp1594
a(I567
I16
I0
S'user'
p1595
I1
tp1596
a(I7
I16
I0
S'more'
p1597
I9
tp1598
a(I7
I16
F-0.5
S'regular'
p1599
I9
tp1600
a(I71
I1
F-0.625
S'average'
p1601
I9
tp1602
a(I186
I2
F-0.625
S'average'
p1603
I9
tp1604
a(I213
I16
I0
S'more'
p1605
I9
tp1606
a(I213
I16
F-0.5
S'regular'
p1607
I9
tp1608
a(I215
I3
F-0.5
S'heavy'
p1609
I9
tp1610
a(I238
I5
F0.625
g1589
I9
tp1611
a(I338
I18
I0
S'u'
p1612
I9
tp1613
a(I338
I18
F-0.5
S'heavy'
p1614
I9
tp1615
a(I447
I6
F-0.625
S'average'
p1616
I9
tp1617
a(I705
I11
F-0.5
S'heavy'
p1618
I9
tp1619
a(I705
I11
F-0.875
S'rough'
p1620
I9
tp1621
a(I705
I16
F-0.625
S'moderate'
p1622
I9
tp1623
a(I739
I1
F0.625
S'friendly'
p1624
I9
tp1625
a(I770
I3
F-0.625
S'moderate'
p1626
I9
tp1627
a(I1005
I0
F-0.5
S'heavy'
p1628
I9
tp1629
a(I1013
I1
F-0.5
S'heavy'
p1630
I9
tp1631
as(S'modern'
p1632
S'combat'
p1633
tp1634
(lp1635
(I406
I8
F0.5
S'modern'
p1636
I0
tp1637
a(I479
I25
F0.5
S'modern'
p1638
I0
tp1639
as(S'good'
p1640
S'battery'
p1641
S'backup'
p1642
tp1643
(lp1644
(I44
I3
F1.0
S'good'
p1645
I0
tp1646
a(I100
I0
F1.0
S'good'
p1647
I0
tp1648
a(I190
I0
F1.0
S'good'
p1649
I0
tp1650
a(I214
I4
F1.0
S'best'
p1651
I0
tp1652
a(I214
I4
F0.875
S'nice'
p1653
I0
tp1654
a(I239
I1
F1.0
S'good'
p1655
I0
tp1656
a(I261
I3
F0.875
S'awesome'
p1657
I0
tp1658
a(I262
I5
F1.0
S'good'
p1659
I0
tp1660
a(I269
I0
I0
g61
I0
tp1661
a(I269
I4
F1.0
S'good'
p1662
I0
tp1663
a(I282
I0
F1.0
S'good'
p1664
I0
tp1665
a(I313
I5
F1.0
S'good'
p1666
I0
tp1667
a(I314
I0
F1.0
S'good'
p1668
I0
tp1669
a(I314
I0
F0.625
S'super'
p1670
I0
tp1671
a(I324
I4
F1.0
g608
I0
tp1672
a(I324
I4
F0.875
g1527
I0
tp1673
a(I329
I0
F1.0
S'good'
p1674
I0
tp1675
a(I339
I1
F0.875
S'nice'
p1676
I0
tp1677
a(I369
I0
F1.0
S'good'
p1678
I0
tp1679
a(I375
I6
F1.0
S'good'
p1680
I0
tp1681
a(I377
I1
F1.0
S'good'
p1682
I0
tp1683
a(I439
I0
F1.0
g75
I0
tp1684
a(I440
I3
F0.875
S'nice'
p1685
I0
tp1686
a(I449
I20
F1.0
S'good'
p1687
I0
tp1688
a(I563
I0
F-0.5
S'backup'
p1689
I0
tp1690
a(I563
I0
F1.0
S'good'
p1691
I0
tp1692
a(I572
I1
F1.0
g77
I0
tp1693
a(I577
I11
F1.0
S'good'
p1694
I0
tp1695
a(I578
I5
F1.0
S'good'
p1696
I0
tp1697
a(I584
I0
F1.0
S'good'
p1698
I0
tp1699
a(I684
I1
F1.0
g1531
I0
tp1700
a(I756
I0
F1.0
S'good'
p1701
I0
tp1702
a(I788
I3
F1.0
S'good'
p1703
I0
tp1704
a(I808
I0
F1.0
S'good'
p1705
I0
tp1706
a(I863
I14
F1.0
S'good'
p1707
I0
tp1708
a(I864
I21
F1.0
S'good'
p1709
I0
tp1710
a(I869
I0
F1.0
S'good'
p1711
I0
tp1712
a(I918
I0
F1.0
S'good'
p1713
I0
tp1714
a(I920
I1
F1.0
S'good'
p1715
I0
tp1716
a(I955
I2
F1.0
S'good'
p1717
I0
tp1718
a(I967
I1
F1.0
S'good'
p1719
I0
tp1720
a(I999
I3
F1.0
S'good'
p1721
I0
tp1722
a(I1057
I2
F1.0
S'good'
p1723
I0
tp1724
a(I1088
I3
F0.125
S'mobile'
p1725
I0
tp1726
a(I1088
I3
F1.0
S'good'
p1727
I0
tp1728
a(I1088
I3
F1.0
S'good'
p1729
I0
tp1730
a(I1093
I1
F1.0
S'good'
p1731
I0
tp1732
a(I1108
I9
F1.0
S'good'
p1733
I0
tp1734
a(I1110
I7
F1.0
S'good'
p1735
I0
tp1736
a(I1111
I14
F1.0
S'good'
p1737
I0
tp1738
a(I1132
I0
F1.0
g1541
I0
tp1739
a(I44
I3
F1.0
g1645
I0
tp1740
a(I100
I0
F1.0
g1647
I0
tp1741
a(I190
I0
F1.0
g1649
I0
tp1742
a(I214
I4
F1.0
g1651
I0
tp1743
a(I214
I4
F0.875
g1653
I0
tp1744
a(I239
I1
F1.0
g1655
I0
tp1745
a(I261
I3
F0.875
g1657
I0
tp1746
a(I262
I5
F1.0
g1659
I0
tp1747
a(I269
I0
I0
g61
I0
tp1748
a(I269
I4
F1.0
g1662
I0
tp1749
a(I282
I0
F1.0
g1664
I0
tp1750
a(I313
I5
F1.0
g1666
I0
tp1751
a(I314
I0
F1.0
g1668
I0
tp1752
a(I314
I0
F0.625
g1670
I0
tp1753
a(I324
I4
F1.0
g608
I0
tp1754
a(I324
I4
F0.875
g1527
I0
tp1755
a(I329
I0
F1.0
g1674
I0
tp1756
a(I339
I1
F0.875
g1676
I0
tp1757
a(I369
I0
F1.0
g1678
I0
tp1758
a(I375
I6
F1.0
g1680
I0
tp1759
a(I377
I1
F1.0
g1682
I0
tp1760
a(I439
I0
F1.0
g75
I0
tp1761
a(I440
I3
F0.875
g1685
I0
tp1762
a(I449
I20
F1.0
g1687
I0
tp1763
a(I563
I0
F-0.5
g1689
I0
tp1764
a(I563
I0
F1.0
g1691
I0
tp1765
a(I572
I1
F1.0
g77
I0
tp1766
a(I577
I11
F1.0
g1694
I0
tp1767
a(I578
I5
F1.0
g1696
I0
tp1768
a(I584
I0
F1.0
g1698
I0
tp1769
a(I684
I1
F1.0
g1531
I0
tp1770
a(I756
I0
F1.0
g1701
I0
tp1771
a(I788
I3
F1.0
g1703
I0
tp1772
a(I808
I0
F1.0
g1705
I0
tp1773
a(I863
I14
F1.0
g1707
I0
tp1774
a(I864
I21
F1.0
g1709
I0
tp1775
a(I869
I0
F1.0
g1711
I0
tp1776
a(I918
I0
F1.0
g1713
I0
tp1777
a(I920
I1
F1.0
g1715
I0
tp1778
a(I955
I2
F1.0
g1717
I0
tp1779
a(I967
I1
F1.0
g1719
I0
tp1780
a(I999
I3
F1.0
g1721
I0
tp1781
a(I1057
I2
F1.0
g1723
I0
tp1782
a(I1088
I3
F0.125
g1725
I0
tp1783
a(I1088
I3
F1.0
g1727
I0
tp1784
a(I1088
I3
F1.0
g1729
I0
tp1785
a(I1093
I1
F1.0
g1731
I0
tp1786
a(I1108
I9
F1.0
g1733
I0
tp1787
a(I1110
I7
F1.0
g1735
I0
tp1788
a(I1111
I14
F1.0
g1737
I0
tp1789
a(I1132
I0
F1.0
g1541
I0
tp1790
a(I44
I3
F1.0
g1645
I0
tp1791
a(I100
I0
F1.0
g1647
I0
tp1792
a(I190
I0
F1.0
g1649
I0
tp1793
a(I214
I4
F0.875
g1653
I0
tp1794
a(I261
I3
F0.875
g1657
I0
tp1795
a(I282
I0
F1.0
g1664
I0
tp1796
a(I313
I5
F1.0
g1666
I0
tp1797
a(I314
I0
F0.625
g1670
I0
tp1798
a(I324
I4
F0.875
g1527
I0
tp1799
a(I369
I0
F1.0
g1678
I0
tp1800
a(I440
I3
F0.875
g1685
I0
tp1801
a(I578
I5
F1.0
g1696
I0
tp1802
a(I584
I0
F1.0
g1698
I0
tp1803
a(I708
I0
F0.875
S'nice'
p1804
I0
tp1805
a(I756
I0
F1.0
g1701
I0
tp1806
a(I863
I14
F1.0
g1707
I0
tp1807
a(I864
I17
F1.0
S'good'
p1808
I0
tp1809
a(I864
I21
F1.0
g1709
I0
tp1810
a(I999
I3
F1.0
g1721
I0
tp1811
a(I1108
I9
F1.0
g1733
I0
tp1812
a(I1110
I7
F1.0
g1735
I0
tp1813
a(I1111
I14
F1.0
g1737
I0
tp1814
a(I1132
I0
F1.0
g1541
I0
tp1815
as(S'leather'
p1816
S'finish'
p1817
tp1818
(lp1819
(I665
I2
F0.625
S'finish'
p1820
I0
tp1821
a(I1047
I0
F0.125
S'leather'
p1822
I0
tp1823
as(S'call'
p1824
S'log'
p1825
S'book'
p1826
tp1827
(lp1828
(I1073
I0
F-0.5
S'call'
p1829
I0
tp1830
a(I1073
I1
F-0.5
S'call'
p1831
I0
tp1832
a(I1073
I2
F-0.5
S'call'
p1833
I0
tp1834
a(I1073
I3
F-0.5
S'call'
p1835
I0
tp1836
a(I1073
I0
F-0.5
g1829
I0
tp1837
a(I1073
I1
F-0.5
g1831
I0
tp1838
a(I1073
I2
F-0.5
g1833
I0
tp1839
a(I1073
I3
F-0.5
g1835
I0
tp1840
as(S'for'
p1841
S'3'
p1842
S'days'
p1843
tp1844
(lp1845
(I109
I20
I0
S'few'
p1846
I0
tp1847
a(I215
I3
F0.375
g833
I0
tp1848
a(I230
I0
I0
S'more'
p1849
I0
tp1850
a(I265
I0
F0.75
S'complete'
p1851
I0
tp1852
a(I279
I1
I0
S'more'
p1853
I0
tp1854
a(I374
I6
I0
g1103
I0
tp1855
a(I374
I6
F0.375
g1105
I0
tp1856
a(I626
I1
F-0.5
S'continuous'
p1857
I0
tp1858
a(I770
I3
I0
g1288
I0
tp1859
a(I850
I10
I0
S'sure'
p1860
I0
tp1861
a(I1116
I0
F-0.375
S'same'
p1862
I0
tp1863
a(I1116
I0
F0.375
S'working'
p1864
I0
tp1865
as(S'camera'
p1866
S'with'
p1867
S'laser'
p1868
tp1869
(lp1870
(I326
I0
F0.875
S'awesome'
p1871
I0
tp1872
a(I705
I23
F-0.125
g1487
I0
tp1873
as(S'looks'
p1874
tp1875
(lp1876
(I156
I1
I0
S'text'
p1877
I14
tp1878
a(I371
I0
F1.0
S'good'
p1879
I14
tp1880
a(I478
I22
F0.625
S'rich'
p1881
I14
tp1882
a(I705
I1
I0
S'screen'
p1883
I14
tp1884
a(I705
I1
F-1.0
S'bad'
p1885
I14
tp1886
a(I718
I0
F-0.75
S'black'
p1887
I14
tp1888
a(I789
I1
F-0.625
S'average'
p1889
I14
tp1890
a(I870
I1
F0.375
S'sleek'
p1891
I14
tp1892
as(S'moto'
p1893
S'g'
p1894
tp1895
(lp1896
(I267
I0
F0.5
S'old'
p1897
I0
tp1898
a(I528
I1
F1.0
S'better'
p1899
I0
tp1900
a(I651
I0
F0.125
S'mobile'
p1901
I0
tp1902
a(I936
I1
F1.0
S'good'
p1903
I0
tp1904
as(S'zen'
p1905
S'ui'
p1906
tp1907
(lp1908
(I9
I4
I0
S'zen'
p1909
I0
tp1910
a(I215
I15
F-0.625
S'last'
p1911
I0
tp1912
a(I215
I15
F1.0
S'better'
p1913
I0
tp1914
a(I215
I15
F-0.625
S'other'
p1915
I0
tp1916
a(I265
I5
F1.0
S'excellent'
p1917
I0
tp1918
a(I409
I0
F1.0
S'good'
p1919
I0
tp1920
a(I431
I9
F0.25
S'helpful'
p1921
I0
tp1922
a(I515
I13
I0
S'pretty'
p1923
I0
tp1924
a(I515
I13
F0.625
S'smooth'
p1925
I0
tp1926
a(I515
I13
I0
S'lag'
p1927
I0
tp1928
a(I515
I13
F-0.75
S'free'
p1929
I0
tp1930
a(I559
I1
F0.25
S'intuitive'
p1931
I0
tp1932
a(I580
I5
F1.0
S'good'
p1933
I0
tp1934
a(I705
I7
F1.0
S'excellent'
p1935
I0
tp1936
a(I978
I1
F0.375
S'grip'
p1937
I0
tp1938
a(I1019
I3
I0
S'zen'
p1939
I0
tp1940
as(g28
g1842
S'days'
p1941
tp1942
(lp1943
(I215
I3
F0.375
g833
I0
tp1944
a(I374
I6
I0
g1103
I0
tp1945
a(I374
I6
F0.375
g1105
I0
tp1946
a(I770
I3
I0
g1288
I0
tp1947
a(I1118
I4
F-0.125
g1326
I0
tp1948
as(S'best'
p1949
S'battery'
p1950
S'backup'
p1951
tp1952
(lp1953
(I138
I1
F1.0
S'best'
p1954
I0
tp1955
a(I138
I1
F-0.625
S'last'
p1956
I0
tp1957
a(I214
I4
F1.0
g1651
I0
tp1958
a(I214
I4
F0.875
g1653
I0
tp1959
a(I284
I0
F1.0
S'best'
p1960
I0
tp1961
a(I307
I0
F1.0
S'best'
p1962
I0
tp1963
a(I577
I11
F1.0
g1694
I0
tp1964
a(I594
I0
F-0.25
S'battery'
p1965
I0
tp1966
a(I594
I0
F1.0
S'best'
p1967
I0
tp1968
a(I1057
I2
F1.0
g1723
I0
tp1969
a(I53
I2
F-0.5
S'long'
p1970
I0
tp1971
a(I53
I2
F-0.625
S'lasting'
p1972
I0
tp1973
a(I138
I1
F1.0
g1954
I0
tp1974
a(I214
I4
F1.0
g1651
I0
tp1975
a(I284
I0
F1.0
g1960
I0
tp1976
a(I307
I0
F1.0
g1962
I0
tp1977
a(I324
I0
F1.0
S'best'
p1978
I0
tp1979
a(I324
I3
F1.0
S'best'
p1980
I0
tp1981
a(I360
I0
F1.0
g63
I0
tp1982
a(I410
I0
F1.0
g280
I0
tp1983
a(I413
I1
F-0.125
g73
I0
tp1984
a(I527
I1
F1.0
S'best'
p1985
I0
tp1986
a(I577
I11
F1.0
g1694
I0
tp1987
a(I864
I20
F1.0
g320
I0
tp1988
a(I882
I1
F1.0
S'good'
p1989
I0
tp1990
a(I882
I1
F0.625
S'smooth'
p1991
I0
tp1992
a(I1050
I0
F0.875
g330
I0
tp1993
a(I1057
I2
F1.0
g1723
I0
tp1994
as(S'speed'
p1995
tp1996
(lp1997
(I63
I6
I0
S'shutter'
p1998
I14
tp1999
a(I63
I6
F0.75
S'white'
p2000
I14
tp2001
a(I99
I9
F0.5
S'high'
p2002
I14
tp2003
a(I309
I0
F1.0
S'good'
p2004
I14
tp2005
a(I625
I1
F0.5
S'high'
p2006
I14
tp2007
a(I675
I2
F1.0
S'good'
p2008
I14
tp2009
a(I801
I1
F-0.625
S'fast'
p2010
I14
tp2011
a(I843
I0
F-0.875
S'low'
p2012
I14
tp2013
a(I873
I0
F1.0
S'good'
p2014
I14
tp2015
a(I884
I3
F0.875
S'decent'
p2016
I14
tp2017
as(S'internet'
p2018
tp2019
(lp2020
(I8
I35
F-0.5
S'long'
p2021
I15
tp2022
a(I14
I3
F1.0
S'good'
p2023
I15
tp2024
a(I265
I1
F-0.5
S'heavy'
p2025
I15
tp2026
a(I265
I2
F-0.625
S'non'
p2027
I15
tp2028
a(I265
I2
F-0.375
S'stop'
p2029
I15
tp2030
a(I325
I2
F0.75
S'constant'
p2031
I15
tp2032
a(I426
I1
I0
S'wifi'
p2033
I15
tp2034
a(I431
I7
F-0.5
S'continuous'
p2035
I15
tp2036
a(I478
I22
F0.375
S'full'
p2037
I15
tp2038
a(I570
I4
F1.0
S'good'
p2039
I15
tp2040
a(I698
I4
F0.625
S'tried'
p2041
I15
tp2042
a(I875
I0
F0.25
S'useing'
p2043
I15
tp2044
as(g215
S'power'
p2045
S'bank'
p2046
tp2047
(lp2048
(I1030
I1
I0
S'nd'
p2049
I1
tp2050
a(I1030
I1
I0
g2049
I2
tp2051
a(I8
I0
F0.75
S'due'
p2052
I5
tp2053
a(I577
I11
F0.5
S'internal'
p2054
I5
tp2055
a(I1030
I1
I0
g2049
I5
tp2056
a(I1112
I0
F0.125
S'mobile'
p2057
I5
tp2058
a(I1121
I1
I0
S'different'
p2059
I5
tp2060
as(S'decent'
p2061
tp2062
(lp2063
(I1021
I0
I0
S'pretty'
p2064
I4
tp2065
as(S'service'
p2066
S'by'
p2067
S'flipkart'
p2068
tp2069
(lp2070
(I108
I6
F0.875
S'great'
p2071
I0
tp2072
a(I151
I0
F0.875
S'great'
p2073
I0
tp2074
a(I354
I1
F1.0
S'good'
p2075
I0
tp2076
a(I386
I0
F1.0
S'good'
p2077
I0
tp2078
a(I1111
I3
F1.0
S'good'
p2079
I0
tp2080
as(S'smooth'
p2081
tp2082
(lp2083
(I152
I0
F0.5
S'touch'
p2084
I3
tp2085
a(I338
I13
F0.625
S'super'
p2086
I3
tp2087
a(I986
I1
F0.125
S'silky'
p2088
I3
tp2089
as(S'good'
p2090
S'battery'
p2091
S'life'
p2092
tp2093
(lp2094
(I55
I1
F1.0
g246
I0
tp2095
a(I257
I1
F0.875
g258
I0
tp2096
a(I258
I1
F1.0
g260
I0
tp2097
a(I269
I7
F0.875
g264
I0
tp2098
a(I273
I4
F1.0
g266
I0
tp2099
a(I273
I4
F1.0
g268
I0
tp2100
a(I391
I2
F1.0
g274
I0
tp2101
a(I405
I0
F-0.5
g276
I0
tp2102
a(I405
I0
F-0.625
g278
I0
tp2103
a(I460
I0
F1.0
g288
I0
tp2104
a(I460
I0
F1.0
g290
I0
tp2105
a(I470
I0
F1.0
g292
I0
tp2106
a(I479
I11
F0.875
g294
I0
tp2107
a(I567
I0
F1.0
g296
I0
tp2108
a(I567
I0
F-0.5
g298
I0
tp2109
a(I703
I0
F-0.125
g312
I0
tp2110
a(I864
I20
F1.0
g320
I0
tp2111
a(I1054
I0
F1.0
g332
I0
tp2112
a(I1082
I1
F1.0
g334
I0
tp2113
a(I55
I1
F1.0
g246
I1
tp2114
a(I87
I2
F1.0
S'good'
p2115
I1
tp2116
a(I87
I2
F0.875
S'amazing'
p2117
I1
tp2118
a(I89
I3
F0.625
g53
I1
tp2119
a(I96
I3
F1.0
S'good'
p2120
I1
tp2121
a(I209
I17
F1.0
S'good'
p2122
I1
tp2123
a(I214
I4
F1.0
g1651
I1
tp2124
a(I216
I1
F1.0
S'good'
p2125
I1
tp2126
a(I234
I6
F1.0
S'good'
p2127
I1
tp2128
a(I239
I1
F1.0
g1655
I1
tp2129
a(I245
I1
F1.0
S'good'
p2130
I1
tp2131
a(I256
I2
F1.0
S'good'
p2132
I1
tp2133
a(I258
I1
F1.0
g260
I1
tp2134
a(I258
I4
F0.875
g603
I1
tp2135
a(I261
I0
F1.0
g1550
I1
tp2136
a(I262
I5
F1.0
g1659
I1
tp2137
a(I269
I0
I0
g61
I1
tp2138
a(I269
I4
F1.0
g1662
I1
tp2139
a(I269
I7
F0.875
g264
I1
tp2140
a(I273
I4
F1.0
g266
I1
tp2141
a(I283
I1
F1.0
S'good'
p2142
I1
tp2143
a(I293
I1
F1.0
S'good'
p2144
I1
tp2145
a(I293
I4
F1.0
S'good'
p2146
I1
tp2147
a(I314
I0
F1.0
g1668
I1
tp2148
a(I320
I1
F1.0
S'good'
p2149
I1
tp2150
a(I324
I4
F1.0
g608
I1
tp2151
a(I329
I0
F1.0
g1674
I1
tp2152
a(I335
I1
F1.0
S'good'
p2153
I1
tp2154
a(I339
I1
F0.875
g1676
I1
tp2155
a(I339
I2
F1.0
S'good'
p2156
I1
tp2157
a(I355
I1
F1.0
S'good'
p2158
I1
tp2159
a(I358
I4
F-0.5
S'long'
p2160
I1
tp2161
a(I368
I3
F-0.5
S'continuous'
p2162
I1
tp2163
a(I373
I4
F-0.125
g614
I1
tp2164
a(I374
I5
F1.0
g65
I1
tp2165
a(I374
I5
F-0.625
g67
I1
tp2166
a(I375
I6
F1.0
g1680
I1
tp2167
a(I377
I1
F1.0
g1682
I1
tp2168
a(I388
I6
F1.0
S'good'
p2169
I1
tp2170
a(I403
I0
F0.875
S'superb'
p2171
I1
tp2172
a(I403
I0
F1.0
S'good'
p2173
I1
tp2174
a(I405
I0
F-0.5
g276
I1
tp2175
a(I405
I0
F-0.625
g278
I1
tp2176
a(I413
I1
F-0.125
g73
I1
tp2177
a(I434
I0
F1.0
S'good'
p2178
I1
tp2179
a(I439
I0
F1.0
g75
I1
tp2180
a(I443
I4
F1.0
S'good'
p2181
I1
tp2182
a(I449
I20
F1.0
g1687
I1
tp2183
a(I460
I0
F1.0
g288
I1
tp2184
a(I470
I0
F1.0
g292
I1
tp2185
a(I478
I18
I0
S'u'
p2186
I1
tp2187
a(I478
I18
F1.0
S'good'
p2188
I1
tp2189
a(I478
I35
F1.0
S'good'
p2190
I1
tp2191
a(I478
I35
F0.5
S'high'
p2192
I1
tp2193
a(I479
I11
F0.875
g294
I1
tp2194
a(I526
I6
F-0.125
g862
I1
tp2195
a(I563
I0
F-0.5
g1689
I1
tp2196
a(I563
I0
F1.0
g1691
I1
tp2197
a(I567
I0
F1.0
g296
I1
tp2198
a(I570
I2
F1.0
S'good'
p2199
I1
tp2200
a(I572
I1
F1.0
g77
I1
tp2201
a(I577
I11
F1.0
g1694
I1
tp2202
a(I591
I1
F0.625
S'fine'
p2203
I1
tp2204
a(I591
I5
F1.0
S'good'
p2205
I1
tp2206
a(I620
I0
F1.0
S'good'
p2207
I1
tp2208
a(I623
I3
F1.0
S'good'
p2209
I1
tp2210
a(I638
I0
F1.0
S'good'
p2211
I1
tp2212
a(I639
I3
F1.0
g1561
I1
tp2213
a(I639
I3
F1.0
g1563
I1
tp2214
a(I653
I1
F1.0
S'good'
p2215
I1
tp2216
a(I672
I4
F1.0
S'better'
p2217
I1
tp2218
a(I684
I1
F1.0
g1531
I1
tp2219
a(I703
I0
F-0.125
g312
I1
tp2220
a(I786
I4
F1.0
S'good'
p2221
I1
tp2222
a(I788
I3
F1.0
g1703
I1
tp2223
a(I808
I0
F1.0
g1705
I1
tp2224
a(I855
I1
F1.0
S'good'
p2225
I1
tp2226
a(I864
I20
F1.0
g320
I1
tp2227
a(I869
I0
F1.0
g1711
I1
tp2228
a(I882
I1
F1.0
g1989
I1
tp2229
a(I882
I1
F0.625
g1991
I1
tp2230
a(I918
I0
F1.0
g1713
I1
tp2231
a(I920
I1
F1.0
g1715
I1
tp2232
a(I929
I5
F0.125
S'mobile'
p2233
I1
tp2234
a(I944
I1
F1.0
S'good'
p2235
I1
tp2236
a(I955
I2
F1.0
g1717
I1
tp2237
a(I967
I1
F1.0
g1719
I1
tp2238
a(I974
I0
F1.0
S'good'
p2239
I1
tp2240
a(I986
I1
F1.0
S'good'
p2241
I1
tp2242
a(I1010
I1
F1.0
S'good'
p2243
I1
tp2244
a(I1012
I0
F1.0
S'good'
p2245
I1
tp2246
a(I1054
I0
F1.0
g332
I1
tp2247
a(I1057
I2
F1.0
g1723
I1
tp2248
a(I1082
I1
F1.0
g334
I1
tp2249
a(I1088
I3
F0.125
g1725
I1
tp2250
a(I1088
I3
F1.0
g1727
I1
tp2251
a(I1088
I3
F1.0
g1729
I1
tp2252
a(I1093
I1
F1.0
g1731
I1
tp2253
a(I1103
I5
F1.0
S'good'
p2254
I1
tp2255
a(I1112
I7
F1.0
S'good'
p2256
I1
tp2257
as(S'superb'
p2258
tp2259
(lp2260
(I35
I0
F0.125
S'usual'
p2261
I0
tp2262
a(I478
I22
F-0.625
S'last'
p2263
I0
tp2264
a(I478
I22
F-0.5
S'long'
p2265
I0
tp2266
a(I567
I16
F-0.125
S'overall'
p2267
I0
tp2268
a(I721
I0
F0.5
S'touch'
p2269
I0
tp2270
a(I958
I0
F0.125
S'usual'
p2271
I0
tp2272
as(S'days'
p2273
S'of'
p2274
S'use'
p2275
tp2276
(lp2277
(I8
I6
F0.75
g1363
I0
tp2278
a(I8
I6
I0
g1365
I0
tp2279
a(I8
I17
I0
S'few'
p2280
I0
tp2281
a(I215
I3
F0.375
g833
I0
tp2282
a(I449
I5
F-0.375
g835
I0
tp2283
a(I693
I5
F-0.5
S'heavy'
p2284
I0
tp2285
as(S'to'
p2286
g1842
S'days'
p2287
tp2288
(lp2289
(I130
I2
F-0.625
g1099
I0
tp2290
a(I374
I6
I0
g1103
I0
tp2291
a(I374
I6
F0.375
g1105
I0
tp2292
a(I568
I3
F-0.25
g1372
I0
tp2293
a(I568
I3
F-0.625
g1374
I0
tp2294
a(I770
I3
I0
g1288
I0
tp2295
a(I822
I2
I0
S'lag'
p2296
I0
tp2297
a(I1116
I0
F-0.375
g1862
I0
tp2298
a(I1116
I0
F0.375
g1864
I0
tp2299
a(I100
I0
F-0.625
S'last'
p2300
I4
tp2301
a(I109
I20
I0
g1846
I4
tp2302
a(I130
I2
F-0.625
g1099
I4
tp2303
a(I215
I3
F0.375
g833
I4
tp2304
a(I230
I0
I0
g1849
I4
tp2305
a(I265
I0
F0.75
g1851
I4
tp2306
a(I279
I1
I0
g1853
I4
tp2307
a(I374
I6
I0
g1103
I4
tp2308
a(I374
I6
F0.375
g1105
I4
tp2309
a(I568
I3
F-0.25
g1372
I4
tp2310
a(I568
I3
F-0.625
g1374
I4
tp2311
a(I626
I1
F-0.5
g1857
I4
tp2312
a(I770
I3
I0
g1288
I4
tp2313
a(I822
I2
I0
g2296
I4
tp2314
a(I850
I10
I0
g1860
I4
tp2315
a(I1116
I0
F-0.375
g1862
I4
tp2316
a(I1116
I0
F0.375
g1864
I4
tp2317
a(I1118
I4
F-0.125
g1326
I4
tp2318
as(S'rear'
p2319
S'and'
p2320
S'front'
p2321
tp2322
(lp2323
(I129
I2
I0
g1451
I0
tp2324
a(I129
I2
F1.0
g1453
I0
tp2325
a(I705
I23
F1.0
S'excellent'
p2326
I0
tp2327
a(I129
I2
I0
g1451
I1
tp2328
a(I129
I2
F1.0
g1453
I1
tp2329
a(I705
I23
F1.0
g2326
I1
tp2330
a(I425
I13
F-0.125
S'front'
p2331
I7
tp2332
a(I705
I23
F1.0
g2326
I7
tp2333
a(I53
I4
F1.0
g1445
I14
tp2334
a(I129
I2
I0
g1451
I14
tp2335
a(I129
I2
F1.0
g1453
I14
tp2336
a(I772
I2
F1.0
g1495
I14
tp2337
a(I797
I2
F1.0
S'better'
p2338
I14
tp2339
a(I797
I2
F-0.125
S'overall'
p2340
I14
tp2341
a(I797
I2
F1.0
S'good'
p2342
I14
tp2343
a(I946
I1
F1.0
S'good'
p2344
I14
tp2345
as(S'display'
p2346
tp2347
(lp2348
(I3
I0
F1.0
S'good'
p2349
I13
tp2350
a(I18
I0
F0.875
S'awesome'
p2351
I13
tp2352
a(I44
I28
F0.875
S'awesome'
p2353
I13
tp2354
a(I182
I0
F0.5
S'larger'
p2355
I13
tp2356
a(I377
I7
F1.0
S'good'
p2357
I13
tp2358
a(I388
I2
F1.0
S'good'
p2359
I13
tp2360
a(I407
I4
F0.125
S'outdoor'
p2361
I13
tp2362
a(I446
I6
F1.0
S'good'
p2363
I13
tp2364
a(I570
I8
F1.0
S'good'
p2365
I13
tp2366
a(I618
I3
F-0.625
S'sharp'
p2367
I13
tp2368
a(I646
I0
F-0.75
S'dead'
p2369
I13
tp2370
a(I672
I8
F0.875
S'happy'
p2371
I13
tp2372
a(I686
I2
F1.0
S'good'
p2373
I13
tp2374
a(I686
I10
I0
S'big'
p2375
I13
tp2376
a(I686
I10
I0
S'big'
p2377
I13
tp2378
a(I686
I36
I0
S'clear'
p2379
I13
tp2380
a(I755
I1
F0.875
S'decent'
p2381
I13
tp2382
a(I807
I0
F0.625
S'smooth'
p2383
I13
tp2384
a(I812
I0
I0
S'bigger'
p2385
I13
tp2386
a(I857
I2
I0
S'inch'
p2387
I13
tp2388
a(I864
I2
F1.0
S'good'
p2389
I13
tp2390
a(I882
I7
F0.875
S'awesome'
p2391
I13
tp2392
a(I900
I1
F1.0
S'good'
p2393
I13
tp2394
a(I907
I9
I0
S'pretty'
p2395
I13
tp2396
a(I907
I9
F0.875
S'nice'
p2397
I13
tp2398
a(I907
I9
F0.625
S'smooth'
p2399
I13
tp2400
a(I923
I2
F1.0
S'good'
p2401
I13
tp2402
a(I937
I13
F1.0
S'best'
p2403
I13
tp2404
a(I971
I2
I0
S'inch'
p2405
I13
tp2406
a(I1040
I3
F1.0
S'good'
p2407
I13
tp2408
a(I1081
I3
F1.0
S'good'
p2409
I13
tp2410
a(I1132
I0
F0.875
S'nice'
p2411
I13
tp2412
as(S'5000'
p2413
S'mah'
p2414
S'battery'
p2415
tp2416
(lp2417
(I16
I6
F-0.5
g49
I0
tp2418
a(I361
I0
I0
S'massive'
p2419
I0
tp2420
a(I474
I0
F1.0
S'excellent'
p2421
I0
tp2422
a(I474
I0
F0.75
g1555
I0
tp2423
a(I478
I1
F0.25
S'able'
p2424
I0
tp2425
a(I580
I3
I0
S'massive'
p2426
I0
tp2427
a(I618
I5
F0.875
g627
I0
tp2428
a(I714
I2
I0
S'inch'
p2429
I0
tp2430
a(I776
I2
I0
S'above'
p2431
I0
tp2432
a(I776
I2
I0
S'big'
p2433
I0
tp2434
a(I822
I1
F0.875
S'awesome'
p2435
I0
tp2436
a(I862
I1
I0
S'massive'
p2437
I0
tp2438
a(I999
I9
F-0.625
S'last'
p2439
I0
tp2440
a(I1121
I1
I0
S'impressed'
p2441
I0
tp2442
a(I16
I6
F-0.5
g49
I0
tp2443
a(I361
I0
I0
g2419
I0
tp2444
a(I459
I0
F-0.625
S'last'
p2445
I0
tp2446
a(I474
I0
F1.0
g2421
I0
tp2447
a(I474
I0
F0.75
g1555
I0
tp2448
a(I478
I1
F0.25
g2424
I0
tp2449
a(I580
I3
I0
g2426
I0
tp2450
a(I618
I5
F0.875
g627
I0
tp2451
a(I706
I8
F-0.75
S'little'
p2452
I0
tp2453
a(I706
I8
F-0.5
S'heavy'
p2454
I0
tp2455
a(I714
I2
I0
g2429
I0
tp2456
a(I776
I2
I0
g2431
I0
tp2457
a(I776
I2
I0
g2433
I0
tp2458
a(I822
I1
F0.875
g2435
I0
tp2459
a(I862
I1
I0
g2437
I0
tp2460
a(I864
I23
I0
S'more'
p2461
I0
tp2462
a(I999
I9
F-0.625
g2439
I0
tp2463
a(I1121
I1
I0
g2441
I0
tp2464
a(I7
I0
F0.5
S'astonishing'
p2465
I0
tp2466
a(I213
I0
F0.5
S'astonishing'
p2467
I0
tp2468
a(I361
I0
I0
g2419
I0
tp2469
a(I474
I0
F1.0
g2421
I0
tp2470
a(I580
I3
I0
g2426
I0
tp2471
a(I862
I1
I0
g2437
I0
tp2472
a(I1121
I1
I0
g2441
I0
tp2473
as(S'great'
p2474
S'battery'
p2475
S'backup'
p2476
tp2477
(lp2478
(I1
I3
F0.875
g592
I0
tp2479
a(I1
I3
I0
g594
I0
tp2480
a(I54
I2
F0.875
g596
I0
tp2481
a(I54
I2
I0
g598
I0
tp2482
a(I89
I5
F0.875
S'great'
p2483
I0
tp2484
a(I224
I6
F0.875
S'great'
p2485
I0
tp2486
a(I272
I1
F0.875
S'great'
p2487
I0
tp2488
a(I324
I4
F1.0
g608
I0
tp2489
a(I324
I4
F0.875
g1527
I0
tp2490
a(I325
I1
F0.875
g610
I0
tp2491
a(I374
I2
F0.875
S'great'
p2492
I0
tp2493
a(I613
I1
F0.875
g625
I0
tp2494
a(I686
I52
F0.875
g629
I0
tp2495
as(S'rear'
p2496
S'camera'
p2497
tp2498
(lp2499
(I7
I18
I0
S'rear'
p2500
I6
tp2501
a(I7
I18
F1.0
S'good'
p2502
I6
tp2503
a(I8
I24
F0.875
g1431
I6
tp2504
a(I8
I24
F1.0
g1433
I6
tp2505
a(I32
I9
F0.375
S'capable'
p2506
I6
tp2507
a(I95
I8
I0
S'rear'
p2508
I6
tp2509
a(I213
I18
I0
S'rear'
p2510
I6
tp2511
a(I213
I18
F1.0
S'good'
p2512
I6
tp2513
a(I425
I13
F-0.125
g2331
I6
tp2514
a(I425
I13
F0.875
g1463
I6
tp2515
a(I463
I0
F1.0
g1467
I6
tp2516
a(I463
I0
I0
g1469
I6
tp2517
a(I463
I0
F-0.125
g1471
I6
tp2518
a(I492
I1
I0
S'rear'
p2519
I6
tp2520
a(I501
I5
I0
S'rear'
p2521
I6
tp2522
a(I607
I0
I0
g1479
I6
tp2523
a(I686
I30
F1.0
g1483
I6
tp2524
a(I705
I2
F0.875
g1485
I6
tp2525
a(I705
I23
F1.0
g2326
I6
tp2526
a(I705
I23
F-0.125
g1487
I6
tp2527
a(I797
I1
I0
S'rear'
p2528
I6
tp2529
a(I881
I0
F1.0
g1501
I6
tp2530
a(I881
I0
F-0.125
g1503
I6
tp2531
a(I895
I8
F1.0
g1505
I6
tp2532
a(I914
I0
F-0.125
g1507
I6
tp2533
a(I1072
I8
I0
S'rear'
p2534
I6
tp2535
as(S'speaker'
p2536
tp2537
(lp2538
(I12
I4
F0.875
S'great'
p2539
I16
tp2540
a(I58
I2
F-0.5
S'loud'
p2541
I16
tp2542
a(I364
I0
F0.875
S'great'
p2543
I16
tp2544
a(I449
I13
F-0.5
S'loud'
p2545
I16
tp2546
a(I478
I23
F0.125
S'mobile'
p2547
I16
tp2548
a(I478
I23
F0.375
S'much'
p2549
I16
tp2550
a(I478
I23
F-0.875
S'low'
p2551
I16
tp2552
a(I515
I19
F-0.5
S'loud'
p2553
I16
tp2554
a(I570
I16
F-0.5
S'loud'
p2555
I16
tp2556
a(I622
I1
F-0.5
S'louder'
p2557
I16
tp2558
a(I1078
I2
F0.125
S'mobile'
p2559
I16
tp2560
a(I1111
I9
F1.0
S'good'
p2561
I16
tp2562
as(S'time'
p2563
S'to'
p2564
S'charge'
p2565
tp2566
(lp2567
(I239
I1
F-0.375
S'same'
p2568
I1
tp2569
a(I414
I4
F0.375
S'much'
p2570
I1
tp2571
a(I422
I0
F0.375
S'full'
p2572
I1
tp2573
a(I577
I0
F-0.375
g1170
I1
tp2574
a(I577
I0
F-0.5
g1172
I1
tp2575
a(I705
I20
F-0.5
g1174
I1
tp2576
a(I937
I7
F-0.5
g1188
I1
tp2577
as(S'value'
p2578
S'for'
p2579
S'money'
p2580
tp2581
(lp2582
(I7
I22
F-0.125
S'overall'
p2583
I4
tp2584
a(I213
I22
F-0.125
S'overall'
p2585
I4
tp2586
a(I234
I10
F-0.75
S'short'
p2587
I4
tp2588
a(I259
I1
F1.0
S'good'
p2589
I4
tp2590
a(I374
I6
F1.0
S'good'
p2591
I4
tp2592
a(I515
I7
F0.875
S'awesome'
p2593
I4
tp2594
a(I526
I2
F1.0
S'good'
p2595
I4
tp2596
a(I553
I1
F1.0
S'good'
p2597
I4
tp2598
a(I710
I1
F1.0
S'good'
p2599
I4
tp2600
a(I864
I15
F1.0
S'good'
p2601
I4
tp2602
a(I904
I15
F-0.625
S'real'
p2603
I4
tp2604
a(I7
I22
F-0.125
g2583
I7
tp2605
a(I213
I22
F-0.125
g2585
I7
tp2606
a(I234
I10
F-0.75
g2587
I7
tp2607
a(I259
I1
F1.0
g2589
I7
tp2608
a(I374
I6
F1.0
g2591
I7
tp2609
a(I515
I7
F0.875
g2593
I7
tp2610
a(I526
I2
F1.0
g2595
I7
tp2611
a(I553
I1
F1.0
g2597
I7
tp2612
a(I612
I0
F0.5
S'high'
p2613
I7
tp2614
a(I710
I1
F1.0
g2599
I7
tp2615
a(I781
I4
F0.875
S'great'
p2616
I7
tp2617
a(I904
I15
F-0.625
g2603
I7
tp2618
as(S'super'
p2619
tp2620
(lp2621
(I39
I0
F0.75
S'fit'
p2622
I5
tp2623
a(I39
I0
I0
S'n'
p2624
I5
tp2625
a(I39
I0
F0.625
S'finish'
p2626
I5
tp2627
a(I525
I0
F0.875
S'happy'
p2628
I5
tp2629
a(I686
I46
F0.875
S'happy'
p2630
I5
tp2631
a(I780
I4
F1.0
S'good'
p2632
I5
tp2633
a(I962
I0
F0.75
S'fit'
p2634
I5
tp2635
a(I962
I0
I0
S'n'
p2636
I5
tp2637
a(I962
I0
F0.625
S'finish'
p2638
I5
tp2639
as(S'best'
p2640
S'part'
p2641
tp2642
(lp2643
(I53
I2
F1.0
S'best'
p2644
I1
tp2645
a(I75
I1
F1.0
S'best'
p2646
I1
tp2647
a(I109
I12
F1.0
S'best'
p2648
I1
tp2649
a(I208
I0
F1.0
S'best'
p2650
I1
tp2651
a(I271
I5
F1.0
S'best'
p2652
I1
tp2653
a(I449
I12
F1.0
S'best'
p2654
I1
tp2655
a(I590
I2
F1.0
S'best'
p2656
I1
tp2657
a(I788
I1
F1.0
S'best'
p2658
I1
tp2659
a(I850
I8
F1.0
S'best'
p2660
I1
tp2661
a(I1050
I0
F1.0
S'best'
p2662
I1
tp2663
as(S'thanks'
p2664
tp2665
(lp2666
(I8
I36
F0.625
S'sincere'
p2667
I7
tp2668
a(I277
I0
I0
S'website'
p2669
I7
tp2670
as(S'viewing'
p2671
S'angles'
p2672
tp2673
(lp2674
(I7
I5
F1.0
S'good'
p2675
I0
tp2676
a(I213
I5
F1.0
S'good'
p2677
I0
tp2678
a(I407
I3
F1.0
S'good'
p2679
I0
tp2680
a(I424
I1
F0.875
S'nice'
p2681
I0
tp2682
as(S'in'
p2683
S'price'
p2684
S'range'
p2685
tp2686
(lp2687
(I6
I3
F1.0
S'best'
p2688
I0
tp2689
a(I6
I3
F1.0
g2688
I13
tp2690
a(I7
I7
F1.0
g900
I13
tp2691
a(I213
I7
F1.0
g902
I13
tp2692
a(I999
I8
F1.0
g904
I13
tp2693
as(S'games'
p2694
tp2695
(lp2696
(I7
I2
F-0.875
S'small'
p2697
I5
tp2698
a(I7
I14
F0.5
S'intensive'
p2699
I5
tp2700
a(I8
I0
F0.25
S'able'
p2701
I5
tp2702
a(I95
I10
F0.25
S'able'
p2703
I5
tp2704
a(I118
I1
F0.625
S'fine'
p2705
I5
tp2706
a(I213
I2
F-0.875
S'small'
p2707
I5
tp2708
a(I213
I14
F0.5
S'intensive'
p2709
I5
tp2710
a(I239
I3
F0.375
S'watch'
p2711
I5
tp2712
a(I443
I0
I0
S'listen'
p2713
I5
tp2714
a(I686
I2
I0
S'light'
p2715
I5
tp2716
a(I705
I17
F-0.625
S'other'
p2717
I5
tp2718
a(I778
I1
F0.125
S'enough'
p2719
I5
tp2720
a(I907
I11
I0
S'most'
p2721
I5
tp2722
a(I907
I11
F-0.5
S'heavy'
p2723
I5
tp2724
a(I936
I6
I0
S'most'
p2725
I5
tp2726
a(I1080
I0
F-0.75
S'black'
p2727
I5
tp2728
as(S'camera'
p2729
S'good'
p2730
S'battery'
p2731
tp2732
(lp2733
(I53
I7
F1.0
S'excellent'
p2734
I0
tp2735
a(I53
I7
F1.0
S'good'
p2736
I0
tp2737
a(I87
I2
F1.0
g2115
I0
tp2738
a(I87
I2
F0.875
g2117
I0
tp2739
a(I87
I2
F1.0
S'good'
p2740
I0
tp2741
a(I214
I4
F1.0
g1651
I0
tp2742
a(I214
I4
F1.0
S'best'
p2743
I0
tp2744
a(I257
I1
F1.0
S'good'
p2745
I0
tp2746
a(I257
I1
F-1.0
S'bad'
p2747
I0
tp2748
a(I258
I4
F0.875
g603
I0
tp2749
a(I258
I4
F1.0
S'good'
p2750
I0
tp2751
a(I261
I3
F1.0
S'good'
p2752
I0
tp2753
a(I273
I4
F1.0
g266
I0
tp2754
a(I293
I1
F1.0
g2144
I0
tp2755
a(I306
I3
F1.0
S'good'
p2756
I0
tp2757
a(I306
I3
F0.5
S'efficient'
p2758
I0
tp2759
a(I324
I4
F1.0
g608
I0
tp2760
a(I324
I4
F1.0
S'good'
p2761
I0
tp2762
a(I335
I1
F1.0
g2153
I0
tp2763
a(I358
I4
F-0.5
g2160
I0
tp2764
a(I358
I4
F1.0
S'good'
p2765
I0
tp2766
a(I368
I3
F-0.5
g2162
I0
tp2767
a(I368
I3
F0.625
S'super'
p2768
I0
tp2769
a(I373
I4
F1.0
S'good'
p2770
I0
tp2771
a(I373
I4
F-0.125
g614
I0
tp2772
a(I374
I5
F1.0
g65
I0
tp2773
a(I374
I5
F1.0
g1459
I0
tp2774
a(I374
I5
F-0.125
g1461
I0
tp2775
a(I374
I5
F-0.625
g67
I0
tp2776
a(I413
I1
F-0.125
g73
I0
tp2777
a(I413
I1
F1.0
S'good'
p2778
I0
tp2779
a(I443
I4
F1.0
g2181
I0
tp2780
a(I443
I4
F0.75
S'honor'
p2781
I0
tp2782
a(I520
I0
F1.0
S'good'
p2783
I0
tp2784
a(I526
I1
F1.0
S'good'
p2785
I0
tp2786
a(I526
I6
F-0.125
g862
I0
tp2787
a(I567
I0
F1.0
g296
I0
tp2788
a(I577
I11
F1.0
g1694
I0
tp2789
a(I591
I1
F0.625
g2203
I0
tp2790
a(I591
I1
F1.0
S'good'
p2791
I0
tp2792
a(I684
I1
F1.0
S'good'
p2793
I0
tp2794
a(I684
I1
F1.0
g1531
I0
tp2795
a(I703
I0
F-0.125
g312
I0
tp2796
a(I705
I11
F1.0
S'good'
p2797
I0
tp2798
a(I868
I16
F1.0
S'good'
p2799
I0
tp2800
a(I881
I0
F1.0
g1501
I0
tp2801
a(I881
I0
F-0.125
g1503
I0
tp2802
a(I916
I0
F1.0
S'good'
p2803
I0
tp2804
a(I974
I0
F1.0
g2239
I0
tp2805
a(I1093
I1
F1.0
g1731
I0
tp2806
a(I1093
I1
I0
S'cool'
p2807
I0
tp2808
a(I53
I7
F1.0
g2734
I0
tp2809
a(I53
I7
F1.0
g2736
I0
tp2810
a(I87
I2
F1.0
g2115
I0
tp2811
a(I87
I2
F0.875
g2117
I0
tp2812
a(I87
I2
F1.0
g2740
I0
tp2813
a(I214
I4
F1.0
g1651
I0
tp2814
a(I214
I4
F1.0
g2743
I0
tp2815
a(I257
I1
F1.0
g2745
I0
tp2816
a(I257
I1
F-1.0
g2747
I0
tp2817
a(I258
I4
F0.875
g603
I0
tp2818
a(I258
I4
F1.0
g2750
I0
tp2819
a(I261
I3
F1.0
g2752
I0
tp2820
a(I273
I4
F1.0
g266
I0
tp2821
a(I293
I1
F1.0
g2144
I0
tp2822
a(I306
I3
F1.0
g2756
I0
tp2823
a(I306
I3
F0.5
g2758
I0
tp2824
a(I324
I4
F1.0
g608
I0
tp2825
a(I324
I4
F1.0
g2761
I0
tp2826
a(I335
I1
F1.0
g2153
I0
tp2827
a(I358
I4
F-0.5
g2160
I0
tp2828
a(I358
I4
F1.0
g2765
I0
tp2829
a(I368
I3
F-0.5
g2162
I0
tp2830
a(I368
I3
F0.625
g2768
I0
tp2831
a(I373
I4
F1.0
g2770
I0
tp2832
a(I373
I4
F-0.125
g614
I0
tp2833
a(I374
I5
F1.0
g65
I0
tp2834
a(I374
I5
F1.0
g1459
I0
tp2835
a(I374
I5
F-0.125
g1461
I0
tp2836
a(I374
I5
F-0.625
g67
I0
tp2837
a(I413
I1
F-0.125
g73
I0
tp2838
a(I413
I1
F1.0
g2778
I0
tp2839
a(I443
I4
F1.0
g2181
I0
tp2840
a(I443
I4
F0.75
g2781
I0
tp2841
a(I520
I0
F1.0
g2783
I0
tp2842
a(I526
I1
F1.0
g2785
I0
tp2843
a(I526
I6
F-0.125
g862
I0
tp2844
a(I567
I0
F1.0
g296
I0
tp2845
a(I577
I11
F1.0
g1694
I0
tp2846
a(I591
I1
F0.625
g2203
I0
tp2847
a(I591
I1
F1.0
g2791
I0
tp2848
a(I684
I1
F1.0
g2793
I0
tp2849
a(I684
I1
F1.0
g1531
I0
tp2850
a(I703
I0
F-0.125
g312
I0
tp2851
a(I705
I11
F1.0
g2797
I0
tp2852
a(I868
I16
F1.0
g2799
I0
tp2853
a(I881
I0
F1.0
g1501
I0
tp2854
a(I881
I0
F-0.125
g1503
I0
tp2855
a(I916
I0
F1.0
g2803
I0
tp2856
a(I974
I0
F1.0
g2239
I0
tp2857
a(I1093
I1
F1.0
g1731
I0
tp2858
a(I1093
I1
I0
g2807
I0
tp2859
as(S'awesome'
p2860
S'battery'
p2861
S'backup'
p2862
tp2863
(lp2864
(I225
I1
F0.875
S'awesome'
p2865
I0
tp2866
a(I261
I3
F0.875
g1657
I0
tp2867
a(I388
I1
F0.875
S'awesome'
p2868
I0
tp2869
a(I869
I11
F0.875
S'awesome'
p2870
I0
tp2871
a(I869
I11
I0
S'more'
p2872
I0
tp2873
a(I886
I0
F0.875
S'awesome'
p2874
I0
tp2875
a(I120
I1
F0.875
S'awesome'
p2876
I0
tp2877
a(I147
I0
F0.875
S'awesome'
p2878
I0
tp2879
a(I210
I3
F0.875
g250
I0
tp2880
a(I237
I0
F0.875
S'awesome'
p2881
I0
tp2882
a(I304
I2
F0.875
S'awesome'
p2883
I0
tp2884
a(I338
I21
F0.875
S'awesome'
p2885
I0
tp2886
a(I428
I0
F0.875
S'awesome'
p2887
I0
tp2888
a(I591
I1
F0.625
g2203
I0
tp2889
a(I593
I8
F0.125
g300
I0
tp2890
a(I593
I8
F0.875
g302
I0
tp2891
a(I700
I0
F-0.5
S'long'
p2892
I0
tp2893
a(I822
I1
F0.875
g2435
I0
tp2894
a(I869
I11
F0.875
g2870
I0
tp2895
a(I872
I0
F0.875
g91
I0
tp2896
a(I886
I0
F0.875
g2874
I0
tp2897
a(I1050
I0
F0.875
g330
I0
tp2898
as(g215
S'full'
p2899
S'charge'
p2900
tp2901
(lp2902
(I50
I17
F0.375
g1133
I0
tp2903
a(I95
I3
F0.375
g1139
I0
tp2904
a(I424
I0
F0.375
S'full'
p2905
I0
tp2906
a(I425
I1
F0.375
S'full'
p2907
I0
tp2908
a(I440
I4
F0.375
S'full'
p2909
I0
tp2910
a(I443
I0
F0.375
S'full'
p2911
I0
tp2912
a(I443
I0
I0
S'u'
p2913
I0
tp2914
a(I686
I47
F0.5
S'second'
p2915
I0
tp2916
a(I694
I4
F0.375
S'full'
p2917
I0
tp2918
a(I1001
I13
F0.375
S'full'
p2919
I0
tp2920
as(S'cons'
p2921
tp2922
(lp2923
(I197
I3
I0
S'only'
p2924
I8
tp2925
a(I365
I2
F-0.625
S'other'
p2926
I8
tp2927
a(I863
I3
F-0.125
S'overall'
p2928
I8
tp2929
a(I987
I4
I0
S'only'
p2930
I8
tp2931
a(I1072
I24
I0
S'only'
p2932
I8
tp2933
as(S'right'
p2934
S'choice'
p2935
tp2936
(lp2937
(I94
I0
F0.875
S'right'
p2938
I0
tp2939
a(I192
I12
F0.875
S'right'
p2940
I0
tp2941
a(I490
I1
F0.875
S'right'
p2942
I0
tp2943
as(S'processor'
p2944
tp2945
(lp2946
(I25
I2
F1.0
S'better'
p2947
I8
tp2948
a(I25
I2
I0
S'snapdragon'
p2949
I8
tp2950
a(I25
I2
F-0.875
S'low'
p2951
I8
tp2952
a(I32
I11
F1.0
S'good'
p2953
I8
tp2954
a(I153
I0
F1.0
S'better'
p2955
I8
tp2956
a(I153
I0
F0.5
S'higher'
p2957
I8
tp2958
a(I238
I1
F-0.875
S'poor'
p2959
I8
tp2960
a(I338
I5
F1.0
S'good'
p2961
I8
tp2962
a(I343
I0
F1.0
S'good'
p2963
I8
tp2964
a(I403
I9
F0.75
S'due'
p2965
I8
tp2966
a(I403
I9
F-0.875
S'low'
p2967
I8
tp2968
a(I403
I14
F-0.625
S'other'
p2969
I8
tp2970
a(I428
I0
F-0.875
S'poor'
p2971
I8
tp2972
a(I556
I3
F1.0
S'good'
p2973
I8
tp2974
a(I688
I4
F1.0
S'good'
p2975
I8
tp2976
a(I858
I0
F1.0
S'good'
p2977
I8
tp2978
a(I937
I6
F0.875
S'awesome'
p2979
I8
tp2980
a(I1072
I6
F1.0
S'good'
p2981
I8
tp2982
a(I1110
I12
F1.0
S'good'
p2983
I8
tp2984
a(I1112
I6
F1.0
S'good'
p2985
I8
tp2986
as(S'normal'
p2987
S'usage'
p2988
tp2989
(lp2990
(I96
I5
I0
S'normal'
p2991
I1
tp2992
a(I338
I2
I0
g804
I1
tp2993
a(I338
I2
F-0.5
g806
I1
tp2994
a(I374
I6
F-0.5
g808
I1
tp2995
a(I478
I21
I0
S'normal'
p2996
I1
tp2997
a(I478
I22
I0
S'normal'
p2998
I1
tp2999
a(I499
I0
I0
S'normal'
p3000
I1
tp3001
a(I595
I1
F-0.5
g812
I1
tp3002
a(I688
I3
I0
S'normal'
p3003
I1
tp3004
a(I741
I1
I0
S'normal'
p3005
I1
tp3006
a(I96
I5
I0
g2991
I8
tp3007
a(I109
I16
F-0.5
g802
I8
tp3008
a(I160
I18
F-0.5
S'regular'
p3009
I8
tp3010
a(I186
I2
F0.5
S'daily'
p3011
I8
tp3012
a(I234
I2
F-0.5
S'continuous'
p3013
I8
tp3014
a(I338
I2
I0
g804
I8
tp3015
a(I338
I2
F-0.5
g806
I8
tp3016
a(I360
I2
F0.25
S'basic'
p3017
I8
tp3018
a(I364
I1
F0.25
S'basic'
p3019
I8
tp3020
a(I374
I6
F-0.5
g808
I8
tp3021
a(I478
I15
I0
S'internet'
p3022
I8
tp3023
a(I478
I21
I0
g2996
I8
tp3024
a(I478
I22
I0
g2998
I8
tp3025
a(I478
I29
I0
S'light'
p3026
I8
tp3027
a(I499
I0
I0
g3000
I8
tp3028
a(I594
I1
F-0.5
g810
I8
tp3029
a(I595
I1
F-0.5
g812
I8
tp3030
a(I688
I3
I0
g3003
I8
tp3031
a(I702
I7
F-0.5
g814
I8
tp3032
a(I741
I1
I0
g3005
I8
tp3033
a(I786
I4
F-0.5
g816
I8
tp3034
a(I863
I15
F-0.5
S'continuous'
p3035
I8
tp3036
a(I864
I1
F-0.5
g818
I8
tp3037
a(I895
I3
I0
S'intermittent'
p3038
I8
tp3039
a(I895
I4
F1.0
S'best'
p3040
I8
tp3041
a(I895
I4
F-0.625
S'moderate'
p3042
I8
tp3043
a(I902
I6
F-0.5
g820
I8
tp3044
a(I1014
I4
F-0.5
g822
I8
tp3045
a(I1072
I1
F-0.5
g824
I8
tp3046
as(S'good'
p3047
S'camera'
p3048
S'quality'
p3049
tp3050
(lp3051
(I8
I40
F1.0
S'good'
p3052
I0
tp3053
a(I12
I2
F1.0
S'good'
p3054
I0
tp3055
a(I50
I7
F1.0
S'good'
p3056
I0
tp3057
a(I238
I8
F1.0
S'good'
p3058
I0
tp3059
a(I257
I1
I0
S'screen'
p3060
I0
tp3061
a(I257
I1
F-0.625
S'average'
p3062
I0
tp3063
a(I257
I1
F-0.125
S'overall'
p3064
I0
tp3065
a(I257
I1
F1.0
g2745
I0
tp3066
a(I257
I1
F-1.0
g2747
I0
tp3067
a(I261
I3
F1.0
g2752
I0
tp3068
a(I305
I0
F-1.0
S'bad'
p3069
I0
tp3070
a(I305
I0
F1.0
S'good'
p3071
I0
tp3072
a(I373
I4
F1.0
g2770
I0
tp3073
a(I431
I13
F1.0
S'good'
p3074
I0
tp3075
a(I449
I11
F1.0
S'good'
p3076
I0
tp3077
a(I449
I11
F1.0
S'excellent'
p3078
I0
tp3079
a(I459
I2
F1.0
S'excellent'
p3080
I0
tp3081
a(I526
I6
F1.0
S'good'
p3082
I0
tp3083
a(I563
I1
F1.0
S'good'
p3084
I0
tp3085
a(I637
I0
F1.0
g1481
I0
tp3086
a(I639
I4
F0.625
S'fine'
p3087
I0
tp3088
a(I639
I4
F1.0
S'good'
p3089
I0
tp3090
a(I688
I6
F1.0
S'good'
p3091
I0
tp3092
a(I705
I11
F1.0
g2797
I0
tp3093
a(I732
I1
F1.0
S'good'
p3094
I0
tp3095
a(I797
I1
I0
g2528
I0
tp3096
a(I797
I1
F1.0
S'good'
p3097
I0
tp3098
a(I797
I1
F1.0
S'excellent'
p3099
I0
tp3100
a(I815
I0
F1.0
S'good'
p3101
I0
tp3102
a(I864
I21
F1.0
S'good'
p3103
I0
tp3104
a(I885
I3
F1.0
S'good'
p3105
I0
tp3106
a(I974
I0
F1.0
S'good'
p3107
I0
tp3108
a(I1061
I5
F1.0
S'good'
p3109
I0
tp3110
a(I1097
I2
F0.625
S'super'
p3111
I0
tp3112
a(I1113
I2
F1.0
S'good'
p3113
I0
tp3114
a(I4
I0
F1.0
S'good'
p3115
I0
tp3116
a(I7
I18
I0
g2500
I0
tp3117
a(I7
I18
F1.0
g2502
I0
tp3118
a(I8
I24
F0.875
g1431
I0
tp3119
a(I8
I24
F1.0
g1433
I0
tp3120
a(I8
I40
F1.0
g3052
I0
tp3121
a(I12
I2
F1.0
g3054
I0
tp3122
a(I37
I1
F1.0
S'good'
p3123
I0
tp3124
a(I50
I23
F-0.125
g1439
I0
tp3125
a(I50
I23
F1.0
g1441
I0
tp3126
a(I50
I23
F-0.875
g1443
I0
tp3127
a(I52
I3
F1.0
S'good'
p3128
I0
tp3129
a(I52
I3
I0
S'normal'
p3130
I0
tp3131
a(I53
I4
I0
g1447
I0
tp3132
a(I53
I4
F-0.875
g1449
I0
tp3133
a(I53
I7
F1.0
g2734
I0
tp3134
a(I53
I7
F1.0
g2736
I0
tp3135
a(I87
I2
F1.0
g2740
I0
tp3136
a(I105
I6
F1.0
S'good'
p3137
I0
tp3138
a(I159
I0
F1.0
S'good'
p3139
I0
tp3140
a(I203
I1
F1.0
S'good'
p3141
I0
tp3142
a(I213
I18
I0
g2510
I0
tp3143
a(I213
I18
F1.0
g2512
I0
tp3144
a(I214
I4
F1.0
g2743
I0
tp3145
a(I234
I5
F1.0
S'good'
p3146
I0
tp3147
a(I243
I0
F1.0
S'good'
p3148
I0
tp3149
a(I245
I2
F-1.0
S'bad'
p3150
I0
tp3151
a(I254
I0
F1.0
S'good'
p3152
I0
tp3153
a(I254
I0
F1.0
S'good'
p3154
I0
tp3155
a(I257
I1
F1.0
g2745
I0
tp3156
a(I257
I1
F-1.0
g2747
I0
tp3157
a(I258
I4
F1.0
g2750
I0
tp3158
a(I261
I3
F1.0
g2752
I0
tp3159
a(I265
I4
F1.0
g1457
I0
tp3160
a(I283
I2
F1.0
S'good'
p3161
I0
tp3162
a(I283
I2
F-0.625
S'other'
p3163
I0
tp3164
a(I306
I3
F1.0
g2756
I0
tp3165
a(I306
I3
F0.5
g2758
I0
tp3166
a(I308
I0
F1.0
S'good'
p3167
I0
tp3168
a(I320
I2
F1.0
S'good'
p3169
I0
tp3170
a(I324
I1
F1.0
S'good'
p3171
I0
tp3172
a(I324
I4
F1.0
g2761
I0
tp3173
a(I352
I0
F1.0
S'good'
p3174
I0
tp3175
a(I358
I4
F1.0
g2765
I0
tp3176
a(I364
I3
F1.0
S'good'
p3177
I0
tp3178
a(I368
I3
F0.625
g2768
I0
tp3179
a(I373
I4
F1.0
g2770
I0
tp3180
a(I374
I5
F1.0
g1459
I0
tp3181
a(I374
I5
F-0.125
g1461
I0
tp3182
a(I398
I1
F1.0
S'good'
p3183
I0
tp3184
a(I413
I1
F1.0
g2778
I0
tp3185
a(I426
I10
F1.0
g1465
I0
tp3186
a(I430
I2
F1.0
S'good'
p3187
I0
tp3188
a(I431
I10
F0.875
S'great'
p3189
I0
tp3190
a(I443
I4
F0.75
g2781
I0
tp3191
a(I454
I1
F1.0
S'good'
p3192
I0
tp3193
a(I478
I12
F1.0
S'good'
p3194
I0
tp3195
a(I510
I0
F1.0
S'good'
p3196
I0
tp3197
a(I520
I0
F1.0
g2783
I0
tp3198
a(I522
I6
F1.0
S'good'
p3199
I0
tp3200
a(I526
I1
F1.0
g2785
I0
tp3201
a(I526
I16
F1.0
S'good'
p3202
I0
tp3203
a(I563
I1
F1.0
g3084
I0
tp3204
a(I569
I2
F1.0
S'good'
p3205
I0
tp3206
a(I575
I0
F1.0
S'good'
p3207
I0
tp3208
a(I579
I9
F1.0
S'good'
p3209
I0
tp3210
a(I591
I1
F1.0
g2791
I0
tp3211
a(I607
I0
I0
g1479
I0
tp3212
a(I618
I0
F1.0
S'good'
p3213
I0
tp3214
a(I637
I0
F1.0
g1481
I0
tp3215
a(I639
I4
F0.625
g3087
I0
tp3216
a(I649
I4
F1.0
S'good'
p3217
I0
tp3218
a(I673
I1
F1.0
S'good'
p3219
I0
tp3220
a(I675
I3
F1.0
S'good'
p3221
I0
tp3222
a(I684
I1
F1.0
g2793
I0
tp3223
a(I686
I30
F1.0
g1483
I0
tp3224
a(I693
I6
F1.0
S'good'
p3225
I0
tp3226
a(I705
I11
F1.0
g2797
I0
tp3227
a(I719
I1
F1.0
S'best'
p3228
I0
tp3229
a(I719
I1
F1.0
S'good'
p3230
I0
tp3231
a(I732
I1
F1.0
g3094
I0
tp3232
a(I772
I2
F0.625
g1493
I0
tp3233
a(I780
I0
F1.0
S'good'
p3234
I0
tp3235
a(I784
I1
F1.0
S'good'
p3236
I0
tp3237
a(I787
I3
F1.0
S'good'
p3238
I0
tp3239
a(I787
I3
F1.0
S'good'
p3240
I0
tp3241
a(I797
I1
I0
g2528
I0
tp3242
a(I863
I10
F1.0
S'good'
p3243
I0
tp3244
a(I864
I11
F1.0
S'good'
p3245
I0
tp3246
a(I868
I16
F1.0
g2799
I0
tp3247
a(I870
I2
F1.0
S'good'
p3248
I0
tp3249
a(I875
I1
F-0.125
g1497
I0
tp3250
a(I875
I1
F1.0
g1499
I0
tp3251
a(I880
I2
F1.0
S'good'
p3252
I0
tp3253
a(I881
I0
F1.0
g1501
I0
tp3254
a(I881
I0
F-0.125
g1503
I0
tp3255
a(I888
I0
F1.0
S'good'
p3256
I0
tp3257
a(I895
I8
F1.0
g1505
I0
tp3258
a(I916
I0
F1.0
g2803
I0
tp3259
a(I932
I0
F1.0
S'good'
p3260
I0
tp3261
a(I960
I1
F1.0
S'good'
p3262
I0
tp3263
a(I1009
I1
F1.0
S'good'
p3264
I0
tp3265
a(I1040
I4
F1.0
S'good'
p3266
I0
tp3267
a(I1093
I1
I0
g2807
I0
tp3268
a(I1105
I0
F1.0
S'good'
p3269
I0
tp3270
a(I10
I0
F1.0
g1054
I0
tp3271
a(I22
I0
F0.75
g685
I0
tp3272
a(I22
I0
F1.0
g687
I0
tp3273
a(I50
I7
F1.0
g3056
I0
tp3274
a(I53
I1
F-0.5
S'heavy'
p3275
I0
tp3276
a(I53
I1
F1.0
S'good'
p3277
I0
tp3278
a(I89
I3
I0
S'video'
p3279
I0
tp3280
a(I121
I1
F1.0
S'good'
p3281
I0
tp3282
a(I124
I1
F0.875
S'great'
p3283
I0
tp3284
a(I144
I2
F1.0
S'good'
p3285
I0
tp3286
a(I236
I3
F1.0
S'good'
p3287
I0
tp3288
a(I238
I8
F1.0
g3058
I0
tp3289
a(I257
I1
I0
g3060
I0
tp3290
a(I257
I1
F-0.625
g3062
I0
tp3291
a(I257
I1
F-0.125
g3064
I0
tp3292
a(I305
I0
F-1.0
g3069
I0
tp3293
a(I305
I0
F1.0
g3071
I0
tp3294
a(I314
I0
F0.875
S'nice'
p3295
I0
tp3296
a(I368
I1
F1.0
S'good'
p3297
I0
tp3298
a(I404
I0
F1.0
S'good'
p3299
I0
tp3300
a(I427
I1
F1.0
g693
I0
tp3301
a(I431
I13
F1.0
g3074
I0
tp3302
a(I449
I11
F1.0
g3076
I0
tp3303
a(I449
I11
F1.0
g3078
I0
tp3304
a(I459
I2
F1.0
g3080
I0
tp3305
a(I473
I0
F1.0
g1072
I0
tp3306
a(I522
I5
F1.0
S'good'
p3307
I0
tp3308
a(I526
I6
F1.0
g3082
I0
tp3309
a(I588
I0
F1.0
S'good'
p3310
I0
tp3311
a(I619
I2
F1.0
S'good'
p3312
I0
tp3313
a(I639
I4
F1.0
g3089
I0
tp3314
a(I673
I5
F1.0
g1074
I0
tp3315
a(I682
I1
F1.0
S'good'
p3316
I0
tp3317
a(I686
I29
F0.75
g705
I0
tp3318
a(I686
I29
F1.0
g707
I0
tp3319
a(I688
I6
F1.0
g3091
I0
tp3320
a(I769
I8
F1.0
g1078
I0
tp3321
a(I786
I16
F1.0
S'good'
p3322
I0
tp3323
a(I797
I1
F1.0
g3097
I0
tp3324
a(I797
I1
F1.0
g3099
I0
tp3325
a(I815
I0
F1.0
g3101
I0
tp3326
a(I851
I6
F1.0
S'good'
p3327
I0
tp3328
a(I864
I21
F1.0
g3103
I0
tp3329
a(I866
I0
F1.0
g1080
I0
tp3330
a(I885
I3
F1.0
g3105
I0
tp3331
a(I885
I6
F1.0
S'good'
p3332
I0
tp3333
a(I890
I0
F1.0
g1082
I0
tp3334
a(I893
I0
F1.0
g1084
I0
tp3335
a(I973
I1
F1.0
S'good'
p3336
I0
tp3337
a(I974
I0
F1.0
g3107
I0
tp3338
a(I1061
I5
F1.0
g3109
I0
tp3339
a(I1081
I5
F0.75
g711
I0
tp3340
a(I1081
I5
F1.0
g713
I0
tp3341
a(I1097
I2
F0.625
g3111
I0
tp3342
a(I1113
I2
F1.0
g3113
I0
tp3343
a(I4
I0
F1.0
g3115
I3
tp3344
a(I7
I18
I0
g2500
I3
tp3345
a(I7
I18
F1.0
g2502
I3
tp3346
a(I8
I24
F0.875
g1431
I3
tp3347
a(I8
I24
F1.0
g1433
I3
tp3348
a(I8
I40
F1.0
g3052
I3
tp3349
a(I12
I2
F1.0
g3054
I3
tp3350
a(I37
I1
F1.0
g3123
I3
tp3351
a(I50
I23
F-0.125
g1439
I3
tp3352
a(I50
I23
F1.0
g1441
I3
tp3353
a(I50
I23
F-0.875
g1443
I3
tp3354
a(I52
I3
F1.0
g3128
I3
tp3355
a(I52
I3
I0
g3130
I3
tp3356
a(I53
I4
I0
g1447
I3
tp3357
a(I53
I4
F-0.875
g1449
I3
tp3358
a(I53
I7
F1.0
g2734
I3
tp3359
a(I53
I7
F1.0
g2736
I3
tp3360
a(I87
I2
F1.0
g2740
I3
tp3361
a(I105
I6
F1.0
g3137
I3
tp3362
a(I159
I0
F1.0
g3139
I3
tp3363
a(I203
I1
F1.0
g3141
I3
tp3364
a(I213
I18
I0
g2510
I3
tp3365
a(I213
I18
F1.0
g2512
I3
tp3366
a(I214
I4
F1.0
g2743
I3
tp3367
a(I234
I5
F1.0
g3146
I3
tp3368
a(I243
I0
F1.0
g3148
I3
tp3369
a(I245
I2
F-1.0
g3150
I3
tp3370
a(I254
I0
F1.0
g3152
I3
tp3371
a(I254
I0
F1.0
g3154
I3
tp3372
a(I257
I1
F1.0
g2745
I3
tp3373
a(I257
I1
F-1.0
g2747
I3
tp3374
a(I258
I4
F1.0
g2750
I3
tp3375
a(I261
I3
F1.0
g2752
I3
tp3376
a(I265
I4
F1.0
g1457
I3
tp3377
a(I283
I2
F1.0
g3161
I3
tp3378
a(I283
I2
F-0.625
g3163
I3
tp3379
a(I306
I3
F1.0
g2756
I3
tp3380
a(I306
I3
F0.5
g2758
I3
tp3381
a(I308
I0
F1.0
g3167
I3
tp3382
a(I320
I2
F1.0
g3169
I3
tp3383
a(I324
I1
F1.0
g3171
I3
tp3384
a(I324
I4
F1.0
g2761
I3
tp3385
a(I352
I0
F1.0
g3174
I3
tp3386
a(I358
I4
F1.0
g2765
I3
tp3387
a(I364
I3
F1.0
g3177
I3
tp3388
a(I368
I3
F0.625
g2768
I3
tp3389
a(I373
I4
F1.0
g2770
I3
tp3390
a(I374
I5
F1.0
g1459
I3
tp3391
a(I374
I5
F-0.125
g1461
I3
tp3392
a(I398
I1
F1.0
g3183
I3
tp3393
a(I413
I1
F1.0
g2778
I3
tp3394
a(I426
I10
F1.0
g1465
I3
tp3395
a(I430
I2
F1.0
g3187
I3
tp3396
a(I431
I10
F0.875
g3189
I3
tp3397
a(I443
I4
F0.75
g2781
I3
tp3398
a(I454
I1
F1.0
g3192
I3
tp3399
a(I478
I12
F1.0
g3194
I3
tp3400
a(I510
I0
F1.0
g3196
I3
tp3401
a(I520
I0
F1.0
g2783
I3
tp3402
a(I522
I6
F1.0
g3199
I3
tp3403
a(I526
I1
F1.0
g2785
I3
tp3404
a(I526
I16
F1.0
g3202
I3
tp3405
a(I563
I1
F1.0
g3084
I3
tp3406
a(I569
I2
F1.0
g3205
I3
tp3407
a(I575
I0
F1.0
g3207
I3
tp3408
a(I579
I9
F1.0
g3209
I3
tp3409
a(I591
I1
F1.0
g2791
I3
tp3410
a(I607
I0
I0
g1479
I3
tp3411
a(I618
I0
F1.0
g3213
I3
tp3412
a(I637
I0
F1.0
g1481
I3
tp3413
a(I639
I4
F0.625
g3087
I3
tp3414
a(I649
I4
F1.0
g3217
I3
tp3415
a(I673
I1
F1.0
g3219
I3
tp3416
a(I675
I3
F1.0
g3221
I3
tp3417
a(I684
I1
F1.0
g2793
I3
tp3418
a(I686
I30
F1.0
g1483
I3
tp3419
a(I693
I6
F1.0
g3225
I3
tp3420
a(I705
I11
F1.0
g2797
I3
tp3421
a(I719
I1
F1.0
g3228
I3
tp3422
a(I719
I1
F1.0
g3230
I3
tp3423
a(I732
I1
F1.0
g3094
I3
tp3424
a(I772
I2
F0.625
g1493
I3
tp3425
a(I780
I0
F1.0
g3234
I3
tp3426
a(I784
I1
F1.0
g3236
I3
tp3427
a(I787
I3
F1.0
g3238
I3
tp3428
a(I787
I3
F1.0
g3240
I3
tp3429
a(I797
I1
I0
g2528
I3
tp3430
a(I863
I10
F1.0
g3243
I3
tp3431
a(I864
I11
F1.0
g3245
I3
tp3432
a(I868
I16
F1.0
g2799
I3
tp3433
a(I870
I2
F1.0
g3248
I3
tp3434
a(I875
I1
F-0.125
g1497
I3
tp3435
a(I875
I1
F1.0
g1499
I3
tp3436
a(I880
I2
F1.0
g3252
I3
tp3437
a(I881
I0
F1.0
g1501
I3
tp3438
a(I881
I0
F-0.125
g1503
I3
tp3439
a(I888
I0
F1.0
g3256
I3
tp3440
a(I895
I8
F1.0
g1505
I3
tp3441
a(I916
I0
F1.0
g2803
I3
tp3442
a(I932
I0
F1.0
g3260
I3
tp3443
a(I960
I1
F1.0
g3262
I3
tp3444
a(I1009
I1
F1.0
g3264
I3
tp3445
a(I1040
I4
F1.0
g3266
I3
tp3446
a(I1093
I1
I0
g2807
I3
tp3447
a(I1105
I0
F1.0
g3269
I3
tp3448
a(I8
I40
F1.0
g3052
I14
tp3449
a(I12
I2
F1.0
g3054
I14
tp3450
a(I44
I0
F0.375
S'ok'
p3451
I14
tp3452
a(I47
I0
F-0.875
S'poor'
p3453
I14
tp3454
a(I47
I0
I0
g1435
I14
tp3455
a(I47
I0
F-0.125
g1437
I14
tp3456
a(I50
I7
F1.0
g3056
I14
tp3457
a(I50
I9
F-0.125
S'overall'
p3458
I14
tp3459
a(I63
I5
F-0.75
S'lousy'
p3460
I14
tp3461
a(I87
I5
F0.875
S'amazing'
p3462
I14
tp3463
a(I87
I5
F0.125
S'equivalent'
p3464
I14
tp3465
a(I192
I0
F-0.875
S'low'
p3466
I14
tp3467
a(I224
I7
F0.875
S'great'
p3468
I14
tp3469
a(I238
I8
F1.0
g3058
I14
tp3470
a(I240
I2
F0.875
S'superb'
p3471
I14
tp3472
a(I240
I2
I0
S'actual'
p3473
I14
tp3474
a(I240
I2
F-0.875
S'poor'
p3475
I14
tp3476
a(I257
I1
I0
g3060
I14
tp3477
a(I257
I1
F-0.625
g3062
I14
tp3478
a(I257
I1
F-0.125
g3064
I14
tp3479
a(I257
I1
F1.0
g2745
I14
tp3480
a(I257
I1
F-1.0
g2747
I14
tp3481
a(I261
I3
F1.0
g2752
I14
tp3482
a(I305
I0
F-1.0
g3069
I14
tp3483
a(I305
I0
F1.0
g3071
I14
tp3484
a(I305
I7
F0.875
S'awesome'
p3485
I14
tp3486
a(I373
I4
F1.0
g2770
I14
tp3487
a(I375
I2
I0
g1060
I14
tp3488
a(I375
I2
F0.875
g1062
I14
tp3489
a(I406
I2
F-0.875
S'low'
p3490
I14
tp3491
a(I431
I13
F1.0
g3074
I14
tp3492
a(I440
I0
F1.0
S'excellent'
p3493
I14
tp3494
a(I449
I11
F1.0
g3076
I14
tp3495
a(I449
I11
F1.0
g3078
I14
tp3496
a(I458
I3
F0.75
S'perfect'
p3497
I14
tp3498
a(I459
I2
F1.0
g3080
I14
tp3499
a(I518
I5
F0.875
S'awesome'
p3500
I14
tp3501
a(I526
I6
F1.0
g3082
I14
tp3502
a(I563
I1
F1.0
g3084
I14
tp3503
a(I589
I0
F1.0
S'excellent'
p3504
I14
tp3505
a(I637
I0
F1.0
g1481
I14
tp3506
a(I639
I4
F0.625
g3087
I14
tp3507
a(I639
I4
F1.0
g3089
I14
tp3508
a(I647
I2
F0.375
S'ok'
p3509
I14
tp3510
a(I650
I8
F0.375
S'impressive'
p3511
I14
tp3512
a(I688
I6
F1.0
g3091
I14
tp3513
a(I699
I1
F1.0
S'excellent'
p3514
I14
tp3515
a(I705
I11
F1.0
g2797
I14
tp3516
a(I712
I1
F-0.875
S'poor'
p3517
I14
tp3518
a(I712
I1
I0
g1489
I14
tp3519
a(I712
I1
F-0.125
g1491
I14
tp3520
a(I732
I1
F1.0
g3094
I14
tp3521
a(I769
I3
F0.875
S'awesome'
p3522
I14
tp3523
a(I797
I1
I0
g2528
I14
tp3524
a(I797
I1
F1.0
g3097
I14
tp3525
a(I797
I1
F1.0
g3099
I14
tp3526
a(I815
I0
F1.0
g3101
I14
tp3527
a(I864
I21
F1.0
g3103
I14
tp3528
a(I869
I8
I0
S'normal'
p3529
I14
tp3530
a(I885
I3
F1.0
g3105
I14
tp3531
a(I922
I1
F0.375
S'much'
p3532
I14
tp3533
a(I922
I1
F0.875
S'great'
p3534
I14
tp3535
a(I927
I0
F0.375
S'satisfied'
p3536
I14
tp3537
a(I974
I0
F1.0
g3107
I14
tp3538
a(I1061
I5
F1.0
g3109
I14
tp3539
a(I1062
I14
F0.375
S'full'
p3540
I14
tp3541
a(I1062
I14
I0
S'mp'
p3542
I14
tp3543
a(I1083
I0
F0.875
S'nice'
p3544
I14
tp3545
a(I1097
I2
F0.625
g3111
I14
tp3546
a(I1107
I0
F-0.875
S'poor'
p3547
I14
tp3548
a(I1113
I2
F1.0
g3113
I14
tp3549
a(I4
I0
F1.0
g3115
I0
tp3550
a(I7
I18
I0
g2500
I0
tp3551
a(I7
I18
F1.0
g2502
I0
tp3552
a(I8
I24
F0.875
g1431
I0
tp3553
a(I8
I24
F1.0
g1433
I0
tp3554
a(I8
I40
F1.0
g3052
I0
tp3555
a(I12
I2
F1.0
g3054
I0
tp3556
a(I37
I1
F1.0
g3123
I0
tp3557
a(I50
I23
F-0.125
g1439
I0
tp3558
a(I50
I23
F1.0
g1441
I0
tp3559
a(I50
I23
F-0.875
g1443
I0
tp3560
a(I52
I3
F1.0
g3128
I0
tp3561
a(I52
I3
I0
g3130
I0
tp3562
a(I53
I4
I0
g1447
I0
tp3563
a(I53
I4
F-0.875
g1449
I0
tp3564
a(I53
I7
F1.0
g2734
I0
tp3565
a(I53
I7
F1.0
g2736
I0
tp3566
a(I87
I2
F1.0
g2740
I0
tp3567
a(I105
I6
F1.0
g3137
I0
tp3568
a(I159
I0
F1.0
g3139
I0
tp3569
a(I203
I1
F1.0
g3141
I0
tp3570
a(I213
I18
I0
g2510
I0
tp3571
a(I213
I18
F1.0
g2512
I0
tp3572
a(I214
I4
F1.0
g2743
I0
tp3573
a(I234
I5
F1.0
g3146
I0
tp3574
a(I243
I0
F1.0
g3148
I0
tp3575
a(I245
I2
F-1.0
g3150
I0
tp3576
a(I254
I0
F1.0
g3152
I0
tp3577
a(I254
I0
F1.0
g3154
I0
tp3578
a(I257
I1
F1.0
g2745
I0
tp3579
a(I257
I1
F-1.0
g2747
I0
tp3580
a(I258
I4
F1.0
g2750
I0
tp3581
a(I261
I3
F1.0
g2752
I0
tp3582
a(I265
I4
F1.0
g1457
I0
tp3583
a(I283
I2
F1.0
g3161
I0
tp3584
a(I283
I2
F-0.625
g3163
I0
tp3585
a(I306
I3
F1.0
g2756
I0
tp3586
a(I306
I3
F0.5
g2758
I0
tp3587
a(I308
I0
F1.0
g3167
I0
tp3588
a(I320
I2
F1.0
g3169
I0
tp3589
a(I324
I1
F1.0
g3171
I0
tp3590
a(I324
I4
F1.0
g2761
I0
tp3591
a(I352
I0
F1.0
g3174
I0
tp3592
a(I358
I4
F1.0
g2765
I0
tp3593
a(I364
I3
F1.0
g3177
I0
tp3594
a(I368
I3
F0.625
g2768
I0
tp3595
a(I373
I4
F1.0
g2770
I0
tp3596
a(I374
I5
F1.0
g1459
I0
tp3597
a(I374
I5
F-0.125
g1461
I0
tp3598
a(I398
I1
F1.0
g3183
I0
tp3599
a(I413
I1
F1.0
g2778
I0
tp3600
a(I426
I10
F1.0
g1465
I0
tp3601
a(I430
I2
F1.0
g3187
I0
tp3602
a(I431
I10
F0.875
g3189
I0
tp3603
a(I443
I4
F0.75
g2781
I0
tp3604
a(I454
I1
F1.0
g3192
I0
tp3605
a(I478
I12
F1.0
g3194
I0
tp3606
a(I510
I0
F1.0
g3196
I0
tp3607
a(I520
I0
F1.0
g2783
I0
tp3608
a(I522
I6
F1.0
g3199
I0
tp3609
a(I526
I1
F1.0
g2785
I0
tp3610
a(I526
I16
F1.0
g3202
I0
tp3611
a(I563
I1
F1.0
g3084
I0
tp3612
a(I569
I2
F1.0
g3205
I0
tp3613
a(I575
I0
F1.0
g3207
I0
tp3614
a(I579
I9
F1.0
g3209
I0
tp3615
a(I591
I1
F1.0
g2791
I0
tp3616
a(I607
I0
I0
g1479
I0
tp3617
a(I618
I0
F1.0
g3213
I0
tp3618
a(I637
I0
F1.0
g1481
I0
tp3619
a(I639
I4
F0.625
g3087
I0
tp3620
a(I649
I4
F1.0
g3217
I0
tp3621
a(I673
I1
F1.0
g3219
I0
tp3622
a(I675
I3
F1.0
g3221
I0
tp3623
a(I684
I1
F1.0
g2793
I0
tp3624
a(I686
I30
F1.0
g1483
I0
tp3625
a(I693
I6
F1.0
g3225
I0
tp3626
a(I705
I11
F1.0
g2797
I0
tp3627
a(I719
I1
F1.0
g3228
I0
tp3628
a(I719
I1
F1.0
g3230
I0
tp3629
a(I732
I1
F1.0
g3094
I0
tp3630
a(I772
I2
F0.625
g1493
I0
tp3631
a(I780
I0
F1.0
g3234
I0
tp3632
a(I784
I1
F1.0
g3236
I0
tp3633
a(I787
I3
F1.0
g3238
I0
tp3634
a(I787
I3
F1.0
g3240
I0
tp3635
a(I797
I1
I0
g2528
I0
tp3636
a(I863
I10
F1.0
g3243
I0
tp3637
a(I864
I11
F1.0
g3245
I0
tp3638
a(I868
I16
F1.0
g2799
I0
tp3639
a(I870
I2
F1.0
g3248
I0
tp3640
a(I875
I1
F-0.125
g1497
I0
tp3641
a(I875
I1
F1.0
g1499
I0
tp3642
a(I880
I2
F1.0
g3252
I0
tp3643
a(I881
I0
F1.0
g1501
I0
tp3644
a(I881
I0
F-0.125
g1503
I0
tp3645
a(I888
I0
F1.0
g3256
I0
tp3646
a(I895
I8
F1.0
g1505
I0
tp3647
a(I916
I0
F1.0
g2803
I0
tp3648
a(I932
I0
F1.0
g3260
I0
tp3649
a(I960
I1
F1.0
g3262
I0
tp3650
a(I1009
I1
F1.0
g3264
I0
tp3651
a(I1040
I4
F1.0
g3266
I0
tp3652
a(I1093
I1
I0
g2807
I0
tp3653
a(I1105
I0
F1.0
g3269
I0
tp3654
as(S'long'
p3655
S'lasting'
p3656
S'battery'
p3657
tp3658
(lp3659
(I47
I7
I0
S'net'
p3660
I0
tp3661
a(I53
I2
F-0.5
g1970
I0
tp3662
a(I53
I2
F-0.625
g1972
I0
tp3663
a(I405
I0
F-0.5
g276
I0
tp3664
a(I405
I0
F-0.625
g278
I0
tp3665
a(I421
I0
F-0.625
S'lasting'
p3666
I0
tp3667
a(I663
I0
F-0.5
g85
I0
tp3668
a(I663
I0
F-0.625
g87
I0
tp3669
a(I1118
I3
F-0.5
S'long'
p3670
I0
tp3671
a(I1118
I3
F-0.625
S'lasting'
p3672
I0
tp3673
as(S'device'
p3674
tp3675
(lp3676
(I8
I6
F-0.625
S'last'
p3677
I11
tp3678
a(I8
I36
F0.625
S'first'
p3679
I11
tp3680
a(I8
I36
F0.5
S'second'
p3681
I11
tp3682
a(I8
I36
F0.5
S'second'
p3683
I11
tp3684
a(I8
I37
I0
S'third'
p3685
I11
tp3686
a(I8
I37
F0.75
S'perfect'
p3687
I11
tp3688
a(I88
I0
F-0.75
S'defective'
p3689
I11
tp3690
a(I159
I7
F0.5
S'similar'
p3691
I11
tp3692
a(I159
I7
F-0.875
S'cheap'
p3693
I11
tp3694
a(I381
I3
F-0.5
S'heavy'
p3695
I11
tp3696
a(I381
I7
F-0.75
S'unbranded'
p3697
I11
tp3698
a(I381
I7
F0.25
S'branded'
p3699
I11
tp3700
a(I440
I5
F0.875
S'nice'
p3701
I11
tp3702
a(I590
I4
F1.0
S'excellent'
p3703
I11
tp3704
a(I980
I5
F0.875
S'happy'
p3705
I11
tp3706
a(I998
I12
F-0.25
S'i'
p3707
I11
tp3708
a(I1012
I0
I0
S'dis'
p3709
I11
tp3710
a(I1012
I0
F-0.25
S'past'
p3711
I11
tp3712
a(I1022
I0
F0.875
S'awesome'
p3713
I11
tp3714
as(S'delivery'
p3715
S'by'
p3716
S'flipkart'
p3717
tp3718
(lp3719
(I445
I11
F-0.625
S'express'
p3720
I0
tp3721
a(I740
I1
F-0.625
S'fastest'
p3722
I0
tp3723
a(I1039
I3
F0.875
S'awesome'
p3724
I0
tp3725
as(S'max'
p3726
S'from'
p3727
S'flipkart'
p3728
tp3729
(lp3730
(I1081
I5
F0.875
S'happy'
p3731
I0
tp3732
as(S'due'
p3733
S'to'
p3734
S'battery'
p3735
tp3736
(lp3737
(I568
I2
F0.75
S'due'
p3738
I0
tp3739
a(I568
I2
F0.5
S'larger'
p3740
I0
tp3741
a(I851
I2
F0.375
S'much'
p3742
I0
tp3743
a(I851
I2
F0.75
S'due'
p3744
I0
tp3745
a(I885
I8
F0.5
S'large'
p3746
I0
tp3747
a(I885
I8
F-0.75
S'uncomfortable'
p3748
I0
tp3749
a(I937
I7
F0.75
S'due'
p3750
I0
tp3751
as(S'low'
p3752
S'light'
p3753
tp3754
(lp3755
(I7
I19
F-0.875
S'low'
p3756
I2
tp3757
a(I159
I4
F-0.875
S'low'
p3758
I2
tp3759
a(I213
I19
F-0.875
S'low'
p3760
I2
tp3761
a(I238
I4
F-0.875
S'low'
p3762
I2
tp3763
a(I305
I2
F-0.875
S'low'
p3764
I2
tp3765
a(I338
I4
F-0.875
S'low'
p3766
I2
tp3767
a(I501
I5
F-0.875
S'low'
p3768
I2
tp3769
a(I510
I0
F-0.875
S'low'
p3770
I2
tp3771
a(I586
I0
F-0.875
S'low'
p3772
I2
tp3773
a(I586
I0
F1.0
S'good'
p3774
I2
tp3775
a(I686
I12
I0
S'bright'
p3776
I2
tp3777
a(I686
I12
F-0.875
S'low'
p3778
I2
tp3779
a(I7
I19
F-0.875
g3756
I14
tp3780
a(I87
I3
F-0.75
S'sufficient'
p3781
I14
tp3782
a(I159
I4
F-0.875
g3758
I14
tp3783
a(I213
I19
F-0.875
g3760
I14
tp3784
a(I238
I4
F-0.875
g3762
I14
tp3785
a(I305
I2
F-0.875
g3764
I14
tp3786
a(I338
I4
F-0.875
g3766
I14
tp3787
a(I501
I5
F-0.875
g3768
I14
tp3788
a(I510
I0
F-0.875
g3770
I14
tp3789
a(I515
I15
F0.125
S'sun'
p3790
I14
tp3791
a(I586
I0
F-0.875
g3772
I14
tp3792
a(I586
I0
F1.0
g3774
I14
tp3793
a(I686
I12
I0
g3776
I14
tp3794
a(I686
I12
F-0.875
g3778
I14
tp3795
as(S'picture'
p3796
S'quality'
p3797
tp3798
(lp3799
(I240
I2
F-0.875
g3475
I3
tp3800
a(I458
I3
F0.75
g3497
I3
tp3801
a(I522
I5
F1.0
g3307
I3
tp3802
a(I619
I2
F1.0
g3312
I3
tp3803
a(I851
I6
F1.0
g3327
I3
tp3804
a(I869
I2
F-0.625
S'average'
p3805
I3
tp3806
a(I1001
I20
F-1.0
S'bad'
p3807
I3
tp3808
a(I1097
I2
F0.625
S'super'
p3809
I3
tp3810
a(I1097
I2
F0.625
g3111
I3
tp3811
as(S'asus'
p3812
S'zenfone'
p3813
S'max'
p3814
tp3815
(lp3816
(I1
I21
F-0.75
S'short'
p3817
I0
tp3818
a(I44
I26
F0.875
S'great'
p3819
I0
tp3820
a(I260
I0
F1.0
S'good'
p3821
I0
tp3822
a(I292
I0
F0.875
S'happy'
p3823
I0
tp3824
a(I313
I3
F1.0
g198
I0
tp3825
a(I458
I7
F-0.5
S'unbelievable'
p3826
I0
tp3827
a(I524
I6
F-0.125
S'overall'
p3828
I0
tp3829
a(I580
I8
F0.75
S'whole'
p3830
I0
tp3831
a(I580
I9
F1.0
S'better'
p3832
I0
tp3833
a(I672
I6
F0.25
S'able'
p3834
I0
tp3835
a(I776
I0
F0.5
S'old'
p3836
I0
tp3837
a(I885
I12
F0.875
S'admirable'
p3838
I0
tp3839
a(I936
I13
F1.0
S'excellent'
p3840
I0
tp3841
a(I1102
I4
F-0.5
S'original'
p3842
I0
tp3843
a(I44
I26
F0.875
g3819
I0
tp3844
a(I191
I3
F0.5
S'elegant'
p3845
I0
tp3846
a(I197
I3
F0.625
g194
I0
tp3847
a(I197
I3
F-0.375
S'top'
p3848
I0
tp3849
a(I260
I0
F1.0
g3821
I0
tp3850
a(I313
I3
F1.0
g198
I0
tp3851
a(I458
I7
F-0.5
g3826
I0
tp3852
a(I672
I6
F0.25
g3834
I0
tp3853
a(I885
I12
F0.875
g3838
I0
tp3854
a(I936
I13
F1.0
g3840
I0
tp3855
a(I1
I21
F-0.75
g3817
I0
tp3856
a(I292
I0
F0.875
g3823
I0
tp3857
a(I313
I3
F1.0
g198
I0
tp3858
a(I388
I26
F0.625
S'first'
p3859
I0
tp3860
a(I524
I6
F-0.125
g3828
I0
tp3861
a(I580
I8
F0.75
g3830
I0
tp3862
a(I580
I9
F1.0
g3832
I0
tp3863
a(I776
I0
F0.5
g3836
I0
tp3864
a(I998
I21
F-0.25
S'earlier'
p3865
I0
tp3866
a(I998
I21
F0.875
g212
I0
tp3867
a(I1102
I4
F-0.5
g3842
I0
tp3868
a(I1
I21
F-0.75
g3817
I0
tp3869
a(I9
I3
F1.0
S'better'
p3870
I0
tp3871
a(I12
I1
I0
S'1st'
p3872
I0
tp3873
a(I191
I16
F-0.625
S'other'
p3874
I0
tp3875
a(I200
I1
F1.0
S'best'
p3876
I0
tp3877
a(I215
I5
I0
S'many'
p3878
I0
tp3879
a(I236
I13
F-0.625
S'last'
p3880
I0
tp3881
a(I292
I0
F0.875
g3823
I0
tp3882
a(I302
I0
F0.5
S'second'
p3883
I0
tp3884
a(I380
I3
F1.0
S'good'
p3885
I0
tp3886
a(I388
I26
F0.625
g3859
I0
tp3887
a(I407
I8
F0.375
S'satisfied'
p3888
I0
tp3889
a(I467
I5
I0
S'1st'
p3890
I0
tp3891
a(I524
I6
F-0.125
g3828
I0
tp3892
a(I580
I7
F1.0
S'good'
p3893
I0
tp3894
a(I580
I8
F0.75
g3830
I0
tp3895
a(I580
I9
F1.0
g3832
I0
tp3896
a(I593
I6
F1.0
S'good'
p3897
I0
tp3898
a(I650
I2
F1.0
S'better'
p3899
I0
tp3900
a(I706
I4
I0
S'many'
p3901
I0
tp3902
a(I776
I0
F0.5
g3836
I0
tp3903
a(I854
I1
F-0.625
S'other'
p3904
I0
tp3905
a(I936
I7
F1.0
S'best'
p3906
I0
tp3907
a(I998
I21
F-0.25
g3865
I0
tp3908
a(I998
I24
F-0.375
S'anti'
p3909
I0
tp3910
a(I1088
I0
F1.0
S'good'
p3911
I0
tp3912
a(I1102
I4
F-0.5
g3842
I0
tp3913
a(I1116
I1
I0
S'central'
p3914
I0
tp3915
as.