(dp0
(S'front'
p1
S'camera'
p2
tp3
(lp4
(I7
I9
F1.0
S'good'
p5
I6
tp6
a(I7
I9
F-0.125
S'back'
p7
I6
tp8
a(I7
I9
F-1.0
S'bad'
p9
I6
tp10
a(I10
I0
F-0.125
S'front'
p11
I6
tp12
a(I10
I0
F0.875
S'superb'
p13
I6
tp14
a(I10
I2
F-0.625
S'average'
p15
I6
tp16
a(I63
I2
F1.0
S'good'
p17
I6
tp18
a(I65
I6
F-0.625
S'average'
p19
I6
tp20
a(I74
I0
F-0.125
S'back'
p21
I6
tp22
a(I74
I0
F-1.0
S'bad'
p23
I6
tp24
a(I74
I0
F0.375
S'ok'
p25
I6
tp26
as(S'proper'
p27
S'response'
p28
tp29
(lp30
(I0
I1
F0.75
S'proper'
p31
I0
tp32
a(I18
I1
F0.75
S'proper'
p33
I0
tp34
a(I64
I1
F0.75
S'proper'
p35
I0
tp36
as(S'many'
p37
S'times'
p38
tp39
(lp40
(I68
I11
I0
S'many'
p41
I2
tp42
a(I73
I0
I0
S'many'
p43
I2
tp44
a(I95
I3
I0
S'many'
p45
I2
tp46
a(I96
I1
I0
S'many'
p47
I2
tp48
as(S'bad'
p49
S'touch'
p50
tp51
(lp52
(I7
I1
F0.5
S'responsive'
p53
I0
tp54
a(I7
I1
F-1.0
S'bad'
p55
I0
tp56
a(I46
I0
F-1.0
S'bad'
p57
I0
tp58
a(I68
I10
F-0.625
S'sensitive'
p59
I0
tp60
a(I68
I27
F-1.0
S'bad'
p61
I0
tp62
a(I72
I1
F-1.0
S'bad'
p63
I0
tp64
a(I94
I2
F-1.0
S'bad'
p65
I0
tp66
as(S'slow'
p67
S'charging'
p68
tp69
(lp70
(I7
I5
F-0.5
S'slow'
p71
I1
tp72
a(I35
I0
F-0.5
S'slow'
p73
I1
tp74
a(I39
I1
F-0.5
S'slow'
p75
I1
tp76
a(I64
I3
F-0.5
S'slow'
p77
I1
tp78
as(S'back'
p79
S'camera'
p80
tp81
(lp82
(I7
I9
F1.0
g5
I0
tp83
a(I7
I9
F-0.125
g7
I0
tp84
a(I7
I9
F-1.0
g9
I0
tp85
a(I10
I2
F-0.625
g15
I0
tp86
a(I65
I6
F-0.625
g19
I0
tp87
a(I66
I1
F-1.0
S'bad'
p88
I0
tp89
a(I74
I0
F-0.125
g21
I0
tp90
a(I74
I0
F-1.0
g23
I0
tp91
as(S'don'
p92
S't'
p93
tp94
(lp95
(I18
I3
F0.125
S'please'
p96
I0
tp97
as(S'camera'
p98
S'quality'
p99
tp100
(lp101
(I10
I0
F1.0
S'good'
p102
I14
tp103
a(I10
I0
F-0.125
g11
I14
tp104
a(I10
I0
F0.875
g13
I14
tp105
a(I36
I1
F0.875
S'nice'
p106
I14
tp107
a(I39
I2
F1.0
S'good'
p108
I14
tp109
a(I46
I1
F-0.875
S'poor'
p110
I14
tp111
a(I61
I0
F1.0
S'good'
p112
I14
tp113
as(S'touch'
p114
S'screen'
p115
tp116
(lp117
(I7
I1
F0.5
g53
I2
tp118
a(I7
I1
F-1.0
g55
I2
tp119
a(I13
I1
F0.5
S'touch'
p120
I2
tp121
a(I70
I2
F0.5
S'touch'
p122
I2
tp123
a(I94
I2
F-1.0
g65
I2
tp124
as(S'touch'
p125
S'pad'
p126
tp127
(lp128
(I7
I6
F0.5
S'touch'
p129
I0
tp130
a(I7
I6
F-1.0
S'bad'
p131
I0
tp132
a(I7
I7
F0.5
S'touch'
p133
I0
tp134
a(I7
I7
F1.0
S'good'
p135
I0
tp136
a(I54
I0
F0.5
S'touch'
p137
I0
tp138
a(I54
I0
F-0.875
S'hard'
p139
I0
tp140
a(I88
I0
I0
S'insensible'
p141
I0
tp142
as.