(dp0
(S'at'
p1
S'price'
p2
S'range'
p3
tp4
(lp5
(I0
I1088
I0
S'more'
p6
I0
tp7
a(I0
I1893
F1.0
S'good'
p8
I0
tp9
a(I0
I2281
I0
S'clear'
p10
I0
tp11
a(I0
I2556
F0.875
S'great'
p12
I0
tp13
a(I0
I2796
F0.875
S'awesome'
p14
I0
tp15
a(I0
I3712
F0.375
S'satisfied'
p16
I0
tp17
a(I0
I3751
F1.0
S'good'
p18
I0
tp19
a(I0
I3829
F-0.125
S'such'
p20
I0
tp21
a(I0
I3829
F-0.875
S'low'
p22
I0
tp23
a(I0
I4160
F1.0
S'best'
p24
I0
tp25
a(I0
I4519
I0
S'min'
p26
I0
tp27
a(I0
I4853
F0.125
S'mobile'
p28
I0
tp29
as(S'for'
p30
S'coolpad'
p31
S'note'
p32
tp33
(lp34
(I0
I1472
F-1.0
S'bad'
p35
I0
tp36
a(I0
I3780
I0
S'b'
p37
I0
tp38
a(I0
I4247
F1.0
S'good'
p39
I0
tp40
a(I0
I4266
I0
S'cool'
p41
I0
tp42
a(I0
I4266
F0.125
S'pad'
p43
I0
tp44
a(I0
I4343
I0
S'lite'
p45
I0
tp46
a(I0
I4343
F-0.75
S'black'
p47
I0
tp48
a(I0
I480
F0.125
S'mobile'
p49
I0
tp50
a(I0
I480
I0
S'lite'
p51
I0
tp52
a(I0
I480
F1.0
S'good'
p53
I0
tp54
a(I0
I512
I0
S'lite'
p55
I0
tp56
a(I0
I512
F-0.75
S'black'
p57
I0
tp58
a(I0
I1228
I-100
S'woww'
p59
I0
tp60
a(I0
I1472
F-1.0
g35
I0
tp61
a(I0
I1624
F-0.625
S'new'
p62
I0
tp63
a(I0
I2814
F-0.25
S'i'
p64
I0
tp65
a(I0
I2822
I-100
S'muje'
p66
I0
tp67
a(I0
I2822
I0
S'lite'
p68
I0
tp69
a(I0
I3090
F1.0
S'better'
p70
I0
tp71
a(I0
I3279
F0.375
S'satisfied'
p72
I0
tp73
a(I0
I3435
F-0.75
S'black'
p74
I0
tp75
a(I0
I3435
I0
S'lite'
p76
I0
tp77
a(I0
I3547
I0
S'hot'
p78
I0
tp79
a(I0
I3754
F1.0
S'good'
p80
I0
tp81
a(I0
I3754
F0.125
S'mobile'
p82
I0
tp83
a(I0
I3780
I0
g37
I0
tp84
a(I0
I4247
F1.0
g39
I0
tp85
a(I0
I4266
I0
g41
I0
tp86
a(I0
I4266
F0.125
g43
I0
tp87
a(I0
I4300
I0
S'lite'
p88
I0
tp89
a(I0
I4343
I0
g45
I0
tp90
a(I0
I4343
F-0.75
g47
I0
tp91
a(I0
I4756
F-0.75
S'black'
p92
I0
tp93
a(I0
I480
F0.125
g49
I0
tp94
a(I0
I549
F0.875
S'great'
p95
I0
tp96
a(I0
I1472
F-1.0
g35
I0
tp97
a(I0
I1624
F-0.625
g62
I0
tp98
a(I0
I3279
F0.375
g72
I0
tp99
a(I0
I3302
F-0.625
S'last'
p100
I0
tp101
a(I0
I3368
I0
S'website'
p102
I0
tp103
a(I0
I3368
I-100
S'showa'
p104
I0
tp105
a(I0
I3547
I0
g78
I0
tp106
a(I0
I3592
I-100
S'soonmy'
p107
I0
tp108
a(I0
I3754
F1.0
g80
I0
tp109
a(I0
I3754
F0.125
g82
I0
tp110
a(I0
I3780
I0
g37
I0
tp111
a(I0
I4141
F-0.125
S'overall'
p112
I0
tp113
a(I0
I4343
I0
g45
I0
tp114
a(I0
I4343
F-0.75
g47
I0
tp115
a(I0
I4410
F0.125
S'mobile'
p116
I0
tp117
a(I0
I4830
I0
S'specs'
p118
I0
tp119
a(I0
I4875
I0
S'lite'
p120
I0
tp121
as(S'worth'
p122
S'for'
p123
S'money'
p124
tp125
(lp126
(I0
I3379
F0.25
S'worth'
p127
I0
tp128
a(I0
I3709
F0.25
S'worth'
p129
I0
tp130
a(I0
I3758
F0.25
S'worth'
p131
I0
tp132
a(I0
I4653
F0.25
S'worth'
p133
I0
tp134
a(I0
I2509
I-100
S'moneymy'
p135
I8
tp136
a(I0
I3581
I0
S'more'
p137
I8
tp138
a(I0
I3787
F-0.625
S'real'
p139
I8
tp140
a(I0
I4752
I-100
S'awesomenice'
p141
I8
tp142
as(S'high'
p143
S'end'
p144
S'games'
p145
tp146
(lp147
(I0
I335
F0.5
S'high'
p148
I0
tp149
a(I0
I594
F0.5
S'high'
p150
I0
tp151
a(I0
I683
F0.5
S'high'
p152
I0
tp153
a(I0
I1608
F0.5
S'high'
p154
I0
tp155
a(I0
I1873
F0.5
S'high'
p156
I0
tp157
a(I0
I3139
F0.5
S'high'
p158
I0
tp159
a(I0
I3804
F0.5
S'high'
p160
I0
tp161
a(I0
I3867
F-0.375
S'top'
p162
I0
tp163
a(I0
I3874
F0.5
S'high'
p164
I0
tp165
a(I0
I3874
I0
S'many'
p166
I0
tp167
a(I0
I4714
F0.5
S'high'
p168
I0
tp169
a(I0
I335
F0.5
g148
I0
tp170
a(I0
I594
F0.5
g150
I0
tp171
a(I0
I683
F0.5
g152
I0
tp172
a(I0
I1608
F0.5
g154
I0
tp173
a(I0
I1873
F0.5
g156
I0
tp174
a(I0
I1892
F0.5
S'high'
p175
I0
tp176
a(I0
I2781
F0.5
S'high'
p177
I0
tp178
a(I0
I3041
F0.5
S'high'
p179
I0
tp180
a(I0
I3139
F0.5
g158
I0
tp181
a(I0
I3158
F0.5
S'higher'
p182
I0
tp183
a(I0
I3626
F0.5
S'high'
p184
I0
tp185
a(I0
I3804
F0.5
g160
I0
tp186
a(I0
I3867
F-0.375
g162
I0
tp187
a(I0
I3874
F0.5
g164
I0
tp188
a(I0
I4714
F0.5
g168
I0
tp189
a(I0
I238
F-0.5
S'heavy'
p190
I5
tp191
a(I0
I432
F-0.5
S'sluggish'
p192
I5
tp193
a(I0
I432
F-0.625
S'other'
p194
I5
tp195
a(I0
I457
F1.0
S'good'
p196
I5
tp197
a(I0
I457
F-0.5
S'heavy'
p198
I5
tp199
a(I0
I732
F-0.5
S'heavy'
p200
I5
tp201
a(I0
I805
F1.0
S'good'
p202
I5
tp203
a(I0
I979
F0.5
S'intensive'
p204
I5
tp205
a(I0
I979
F0.375
S'usage'
p206
I5
tp207
a(I0
I979
F1.0
S'good'
p208
I5
tp209
a(I0
I1032
F0.5
S'high'
p210
I5
tp211
a(I0
I1032
F0.625
S'graphic'
p212
I5
tp213
a(I0
I1449
F-0.5
S'heavy'
p214
I5
tp215
a(I0
I1800
F-0.5
S'heavy'
p216
I5
tp217
a(I0
I1833
I0
S'multiple'
p218
I5
tp219
a(I0
I1833
F0.5
S'high'
p220
I5
tp221
a(I0
I1833
F0.625
S'graphic'
p222
I5
tp223
a(I0
I2255
F-0.5
S'heavy'
p224
I5
tp225
a(I0
I2323
F-0.875
S'small'
p226
I5
tp227
a(I0
I2802
I0
S'few'
p228
I5
tp229
a(I0
I2877
F-0.5
S'heavy'
p230
I5
tp231
a(I0
I2924
I0
S'min'
p232
I5
tp233
a(I0
I3014
I0
S'bigger'
p234
I5
tp235
a(I0
I3212
I0
S'few'
p236
I5
tp237
a(I0
I3212
I0
S'more'
p238
I5
tp239
a(I0
I3264
I0
S'big'
p240
I5
tp241
a(I0
I3284
I-100
S'compatable'
p242
I5
tp243
a(I0
I3334
I0
S'net'
p244
I5
tp245
a(I0
I3388
F-0.5
S'heavy'
p246
I5
tp247
a(I0
I3677
I-100
S'multitaskingbe'
p248
I5
tp249
a(I0
I3874
I0
g166
I5
tp250
a(I0
I4181
I0
S'pro'
p251
I5
tp252
a(I0
I4310
I0
S'big'
p253
I5
tp254
a(I0
I4785
F-0.5
S'heavy'
p255
I5
tp256
as(S'good'
p257
S'front'
p258
S'camera'
p259
tp260
(lp261
(I0
I410
F1.0
S'good'
p262
I0
tp263
a(I0
I422
F-0.125
S'front'
p264
I0
tp265
a(I0
I549
F-0.125
S'front'
p266
I0
tp267
a(I0
I751
F1.0
S'good'
p268
I0
tp269
a(I0
I971
F0.625
S'superior'
p270
I0
tp271
a(I0
I1325
F1.0
S'better'
p272
I0
tp273
a(I0
I1480
F0.875
S'nice'
p274
I0
tp275
a(I0
I1508
F1.0
S'good'
p276
I0
tp277
a(I0
I1757
F0.375
S'ok'
p278
I0
tp279
a(I0
I1941
F1.0
S'good'
p280
I0
tp281
a(I0
I1941
I0
S'rear'
p282
I0
tp283
a(I0
I2366
F1.0
S'good'
p284
I0
tp285
a(I0
I2366
F-0.125
S'back'
p286
I0
tp287
a(I0
I2404
I0
S'pro'
p288
I0
tp289
a(I0
I2521
F-0.125
S'front'
p290
I0
tp291
a(I0
I2521
F1.0
S'good'
p292
I0
tp293
a(I0
I2775
I0
S'most'
p294
I0
tp295
a(I0
I2775
F-0.625
S'average'
p296
I0
tp297
a(I0
I2775
F-0.625
S'real'
p298
I0
tp299
a(I0
I2775
F1.0
S'good'
p300
I0
tp301
a(I0
I2775
F-0.125
S'front'
p302
I0
tp303
a(I0
I2775
F-0.625
S'average'
p304
I0
tp305
a(I0
I3064
F1.0
S'good'
p306
I0
tp307
a(I0
I3064
F-0.125
S'front'
p308
I0
tp309
a(I0
I3184
F1.0
S'good'
p310
I0
tp311
a(I0
I3603
F1.0
S'good'
p312
I0
tp313
a(I0
I3607
F-0.25
S'i'
p314
I0
tp315
a(I0
I3662
F1.0
S'good'
p316
I0
tp317
a(I0
I3829
F-0.125
S'front'
p318
I0
tp319
a(I0
I3829
F1.0
S'good'
p320
I0
tp321
a(I0
I3829
I0
S'rear'
p322
I0
tp323
a(I0
I3829
F-0.125
S'front'
p324
I0
tp325
a(I0
I3873
F-0.125
S'front'
p326
I0
tp327
a(I0
I3873
F0.875
S'nice'
p328
I0
tp329
a(I0
I4095
I0
S'main'
p330
I0
tp331
a(I0
I4251
F-0.125
S'front'
p332
I0
tp333
a(I0
I4403
F0.75
S'outstanding'
p334
I0
tp335
a(I0
I4542
I0
S'rear'
p336
I0
tp337
a(I0
I4542
F-0.125
S'front'
p338
I0
tp339
a(I0
I4548
F-0.5
S'ordinary'
p340
I0
tp341
a(I0
I4548
F1.0
S'good'
p342
I0
tp343
a(I0
I131
F-0.125
S'front'
p344
I6
tp345
a(I0
I131
F0.625
S'okay'
p346
I6
tp347
a(I0
I410
F1.0
g262
I6
tp348
a(I0
I422
F-0.125
g264
I6
tp349
a(I0
I549
F-0.125
g266
I6
tp350
a(I0
I599
F1.0
S'best'
p351
I6
tp352
a(I0
I637
F-0.125
S'front'
p353
I6
tp354
a(I0
I751
F1.0
g268
I6
tp355
a(I0
I936
I0
S'rear'
p356
I6
tp357
a(I0
I971
F0.625
g270
I6
tp358
a(I0
I992
F-0.125
S'front'
p359
I6
tp360
a(I0
I1228
I0
S'rear'
p361
I6
tp362
a(I0
I1228
F-0.25
S'i'
p363
I6
tp364
a(I0
I1325
F1.0
g272
I6
tp365
a(I0
I1480
F0.875
g274
I6
tp366
a(I0
I1508
F1.0
g276
I6
tp367
a(I0
I1526
I0
S'rear'
p368
I6
tp369
a(I0
I1579
F0.625
S'acceptable'
p370
I6
tp371
a(I0
I1757
F0.375
g278
I6
tp372
a(I0
I1903
F-0.125
S'front'
p373
I6
tp374
a(I0
I1941
F1.0
g280
I6
tp375
a(I0
I1941
I0
g282
I6
tp376
a(I0
I2205
F-1.0
S'worst'
p377
I6
tp378
a(I0
I2205
F-1.0
S'worst'
p379
I6
tp380
a(I0
I2205
F-1.0
S'worst'
p381
I6
tp382
a(I0
I2205
I0
S'rear'
p383
I6
tp384
a(I0
I2366
F1.0
g284
I6
tp385
a(I0
I2366
F-0.125
g286
I6
tp386
a(I0
I2404
I0
g288
I6
tp387
a(I0
I2517
F-1.0
S'bad'
p388
I6
tp389
a(I0
I2521
F-0.125
g290
I6
tp390
a(I0
I2521
F1.0
g292
I6
tp391
a(I0
I2693
F-0.125
S'front'
p392
I6
tp393
a(I0
I2775
I0
g294
I6
tp394
a(I0
I2775
F-0.625
g296
I6
tp395
a(I0
I2775
F-0.625
g298
I6
tp396
a(I0
I2775
F1.0
g300
I6
tp397
a(I0
I2775
F-0.125
g302
I6
tp398
a(I0
I2775
F-0.625
g304
I6
tp399
a(I0
I2976
I0
S'rear'
p400
I6
tp401
a(I0
I3064
F1.0
g306
I6
tp402
a(I0
I3064
F-0.125
g308
I6
tp403
a(I0
I3096
F0.5
S'like'
p404
I6
tp405
a(I0
I3184
F1.0
g310
I6
tp406
a(I0
I3247
F-0.875
S'pathetic'
p407
I6
tp408
a(I0
I3603
F1.0
g312
I6
tp409
a(I0
I3607
F-0.25
g314
I6
tp410
a(I0
I3662
F1.0
g316
I6
tp411
a(I0
I3782
F1.0
S'best'
p412
I6
tp413
a(I0
I3782
F-1.0
S'bad'
p414
I6
tp415
a(I0
I3829
F-0.125
g318
I6
tp416
a(I0
I3829
F1.0
g320
I6
tp417
a(I0
I3829
I0
g322
I6
tp418
a(I0
I3829
F-0.125
g324
I6
tp419
a(I0
I3830
F-0.625
S'average'
p420
I6
tp421
a(I0
I3873
F-0.125
g326
I6
tp422
a(I0
I3873
F0.875
g328
I6
tp423
a(I0
I3889
F-0.125
S'front'
p424
I6
tp425
a(I0
I3889
F0.625
S'okay'
p426
I6
tp427
a(I0
I4095
I0
g330
I6
tp428
a(I0
I4179
F-0.875
S'poor'
p429
I6
tp430
a(I0
I4251
F-0.125
g332
I6
tp431
a(I0
I4325
F-0.125
S'front'
p432
I6
tp433
a(I0
I4403
F0.75
g334
I6
tp434
a(I0
I4542
I0
g336
I6
tp435
a(I0
I4542
F-0.125
g338
I6
tp436
a(I0
I4548
F-0.5
g340
I6
tp437
a(I0
I4548
F1.0
g342
I6
tp438
a(I0
I4822
F-1.0
S'bad'
p439
I6
tp440
a(I0
I4844
F-0.125
S'front'
p441
I6
tp442
a(I0
I599
F1.0
g351
I14
tp443
a(I0
I664
I0
S'rear'
p444
I14
tp445
a(I0
I936
I0
g356
I14
tp446
a(I0
I1480
F0.875
g274
I14
tp447
a(I0
I1508
F1.0
g276
I14
tp448
a(I0
I1757
F0.375
g278
I14
tp449
a(I0
I3029
I-100
S'problemawesome'
p450
I14
tp451
a(I0
I3247
F-0.875
g407
I14
tp452
a(I0
I4548
F-0.5
g340
I14
tp453
a(I0
I4822
F-1.0
g439
I14
tp454
as(S'flip'
p455
S'cover'
p456
tp457
(lp458
(I0
I3047
F0.25
S'able'
p459
I0
tp460
a(I0
I3047
F-0.375
S'same'
p461
I0
tp462
as(S'playing'
p463
S'games'
p464
tp465
(lp466
(I0
I457
F1.0
g196
I1
tp467
a(I0
I457
F-0.5
g198
I1
tp468
a(I0
I1032
F0.5
g210
I1
tp469
a(I0
I1032
F0.625
g212
I1
tp470
a(I0
I2255
F-0.5
g224
I1
tp471
a(I0
I2539
I0
S'ur'
p472
I1
tp473
a(I0
I2802
I0
g228
I1
tp474
a(I0
I2877
F-0.5
g230
I1
tp475
a(I0
I3334
I0
g244
I1
tp476
a(I0
I3388
F-0.5
g246
I1
tp477
a(I0
I4310
I0
g253
I1
tp478
a(I0
I4785
F-0.5
g255
I1
tp479
a(I0
I2539
I0
g472
I5
tp480
as(S'paisa'
p481
S'vasool'
p482
tp483
(lp484
(I0
I600
I0
S'n'
p485
I0
tp486
a(I0
I600
F0.375
S'full'
p487
I0
tp488
as(S'fingerprint'
p489
S'sensor'
p490
S'works'
p491
tp492
(lp493
(I0
I726
F1.0
S'good'
p494
I0
tp495
a(I0
I74
F1.0
S'good'
p496
I0
tp497
a(I0
I726
F1.0
g494
I0
tp498
a(I0
I971
F1.0
S'good'
p499
I0
tp500
a(I0
I1008
F0.5
S'accurate'
p501
I0
tp502
a(I0
I1008
F1.0
S'good'
p503
I0
tp504
a(I0
I1893
F0.125
S'mobile'
p505
I0
tp506
a(I0
I1901
F1.0
S'good'
p507
I0
tp508
a(I0
I1912
F0.625
S'fine'
p509
I0
tp510
a(I0
I1930
F0.5
S'responsive'
p511
I0
tp512
a(I0
I2171
F0.375
S'much'
p513
I0
tp514
a(I0
I2315
F-1.0
S'bad'
p515
I0
tp516
a(I0
I2315
F0.875
S'awesome'
p517
I0
tp518
a(I0
I2393
F0.875
S'awesome'
p519
I0
tp520
a(I0
I2438
F-0.625
S'fingerprint'
p521
I0
tp522
a(I0
I2475
F0.875
S'great'
p523
I0
tp524
a(I0
I2496
F-0.625
S'last'
p525
I0
tp526
a(I0
I2496
I0
S'least'
p527
I0
tp528
a(I0
I2496
F-0.625
S'fastest'
p529
I0
tp530
a(I0
I2617
F-0.625
S'fast'
p531
I0
tp532
a(I0
I2919
F0.625
S'smooth'
p533
I0
tp534
a(I0
I3060
F-0.125
S'overall'
p535
I0
tp536
a(I0
I3802
F1.0
S'better'
p537
I0
tp538
a(I0
I3814
F-0.5
S'snappy'
p539
I0
tp540
a(I0
I475
F1.0
S'good'
p541
I3
tp542
a(I0
I475
F1.0
S'good'
p543
I3
tp544
a(I0
I1244
F1.0
S'good'
p545
I3
tp546
a(I0
I1252
F1.0
S'good'
p547
I3
tp548
a(I0
I1873
F0.5
S'touch'
p549
I3
tp550
a(I0
I2771
F0.875
S'nice'
p551
I3
tp552
a(I0
I332
F0.625
S'fine'
p553
I7
tp554
a(I0
I340
F0.375
S'interesting'
p555
I7
tp556
a(I0
I340
F0.75
S'easy'
p557
I7
tp558
a(I0
I585
F0.875
S'awesome'
p559
I7
tp560
a(I0
I726
F1.0
g494
I7
tp561
a(I0
I971
F1.0
g499
I7
tp562
a(I0
I1008
F1.0
g503
I7
tp563
a(I0
I1466
F1.0
S'excellent'
p564
I7
tp565
a(I0
I1467
F1.0
S'good'
p566
I7
tp567
a(I0
I1893
F0.125
g505
I7
tp568
a(I0
I1901
F1.0
g507
I7
tp569
a(I0
I1912
F0.625
g509
I7
tp570
a(I0
I1930
F0.5
g511
I7
tp571
a(I0
I1934
F1.0
S'good'
p572
I7
tp573
a(I0
I2038
F0.75
S'easy'
p574
I7
tp575
a(I0
I2154
F0.5
S'accurate'
p576
I7
tp577
a(I0
I2239
F0.5
S'responsive'
p578
I7
tp579
a(I0
I2315
F0.875
g517
I7
tp580
a(I0
I2393
F0.875
g519
I7
tp581
a(I0
I2438
F-0.625
g521
I7
tp582
a(I0
I2475
F0.875
g523
I7
tp583
a(I0
I2544
F0.875
S'awesome'
p584
I7
tp585
a(I0
I2617
F-0.625
g531
I7
tp586
a(I0
I2695
F0.875
S'awesome'
p587
I7
tp588
a(I0
I2720
F0.625
S'magnetic'
p589
I7
tp590
a(I0
I2834
F0.625
S'magnetic'
p591
I7
tp592
a(I0
I2958
I0
S'n'
p593
I7
tp594
a(I0
I3060
F-0.125
g535
I7
tp595
a(I0
I3368
F0.625
S'magnetic'
p596
I7
tp597
a(I0
I3368
F0.625
S'magnetic'
p598
I7
tp599
a(I0
I3368
F0.125
S'mobile'
p600
I7
tp601
a(I0
I3802
F1.0
g537
I7
tp602
a(I0
I4112
F0.625
S'super'
p603
I7
tp604
a(I0
I4531
I0
S'quick'
p605
I7
tp606
a(I0
I4549
F1.0
S'good'
p607
I7
tp608
a(I0
I4549
I0
S'useful'
p609
I7
tp610
a(I0
I20
F0.5
S'accurate'
p611
I0
tp612
a(I0
I74
F1.0
g496
I0
tp613
a(I0
I172
F0.5
S'accurate'
p614
I0
tp615
a(I0
I422
I-100
S'excellent2'
p616
I0
tp617
a(I0
I428
F0.875
S'nice'
p618
I0
tp619
a(I0
I1008
F0.5
g501
I0
tp620
a(I0
I1210
F0.625
S'reliable'
p621
I0
tp622
a(I0
I1210
F-0.625
S'fast'
p623
I0
tp624
a(I0
I1551
I-100
S'okexcellent'
p625
I0
tp626
a(I0
I1803
F-0.375
S'instant'
p627
I0
tp628
a(I0
I1803
F0.5
S'responsive'
p629
I0
tp630
a(I0
I1833
F1.0
S'good'
p631
I0
tp632
a(I0
I2171
F0.375
g513
I0
tp633
a(I0
I2306
F0.875
S'awesome'
p634
I0
tp635
a(I0
I2315
F-1.0
g515
I0
tp636
a(I0
I2496
F-0.625
g525
I0
tp637
a(I0
I2496
I0
g527
I0
tp638
a(I0
I2496
F-0.625
g529
I0
tp639
a(I0
I2636
F0.875
S'awesome'
p640
I0
tp641
a(I0
I2636
F0.875
S'great'
p642
I0
tp643
a(I0
I2840
F0.375
S'much'
p644
I0
tp645
a(I0
I2919
F0.625
g533
I0
tp646
a(I0
I3365
F0.875
S'great'
p647
I0
tp648
a(I0
I3731
F0.5
S'responsive'
p649
I0
tp650
a(I0
I3814
F-0.5
g539
I0
tp651
a(I0
I4004
I-100
S'twomarvelous'
p652
I0
tp653
a(I0
I4543
F-0.625
S'fast'
p654
I0
tp655
a(I0
I4543
F0.5
S'accurate'
p656
I0
tp657
as(S'average'
p658
tp659
(lp660
(I0
I1865
I0
S'below'
p661
I12
tp662
a(I0
I2865
F-0.125
S'overall'
p663
I12
tp664
a(I0
I2928
I-100
S'superbelow'
p665
I12
tp666
a(I0
I4412
F1.0
S'good'
p667
I12
tp668
as(S'with'
p669
S'3'
p670
S'gb'
p671
tp672
(lp673
(I0
I233
F-0.25
S'ram'
p674
I0
tp675
a(I0
I233
I0
S'gb'
p676
I0
tp677
a(I0
I233
F0.5
S'internal'
p678
I0
tp679
a(I0
I233
F0.5
S'expandable'
p680
I0
tp681
a(I0
I4403
F0.5
S'internal'
p682
I0
tp683
a(I0
I233
F-0.25
g674
I0
tp684
a(I0
I233
I0
g676
I0
tp685
a(I0
I233
F0.5
g678
I0
tp686
a(I0
I233
F0.5
g680
I0
tp687
a(I0
I840
F0.25
S'usable'
p688
I0
tp689
a(I0
I2819
I0
S'inbuilt'
p690
I0
tp691
a(I0
I3260
F0.875
S'superb'
p692
I0
tp693
a(I0
I3374
F-0.625
S'average'
p694
I0
tp695
a(I0
I3873
F1.0
S'good'
p696
I0
tp697
a(I0
I4403
F0.5
g682
I0
tp698
as(S'experience'
p699
tp700
(lp701
(I0
I138
F1.0
S'excellent'
p702
I12
tp703
a(I0
I806
I0
S'user'
p704
I12
tp705
a(I0
I1122
F0.875
S'happy'
p706
I12
tp707
a(I0
I1122
F-0.75
S'short'
p708
I12
tp709
a(I0
I1445
F1.0
S'good'
p710
I12
tp711
a(I0
I1474
F1.0
S'good'
p712
I12
tp713
a(I0
I1529
I-100
S'achha'
p714
I12
tp715
a(I0
I1529
F-0.375
S'visual'
p716
I12
tp717
a(I0
I1569
F-0.375
S'angle'
p718
I12
tp719
a(I0
I1588
F0.375
S'satisfied'
p720
I12
tp721
a(I0
I1589
F1.0
S'best'
p722
I12
tp723
a(I0
I1696
F-1.0
S'bad'
p724
I12
tp725
a(I0
I1759
F-1.0
S'bad'
p726
I12
tp727
a(I0
I2246
F-0.625
S'new'
p728
I12
tp729
a(I0
I2254
F-1.0
S'bad'
p730
I12
tp731
a(I0
I2264
F0.875
S'awesome'
p732
I12
tp733
a(I0
I2309
F-1.0
S'worst'
p734
I12
tp735
a(I0
I2465
F-1.0
S'bad'
p736
I12
tp737
a(I0
I2562
F0.75
S'due'
p738
I12
tp739
a(I0
I2644
F1.0
S'good'
p740
I12
tp741
a(I0
I2862
I0
S'awful'
p742
I12
tp743
a(I0
I2879
F-1.0
S'bad'
p744
I12
tp745
a(I0
I3291
F-1.0
S'worst'
p746
I12
tp747
a(I0
I3436
F1.0
S'good'
p748
I12
tp749
a(I0
I3454
F0.875
S'amazing'
p750
I12
tp751
a(I0
I4281
F0.875
S'awesome'
p752
I12
tp753
a(I0
I4460
F0.5
S'personal'
p754
I12
tp755
a(I0
I4460
F0.875
S'nice'
p756
I12
tp757
a(I0
I4683
I0
S'user'
p758
I12
tp759
a(I0
I4686
I0
S'user'
p760
I12
tp761
as(S'excellent'
p762
tp763
(lp764
(I0
I358
F0.5
S'seemed'
p765
I4
tp766
a(I0
I3176
F0.375
S'feels'
p767
I4
tp768
a(I0
I3466
F1.0
S'good'
p769
I4
tp770
as(S'and'
p771
S'camera'
p772
S'quality'
p773
tp774
(lp775
(I0
I333
F-0.625
S'average'
p776
I0
tp777
a(I0
I452
F-0.625
S'average'
p778
I0
tp779
a(I0
I452
F-0.5
S'longer'
p780
I0
tp781
a(I0
I558
F-0.75
S'little'
p782
I0
tp783
a(I0
I558
F-0.5
S'disappointed'
p784
I0
tp785
a(I0
I577
F1.0
S'best'
p786
I0
tp787
a(I0
I578
F1.0
S'good'
p788
I0
tp789
a(I0
I578
F1.0
S'good'
p790
I0
tp791
a(I0
I578
F0.25
S'voice'
p792
I0
tp793
a(I0
I578
F1.0
S'good'
p794
I0
tp795
a(I0
I655
F-0.875
S'poor'
p796
I0
tp797
a(I0
I655
F-0.125
S'front'
p798
I0
tp799
a(I0
I1008
F1.0
S'good'
p800
I0
tp801
a(I0
I1270
F1.0
S'good'
p802
I0
tp803
a(I0
I1270
F0.5
S'high'
p804
I0
tp805
a(I0
I1321
F0.875
S'decent'
p806
I0
tp807
a(I0
I1457
F-0.875
S'poor'
p808
I0
tp809
a(I0
I1457
F-1.0
S'bad'
p810
I0
tp811
a(I0
I1594
F1.0
S'excellent'
p812
I0
tp813
a(I0
I1711
F1.0
S'good'
p814
I0
tp815
a(I0
I1711
F-1.0
S'bad'
p816
I0
tp817
a(I0
I1798
F1.0
S'good'
p818
I0
tp819
a(I0
I2085
F0.5
S'satisfy'
p820
I0
tp821
a(I0
I2085
I0
S'audio'
p822
I0
tp823
a(I0
I2163
F-1.0
S'bad'
p824
I0
tp825
a(I0
I2276
F-0.125
S'front'
p826
I0
tp827
a(I0
I2317
F0.75
S'sound'
p828
I0
tp829
a(I0
I2373
F-0.875
S'poor'
p830
I0
tp831
a(I0
I2387
F-1.0
S'bad'
p832
I0
tp833
a(I0
I2391
F1.0
S'best'
p834
I0
tp835
a(I0
I2499
F1.0
S'good'
p836
I0
tp837
a(I0
I2933
F0.625
S'okay'
p838
I0
tp839
a(I0
I2960
I0
S'audio'
p840
I0
tp841
a(I0
I2976
I0
g400
I0
tp842
a(I0
I2976
F-0.375
S'same'
p843
I0
tp844
a(I0
I3323
F0.125
S'mobile'
p845
I0
tp846
a(I0
I3323
F-1.0
S'bad'
p847
I0
tp848
a(I0
I3324
F-0.625
S'other'
p849
I0
tp850
a(I0
I3324
F-1.0
S'bad'
p851
I0
tp852
a(I0
I3435
F-1.0
S'bad'
p853
I0
tp854
a(I0
I3640
F-1.0
S'worse'
p855
I0
tp856
a(I0
I3662
F1.0
g316
I0
tp857
a(I0
I3728
F-0.875
S'poor'
p858
I0
tp859
a(I0
I3829
F-0.125
g318
I0
tp860
a(I0
I3829
F1.0
g320
I0
tp861
a(I0
I3829
I0
g322
I0
tp862
a(I0
I3829
F-0.125
g324
I0
tp863
a(I0
I3829
F-0.625
S'average'
p864
I0
tp865
a(I0
I3830
F-0.625
g420
I0
tp866
a(I0
I3830
I0
S'below'
p867
I0
tp868
a(I0
I3830
F-0.625
S'average'
p869
I0
tp870
a(I0
I4313
F-0.875
S'cheap'
p871
I0
tp872
a(I0
I4369
F1.0
S'good'
p873
I0
tp874
a(I0
I4387
F-0.625
S'real'
p875
I0
tp876
a(I0
I4519
F1.0
S'good'
p877
I0
tp878
a(I0
I4542
F-0.875
S'low'
p879
I0
tp880
a(I0
I4542
I0
g336
I0
tp881
a(I0
I4542
F-0.125
g338
I0
tp882
a(I0
I4738
I0
S'pro'
p883
I0
tp884
as(S'13'
p885
S'mega'
p886
S'pixel'
p887
tp888
(lp889
(I0
I2052
I-100
S'megal'
p890
I0
tp891
as(S'very'
p892
S'good'
p893
S'product'
p894
tp895
(lp896
(I0
I454
F1.0
S'good'
p897
I0
tp898
a(I0
I454
I0
S'durable'
p899
I0
tp900
a(I0
I454
F1.0
S'good'
p901
I0
tp902
a(I0
I1328
F0.25
S'worth'
p903
I0
tp904
a(I0
I3031
F1.0
S'good'
p905
I0
tp906
a(I0
I3039
F1.0
S'good'
p907
I0
tp908
a(I0
I3064
F1.0
S'good'
p909
I0
tp910
a(I0
I3064
F1.0
S'good'
p911
I0
tp912
a(I0
I3127
F-0.125
S'overall'
p913
I0
tp914
a(I0
I3127
F1.0
S'good'
p915
I0
tp916
a(I0
I3127
F-0.625
S'fast'
p917
I0
tp918
a(I0
I3301
F1.0
S'good'
p919
I0
tp920
a(I0
I3326
F1.0
S'good'
p921
I0
tp922
a(I0
I3430
F1.0
S'good'
p923
I0
tp924
a(I0
I3514
I0
S's'
p925
I0
tp926
a(I0
I3551
F1.0
S'good'
p927
I0
tp928
a(I0
I3551
F1.0
S'good'
p929
I0
tp930
a(I0
I3662
F1.0
S'good'
p931
I0
tp932
a(I0
I3662
F-0.25
S'i'
p933
I0
tp934
a(I0
I3672
F1.0
S'good'
p935
I0
tp936
a(I0
I3707
F1.0
S'good'
p937
I0
tp938
a(I0
I3707
F1.0
S'good'
p939
I0
tp940
a(I0
I3747
F1.0
S'good'
p941
I0
tp942
a(I0
I4642
F0.375
S'ok'
p943
I0
tp944
a(I0
I4720
F1.0
S'good'
p945
I0
tp946
a(I0
I4800
F1.0
S'good'
p947
I0
tp948
a(I0
I454
F1.0
g897
I0
tp949
a(I0
I454
I0
g899
I0
tp950
a(I0
I454
F1.0
g901
I0
tp951
a(I0
I769
F1.0
S'good'
p952
I0
tp953
a(I0
I769
F0.75
S'easy'
p954
I0
tp955
a(I0
I1328
F0.25
g903
I0
tp956
a(I0
I1471
F0.875
S'happy'
p957
I0
tp958
a(I0
I1472
F1.0
S'good'
p959
I0
tp960
a(I0
I1813
F1.0
S'good'
p961
I0
tp962
a(I0
I1902
F1.0
S'good'
p963
I0
tp964
a(I0
I2031
F1.0
S'good'
p965
I0
tp966
a(I0
I2033
F1.0
S'good'
p967
I0
tp968
a(I0
I2184
F1.0
S'good'
p969
I0
tp970
a(I0
I2212
F-0.125
S'overall'
p971
I0
tp972
a(I0
I2212
F1.0
S'good'
p973
I0
tp974
a(I0
I2318
F1.0
S'good'
p975
I0
tp976
a(I0
I2402
F0.375
S'ok'
p977
I0
tp978
a(I0
I2402
F1.0
S'good'
p979
I0
tp980
a(I0
I2475
F0.875
S'awesome'
p981
I0
tp982
a(I0
I2540
F1.0
S'good'
p983
I0
tp984
a(I0
I2560
F1.0
S'good'
p985
I0
tp986
a(I0
I2728
F-0.25
S'i'
p987
I0
tp988
a(I0
I2728
F-0.25
S'i'
p989
I0
tp990
a(I0
I3031
F1.0
g905
I0
tp991
a(I0
I3039
F1.0
g907
I0
tp992
a(I0
I3046
F1.0
S'good'
p993
I0
tp994
a(I0
I3064
F1.0
g909
I0
tp995
a(I0
I3064
F1.0
g911
I0
tp996
a(I0
I3127
F-0.125
g913
I0
tp997
a(I0
I3127
F1.0
g915
I0
tp998
a(I0
I3127
F-0.625
g917
I0
tp999
a(I0
I3275
F1.0
S'good'
p1000
I0
tp1001
a(I0
I3301
F1.0
g919
I0
tp1002
a(I0
I3311
F1.0
S'good'
p1003
I0
tp1004
a(I0
I3326
F1.0
g921
I0
tp1005
a(I0
I3395
F1.0
S'good'
p1006
I0
tp1007
a(I0
I3430
F1.0
g923
I0
tp1008
a(I0
I3447
F-0.125
S'defected'
p1009
I0
tp1010
a(I0
I3449
F1.0
S'good'
p1011
I0
tp1012
a(I0
I3476
F1.0
S'good'
p1013
I0
tp1014
a(I0
I3494
I0
S'allgood'
p1015
I0
tp1016
a(I0
I3514
I0
g925
I0
tp1017
a(I0
I3551
F1.0
g927
I0
tp1018
a(I0
I3551
F1.0
g929
I0
tp1019
a(I0
I3571
F1.0
S'good'
p1020
I0
tp1021
a(I0
I3582
F1.0
S'good'
p1022
I0
tp1023
a(I0
I3607
F1.0
S'good'
p1024
I0
tp1025
a(I0
I3662
F1.0
g931
I0
tp1026
a(I0
I3662
F-0.25
g933
I0
tp1027
a(I0
I3672
F1.0
g935
I0
tp1028
a(I0
I3707
F1.0
g937
I0
tp1029
a(I0
I3707
F1.0
g939
I0
tp1030
a(I0
I3725
F1.0
S'good'
p1031
I0
tp1032
a(I0
I3742
F0.875
S'awesome'
p1033
I0
tp1034
a(I0
I3747
F1.0
g941
I0
tp1035
a(I0
I3750
F1.0
S'good'
p1036
I0
tp1037
a(I0
I3760
I0
S'more'
p1038
I0
tp1039
a(I0
I3856
F-0.875
S'low'
p1040
I0
tp1041
a(I0
I3873
F0.875
S'awesome'
p1042
I0
tp1043
a(I0
I3977
I0
S'third'
p1044
I0
tp1045
a(I0
I3977
F0.625
S'classs'
p1046
I0
tp1047
a(I0
I4002
F-0.125
S'overall'
p1048
I0
tp1049
a(I0
I4002
F1.0
S'good'
p1050
I0
tp1051
a(I0
I4046
F1.0
S'good'
p1052
I0
tp1053
a(I0
I4095
F0.875
S'nice'
p1054
I0
tp1055
a(I0
I4519
F1.0
S'good'
p1056
I0
tp1057
a(I0
I4642
F0.375
g943
I0
tp1058
a(I0
I4720
F1.0
g945
I0
tp1059
a(I0
I4746
F1.0
S'good'
p1060
I0
tp1061
a(I0
I4770
F1.0
S'good'
p1062
I0
tp1063
a(I0
I4800
F1.0
g947
I0
tp1064
a(I0
I4823
F1.0
S'good'
p1065
I0
tp1066
a(I0
I4823
F-0.125
S'such'
p1067
I0
tp1068
a(I0
I454
F1.0
g897
I5
tp1069
a(I0
I454
I0
g899
I5
tp1070
a(I0
I454
F1.0
g901
I5
tp1071
a(I0
I769
F1.0
g952
I5
tp1072
a(I0
I769
F0.75
g954
I5
tp1073
a(I0
I1328
F0.25
g903
I5
tp1074
a(I0
I1328
I-100
S'pennythis'
p1075
I5
tp1076
a(I0
I1471
F0.875
g957
I5
tp1077
a(I0
I1472
F1.0
g959
I5
tp1078
a(I0
I1813
F1.0
g961
I5
tp1079
a(I0
I1902
F1.0
g963
I5
tp1080
a(I0
I2031
F1.0
g965
I5
tp1081
a(I0
I2033
F1.0
g967
I5
tp1082
a(I0
I2184
F1.0
g969
I5
tp1083
a(I0
I2212
F-0.125
g971
I5
tp1084
a(I0
I2212
F1.0
g973
I5
tp1085
a(I0
I2318
F1.0
g975
I5
tp1086
a(I0
I2402
F0.375
g977
I5
tp1087
a(I0
I2402
F1.0
g979
I5
tp1088
a(I0
I2475
F0.875
g981
I5
tp1089
a(I0
I2540
F1.0
g983
I5
tp1090
a(I0
I2560
F1.0
g985
I5
tp1091
a(I0
I2728
F-0.25
g987
I5
tp1092
a(I0
I2728
F-0.25
g989
I5
tp1093
a(I0
I2819
I-100
S'worstgood'
p1094
I5
tp1095
a(I0
I3031
F1.0
g905
I5
tp1096
a(I0
I3039
F1.0
g907
I5
tp1097
a(I0
I3046
F1.0
g993
I5
tp1098
a(I0
I3064
I-100
S'sud'
p1099
I5
tp1100
a(I0
I3064
F1.0
g909
I5
tp1101
a(I0
I3064
F1.0
g911
I5
tp1102
a(I0
I3127
F-0.125
g913
I5
tp1103
a(I0
I3127
F1.0
g915
I5
tp1104
a(I0
I3127
F-0.625
g917
I5
tp1105
a(I0
I3275
F1.0
g1000
I5
tp1106
a(I0
I3301
F1.0
g919
I5
tp1107
a(I0
I3311
F1.0
g1003
I5
tp1108
a(I0
I3326
F1.0
g921
I5
tp1109
a(I0
I3379
I-100
S'wellgood'
p1110
I5
tp1111
a(I0
I3395
F1.0
g1006
I5
tp1112
a(I0
I3430
F1.0
g923
I5
tp1113
a(I0
I3447
F-0.125
g1009
I5
tp1114
a(I0
I3449
F1.0
g1011
I5
tp1115
a(I0
I3476
F1.0
g1013
I5
tp1116
a(I0
I3494
I0
g1015
I5
tp1117
a(I0
I3511
I-100
S'onenice'
p1118
I5
tp1119
a(I0
I3514
I0
g925
I5
tp1120
a(I0
I3551
F1.0
g927
I5
tp1121
a(I0
I3551
F1.0
g929
I5
tp1122
a(I0
I3571
F1.0
g1020
I5
tp1123
a(I0
I3582
F1.0
g1022
I5
tp1124
a(I0
I3607
F1.0
g1024
I5
tp1125
a(I0
I3662
F1.0
g931
I5
tp1126
a(I0
I3662
F-0.25
g933
I5
tp1127
a(I0
I3672
F1.0
g935
I5
tp1128
a(I0
I3707
F1.0
g937
I5
tp1129
a(I0
I3707
F1.0
g939
I5
tp1130
a(I0
I3725
F1.0
g1031
I5
tp1131
a(I0
I3742
F0.875
g1033
I5
tp1132
a(I0
I3747
F1.0
g941
I5
tp1133
a(I0
I3750
F1.0
g1036
I5
tp1134
a(I0
I3760
I0
g1038
I5
tp1135
a(I0
I3760
I-100
S'testnice'
p1136
I5
tp1137
a(I0
I3856
F-0.875
g1040
I5
tp1138
a(I0
I3873
F0.875
g1042
I5
tp1139
a(I0
I3977
I0
g1044
I5
tp1140
a(I0
I3977
F0.625
g1046
I5
tp1141
a(I0
I4002
F-0.125
g1048
I5
tp1142
a(I0
I4002
F1.0
g1050
I5
tp1143
a(I0
I4046
F1.0
g1052
I5
tp1144
a(I0
I4095
F0.875
g1054
I5
tp1145
a(I0
I4247
I-100
S'ooriginal'
p1146
I5
tp1147
a(I0
I4519
F1.0
g1056
I5
tp1148
a(I0
I4642
F0.375
g943
I5
tp1149
a(I0
I4720
F1.0
g945
I5
tp1150
a(I0
I4746
F1.0
g1060
I5
tp1151
a(I0
I4770
F1.0
g1062
I5
tp1152
a(I0
I4800
F1.0
g947
I5
tp1153
a(I0
I4823
F1.0
g1065
I5
tp1154
a(I0
I4823
F-0.125
g1067
I5
tp1155
a(I0
I1711
I0
S'only'
p1156
I0
tp1157
a(I0
I1963
F1.0
S'good'
p1158
I0
tp1159
a(I0
I2754
F1.0
S'good'
p1160
I0
tp1161
a(I0
I3364
F-0.375
S'same'
p1162
I0
tp1163
as(S'low'
p1164
S'price'
p1165
tp1166
(lp1167
(I0
I533
I-100
S'friendslow'
p1168
I7
tp1169
a(I0
I830
F-0.875
S'low'
p1170
I7
tp1171
a(I0
I922
F-0.875
S'low'
p1172
I7
tp1173
a(I0
I922
F-0.625
S'other'
p1174
I7
tp1175
a(I0
I1318
F-0.875
S'low'
p1176
I7
tp1177
a(I0
I1646
F-0.875
S'lower'
p1178
I7
tp1179
a(I0
I1681
F-0.875
S'low'
p1180
I7
tp1181
a(I0
I2088
F-0.875
S'cheap'
p1182
I7
tp1183
a(I0
I2196
F-0.875
S'low'
p1184
I7
tp1185
a(I0
I2226
F-0.875
S'low'
p1186
I7
tp1187
a(I0
I2252
F1.0
S'good'
p1188
I7
tp1189
a(I0
I2377
F-0.875
S'low'
p1190
I7
tp1191
a(I0
I2433
F-0.875
S'low'
p1192
I7
tp1193
a(I0
I2433
F0.5
S'high'
p1194
I7
tp1195
a(I0
I2451
F-0.875
S'low'
p1196
I7
tp1197
a(I0
I2456
F-0.875
S'low'
p1198
I7
tp1199
a(I0
I2677
F-0.875
S'low'
p1200
I7
tp1201
a(I0
I2967
F-0.875
S'low'
p1202
I7
tp1203
a(I0
I3064
F-0.875
S'low'
p1204
I7
tp1205
a(I0
I3119
I0
S'cool'
p1206
I7
tp1207
a(I0
I3119
F-0.875
S'lowest'
p1208
I7
tp1209
a(I0
I3275
F-0.875
S'low'
p1210
I7
tp1211
a(I0
I3436
F1.0
S'best'
p1212
I7
tp1213
a(I0
I3494
F-0.875
S'low'
p1214
I7
tp1215
a(I0
I3767
F-0.875
S'lower'
p1216
I7
tp1217
a(I0
I3767
F0.5
S'magnificent'
p1218
I7
tp1219
a(I0
I3829
F-0.125
g20
I7
tp1220
a(I0
I3856
I-100
S'pricelow'
p1221
I7
tp1222
a(I0
I3879
F1.0
S'good'
p1223
I7
tp1224
a(I0
I4376
F0.125
S'amazon'
p1225
I7
tp1226
a(I0
I4561
F-0.875
S'low'
p1227
I7
tp1228
a(I0
I4568
F-0.875
S'lowest'
p1229
I7
tp1230
a(I0
I4605
F-0.875
S'lowest'
p1231
I7
tp1232
a(I0
I4775
F0.5
S'everyday'
p1233
I7
tp1234
a(I0
I4775
F-0.875
S'low'
p1235
I7
tp1236
as(S'battery'
p1237
S'charging'
p1238
S'time'
p1239
tp1240
(lp1241
(I0
I672
I0
S'more'
p1242
I0
tp1243
a(I0
I681
F-0.875
S'low'
p1244
I0
tp1245
a(I0
I1234
F0.625
S'fine'
p1246
I0
tp1247
a(I0
I1255
F1.0
S'good'
p1248
I0
tp1249
a(I0
I1472
I0
S'least'
p1250
I0
tp1251
a(I0
I1679
F-0.625
S'unbearable'
p1252
I0
tp1253
a(I0
I1705
F-0.5
S'long'
p1254
I0
tp1255
a(I0
I2317
F0.125
S'mobile'
p1256
I0
tp1257
a(I0
I2317
F-0.75
S'short'
p1258
I0
tp1259
a(I0
I2374
I0
S'more'
p1260
I0
tp1261
a(I0
I2493
F1.0
S'good'
p1262
I0
tp1263
a(I0
I2707
F0.875
S'great'
p1264
I0
tp1265
a(I0
I3064
F1.0
S'good'
p1266
I0
tp1267
a(I0
I3064
F0.375
S'much'
p1268
I0
tp1269
a(I0
I3425
I0
S'more'
p1270
I0
tp1271
a(I0
I3429
F-0.5
S'long'
p1272
I0
tp1273
a(I0
I3430
F0.625
S'fine'
p1274
I0
tp1275
a(I0
I4004
F0.125
S'enough'
p1276
I0
tp1277
a(I0
I4004
I-100
S'problemfor'
p1278
I0
tp1279
a(I0
I4477
F-0.625
S'lasting'
p1280
I0
tp1281
a(I0
I4477
F0.375
S'much'
p1282
I0
tp1283
a(I0
I4477
I-100
S'issuecharging'
p1284
I0
tp1285
a(I0
I520
F0.5
S'higher'
p1286
I1
tp1287
a(I0
I672
I0
g1242
I1
tp1288
a(I0
I759
F1.0
S'good'
p1289
I1
tp1290
a(I0
I1234
F0.625
g1246
I1
tp1291
a(I0
I1274
F0.375
S'much'
p1292
I1
tp1293
a(I0
I1472
I0
g1250
I1
tp1294
a(I0
I1656
I0
S'more'
p1295
I1
tp1296
a(I0
I1656
F-0.625
S'fast'
p1297
I1
tp1298
a(I0
I1679
F-0.625
g1252
I1
tp1299
a(I0
I1705
F-0.5
g1254
I1
tp1300
a(I0
I1863
F-0.5
S'long'
p1301
I1
tp1302
a(I0
I1958
I0
S'almost'
p1303
I1
tp1304
a(I0
I2084
F-0.5
S'long'
p1305
I1
tp1306
a(I0
I2317
F0.125
g1256
I1
tp1307
a(I0
I2317
F-0.75
g1258
I1
tp1308
a(I0
I2374
I0
g1260
I1
tp1309
a(I0
I2391
F0.5
S'high'
p1310
I1
tp1311
a(I0
I2682
F-1.0
S'bad'
p1312
I1
tp1313
a(I0
I2707
F0.875
g1264
I1
tp1314
a(I0
I3041
F0.5
S'large'
p1315
I1
tp1316
a(I0
I3064
F1.0
g1266
I1
tp1317
a(I0
I3064
F0.375
g1268
I1
tp1318
a(I0
I3278
F-0.5
S'long'
p1319
I1
tp1320
a(I0
I3425
I0
g1270
I1
tp1321
a(I0
I3429
F-0.5
g1272
I1
tp1322
a(I0
I3874
F1.0
S'good'
p1323
I1
tp1324
a(I0
I3874
F-0.25
S'i'
p1325
I1
tp1326
a(I0
I4104
I0
S'more'
p1327
I1
tp1328
a(I0
I4197
I0
S'more'
p1329
I1
tp1330
a(I0
I4477
F0.375
g1282
I1
tp1331
a(I0
I498
F-0.5
S'slow'
p1332
I0
tp1333
a(I0
I681
F-0.875
g1244
I0
tp1334
a(I0
I1008
I0
S's'
p1335
I0
tp1336
a(I0
I1077
I-100
S'youtube'
p1337
I0
tp1338
a(I0
I1255
F1.0
g1248
I0
tp1339
a(I0
I1454
F-1.0
S'bad'
p1340
I0
tp1341
a(I0
I1454
F0.75
S'due'
p1342
I0
tp1343
a(I0
I1454
I0
S'least'
p1344
I0
tp1345
a(I0
I1698
F-0.625
S'fast'
p1346
I0
tp1347
a(I0
I1698
F0.125
S'mobile'
p1348
I0
tp1349
a(I0
I1698
F1.0
S'excellent'
p1350
I0
tp1351
a(I0
I1815
I-100
S'dialar'
p1352
I0
tp1353
a(I0
I2387
F-1.0
S'bad'
p1354
I0
tp1355
a(I0
I2453
F0.125
S'mobile'
p1356
I0
tp1357
a(I0
I2493
F1.0
g1262
I0
tp1358
a(I0
I2631
I-100
S'qki'
p1359
I0
tp1360
a(I0
I2631
I-100
S'iski'
p1361
I0
tp1362
a(I0
I3064
F1.0
g1266
I0
tp1363
a(I0
I3064
I-100
S'downingi'
p1364
I0
tp1365
a(I0
I3333
F-0.5
S'slow'
p1366
I0
tp1367
a(I0
I3430
F0.625
g1274
I0
tp1368
a(I0
I3445
F-0.625
S'average'
p1369
I0
tp1370
a(I0
I3511
F0.375
S'ok'
p1371
I0
tp1372
a(I0
I3620
F-0.875
S'poor'
p1373
I0
tp1374
a(I0
I3672
F-0.5
S'slow'
p1375
I0
tp1376
a(I0
I3809
F0.375
S'available'
p1377
I0
tp1378
a(I0
I4004
F0.125
g1276
I0
tp1379
a(I0
I4442
F-0.125
S'front'
p1380
I0
tp1381
a(I0
I4477
F-0.625
g1280
I0
tp1382
as(S'quality'
p1383
S'very'
p1384
S'good'
p1385
tp1386
(lp1387
(I0
I37
F1.0
S'good'
p1388
I0
tp1389
a(I0
I578
F1.0
g790
I0
tp1390
a(I0
I578
F0.25
g792
I0
tp1391
a(I0
I578
F1.0
g794
I0
tp1392
a(I0
I980
I0
S'build'
p1393
I0
tp1394
a(I0
I1711
I0
g1156
I0
tp1395
a(I0
I1798
F1.0
g818
I0
tp1396
a(I0
I2085
I0
g822
I0
tp1397
a(I0
I2387
F-1.0
g832
I0
tp1398
a(I0
I2391
F1.0
g834
I0
tp1399
a(I0
I2499
F1.0
g836
I0
tp1400
a(I0
I2604
F-0.75
S'secondary'
p1401
I0
tp1402
a(I0
I2948
F0.75
S'sound'
p1403
I0
tp1404
a(I0
I3228
F-0.625
S'average'
p1405
I0
tp1406
a(I0
I3324
F-0.625
g849
I0
tp1407
a(I0
I3420
F1.0
S'good'
p1408
I0
tp1409
a(I0
I3579
F-1.0
S'bad'
p1410
I0
tp1411
a(I0
I4066
F1.0
S'good'
p1412
I0
tp1413
a(I0
I4301
F1.0
S'good'
p1414
I0
tp1415
a(I0
I4313
F-0.875
g871
I0
tp1416
a(I0
I4542
F-0.875
g879
I0
tp1417
a(I0
I4600
I0
S'camera'
p1418
I0
tp1419
a(I0
I4789
F0.75
S'sound'
p1420
I0
tp1421
as(S'at'
p1422
S'price'
p1423
S'tag'
p1424
tp1425
(lp1426
(I0
I1
F1.0
S'excellent'
p1427
I0
tp1428
a(I0
I53
F-0.625
S'other'
p1429
I0
tp1430
a(I0
I4600
I0
S'affordable'
p1431
I0
tp1432
a(I0
I1
F1.0
g1427
I1
tp1433
a(I0
I26
F1.0
S'good'
p1434
I1
tp1435
a(I0
I53
F-0.625
g1429
I1
tp1436
a(I0
I4600
I0
g1431
I1
tp1437
as(S'best'
p1438
S'mobile'
p1439
S'in'
p1440
tp1441
(lp1442
(I0
I1780
F1.0
S'best'
p1443
I1
tp1444
a(I0
I2214
F1.0
S'best'
p1445
I1
tp1446
a(I0
I2391
F1.0
S'best'
p1447
I1
tp1448
a(I0
I2391
F1.0
S'best'
p1449
I1
tp1450
a(I0
I2758
F-0.125
S'overall'
p1451
I1
tp1452
a(I0
I2758
F1.0
S'best'
p1453
I1
tp1454
a(I0
I2767
F1.0
S'best'
p1455
I1
tp1456
a(I0
I2819
F1.0
S'best'
p1457
I1
tp1458
a(I0
I3269
F1.0
S'best'
p1459
I1
tp1460
a(I0
I3580
F1.0
S'best'
p1461
I1
tp1462
a(I0
I3580
F0.125
S'mobile'
p1463
I1
tp1464
a(I0
I3708
F1.0
S'good'
p1465
I1
tp1466
a(I0
I4782
F1.0
S'best'
p1467
I1
tp1468
a(I0
I829
F1.0
S'best'
p1469
I2
tp1470
a(I0
I1780
F1.0
g1443
I2
tp1471
a(I0
I2214
F1.0
g1445
I2
tp1472
a(I0
I2391
F1.0
g1447
I2
tp1473
a(I0
I2391
F1.0
g1449
I2
tp1474
a(I0
I2758
F-0.125
g1451
I2
tp1475
a(I0
I2758
F1.0
g1453
I2
tp1476
a(I0
I2767
F1.0
g1455
I2
tp1477
a(I0
I2819
F1.0
g1457
I2
tp1478
a(I0
I3269
F1.0
g1459
I2
tp1479
a(I0
I3580
F1.0
g1461
I2
tp1480
a(I0
I3580
F0.125
g1463
I2
tp1481
a(I0
I3708
F1.0
g1465
I2
tp1482
a(I0
I3918
F0.125
S'mobile'
p1483
I2
tp1484
a(I0
I4391
F1.0
S'best'
p1485
I2
tp1486
a(I0
I4751
F0.125
S'mobile'
p1487
I2
tp1488
a(I0
I4782
F1.0
g1467
I2
tp1489
as(S'love'
p1490
tp1491
(lp1492
(I0
I3831
I0
S'u'
p1493
I6
tp1494
a(I0
I4824
I-100
S'uuim'
p1495
I6
tp1496
a(I0
I4824
F-0.5
S'disappointed'
p1497
I6
tp1498
as(S'double'
p1499
S'tap'
p1500
tp1501
(lp1502
(I0
I41
F-0.625
S'double'
p1503
I0
tp1504
a(I0
I650
F-0.625
S'double'
p1505
I0
tp1506
a(I0
I3383
F-0.125
S'such'
p1507
I0
tp1508
a(I0
I3383
F-0.625
S'double'
p1509
I0
tp1510
as(S'sound'
p1511
S'quality'
p1512
tp1513
(lp1514
(I0
I1008
F1.0
g800
I5
tp1515
a(I0
I1883
F0.75
S'sound'
p1516
I5
tp1517
a(I0
I1883
F-0.875
S'poor'
p1518
I5
tp1519
a(I0
I1917
F0.75
S'sound'
p1520
I5
tp1521
a(I0
I1917
F0.875
S'great'
p1522
I5
tp1523
a(I0
I2101
F0.75
S'sound'
p1524
I5
tp1525
a(I0
I2101
F-0.875
S'poor'
p1526
I5
tp1527
a(I0
I2143
F1.0
S'good'
p1528
I5
tp1529
a(I0
I2155
F0.5
S'second'
p1530
I5
tp1531
a(I0
I2177
F-0.875
S'low'
p1532
I5
tp1533
a(I0
I2177
F0.75
S'sound'
p1534
I5
tp1535
a(I0
I2177
I0
S'many'
p1536
I5
tp1537
a(I0
I2317
F0.75
g828
I5
tp1538
a(I0
I2475
F1.0
S'good'
p1539
I5
tp1540
a(I0
I2948
F0.75
g1403
I5
tp1541
a(I0
I3091
F0.75
S'sound'
p1542
I5
tp1543
a(I0
I3283
F-0.125
S'overall'
p1544
I5
tp1545
a(I0
I3569
F0.75
S'sound'
p1546
I5
tp1547
a(I0
I3569
F-0.625
S'average'
p1548
I5
tp1549
a(I0
I3831
F0.375
S'ok'
p1550
I5
tp1551
a(I0
I4108
F0.75
S'sound'
p1552
I5
tp1553
a(I0
I4108
F-0.875
S'low'
p1554
I5
tp1555
a(I0
I4356
F0.75
S'sound'
p1556
I5
tp1557
a(I0
I4356
F1.0
S'good'
p1558
I5
tp1559
a(I0
I4789
F0.75
g1420
I5
tp1560
a(I0
I662
F1.0
S'good'
p1561
I15
tp1562
a(I0
I963
F-1.0
S'bad'
p1563
I15
tp1564
a(I0
I963
I0
S'clear'
p1565
I15
tp1566
a(I0
I964
F1.0
S'good'
p1567
I15
tp1568
a(I0
I1825
I0
S'clear'
p1569
I15
tp1570
a(I0
I1900
F0.875
S'decent'
p1571
I15
tp1572
a(I0
I2155
F0.5
g1530
I15
tp1573
a(I0
I2218
F1.0
S'good'
p1574
I15
tp1575
a(I0
I2475
F1.0
g1539
I15
tp1576
a(I0
I2788
F0.875
S'superb'
p1577
I15
tp1578
a(I0
I3283
F-0.125
g1544
I15
tp1579
a(I0
I3331
F-0.875
S'poor'
p1580
I15
tp1581
a(I0
I3416
F-0.875
S'low'
p1582
I15
tp1583
a(I0
I3831
F0.375
g1550
I15
tp1584
a(I0
I4226
F-0.875
S'poor'
p1585
I15
tp1586
a(I0
I4355
F-0.375
S'same'
p1587
I15
tp1588
a(I0
I4463
F0.375
S'ok'
p1589
I15
tp1590
as(S'no'
p1591
S'heating'
p1592
S'issue'
p1593
tp1594
(lp1595
(I0
I537
F0.375
S'heating'
p1596
I0
tp1597
a(I0
I865
I0
S'normal'
p1598
I0
tp1599
a(I0
I2071
I0
S'biggest'
p1600
I0
tp1601
a(I0
I2071
I0
S'normal'
p1602
I0
tp1603
a(I0
I2071
F0.125
S'mobile'
p1604
I0
tp1605
a(I0
I2969
F0.375
S'heating'
p1606
I0
tp1607
a(I0
I3320
F-0.75
S'little'
p1608
I0
tp1609
a(I0
I3320
F0.375
S'heating'
p1610
I0
tp1611
a(I0
I3810
F0.375
S'heating'
p1612
I0
tp1613
a(I0
I3829
F0.375
S'satisfied'
p1614
I0
tp1615
a(I0
I3829
F0.5
S'rid'
p1616
I0
tp1617
a(I0
I3972
F0.375
S'heating'
p1618
I0
tp1619
a(I0
I4500
F1.0
S'good'
p1620
I0
tp1621
a(I0
I537
F0.375
g1596
I2
tp1622
a(I0
I865
I0
g1598
I2
tp1623
a(I0
I944
F0.375
S'heating'
p1624
I2
tp1625
a(I0
I944
F-0.625
S'other'
p1626
I2
tp1627
a(I0
I944
F0.125
S'usual'
p1628
I2
tp1629
a(I0
I2071
I0
g1600
I2
tp1630
a(I0
I2071
I0
g1602
I2
tp1631
a(I0
I2071
F0.125
g1604
I2
tp1632
a(I0
I2602
I0
S'big'
p1633
I2
tp1634
a(I0
I2969
F0.375
g1606
I2
tp1635
a(I0
I3320
F-0.75
g1608
I2
tp1636
a(I0
I3320
F0.375
g1610
I2
tp1637
a(I0
I3386
F0.375
S'heating'
p1638
I2
tp1639
a(I0
I3475
I0
S'serious'
p1640
I2
tp1641
a(I0
I3550
F0.375
S'heating'
p1642
I2
tp1643
a(I0
I3810
F0.375
g1612
I2
tp1644
a(I0
I3829
F0.375
g1614
I2
tp1645
a(I0
I3829
F0.5
g1616
I2
tp1646
a(I0
I3972
F0.375
g1618
I2
tp1647
a(I0
I4162
I-100
S'exp'
p1648
I2
tp1649
a(I0
I4500
F1.0
g1620
I2
tp1650
a(I0
I4504
F0.375
S'heating'
p1651
I2
tp1652
a(I0
I4504
I0
S't'
p1653
I2
tp1654
as(S'in'
p1655
S'low'
p1656
S'light'
p1657
tp1658
(lp1659
(I0
I243
F-0.875
S'low'
p1660
I2
tp1661
a(I0
I245
F1.0
S'good'
p1662
I2
tp1663
a(I0
I245
F-0.875
S'low'
p1664
I2
tp1665
a(I0
I281
F-0.875
S'low'
p1666
I2
tp1667
a(I0
I282
F-0.875
S'low'
p1668
I2
tp1669
a(I0
I337
F-0.875
S'low'
p1670
I2
tp1671
a(I0
I382
F-0.875
S'low'
p1672
I2
tp1673
a(I0
I475
F-0.875
S'low'
p1674
I2
tp1675
a(I0
I1915
F-0.875
S'low'
p1676
I2
tp1677
a(I0
I2339
F0.625
S'prime'
p1678
I2
tp1679
a(I0
I2339
F-0.875
S'low'
p1680
I2
tp1681
a(I0
I2775
F-0.875
S'low'
p1682
I2
tp1683
a(I0
I2775
F0.625
S'super'
p1684
I2
tp1685
a(I0
I3793
F-0.625
S'average'
p1686
I2
tp1687
a(I0
I3793
F-0.875
S'poor'
p1688
I2
tp1689
a(I0
I3793
F-0.875
S'low'
p1690
I2
tp1691
a(I0
I3793
F-0.75
S'artificial'
p1692
I2
tp1693
a(I0
I3975
F1.0
S'excellent'
p1694
I2
tp1695
a(I0
I3975
F-0.875
S'low'
p1696
I2
tp1697
a(I0
I4702
F-0.875
S'low'
p1698
I2
tp1699
a(I0
I4702
F-1.0
S'bad'
p1700
I2
tp1701
a(I0
I243
F-0.875
g1660
I2
tp1702
a(I0
I245
F1.0
g1662
I2
tp1703
a(I0
I245
F-0.875
g1664
I2
tp1704
a(I0
I281
F-0.875
g1666
I2
tp1705
a(I0
I282
F-0.875
g1668
I2
tp1706
a(I0
I337
F-0.875
g1670
I2
tp1707
a(I0
I382
F-0.875
g1672
I2
tp1708
a(I0
I475
F-0.875
g1674
I2
tp1709
a(I0
I958
F-0.875
S'low'
p1710
I2
tp1711
a(I0
I1915
F-0.875
g1676
I2
tp1712
a(I0
I2339
F0.625
g1678
I2
tp1713
a(I0
I2339
F-0.875
g1680
I2
tp1714
a(I0
I2516
F-0.875
S'low'
p1715
I2
tp1716
a(I0
I2775
F-0.875
g1682
I2
tp1717
a(I0
I2775
F0.625
g1684
I2
tp1718
a(I0
I3793
F-0.625
g1686
I2
tp1719
a(I0
I3793
F-0.875
g1688
I2
tp1720
a(I0
I3793
F-0.875
g1690
I2
tp1721
a(I0
I3793
F-0.75
g1692
I2
tp1722
a(I0
I3975
F1.0
g1694
I2
tp1723
a(I0
I3975
F-0.875
g1696
I2
tp1724
a(I0
I4702
F-0.875
g1698
I2
tp1725
a(I0
I4702
F-1.0
g1700
I2
tp1726
a(I0
I243
F-0.875
g1660
I14
tp1727
a(I0
I245
F1.0
g1662
I14
tp1728
a(I0
I245
F-0.875
g1664
I14
tp1729
a(I0
I281
F-0.875
g1666
I14
tp1730
a(I0
I282
F-0.875
g1668
I14
tp1731
a(I0
I337
F-0.875
g1670
I14
tp1732
a(I0
I382
F-0.875
g1672
I14
tp1733
a(I0
I430
F1.0
S'good'
p1734
I14
tp1735
a(I0
I475
F-0.875
g1674
I14
tp1736
a(I0
I958
F-0.875
g1710
I14
tp1737
a(I0
I1915
F-0.875
g1676
I14
tp1738
a(I0
I2339
F0.625
g1678
I14
tp1739
a(I0
I2339
F-0.875
g1680
I14
tp1740
a(I0
I2420
I0
S'customized'
p1741
I14
tp1742
a(I0
I2516
F-0.875
g1715
I14
tp1743
a(I0
I2775
F-0.875
g1682
I14
tp1744
a(I0
I2775
F0.625
g1684
I14
tp1745
a(I0
I3793
F-0.625
g1686
I14
tp1746
a(I0
I3793
F-0.875
g1688
I14
tp1747
a(I0
I3793
F-0.875
g1690
I14
tp1748
a(I0
I3793
F-0.75
g1692
I14
tp1749
a(I0
I3975
F1.0
g1694
I14
tp1750
a(I0
I3975
F-0.875
g1696
I14
tp1751
a(I0
I4173
F1.0
S'good'
p1752
I14
tp1753
a(I0
I4354
I0
S'bright'
p1754
I14
tp1755
a(I0
I4702
F-0.875
g1698
I14
tp1756
a(I0
I4702
F-1.0
g1700
I14
tp1757
a(I0
I4825
I-100
S'fakesleek'
p1758
I14
tp1759
as(S'camera'
p1760
S'very'
p1761
S'bad'
p1762
tp1763
(lp1764
(I0
I53
F-0.875
S'low'
p1765
I0
tp1766
a(I0
I53
F1.0
S'better'
p1767
I0
tp1768
a(I0
I1711
F1.0
g814
I0
tp1769
a(I0
I1711
F-1.0
g816
I0
tp1770
a(I0
I1762
F-1.0
S'bad'
p1771
I0
tp1772
a(I0
I1980
F-1.0
S'bad'
p1773
I0
tp1774
a(I0
I2085
F0.5
g820
I0
tp1775
a(I0
I2433
F-1.0
S'bad'
p1776
I0
tp1777
a(I0
I2479
I-100
S'dullback'
p1778
I0
tp1779
a(I0
I2741
F1.0
S'good'
p1780
I0
tp1781
a(I0
I2754
F0.875
S'great'
p1782
I0
tp1783
a(I0
I2754
I0
S'light'
p1784
I0
tp1785
a(I0
I2754
F-0.625
S'average'
p1786
I0
tp1787
a(I0
I2893
F-0.875
S'poor'
p1788
I0
tp1789
a(I0
I2893
F-1.0
S'bad'
p1790
I0
tp1791
a(I0
I3324
F-1.0
g851
I0
tp1792
a(I0
I3579
F-1.0
S'bad'
p1793
I0
tp1794
a(I0
I4162
F-0.625
S'other'
p1795
I0
tp1796
a(I0
I4637
I0
S'main'
p1797
I0
tp1798
a(I0
I4767
I0
S'rear'
p1799
I0
tp1800
a(I0
I4767
F1.0
S'good'
p1801
I0
tp1802
a(I0
I4819
F-0.875
S'low'
p1803
I0
tp1804
as(S'need'
p1805
tp1806
(lp1807
(I0
I490
I0
S'more'
p1808
I9
tp1809
a(I0
I2998
I0
S'u'
p1810
I9
tp1811
a(I0
I3719
F0.5
S'everyday'
p1812
I9
tp1813
a(I0
I4429
F1.0
S'good'
p1814
I9
tp1815
a(I0
I4604
F-0.25
S'i'
p1816
I9
tp1817
as(S'gorilla'
p1818
S'glass'
p1819
tp1820
(lp1821
(I0
I1022
I0
S'tampered'
p1822
I2
tp1823
a(I0
I1022
I0
S'gorilla'
p1824
I2
tp1825
as(S'finger'
p1826
S'print'
p1827
S'scanner'
p1828
tp1829
(lp1830
(I0
I92
F1.0
S'good'
p1831
I0
tp1832
a(I0
I92
F0.5
S'accurate'
p1833
I0
tp1834
a(I0
I109
F0.625
S'super'
p1835
I0
tp1836
a(I0
I1320
I0
S'finger'
p1837
I0
tp1838
a(I0
I1320
F-0.25
S'i'
p1839
I0
tp1840
a(I0
I1515
F1.0
S'good'
p1841
I0
tp1842
a(I0
I1604
F0.875
S'superb'
p1843
I0
tp1844
a(I0
I1796
F1.0
S'best'
p1845
I0
tp1846
a(I0
I1796
F-0.625
S'fingerprint'
p1847
I0
tp1848
a(I0
I1796
F1.0
S'best'
p1849
I0
tp1850
a(I0
I1897
F1.0
S'good'
p1851
I0
tp1852
a(I0
I2004
F-0.625
S'sensitive'
p1853
I0
tp1854
a(I0
I2070
F0.875
S'superb'
p1855
I0
tp1856
a(I0
I2244
I0
S'finger'
p1857
I0
tp1858
a(I0
I3111
I0
S'least'
p1859
I0
tp1860
a(I0
I3258
F-0.625
S'fast'
p1861
I0
tp1862
a(I0
I3715
F0.625
S'super'
p1863
I0
tp1864
a(I0
I3739
F0.875
S'attractive'
p1865
I0
tp1866
a(I0
I3836
F-0.375
S'flawless'
p1867
I0
tp1868
a(I0
I3836
F0.5
S'responsive'
p1869
I0
tp1870
a(I0
I3862
F0.875
S'fabulous'
p1871
I0
tp1872
a(I0
I4250
F-0.625
S'fingerprint'
p1873
I0
tp1874
a(I0
I4250
I0
S'quick'
p1875
I0
tp1876
a(I0
I4308
F0.625
S'fine'
p1877
I0
tp1878
a(I0
I4725
F0.875
S'awesome'
p1879
I0
tp1880
a(I0
I92
F1.0
g1831
I0
tp1881
a(I0
I92
F0.5
g1833
I0
tp1882
a(I0
I109
F0.625
g1835
I0
tp1883
a(I0
I1320
I0
g1837
I0
tp1884
a(I0
I1320
F-0.25
g1839
I0
tp1885
a(I0
I1604
F0.875
g1843
I0
tp1886
a(I0
I1796
F1.0
g1845
I0
tp1887
a(I0
I1796
F-0.625
g1847
I0
tp1888
a(I0
I1796
F1.0
g1849
I0
tp1889
a(I0
I1897
F1.0
g1851
I0
tp1890
a(I0
I2070
F0.875
g1855
I0
tp1891
a(I0
I2244
I0
g1857
I0
tp1892
a(I0
I3111
I0
g1859
I0
tp1893
a(I0
I3258
F-0.625
g1861
I0
tp1894
a(I0
I3739
F0.875
g1865
I0
tp1895
a(I0
I3836
F-0.375
g1867
I0
tp1896
a(I0
I3836
F0.5
g1869
I0
tp1897
a(I0
I3862
F0.875
g1871
I0
tp1898
a(I0
I4250
F-0.625
g1873
I0
tp1899
a(I0
I4250
I0
g1875
I0
tp1900
a(I0
I4308
F0.625
g1877
I0
tp1901
a(I0
I4725
F0.875
g1879
I0
tp1902
a(I0
I92
F1.0
g1831
I0
tp1903
a(I0
I92
F0.5
g1833
I0
tp1904
a(I0
I109
F0.625
g1835
I0
tp1905
a(I0
I1320
F-0.25
g1839
I0
tp1906
a(I0
I1604
F0.875
g1843
I0
tp1907
a(I0
I1796
F1.0
g1845
I0
tp1908
a(I0
I1796
F-0.625
g1847
I0
tp1909
a(I0
I1796
F1.0
g1849
I0
tp1910
a(I0
I1897
F1.0
g1851
I0
tp1911
a(I0
I1939
I-100
S'troublebut'
p1912
I0
tp1913
a(I0
I1991
I0
S'finger'
p1914
I0
tp1915
a(I0
I2070
F0.875
g1855
I0
tp1916
a(I0
I3111
I0
g1859
I0
tp1917
a(I0
I3258
F-0.625
g1861
I0
tp1918
a(I0
I3739
F0.875
g1865
I0
tp1919
a(I0
I3836
F-0.375
g1867
I0
tp1920
a(I0
I3836
F0.5
g1869
I0
tp1921
a(I0
I3862
F0.875
g1871
I0
tp1922
a(I0
I4250
F-0.625
g1873
I0
tp1923
a(I0
I4250
I0
g1875
I0
tp1924
a(I0
I4308
F0.625
g1877
I0
tp1925
a(I0
I4350
F0.875
S'amazing'
p1926
I0
tp1927
a(I0
I4725
F0.875
g1879
I0
tp1928
as(S'good'
p1929
S'at'
p1930
S'price'
p1931
tp1932
(lp1933
(I0
I479
I0
S'budgeted'
p1934
I0
tp1935
a(I0
I922
F-0.875
g1172
I0
tp1936
a(I0
I922
F-0.625
g1174
I0
tp1937
a(I0
I971
F1.0
S'good'
p1938
I0
tp1939
a(I0
I1088
I0
g6
I0
tp1940
a(I0
I1711
I0
g1156
I0
tp1941
a(I0
I1873
F0.125
S'mobile'
p1942
I0
tp1943
a(I0
I1873
I0
S'affordable'
p1944
I0
tp1945
a(I0
I1893
F1.0
g8
I0
tp1946
a(I0
I1963
F1.0
g1158
I0
tp1947
a(I0
I2021
F-0.875
S'small'
p1948
I0
tp1949
a(I0
I2252
F1.0
g1188
I0
tp1950
a(I0
I2380
F0.5
S'reasonable'
p1951
I0
tp1952
a(I0
I2451
F-0.875
g1196
I0
tp1953
a(I0
I2456
F-0.875
g1198
I0
tp1954
a(I0
I2556
F0.875
g12
I0
tp1955
a(I0
I2643
I0
S'affordable'
p1956
I0
tp1957
a(I0
I2705
F1.0
S'good'
p1958
I0
tp1959
a(I0
I2741
F-0.375
S'same'
p1960
I0
tp1961
a(I0
I2754
F1.0
g1160
I0
tp1962
a(I0
I3064
F-0.875
g1204
I0
tp1963
a(I0
I3244
F1.0
S'good'
p1964
I0
tp1965
a(I0
I3301
I0
S'affordable'
p1966
I0
tp1967
a(I0
I3320
F0.5
S'reasonable'
p1968
I0
tp1969
a(I0
I3436
F1.0
g1212
I0
tp1970
a(I0
I3458
F1.0
S'best'
p1971
I0
tp1972
a(I0
I3494
F-0.875
g1214
I0
tp1973
a(I0
I3533
F0.875
S'great'
p1974
I0
tp1975
a(I0
I3718
F1.0
S'good'
p1976
I0
tp1977
a(I0
I3751
F1.0
g18
I0
tp1978
a(I0
I3829
F-0.125
g20
I0
tp1979
a(I0
I3878
F1.0
S'good'
p1980
I0
tp1981
a(I0
I4158
F1.0
S'excellent'
p1982
I0
tp1983
a(I0
I4160
F1.0
g24
I0
tp1984
a(I0
I4247
I0
S'dis'
p1985
I0
tp1986
a(I0
I4247
F0.5
S'thankful'
p1987
I0
tp1988
a(I0
I4460
F0.875
S'nice'
p1989
I0
tp1990
a(I0
I4460
F1.0
S'good'
p1991
I0
tp1992
a(I0
I4600
I0
g1431
I0
tp1993
a(I0
I4816
F0.875
S'great'
p1994
I0
tp1995
as(S'fingerprint'
p1996
S'scanner'
p1997
tp1998
(lp1999
(I0
I20
F0.5
g611
I0
tp2000
a(I0
I109
F0.625
g1835
I0
tp2001
a(I0
I1604
F0.875
g1843
I0
tp2002
a(I0
I1796
F1.0
g1845
I0
tp2003
a(I0
I1796
F-0.625
g1847
I0
tp2004
a(I0
I1796
F1.0
g1849
I0
tp2005
a(I0
I1803
F-0.375
g627
I0
tp2006
a(I0
I1803
F0.5
g629
I0
tp2007
a(I0
I1897
F1.0
g1851
I0
tp2008
a(I0
I2070
F0.875
g1855
I0
tp2009
a(I0
I3836
F-0.375
g1867
I0
tp2010
a(I0
I3836
F0.5
g1869
I0
tp2011
a(I0
I3862
F0.875
g1871
I0
tp2012
a(I0
I4250
F-0.625
g1873
I0
tp2013
a(I0
I4250
I0
g1875
I0
tp2014
a(I0
I4308
F0.625
g1877
I0
tp2015
a(I0
I4725
F0.875
g1879
I0
tp2016
as(S'a'
p2017
S'little'
p2018
S'bit'
p2019
tp2020
(lp2021
(I0
I665
F-0.75
S'little'
p2022
I0
tp2023
a(I0
I889
F-0.75
S'little'
p2024
I0
tp2025
a(I0
I1352
F-0.75
S'little'
p2026
I0
tp2027
a(I0
I1604
F-0.75
S'little'
p2028
I0
tp2029
a(I0
I1611
F-0.75
S'little'
p2030
I0
tp2031
a(I0
I1925
F-0.75
S'little'
p2032
I0
tp2033
a(I0
I2199
F-0.75
S'little'
p2034
I0
tp2035
a(I0
I2199
F-0.75
S'little'
p2036
I0
tp2037
a(I0
I2199
F0.375
S'heating'
p2038
I0
tp2039
a(I0
I2424
F-0.875
S'low'
p2040
I0
tp2041
a(I0
I3000
F-0.75
S'little'
p2042
I0
tp2043
a(I0
I3000
F1.0
S'good'
p2044
I0
tp2045
a(I0
I3238
F-0.75
S'little'
p2046
I0
tp2047
a(I0
I3330
F-0.75
S'little'
p2048
I0
tp2049
a(I0
I3373
F0.375
S'heating'
p2050
I0
tp2051
a(I0
I3373
F-0.75
S'little'
p2052
I0
tp2053
a(I0
I4212
F-0.75
S'little'
p2054
I0
tp2055
a(I0
I4297
F-0.75
S'little'
p2056
I0
tp2057
a(I0
I4297
F-0.875
S'cheapest'
p2058
I0
tp2059
a(I0
I4459
F-0.75
S'little'
p2060
I0
tp2061
a(I0
I4459
F-0.5
S'disappointed'
p2062
I0
tp2063
a(I0
I4642
F-0.75
S'little'
p2064
I0
tp2065
a(I0
I665
F-0.75
g2022
I4
tp2066
a(I0
I889
F-0.75
g2024
I4
tp2067
a(I0
I1352
F-0.75
g2026
I4
tp2068
a(I0
I1604
F-0.75
g2028
I4
tp2069
a(I0
I1611
F-0.75
g2030
I4
tp2070
a(I0
I1611
I-100
S'uncomfort'
p2071
I4
tp2072
a(I0
I1925
F-0.75
g2032
I4
tp2073
a(I0
I2199
F-0.75
g2034
I4
tp2074
a(I0
I2199
F-0.75
g2036
I4
tp2075
a(I0
I2199
F0.375
g2038
I4
tp2076
a(I0
I2424
F-0.875
g2040
I4
tp2077
a(I0
I2943
F-0.75
S'little'
p2078
I4
tp2079
a(I0
I3000
F-0.75
g2042
I4
tp2080
a(I0
I3000
F1.0
g2044
I4
tp2081
a(I0
I3097
I-100
S'managble'
p2082
I4
tp2083
a(I0
I3238
F-0.75
g2046
I4
tp2084
a(I0
I3330
F-0.75
g2048
I4
tp2085
a(I0
I3373
F0.375
g2050
I4
tp2086
a(I0
I3373
F-0.75
g2052
I4
tp2087
a(I0
I3516
F-0.75
S'little'
p2088
I4
tp2089
a(I0
I3516
F-0.5
S'slow'
p2090
I4
tp2091
a(I0
I4212
F-0.75
g2054
I4
tp2092
a(I0
I4297
F-0.75
g2056
I4
tp2093
a(I0
I4297
F-0.875
g2058
I4
tp2094
a(I0
I4459
F-0.75
g2060
I4
tp2095
a(I0
I4459
F-0.5
g2062
I4
tp2096
a(I0
I4642
F-0.75
g2064
I4
tp2097
as(S'build'
p2098
S'quality'
p2099
tp2100
(lp2101
(I0
I424
F0.5
S'high'
p2102
I2
tp2103
a(I0
I951
F0.375
S'much'
p2104
I2
tp2105
a(I0
I951
I0
S'build'
p2106
I2
tp2107
a(I0
I980
I0
g1393
I2
tp2108
a(I0
I1008
F1.0
g800
I2
tp2109
a(I0
I1447
I0
S'build'
p2110
I2
tp2111
a(I0
I1562
I0
S'lite'
p2112
I2
tp2113
a(I0
I1562
I0
S'build'
p2114
I2
tp2115
a(I0
I1643
F1.0
S'best'
p2116
I2
tp2117
a(I0
I3053
F1.0
S'good'
p2118
I2
tp2119
a(I0
I3829
F-0.625
g864
I2
tp2120
a(I0
I4041
I0
S'build'
p2121
I2
tp2122
a(I0
I4041
F1.0
S'good'
p2123
I2
tp2124
a(I0
I4365
I-100
S'starbuild'
p2125
I2
tp2126
as(S'time'
p2127
S'to'
p2128
S'charge'
p2129
tp2130
(lp2131
(I0
I511
F-0.5
S'long'
p2132
I1
tp2133
a(I0
I526
F0.375
S'much'
p2134
I1
tp2135
a(I0
I526
F0.375
S'full'
p2136
I1
tp2137
a(I0
I672
I0
g1242
I1
tp2138
a(I0
I672
I0
S'quick'
p2139
I1
tp2140
a(I0
I822
F0.125
S'mobile'
p2141
I1
tp2142
a(I0
I960
F-0.5
S'longer'
p2143
I1
tp2144
a(I0
I960
F0.375
S'full'
p2145
I1
tp2146
a(I0
I1274
F0.375
g1292
I1
tp2147
a(I0
I1656
I0
g1295
I1
tp2148
a(I0
I1696
F-0.5
S'long'
p2149
I1
tp2150
a(I0
I1714
F0.375
S'much'
p2151
I1
tp2152
a(I0
I1714
F0.375
S'full'
p2153
I1
tp2154
a(I0
I1787
I0
S'more'
p2155
I1
tp2156
a(I0
I1909
F0.375
S'full'
p2157
I1
tp2158
a(I0
I1909
F0.375
S'much'
p2159
I1
tp2160
a(I0
I1909
I0
S'more'
p2161
I1
tp2162
a(I0
I1958
I0
g1303
I1
tp2163
a(I0
I2098
F-0.5
S'long'
p2164
I1
tp2165
a(I0
I2289
F0.125
S'mobile'
p2166
I1
tp2167
a(I0
I2317
F0.125
g1256
I1
tp2168
a(I0
I2317
F-0.75
g1258
I1
tp2169
a(I0
I2391
F0.5
g1310
I1
tp2170
a(I0
I2455
F-0.5
S'long'
p2171
I1
tp2172
a(I0
I2538
F0.375
S'much'
p2173
I1
tp2174
a(I0
I2584
F0.375
S'much'
p2175
I1
tp2176
a(I0
I2983
F-0.5
S'long'
p2177
I1
tp2178
a(I0
I2983
F0.375
S'full'
p2179
I1
tp2180
a(I0
I3060
F0.375
S'much'
p2181
I1
tp2182
a(I0
I3064
F0.375
g1268
I1
tp2183
a(I0
I3353
I0
S'more'
p2184
I1
tp2185
a(I0
I3353
F0.125
S'mobile'
p2186
I1
tp2187
a(I0
I3429
F-0.5
g1272
I1
tp2188
a(I0
I3434
I0
S'more'
p2189
I1
tp2190
a(I0
I3434
F0.375
S'available'
p2191
I1
tp2192
a(I0
I3779
F0.375
S'much'
p2193
I1
tp2194
a(I0
I3874
F1.0
g1323
I1
tp2195
a(I0
I3874
F-0.25
g1325
I1
tp2196
a(I0
I3890
F-0.5
S'long'
p2197
I1
tp2198
a(I0
I4106
F-0.5
S'long'
p2199
I1
tp2200
a(I0
I4292
I0
S'more'
p2201
I1
tp2202
a(I0
I4469
F0.375
S'much'
p2203
I1
tp2204
as(S'hours'
p2205
S'to'
p2206
S'charge'
p2207
tp2208
(lp2209
(I0
I253
I0
S'more'
p2210
I0
tp2211
a(I0
I1008
F0.375
S'full'
p2212
I0
tp2213
a(I0
I1098
I0
S'more'
p2214
I0
tp2215
a(I0
I1100
I0
S'more'
p2216
I0
tp2217
a(I0
I1714
F0.375
g2153
I0
tp2218
a(I0
I2088
F0.375
S'full'
p2219
I0
tp2220
a(I0
I2360
I0
S't'
p2221
I0
tp2222
a(I0
I2391
I0
S'few'
p2223
I0
tp2224
a(I0
I2865
F0.375
S'full'
p2225
I0
tp2226
a(I0
I2991
F0.375
S'full'
p2227
I0
tp2228
a(I0
I3122
I0
S'more'
p2229
I0
tp2230
a(I0
I3676
F0.375
S'full'
p2231
I0
tp2232
a(I0
I253
I0
g2210
I14
tp2233
a(I0
I504
F-0.5
S'continuous'
p2234
I14
tp2235
a(I0
I874
I0
S'few'
p2236
I14
tp2237
a(I0
I1098
I0
g2214
I14
tp2238
a(I0
I1100
I0
g2216
I14
tp2239
a(I0
I2391
I0
g2223
I14
tp2240
a(I0
I2879
I0
S'least'
p2241
I14
tp2242
a(I0
I3122
I0
g2229
I14
tp2243
a(I0
I3921
I0
S'many'
p2244
I14
tp2245
as(S'long'
p2246
S'time'
p2247
tp2248
(lp2249
(I0
I404
F-0.5
S'long'
p2250
I5
tp2251
a(I0
I511
F-0.5
g2132
I5
tp2252
a(I0
I960
F-0.5
g2143
I5
tp2253
a(I0
I1696
F-0.5
g2149
I5
tp2254
a(I0
I1705
F-0.5
g1254
I5
tp2255
a(I0
I1863
F-0.5
g1301
I5
tp2256
a(I0
I2084
F-0.5
g1305
I5
tp2257
a(I0
I2098
F-0.5
g2164
I5
tp2258
a(I0
I2455
F-0.5
g2171
I5
tp2259
a(I0
I2983
F-0.5
g2177
I5
tp2260
a(I0
I2983
F0.375
g2179
I5
tp2261
a(I0
I3028
F-0.5
S'long'
p2262
I5
tp2263
a(I0
I3278
F-0.5
g1319
I5
tp2264
a(I0
I3364
I0
S'only'
p2265
I5
tp2266
a(I0
I3364
F-0.5
S'long'
p2267
I5
tp2268
a(I0
I3429
F-0.5
g1272
I5
tp2269
a(I0
I3890
F-0.5
g2197
I5
tp2270
a(I0
I4106
F-0.5
g2199
I5
tp2271
a(I0
I4477
F0.375
g1282
I5
tp2272
as(S'slow'
p2273
tp2274
(lp2275
(I0
I3966
F0.625
S'super'
p2276
I17
tp2277
as(S'camera'
p2278
S'quality'
p2279
S'very'
p2280
tp2281
(lp2282
(I0
I344
I0
S'main'
p2283
I0
tp2284
a(I0
I424
I0
S'rear'
p2285
I0
tp2286
a(I0
I424
F0.5
g2102
I0
tp2287
a(I0
I578
F1.0
g788
I0
tp2288
a(I0
I578
F1.0
g790
I0
tp2289
a(I0
I578
F0.25
g792
I0
tp2290
a(I0
I578
F1.0
g794
I0
tp2291
a(I0
I655
F-0.875
g796
I0
tp2292
a(I0
I655
F-0.125
g798
I0
tp2293
a(I0
I1328
F1.0
S'good'
p2294
I0
tp2295
a(I0
I1711
F1.0
g814
I0
tp2296
a(I0
I1711
F-1.0
g816
I0
tp2297
a(I0
I1798
F1.0
g818
I0
tp2298
a(I0
I1980
F-1.0
g1773
I0
tp2299
a(I0
I1980
F-1.0
S'bad'
p2300
I0
tp2301
a(I0
I2085
F0.5
g820
I0
tp2302
a(I0
I2085
I0
g822
I0
tp2303
a(I0
I2163
F-1.0
g824
I0
tp2304
a(I0
I2308
F-0.875
S'poor'
p2305
I0
tp2306
a(I0
I2308
I0
S'rear'
p2307
I0
tp2308
a(I0
I2308
F0.375
S'much'
p2309
I0
tp2310
a(I0
I2308
I0
S'rear'
p2311
I0
tp2312
a(I0
I2308
F0.75
S'due'
p2313
I0
tp2314
a(I0
I2317
F0.75
g828
I0
tp2315
a(I0
I2373
F-0.875
g830
I0
tp2316
a(I0
I2387
F-1.0
g832
I0
tp2317
a(I0
I2391
F1.0
g834
I0
tp2318
a(I0
I2433
F-1.0
g1776
I0
tp2319
a(I0
I2499
F1.0
g836
I0
tp2320
a(I0
I2500
F-1.0
S'bad'
p2321
I0
tp2322
a(I0
I2611
F-0.875
S'poor'
p2323
I0
tp2324
a(I0
I2886
F1.0
S'better'
p2325
I0
tp2326
a(I0
I2893
F-0.875
g1788
I0
tp2327
a(I0
I2893
F-1.0
g1790
I0
tp2328
a(I0
I2948
F0.75
g1403
I0
tp2329
a(I0
I2948
F-0.875
S'poor'
p2330
I0
tp2331
a(I0
I3228
F-0.625
g1405
I0
tp2332
a(I0
I3324
F-0.625
g849
I0
tp2333
a(I0
I3324
F-1.0
g851
I0
tp2334
a(I0
I3376
F-0.875
S'poor'
p2335
I0
tp2336
a(I0
I3435
F-1.0
g853
I0
tp2337
a(I0
I3579
F-1.0
g1793
I0
tp2338
a(I0
I3579
F-1.0
g1410
I0
tp2339
a(I0
I3662
F1.0
g316
I0
tp2340
a(I0
I3728
F-0.875
g858
I0
tp2341
a(I0
I4066
F1.0
g1412
I0
tp2342
a(I0
I4301
F1.0
g1414
I0
tp2343
a(I0
I4313
F-0.875
g871
I0
tp2344
a(I0
I4470
F-1.0
S'bad'
p2345
I0
tp2346
a(I0
I4470
F0.5
S'similar'
p2347
I0
tp2348
a(I0
I4542
F-0.875
g879
I0
tp2349
a(I0
I4542
I0
g336
I0
tp2350
a(I0
I4542
F-0.125
g338
I0
tp2351
a(I0
I4600
I0
g1418
I0
tp2352
a(I0
I4767
I0
g1799
I0
tp2353
a(I0
I4767
F1.0
g1801
I0
tp2354
a(I0
I4789
F0.75
g1420
I0
tp2355
a(I0
I4819
F-0.875
g1803
I0
tp2356
as(S'quality'
p2357
S'not'
p2358
S'good'
p2359
tp2360
(lp2361
(I0
I481
F1.0
S'good'
p2362
I0
tp2363
a(I0
I758
F1.0
S'best'
p2364
I0
tp2365
a(I0
I889
F1.0
S'good'
p2366
I0
tp2367
a(I0
I1040
F1.0
S'good'
p2368
I0
tp2369
a(I0
I1472
F1.0
S'good'
p2370
I0
tp2371
a(I0
I1711
I0
g1156
I0
tp2372
a(I0
I1723
F1.0
S'good'
p2373
I0
tp2374
a(I0
I2085
I0
g822
I0
tp2375
a(I0
I2143
F1.0
g1528
I0
tp2376
a(I0
I2165
F1.0
S'good'
p2377
I0
tp2378
a(I0
I2387
F-1.0
g832
I0
tp2379
a(I0
I2391
F1.0
g834
I0
tp2380
a(I0
I2499
F1.0
g836
I0
tp2381
a(I0
I2825
F0.125
S'piece'
p2382
I0
tp2383
a(I0
I2825
F0.875
S'solid'
p2384
I0
tp2385
a(I0
I2933
F0.625
g838
I0
tp2386
a(I0
I2933
I-100
S'goodpoor'
p2387
I0
tp2388
a(I0
I2948
F0.75
g1403
I0
tp2389
a(I0
I2956
F1.0
S'good'
p2390
I0
tp2391
a(I0
I3324
F-0.625
g849
I0
tp2392
a(I0
I3458
F1.0
S'good'
p2393
I0
tp2394
a(I0
I3458
I-100
S'nightcamera'
p2395
I0
tp2396
a(I0
I3465
I0
S'cam'
p2397
I0
tp2398
a(I0
I3465
F1.0
S'good'
p2399
I0
tp2400
a(I0
I3829
F-0.625
g864
I0
tp2401
a(I0
I4043
F1.0
S'good'
p2402
I0
tp2403
a(I0
I4153
F1.0
S'good'
p2404
I0
tp2405
a(I0
I4156
F1.0
S'good'
p2406
I0
tp2407
a(I0
I4313
F-0.875
g871
I0
tp2408
a(I0
I4356
F0.75
g1556
I0
tp2409
a(I0
I4356
F1.0
g1558
I0
tp2410
a(I0
I4369
F1.0
g873
I0
tp2411
a(I0
I4600
I0
g1418
I0
tp2412
a(I0
I4789
F0.75
g1420
I0
tp2413
a(I0
I4789
I-100
S'poorcamera'
p2414
I0
tp2415
as(S'camera'
p2416
S'picture'
p2417
S'quality'
p2418
tp2419
(lp2420
(I0
I85
F1.0
S'good'
p2421
I1
tp2422
a(I0
I558
F-0.75
g782
I1
tp2423
a(I0
I558
F-0.5
g784
I1
tp2424
a(I0
I1487
F-0.125
S'back'
p2425
I1
tp2426
a(I0
I1718
F1.0
S'best'
p2427
I1
tp2428
a(I0
I2308
F-0.875
g2305
I1
tp2429
a(I0
I2308
I0
g2307
I1
tp2430
a(I0
I2308
F0.375
g2309
I1
tp2431
a(I0
I2308
I0
g2311
I1
tp2432
a(I0
I2308
F-0.875
S'poor'
p2433
I1
tp2434
a(I0
I2308
F0.75
g2313
I1
tp2435
a(I0
I2503
F1.0
S'good'
p2436
I1
tp2437
a(I0
I3495
F1.0
S'good'
p2438
I1
tp2439
a(I0
I3728
F-0.875
g858
I1
tp2440
a(I0
I4369
F1.0
g873
I1
tp2441
a(I0
I4776
F0.75
S'perfect'
p2442
I1
tp2443
as(S'non'
p2444
S'removable'
p2445
S'battery'
p2446
tp2447
(lp2448
(I0
I670
I0
S'quick'
p2449
I0
tp2450
a(I0
I2720
F0.625
S'removable'
p2451
I0
tp2452
a(I0
I2819
F0.625
S'removable'
p2453
I0
tp2454
a(I0
I2981
F0.625
S'removable'
p2455
I0
tp2456
a(I0
I4160
F-0.625
S'non'
p2457
I0
tp2458
a(I0
I4357
F0.625
S'removable'
p2459
I0
tp2460
as(S'good'
p2461
S'finger'
p2462
S'print'
p2463
tp2464
(lp2465
(I0
I971
F-0.625
S'fast'
p2466
I0
tp2467
a(I0
I1515
F1.0
g1841
I0
tp2468
a(I0
I1645
I0
S'finger'
p2469
I0
tp2470
a(I0
I1711
I0
g1156
I0
tp2471
a(I0
I1713
F1.0
S'good'
p2472
I0
tp2473
a(I0
I2482
I0
S'finger'
p2474
I0
tp2475
a(I0
I2564
I0
S'finger'
p2476
I0
tp2477
a(I0
I2978
I0
S'finger'
p2478
I0
tp2479
a(I0
I2978
F1.0
S'good'
p2480
I0
tp2481
a(I0
I3403
F1.0
S'good'
p2482
I0
tp2483
a(I0
I3430
F1.0
S'good'
p2484
I0
tp2485
a(I0
I4112
F1.0
S'good'
p2486
I0
tp2487
a(I0
I4429
F0.875
S'superb'
p2488
I0
tp2489
a(I0
I4476
F0.125
S'outdoor'
p2490
I0
tp2491
a(I0
I748
I0
S'finger'
p2492
I0
tp2493
a(I0
I971
F-0.625
g2466
I0
tp2494
a(I0
I1320
I0
g1837
I0
tp2495
a(I0
I1515
F1.0
g1841
I0
tp2496
a(I0
I1645
I0
g2469
I0
tp2497
a(I0
I1713
F1.0
g2472
I0
tp2498
a(I0
I2004
F-0.625
g1853
I0
tp2499
a(I0
I2244
I0
g1857
I0
tp2500
a(I0
I2482
I0
g2474
I0
tp2501
a(I0
I2564
I0
g2476
I0
tp2502
a(I0
I2938
I0
S'finger'
p2503
I0
tp2504
a(I0
I2978
I0
g2478
I0
tp2505
a(I0
I2978
F1.0
g2480
I0
tp2506
a(I0
I3403
F1.0
g2482
I0
tp2507
a(I0
I3430
F1.0
g2484
I0
tp2508
a(I0
I3715
F0.625
g1863
I0
tp2509
a(I0
I4112
F1.0
g2486
I0
tp2510
a(I0
I4429
F0.875
g2488
I0
tp2511
a(I0
I4476
F0.125
g2490
I0
tp2512
a(I0
I748
I0
g2492
I1
tp2513
a(I0
I1320
I0
g1837
I1
tp2514
a(I0
I1645
I0
g2469
I1
tp2515
a(I0
I2244
I0
g1857
I1
tp2516
a(I0
I2482
I0
g2474
I1
tp2517
a(I0
I2564
I0
g2476
I1
tp2518
a(I0
I2938
I0
g2503
I1
tp2519
a(I0
I2978
I0
g2478
I1
tp2520
a(I0
I2978
F1.0
g2480
I1
tp2521
a(I0
I3403
F1.0
g2482
I1
tp2522
a(I0
I3435
F0.25
S'ginger'
p2523
I1
tp2524
a(I0
I4429
F0.875
g2488
I1
tp2525
a(I0
I971
F-0.625
g2466
I0
tp2526
a(I0
I1515
F1.0
g1841
I0
tp2527
a(I0
I1713
F1.0
g2472
I0
tp2528
a(I0
I2004
F-0.625
g1853
I0
tp2529
a(I0
I3430
F1.0
g2484
I0
tp2530
a(I0
I3715
F0.625
g1863
I0
tp2531
a(I0
I4112
F1.0
g2486
I0
tp2532
a(I0
I4335
F0.5
S'touch'
p2533
I0
tp2534
a(I0
I4476
F0.125
g2490
I0
tp2535
a(I0
I4760
I-100
S'nicewonderful'
p2536
I0
tp2537
as(S'tempered'
p2538
S'glass'
p2539
tp2540
(lp2541
(I0
I1457
I0
S'tempered'
p2542
I2
tp2543
a(I0
I1553
I0
S'tempered'
p2544
I2
tp2545
as(S'fine'
p2546
tp2547
(lp2548
(I0
I3054
F1.0
S'good'
p2549
I15
tp2550
as(S'back'
p2551
S'camera'
p2552
tp2553
(lp2554
(I0
I422
F-0.125
g264
I0
tp2555
a(I0
I452
F-0.625
g778
I0
tp2556
a(I0
I549
F-0.125
g266
I0
tp2557
a(I0
I572
F-0.125
S'back'
p2558
I0
tp2559
a(I0
I577
F1.0
g786
I0
tp2560
a(I0
I776
F1.0
S'good'
p2561
I0
tp2562
a(I0
I971
F0.625
g270
I0
tp2563
a(I0
I1487
F-0.125
g2425
I0
tp2564
a(I0
I1941
F1.0
g280
I0
tp2565
a(I0
I1941
I0
g282
I0
tp2566
a(I0
I2366
F1.0
g284
I0
tp2567
a(I0
I2366
F-0.125
g286
I0
tp2568
a(I0
I2652
F0.5
S'touch'
p2569
I0
tp2570
a(I0
I2797
I0
S'cool'
p2571
I0
tp2572
a(I0
I2797
F1.0
S'good'
p2573
I0
tp2574
a(I0
I2797
F1.0
S'good'
p2575
I0
tp2576
a(I0
I2878
F1.0
S'good'
p2577
I0
tp2578
a(I0
I2878
F-0.875
S'poor'
p2579
I0
tp2580
a(I0
I2908
F0.125
S'mobile'
p2581
I0
tp2582
a(I0
I2970
F1.0
S'good'
p2583
I0
tp2584
a(I0
I3064
F1.0
g306
I0
tp2585
a(I0
I3064
F-0.125
g308
I0
tp2586
a(I0
I3096
F0.5
g404
I0
tp2587
a(I0
I3184
F1.0
g310
I0
tp2588
a(I0
I3434
F1.0
S'good'
p2589
I0
tp2590
a(I0
I3665
I0
S'rear'
p2591
I0
tp2592
a(I0
I3665
F1.0
S'good'
p2593
I0
tp2594
a(I0
I3829
F-0.125
g318
I0
tp2595
a(I0
I3829
F1.0
g320
I0
tp2596
a(I0
I3829
I0
g322
I0
tp2597
a(I0
I3829
F-0.125
g324
I0
tp2598
a(I0
I3873
F-0.125
g326
I0
tp2599
a(I0
I3873
F0.875
g328
I0
tp2600
a(I0
I3927
F-0.625
S'average'
p2601
I0
tp2602
a(I0
I4179
F-0.875
g429
I0
tp2603
a(I0
I4336
F1.0
S'good'
p2604
I0
tp2605
a(I0
I4336
F1.0
S'good'
p2606
I0
tp2607
a(I0
I4519
F1.0
g877
I0
tp2608
a(I0
I4548
F1.0
g342
I0
tp2609
a(I0
I4767
I0
g1799
I0
tp2610
a(I0
I4767
F1.0
g1801
I0
tp2611
a(I0
I4811
F1.0
S'good'
p2612
I0
tp2613
a(I0
I4811
F-0.125
S'overall'
p2614
I0
tp2615
a(I0
I4811
F1.0
S'good'
p2616
I0
tp2617
as(S'good'
p2618
S'battery'
p2619
S'backup'
p2620
tp2621
(lp2622
(I0
I94
F1.0
S'good'
p2623
I0
tp2624
a(I0
I422
F1.0
S'good'
p2625
I0
tp2626
a(I0
I549
F0.875
S'great'
p2627
I0
tp2628
a(I0
I566
F1.0
S'good'
p2629
I0
tp2630
a(I0
I566
F1.0
S'good'
p2631
I0
tp2632
a(I0
I654
F1.0
S'good'
p2633
I0
tp2634
a(I0
I1234
F1.0
S'good'
p2635
I0
tp2636
a(I0
I1255
F1.0
g1248
I0
tp2637
a(I0
I1470
F1.0
S'good'
p2638
I0
tp2639
a(I0
I1714
F1.0
S'good'
p2640
I0
tp2641
a(I0
I1754
F1.0
S'good'
p2642
I0
tp2643
a(I0
I1893
F1.0
S'good'
p2644
I0
tp2645
a(I0
I1913
F1.0
S'good'
p2646
I0
tp2647
a(I0
I1941
F1.0
S'good'
p2648
I0
tp2649
a(I0
I2174
F1.0
S'good'
p2650
I0
tp2651
a(I0
I2260
F1.0
S'good'
p2652
I0
tp2653
a(I0
I2337
F1.0
S'good'
p2654
I0
tp2655
a(I0
I2374
F1.0
S'good'
p2656
I0
tp2657
a(I0
I2498
F1.0
S'good'
p2658
I0
tp2659
a(I0
I2676
F1.0
S'good'
p2660
I0
tp2661
a(I0
I2676
F1.0
S'good'
p2662
I0
tp2663
a(I0
I2783
F1.0
S'good'
p2664
I0
tp2665
a(I0
I2808
F1.0
S'good'
p2666
I0
tp2667
a(I0
I3288
F1.0
S'good'
p2668
I0
tp2669
a(I0
I3364
F-0.375
g1162
I0
tp2670
a(I0
I3421
F0.625
S'super'
p2671
I0
tp2672
a(I0
I3454
F1.0
S'good'
p2673
I0
tp2674
a(I0
I3482
F-0.875
S'poor'
p2675
I0
tp2676
a(I0
I3665
F0.375
S'full'
p2677
I0
tp2678
a(I0
I3665
F-0.625
S'average'
p2679
I0
tp2680
a(I0
I4164
F-1.0
S'bad'
p2681
I0
tp2682
a(I0
I4313
F-0.5
S'slow'
p2683
I0
tp2684
a(I0
I4661
F-0.5
S'dissatisfied'
p2685
I0
tp2686
a(I0
I4663
F-0.625
S'average'
p2687
I0
tp2688
a(I0
I4663
F1.0
S'good'
p2689
I0
tp2690
a(I0
I4753
F-0.875
S'poor'
p2691
I0
tp2692
a(I0
I4853
F-0.5
S'less'
p2693
I0
tp2694
a(I0
I94
F1.0
g2623
I0
tp2695
a(I0
I422
F1.0
g2625
I0
tp2696
a(I0
I549
F0.875
g2627
I0
tp2697
a(I0
I566
F1.0
g2629
I0
tp2698
a(I0
I566
F1.0
g2631
I0
tp2699
a(I0
I654
F1.0
g2633
I0
tp2700
a(I0
I1234
F1.0
g2635
I0
tp2701
a(I0
I1255
F1.0
g1248
I0
tp2702
a(I0
I1470
I-100
S'hours3'
p2703
I0
tp2704
a(I0
I1470
F1.0
g2638
I0
tp2705
a(I0
I1714
F1.0
g2640
I0
tp2706
a(I0
I1754
F1.0
g2642
I0
tp2707
a(I0
I1893
F1.0
g2644
I0
tp2708
a(I0
I1893
I-100
S'fastbattery'
p2709
I0
tp2710
a(I0
I1913
F1.0
g2646
I0
tp2711
a(I0
I1941
F1.0
g2648
I0
tp2712
a(I0
I2174
F1.0
g2650
I0
tp2713
a(I0
I2260
F1.0
g2652
I0
tp2714
a(I0
I2337
F1.0
g2654
I0
tp2715
a(I0
I2374
F1.0
g2656
I0
tp2716
a(I0
I2498
F1.0
g2658
I0
tp2717
a(I0
I2676
F1.0
g2660
I0
tp2718
a(I0
I2676
F1.0
g2662
I0
tp2719
a(I0
I2783
F1.0
g2664
I0
tp2720
a(I0
I2808
F1.0
g2666
I0
tp2721
a(I0
I3064
I-100
S'awesomebattery'
p2722
I0
tp2723
a(I0
I3288
F1.0
g2668
I0
tp2724
a(I0
I3364
F-0.375
g1162
I0
tp2725
a(I0
I3421
F0.625
g2671
I0
tp2726
a(I0
I3454
F1.0
g2673
I0
tp2727
a(I0
I3482
F-0.875
g2675
I0
tp2728
a(I0
I3558
I-100
S'moneysuper'
p2729
I0
tp2730
a(I0
I3665
F0.375
g2677
I0
tp2731
a(I0
I3665
F-0.625
g2679
I0
tp2732
a(I0
I4164
F-1.0
g2681
I0
tp2733
a(I0
I4313
F-0.5
g2683
I0
tp2734
a(I0
I4661
F-0.5
g2685
I0
tp2735
a(I0
I4663
F-0.625
g2687
I0
tp2736
a(I0
I4663
F1.0
g2689
I0
tp2737
a(I0
I4753
F-0.875
g2691
I0
tp2738
a(I0
I4853
F-0.5
g2693
I0
tp2739
as(S'battery'
p2740
S'life'
p2741
S'good'
p2742
tp2743
(lp2744
(I0
I6
F-0.5
S'less'
p2745
I0
tp2746
a(I0
I85
F1.0
S'good'
p2747
I0
tp2748
a(I0
I275
F1.0
S'good'
p2749
I0
tp2750
a(I0
I413
F1.0
S'good'
p2751
I0
tp2752
a(I0
I450
F1.0
S'good'
p2753
I0
tp2754
a(I0
I529
F-0.5
S'extra'
p2755
I0
tp2756
a(I0
I540
F-0.5
S'slow'
p2757
I0
tp2758
a(I0
I540
F1.0
S'good'
p2759
I0
tp2760
a(I0
I2387
F-1.0
g1354
I0
tp2761
a(I0
I2472
F-0.25
S'battery'
p2762
I0
tp2763
a(I0
I2648
F-0.25
S'battery'
p2764
I0
tp2765
a(I0
I2715
I-100
S'awesomegood'
p2766
I0
tp2767
a(I0
I3141
I-100
S'in1'
p2768
I0
tp2769
a(I0
I3268
F1.0
S'good'
p2770
I0
tp2771
a(I0
I3284
F1.0
S'good'
p2772
I0
tp2773
a(I0
I3494
F1.0
S'good'
p2774
I0
tp2775
a(I0
I3878
I-100
S'expectedbattery'
p2776
I0
tp2777
a(I0
I3878
F-0.875
S'poor'
p2778
I0
tp2779
a(I0
I4147
F1.0
S'good'
p2780
I0
tp2781
a(I0
I4306
F-0.75
S'short'
p2782
I0
tp2783
a(I0
I6
F-0.5
g2745
I3
tp2784
a(I0
I85
F1.0
g2747
I3
tp2785
a(I0
I275
F1.0
g2749
I3
tp2786
a(I0
I413
F1.0
g2751
I3
tp2787
a(I0
I450
F1.0
g2753
I3
tp2788
a(I0
I529
F-0.5
g2755
I3
tp2789
a(I0
I533
F-0.5
S'long'
p2790
I3
tp2791
a(I0
I540
F-0.5
g2757
I3
tp2792
a(I0
I540
F1.0
g2759
I3
tp2793
a(I0
I1856
F-1.0
S'bad'
p2794
I3
tp2795
a(I0
I1973
F1.0
S'excellent'
p2796
I3
tp2797
a(I0
I2387
F-1.0
g1354
I3
tp2798
a(I0
I2472
F-0.25
g2762
I3
tp2799
a(I0
I2495
F0.875
S'great'
p2800
I3
tp2801
a(I0
I2495
F1.0
S'excellent'
p2802
I3
tp2803
a(I0
I2648
F-0.25
g2764
I3
tp2804
a(I0
I3268
F1.0
g2770
I3
tp2805
a(I0
I3284
F1.0
g2772
I3
tp2806
a(I0
I3494
F1.0
g2774
I3
tp2807
a(I0
I3878
F-0.875
g2778
I3
tp2808
a(I0
I4033
F-0.25
S'battery'
p2809
I3
tp2810
a(I0
I4147
F1.0
g2780
I3
tp2811
a(I0
I4306
F-0.75
g2782
I3
tp2812
a(I0
I4529
I0
S'descent'
p2813
I3
tp2814
a(I0
I4534
F-0.875
S'poor'
p2815
I3
tp2816
a(I0
I85
F1.0
g2747
I8
tp2817
a(I0
I275
F1.0
g2749
I8
tp2818
a(I0
I413
F1.0
g2751
I8
tp2819
a(I0
I529
F-0.5
g2755
I8
tp2820
a(I0
I1581
F-0.5
S'long'
p2821
I8
tp2822
a(I0
I1973
F1.0
g2796
I8
tp2823
a(I0
I2472
F-0.25
g2762
I8
tp2824
a(I0
I2495
F1.0
g2802
I8
tp2825
a(I0
I2648
F-0.25
g2764
I8
tp2826
a(I0
I3268
F1.0
g2770
I8
tp2827
a(I0
I3494
F1.0
g2774
I8
tp2828
a(I0
I3878
F-0.875
g2778
I8
tp2829
a(I0
I4033
F-0.25
g2809
I8
tp2830
a(I0
I4306
F-0.75
g2782
I8
tp2831
a(I0
I4529
I0
g2813
I8
tp2832
as(S'for'
p2833
S'price'
p2834
S'range'
p2835
tp2836
(lp2837
(I0
I1088
I0
g6
I0
tp2838
a(I0
I1741
I0
S't'
p2839
I0
tp2840
a(I0
I1893
F1.0
g8
I0
tp2841
a(I0
I3751
F1.0
g18
I0
tp2842
a(I0
I3829
F-0.125
g20
I0
tp2843
a(I0
I3829
F-0.875
g22
I0
tp2844
a(I0
I4853
F0.125
g28
I0
tp2845
as(S'2500'
p2846
S'mah'
p2847
S'battery'
p2848
tp2849
(lp2850
(I0
I670
I0
g2449
I0
tp2851
a(I0
I1383
F-0.5
S'heavy'
p2852
I0
tp2853
a(I0
I1754
F1.0
g2642
I0
tp2854
a(I0
I1881
F1.0
S'good'
p2855
I0
tp2856
a(I0
I2819
F0.625
g2453
I0
tp2857
a(I0
I4004
I-100
S'good2500'
p2858
I0
tp2859
a(I0
I4004
F0.125
g1276
I0
tp2860
a(I0
I2076
F0.875
S'great'
p2861
I0
tp2862
as(S'very'
p2863
S'nice'
p2864
S'mobile'
p2865
tp2866
(lp2867
(I0
I2817
F0.875
S'nice'
p2868
I2
tp2869
a(I0
I2854
F0.875
S'nice'
p2870
I2
tp2871
a(I0
I3129
F0.875
S'nice'
p2872
I2
tp2873
a(I0
I3152
F1.0
S'good'
p2874
I2
tp2875
a(I0
I3479
F1.0
S'good'
p2876
I2
tp2877
a(I0
I3506
F0.875
S'nice'
p2878
I2
tp2879
a(I0
I3530
F0.125
S'mobile'
p2880
I2
tp2881
a(I0
I3784
F1.0
S'good'
p2882
I2
tp2883
a(I0
I4553
F0.875
S'nice'
p2884
I2
tp2885
a(I0
I4749
F0.875
S'nice'
p2886
I2
tp2887
a(I0
I4749
F-0.375
S'various'
p2888
I2
tp2889
a(I0
I4749
F0.5
S'expensive'
p2890
I2
tp2891
a(I0
I4782
F1.0
g1467
I2
tp2892
a(I0
I4835
F0.875
S'nice'
p2893
I2
tp2894
a(I0
I4867
F1.0
S'good'
p2895
I2
tp2896
a(I0
I4867
I0
S'lite'
p2897
I2
tp2898
a(I0
I4867
I0
S'hot'
p2899
I2
tp2900
a(I0
I1963
F-0.25
S'latest'
p2901
I3
tp2902
a(I0
I2817
F0.875
g2868
I3
tp2903
a(I0
I2854
F0.875
g2870
I3
tp2904
a(I0
I3129
F0.875
g2872
I3
tp2905
a(I0
I3152
F1.0
g2874
I3
tp2906
a(I0
I3479
F1.0
g2876
I3
tp2907
a(I0
I3506
F0.875
g2878
I3
tp2908
a(I0
I3530
F0.125
g2880
I3
tp2909
a(I0
I3580
F1.0
g1461
I3
tp2910
a(I0
I3580
F0.125
g1463
I3
tp2911
a(I0
I3784
F1.0
g2882
I3
tp2912
a(I0
I4553
F0.875
g2884
I3
tp2913
a(I0
I4605
F-0.125
S'such'
p2914
I3
tp2915
a(I0
I4605
F-0.625
S'other'
p2916
I3
tp2917
a(I0
I4749
F0.875
g2886
I3
tp2918
a(I0
I4749
F-0.375
g2888
I3
tp2919
a(I0
I4749
F0.5
g2890
I3
tp2920
a(I0
I4782
F1.0
g1467
I3
tp2921
a(I0
I4835
F0.875
g2893
I3
tp2922
a(I0
I4867
F1.0
g2895
I3
tp2923
a(I0
I4867
I0
g2897
I3
tp2924
a(I0
I4867
I0
g2899
I3
tp2925
as(S'thanks'
p2926
tp2927
(lp2928
(I0
I925
F-0.625
S'quite'
p2929
I7
tp2930
a(I0
I925
F-0.625
S'fast'
p2931
I7
tp2932
a(I0
I2637
I-100
S'thankyou'
p2933
I7
tp2934
a(I0
I3327
F0.875
S'happy'
p2935
I7
tp2936
a(I0
I3514
F0.875
S'nice'
p2937
I7
tp2938
a(I0
I3518
F0.375
S'much'
p2939
I7
tp2940
as(S'finger'
p2941
S'print'
p2942
S'sensor'
p2943
tp2944
(lp2945
(I0
I340
F0.375
g555
I0
tp2946
a(I0
I340
F0.75
g557
I0
tp2947
a(I0
I726
F1.0
g494
I0
tp2948
a(I0
I748
I0
g2492
I0
tp2949
a(I0
I971
F-0.625
g2466
I0
tp2950
a(I0
I971
F1.0
g499
I0
tp2951
a(I0
I1008
F1.0
g503
I0
tp2952
a(I0
I1467
F1.0
g566
I0
tp2953
a(I0
I1645
I0
g2469
I0
tp2954
a(I0
I1713
F1.0
g2472
I0
tp2955
a(I0
I1893
F0.125
g505
I0
tp2956
a(I0
I1901
F1.0
g507
I0
tp2957
a(I0
I1912
F0.625
g509
I0
tp2958
a(I0
I1930
F0.5
g511
I0
tp2959
a(I0
I1934
F1.0
g572
I0
tp2960
a(I0
I1975
I-100
S'phenomenol'
p2961
I0
tp2962
a(I0
I2038
F0.75
g574
I0
tp2963
a(I0
I2154
F0.5
g576
I0
tp2964
a(I0
I2315
F0.875
g517
I0
tp2965
a(I0
I2393
F0.875
g519
I0
tp2966
a(I0
I2438
F-0.625
g521
I0
tp2967
a(I0
I2475
F0.875
g523
I0
tp2968
a(I0
I2482
I0
g2474
I0
tp2969
a(I0
I2544
F0.875
g584
I0
tp2970
a(I0
I2564
I0
g2476
I0
tp2971
a(I0
I2617
F-0.625
g531
I0
tp2972
a(I0
I2695
F0.875
g587
I0
tp2973
a(I0
I3060
F-0.125
g535
I0
tp2974
a(I0
I3430
F1.0
g2484
I0
tp2975
a(I0
I3802
F1.0
g537
I0
tp2976
a(I0
I4112
F1.0
g2486
I0
tp2977
a(I0
I4112
F0.625
g603
I0
tp2978
a(I0
I4429
F0.875
g2488
I0
tp2979
a(I0
I4531
I0
g605
I0
tp2980
a(I0
I4612
I-100
S'oktouch'
p2981
I0
tp2982
a(I0
I340
F0.375
g555
I0
tp2983
a(I0
I340
F0.75
g557
I0
tp2984
a(I0
I585
F0.875
g559
I0
tp2985
a(I0
I726
F1.0
g494
I0
tp2986
a(I0
I748
I0
g2492
I0
tp2987
a(I0
I971
F1.0
g499
I0
tp2988
a(I0
I1008
F1.0
g503
I0
tp2989
a(I0
I1466
F1.0
g564
I0
tp2990
a(I0
I1467
F1.0
g566
I0
tp2991
a(I0
I1645
I0
g2469
I0
tp2992
a(I0
I1893
F0.125
g505
I0
tp2993
a(I0
I1901
F1.0
g507
I0
tp2994
a(I0
I1912
F0.625
g509
I0
tp2995
a(I0
I1930
F0.5
g511
I0
tp2996
a(I0
I1934
F1.0
g572
I0
tp2997
a(I0
I2038
F0.75
g574
I0
tp2998
a(I0
I2154
F0.5
g576
I0
tp2999
a(I0
I2315
F0.875
g517
I0
tp3000
a(I0
I2393
F0.875
g519
I0
tp3001
a(I0
I2438
F-0.625
g521
I0
tp3002
a(I0
I2475
F0.875
g523
I0
tp3003
a(I0
I2482
I0
g2474
I0
tp3004
a(I0
I2544
F0.875
g584
I0
tp3005
a(I0
I2564
I0
g2476
I0
tp3006
a(I0
I2617
F-0.625
g531
I0
tp3007
a(I0
I2695
F0.875
g587
I0
tp3008
a(I0
I3060
F-0.125
g535
I0
tp3009
a(I0
I3510
I-100
S'goodfingre'
p3010
I0
tp3011
a(I0
I3802
F1.0
g537
I0
tp3012
a(I0
I4112
F0.625
g603
I0
tp3013
a(I0
I4429
F0.875
g2488
I0
tp3014
a(I0
I4531
I0
g605
I0
tp3015
as(S'cool'
p3016
S'ui'
p3017
tp3018
(lp3019
(I0
I495
I0
S'cool'
p3020
I0
tp3021
a(I0
I543
F-0.625
S'other'
p3022
I0
tp3023
a(I0
I543
I-100
S'goodwould'
p3024
I0
tp3025
a(I0
I1840
F0.875
S'great'
p3026
I0
tp3027
a(I0
I1873
I0
S'cool'
p3028
I0
tp3029
a(I0
I1893
F1.0
S'good'
p3030
I0
tp3031
a(I0
I1893
F-0.25
S'i'
p3032
I0
tp3033
a(I0
I1997
I0
S'cool'
p3034
I0
tp3035
a(I0
I2005
F0.875
S'nice'
p3036
I0
tp3037
a(I0
I2005
F0.875
S'simple'
p3038
I0
tp3039
a(I0
I2005
F0.875
S'clean'
p3040
I0
tp3041
a(I0
I2361
F-0.875
S'limited'
p3042
I0
tp3043
a(I0
I2778
F0.875
S'awesome'
p3044
I0
tp3045
a(I0
I2940
F-0.625
S'sensitive'
p3046
I0
tp3047
a(I0
I2940
I0
S'cool'
p3048
I0
tp3049
a(I0
I3798
I0
S'cool'
p3050
I0
tp3051
a(I0
I3993
I0
S'straight'
p3052
I0
tp3053
a(I0
I4602
I0
S'cool'
p3054
I0
tp3055
a(I0
I1126
I0
S'cool'
p3056
I1
tp3057
a(I0
I2005
F0.875
g3036
I1
tp3058
a(I0
I2005
F0.875
g3038
I1
tp3059
a(I0
I2005
F0.875
g3040
I1
tp3060
a(I0
I2940
F-0.625
g3046
I1
tp3061
a(I0
I3354
I0
S's'
p3062
I1
tp3063
as(S'cool'
p3064
S'pad'
p3065
tp3066
(lp3067
(I0
I884
I0
S'cool'
p3068
I0
tp3069
a(I0
I1472
I0
S'cool'
p3070
I0
tp3071
a(I0
I2417
I0
S'cool'
p3072
I0
tp3073
a(I0
I2417
I0
S'lite'
p3074
I0
tp3075
a(I0
I2483
I0
S'cool'
p3076
I0
tp3077
a(I0
I2487
F0.375
S'satisfied'
p3078
I0
tp3079
a(I0
I2487
I0
S'cool'
p3080
I0
tp3081
a(I0
I2952
I0
S'cool'
p3082
I0
tp3083
a(I0
I3557
I0
S'cool'
p3084
I0
tp3085
a(I0
I3640
I0
S'cool'
p3086
I0
tp3087
a(I0
I4179
I-100
S'displaycool'
p3088
I0
tp3089
a(I0
I4188
I0
S'hot'
p3090
I0
tp3091
a(I0
I4606
I0
S'cool'
p3092
I0
tp3093
a(I0
I4867
I-100
S'usecool'
p3094
I0
tp3095
as(S'not'
p3096
S'good'
p3097
S'camera'
p3098
tp3099
(lp3100
(I0
I86
F1.0
S'good'
p3101
I0
tp3102
a(I0
I512
I0
S'rear'
p3103
I0
tp3104
a(I0
I832
I0
S'hot'
p3105
I0
tp3106
a(I0
I1041
F1.0
S'good'
p3107
I0
tp3108
a(I0
I1088
F1.0
S'good'
p3109
I0
tp3110
a(I0
I1325
F1.0
g272
I0
tp3111
a(I0
I1328
F1.0
g2294
I0
tp3112
a(I0
I1711
F1.0
g814
I0
tp3113
a(I0
I1711
F-1.0
g816
I0
tp3114
a(I0
I1711
I0
g1156
I0
tp3115
a(I0
I1741
F1.0
S'good'
p3116
I0
tp3117
a(I0
I1928
F1.0
S'good'
p3118
I0
tp3119
a(I0
I1963
F1.0
g1158
I0
tp3120
a(I0
I1963
F0.875
S'nice'
p3121
I0
tp3122
a(I0
I2033
F1.0
S'good'
p3123
I0
tp3124
a(I0
I2069
F1.0
S'good'
p3125
I0
tp3126
a(I0
I2083
F1.0
S'good'
p3127
I0
tp3128
a(I0
I2085
F0.5
g820
I0
tp3129
a(I0
I2182
F-0.625
S'useless'
p3130
I0
tp3131
a(I0
I2182
I0
S'incredible'
p3132
I0
tp3133
a(I0
I2288
F1.0
S'good'
p3134
I0
tp3135
a(I0
I2366
F1.0
g284
I0
tp3136
a(I0
I2366
F-0.125
g286
I0
tp3137
a(I0
I2368
F1.0
S'good'
p3138
I0
tp3139
a(I0
I2607
F1.0
S'good'
p3140
I0
tp3141
a(I0
I2691
F0.625
S'fools'
p3142
I0
tp3143
a(I0
I2741
F1.0
g1780
I0
tp3144
a(I0
I2754
F1.0
g1160
I0
tp3145
a(I0
I2754
F0.875
g1782
I0
tp3146
a(I0
I2754
I0
g1784
I0
tp3147
a(I0
I2754
F-0.625
g1786
I0
tp3148
a(I0
I2797
I0
g2571
I0
tp3149
a(I0
I2797
F1.0
g2573
I0
tp3150
a(I0
I2797
F1.0
g2575
I0
tp3151
a(I0
I2878
F1.0
g2577
I0
tp3152
a(I0
I2878
F-0.875
g2579
I0
tp3153
a(I0
I2948
F-0.875
g2330
I0
tp3154
a(I0
I3018
F1.0
S'good'
p3155
I0
tp3156
a(I0
I3064
F1.0
g306
I0
tp3157
a(I0
I3064
F-0.125
g308
I0
tp3158
a(I0
I3284
F1.0
S'good'
p3159
I0
tp3160
a(I0
I3321
F-1.0
S'bad'
p3161
I0
tp3162
a(I0
I3321
F1.0
S'good'
p3163
I0
tp3164
a(I0
I3324
F-1.0
g851
I0
tp3165
a(I0
I3373
F0.625
S'fine'
p3166
I0
tp3167
a(I0
I3373
F1.0
S'good'
p3168
I0
tp3169
a(I0
I3375
F1.0
S'good'
p3170
I0
tp3171
a(I0
I3434
F1.0
g2589
I0
tp3172
a(I0
I3458
F1.0
S'good'
p3173
I0
tp3174
a(I0
I3503
F1.0
S'good'
p3175
I0
tp3176
a(I0
I3607
F-0.25
g314
I0
tp3177
a(I0
I3665
I0
g2591
I0
tp3178
a(I0
I3665
F1.0
g2593
I0
tp3179
a(I0
I3738
F0.375
S'ok'
p3180
I0
tp3181
a(I0
I3738
F1.0
S'good'
p3182
I0
tp3183
a(I0
I3752
F1.0
S'good'
p3184
I0
tp3185
a(I0
I3829
F-0.125
g318
I0
tp3186
a(I0
I3829
F1.0
g320
I0
tp3187
a(I0
I3829
I0
g322
I0
tp3188
a(I0
I3829
F-0.125
g324
I0
tp3189
a(I0
I3873
F-0.125
g326
I0
tp3190
a(I0
I3873
F0.875
g328
I0
tp3191
a(I0
I3975
F1.0
S'good'
p3192
I0
tp3193
a(I0
I4095
I0
g330
I0
tp3194
a(I0
I4158
F1.0
S'good'
p3195
I0
tp3196
a(I0
I4168
F1.0
S'good'
p3197
I0
tp3198
a(I0
I4168
F1.0
S'good'
p3199
I0
tp3200
a(I0
I4201
F1.0
S'good'
p3201
I0
tp3202
a(I0
I4223
F0.875
S'decent'
p3203
I0
tp3204
a(I0
I4223
F1.0
S'good'
p3205
I0
tp3206
a(I0
I4251
F-0.125
g332
I0
tp3207
a(I0
I4336
F1.0
g2604
I0
tp3208
a(I0
I4336
F1.0
g2606
I0
tp3209
a(I0
I4354
F1.0
S'good'
p3210
I0
tp3211
a(I0
I4371
I0
S'grainy'
p3212
I0
tp3213
a(I0
I4371
F1.0
S'good'
p3214
I0
tp3215
a(I0
I4460
F1.0
S'better'
p3216
I0
tp3217
a(I0
I4460
F1.0
S'good'
p3218
I0
tp3219
a(I0
I4500
F-0.5
S'slow'
p3220
I0
tp3221
a(I0
I4637
I0
g1797
I0
tp3222
a(I0
I4767
I0
g1799
I0
tp3223
a(I0
I4767
F1.0
g1801
I0
tp3224
a(I0
I4811
F1.0
g2612
I0
tp3225
a(I0
I4811
F-0.125
g2614
I0
tp3226
a(I0
I4811
F1.0
g2616
I0
tp3227
a(I0
I86
F1.0
g3101
I1
tp3228
a(I0
I512
I0
g3103
I1
tp3229
a(I0
I832
I0
g3105
I1
tp3230
a(I0
I1041
F1.0
g3107
I1
tp3231
a(I0
I1088
F1.0
g3109
I1
tp3232
a(I0
I1325
F1.0
g272
I1
tp3233
a(I0
I1328
F1.0
g2294
I1
tp3234
a(I0
I1711
F1.0
g814
I1
tp3235
a(I0
I1711
F-1.0
g816
I1
tp3236
a(I0
I1711
I0
g1156
I1
tp3237
a(I0
I1741
F1.0
g3116
I1
tp3238
a(I0
I1767
I-100
S'goodfront'
p3239
I1
tp3240
a(I0
I1767
I-100
S'goodrear'
p3241
I1
tp3242
a(I0
I1893
I-100
S'averagefingerprint'
p3243
I1
tp3244
a(I0
I1928
F1.0
g3118
I1
tp3245
a(I0
I1963
F1.0
g1158
I1
tp3246
a(I0
I1963
F0.875
g3121
I1
tp3247
a(I0
I2033
F1.0
g3123
I1
tp3248
a(I0
I2069
F1.0
g3125
I1
tp3249
a(I0
I2083
F1.0
g3127
I1
tp3250
a(I0
I2085
F0.5
g820
I1
tp3251
a(I0
I2182
F-0.625
g3130
I1
tp3252
a(I0
I2182
I0
g3132
I1
tp3253
a(I0
I2288
F1.0
g3134
I1
tp3254
a(I0
I2366
F1.0
g284
I1
tp3255
a(I0
I2366
F-0.125
g286
I1
tp3256
a(I0
I2368
F1.0
g3138
I1
tp3257
a(I0
I2607
F1.0
g3140
I1
tp3258
a(I0
I2691
F0.625
g3142
I1
tp3259
a(I0
I2741
F1.0
g1780
I1
tp3260
a(I0
I2754
F1.0
g1160
I1
tp3261
a(I0
I2754
F0.875
g1782
I1
tp3262
a(I0
I2754
I0
g1784
I1
tp3263
a(I0
I2754
F-0.625
g1786
I1
tp3264
a(I0
I2797
I0
g2571
I1
tp3265
a(I0
I2797
F1.0
g2573
I1
tp3266
a(I0
I2797
F1.0
g2575
I1
tp3267
a(I0
I2878
F1.0
g2577
I1
tp3268
a(I0
I2878
F-0.875
g2579
I1
tp3269
a(I0
I2948
F-0.875
g2330
I1
tp3270
a(I0
I3018
F1.0
g3155
I1
tp3271
a(I0
I3060
I-100
S'goodb'
p3272
I1
tp3273
a(I0
I3064
F1.0
g306
I1
tp3274
a(I0
I3064
F-0.125
g308
I1
tp3275
a(I0
I3284
F1.0
g3159
I1
tp3276
a(I0
I3321
F-1.0
g3161
I1
tp3277
a(I0
I3321
F1.0
g3163
I1
tp3278
a(I0
I3324
I-100
S'alsothis'
p3279
I1
tp3280
a(I0
I3324
F-1.0
g851
I1
tp3281
a(I0
I3373
F0.625
g3166
I1
tp3282
a(I0
I3373
F1.0
g3168
I1
tp3283
a(I0
I3375
F1.0
g3170
I1
tp3284
a(I0
I3434
F1.0
g2589
I1
tp3285
a(I0
I3458
F1.0
g3173
I1
tp3286
a(I0
I3503
F1.0
g3175
I1
tp3287
a(I0
I3607
F-0.25
g314
I1
tp3288
a(I0
I3607
I-100
S'bestfront'
p3289
I1
tp3290
a(I0
I3665
I0
g2591
I1
tp3291
a(I0
I3665
F1.0
g2593
I1
tp3292
a(I0
I3738
F0.375
g3180
I1
tp3293
a(I0
I3738
F1.0
g3182
I1
tp3294
a(I0
I3752
F1.0
g3184
I1
tp3295
a(I0
I3829
F-0.125
g318
I1
tp3296
a(I0
I3829
F1.0
g320
I1
tp3297
a(I0
I3829
I-100
S'backalso'
p3298
I1
tp3299
a(I0
I3829
I0
g322
I1
tp3300
a(I0
I3829
I-100
S'imageinfact'
p3301
I1
tp3302
a(I0
I3829
F-0.125
g324
I1
tp3303
a(I0
I3873
F-0.125
g326
I1
tp3304
a(I0
I3873
F0.875
g328
I1
tp3305
a(I0
I3975
F1.0
g3192
I1
tp3306
a(I0
I4095
I0
g330
I1
tp3307
a(I0
I4158
F1.0
g3195
I1
tp3308
a(I0
I4168
F1.0
g3197
I1
tp3309
a(I0
I4168
F1.0
g3199
I1
tp3310
a(I0
I4201
F1.0
g3201
I1
tp3311
a(I0
I4223
F0.875
g3203
I1
tp3312
a(I0
I4223
F1.0
g3205
I1
tp3313
a(I0
I4247
I-100
S'hittingavg'
p3314
I1
tp3315
a(I0
I4251
F-0.125
g332
I1
tp3316
a(I0
I4336
F1.0
g2604
I1
tp3317
a(I0
I4336
F1.0
g2606
I1
tp3318
a(I0
I4354
F1.0
g3210
I1
tp3319
a(I0
I4371
I0
g3212
I1
tp3320
a(I0
I4371
F1.0
g3214
I1
tp3321
a(I0
I4460
F1.0
g3216
I1
tp3322
a(I0
I4460
F1.0
g3218
I1
tp3323
a(I0
I4500
F-0.5
g3220
I1
tp3324
a(I0
I4637
I0
g1797
I1
tp3325
a(I0
I4767
I0
g1799
I1
tp3326
a(I0
I4767
F1.0
g1801
I1
tp3327
a(I0
I4811
F1.0
g2612
I1
tp3328
a(I0
I4811
F-0.125
g2614
I1
tp3329
a(I0
I4811
F1.0
g2616
I1
tp3330
as(S'good'
p3331
S'for'
p3332
S'price'
p3333
tp3334
(lp3335
(I0
I26
F1.0
g1434
I0
tp3336
a(I0
I479
I0
g1934
I0
tp3337
a(I0
I971
F1.0
g1938
I0
tp3338
a(I0
I1088
I0
g6
I0
tp3339
a(I0
I1091
F1.0
S'good'
p3340
I0
tp3341
a(I0
I1659
F0.875
S'amazing'
p3342
I0
tp3343
a(I0
I1711
I0
g1156
I0
tp3344
a(I0
I1873
F0.125
g1942
I0
tp3345
a(I0
I1873
I0
g1944
I0
tp3346
a(I0
I1893
F1.0
g8
I0
tp3347
a(I0
I1963
F1.0
g1158
I0
tp3348
a(I0
I2643
I0
g1956
I0
tp3349
a(I0
I2741
F-0.375
g1960
I0
tp3350
a(I0
I2754
F1.0
g1160
I0
tp3351
a(I0
I3064
F-0.875
g1204
I0
tp3352
a(I0
I3244
F1.0
g1964
I0
tp3353
a(I0
I3275
F-0.875
g1210
I0
tp3354
a(I0
I3301
I0
g1966
I0
tp3355
a(I0
I3326
I0
S'affordable'
p3356
I0
tp3357
a(I0
I3494
F-0.875
g1214
I0
tp3358
a(I0
I3533
F0.875
g1974
I0
tp3359
a(I0
I3751
F1.0
g18
I0
tp3360
a(I0
I3829
F-0.125
g20
I0
tp3361
a(I0
I3878
F1.0
g1980
I0
tp3362
a(I0
I4247
I0
g1985
I0
tp3363
a(I0
I4247
F0.5
g1987
I0
tp3364
a(I0
I4376
F0.125
g1225
I0
tp3365
a(I0
I4460
F0.875
g1989
I0
tp3366
a(I0
I4460
F1.0
g1991
I0
tp3367
a(I0
I4568
F-0.875
g1229
I0
tp3368
a(I0
I4600
I0
g1431
I0
tp3369
a(I0
I4816
F0.875
g1994
I0
tp3370
as(S'speed'
p3371
tp3372
(lp3373
(I0
I26
F0.25
S'usable'
p3374
I14
tp3375
a(I0
I26
F0.25
S'read'
p3376
I14
tp3377
a(I0
I26
I0
S'write'
p3378
I14
tp3379
a(I0
I336
F0.375
S'available'
p3380
I14
tp3381
a(I0
I513
F0.875
S'superb'
p3382
I14
tp3383
a(I0
I747
I0
S'u'
p3384
I14
tp3385
a(I0
I765
F1.0
S'good'
p3386
I14
tp3387
a(I0
I841
F-0.5
S'unbelievable'
p3388
I14
tp3389
a(I0
I1991
F0.875
S'nice'
p3390
I14
tp3391
a(I0
I2154
F1.0
S'good'
p3392
I14
tp3393
a(I0
I2368
F0.375
S'ok'
p3394
I14
tp3395
a(I0
I2443
F-0.875
S'low'
p3396
I14
tp3397
a(I0
I2712
F0.875
S'awesome'
p3398
I14
tp3399
a(I0
I2764
F1.0
S'good'
p3400
I14
tp3401
a(I0
I3284
F1.0
S'good'
p3402
I14
tp3403
a(I0
I3332
F0.125
S'mobile'
p3404
I14
tp3405
a(I0
I4510
F1.0
S'excellent'
p3406
I14
tp3407
a(I0
I4510
F1.0
S'excellent'
p3408
I14
tp3409
a(I0
I4543
F-0.5
S'slow'
p3410
I14
tp3411
as(S'front'
p3412
S'and'
p3413
S'back'
p3414
tp3415
(lp3416
(I0
I3247
F-0.875
g407
I3
tp3417
a(I0
I4548
F-0.5
g340
I3
tp3418
a(I0
I4822
F-1.0
g439
I3
tp3419
as(S'to'
p3420
S'full'
p3421
S'charge'
p3422
tp3423
(lp3424
(I0
I526
F0.375
g2136
I0
tp3425
a(I0
I960
F0.375
g2145
I0
tp3426
a(I0
I1008
F0.375
g2212
I0
tp3427
a(I0
I1714
F0.375
g2153
I0
tp3428
a(I0
I1909
F0.375
g2157
I0
tp3429
a(I0
I2088
F0.375
g2219
I0
tp3430
a(I0
I2288
F-0.5
S'slow'
p3431
I0
tp3432
a(I0
I2288
F0.375
S'full'
p3433
I0
tp3434
a(I0
I2865
F0.375
g2225
I0
tp3435
a(I0
I2991
F0.375
g2227
I0
tp3436
a(I0
I3526
F0.375
S'full'
p3437
I0
tp3438
a(I0
I3676
F0.375
g2231
I0
tp3439
a(I0
I526
F0.375
g2136
I0
tp3440
a(I0
I526
I-100
S'decrese'
p3441
I0
tp3442
a(I0
I851
F0.375
S'full'
p3443
I0
tp3444
a(I0
I960
F0.375
g2145
I0
tp3445
a(I0
I1008
F0.375
g2212
I0
tp3446
a(I0
I1714
F0.375
g2153
I0
tp3447
a(I0
I1909
F0.375
g2157
I0
tp3448
a(I0
I2088
F0.375
g2219
I0
tp3449
a(I0
I2288
F-0.5
g3431
I0
tp3450
a(I0
I2288
F0.375
g3433
I0
tp3451
a(I0
I2865
F0.375
g2225
I0
tp3452
a(I0
I2991
F0.375
g2227
I0
tp3453
a(I0
I3028
I-100
S'goodbaterry'
p3454
I0
tp3455
a(I0
I3526
F0.375
g3437
I0
tp3456
a(I0
I3676
F0.375
g2231
I0
tp3457
a(I0
I3921
F0.375
S'full'
p3458
I0
tp3459
as(S'very'
p3460
S'good'
p3461
S'camera'
p3462
tp3463
(lp3464
(I0
I86
F1.0
g3101
I0
tp3465
a(I0
I339
F-0.75
S'secondary'
p3466
I0
tp3467
a(I0
I344
I0
g2283
I0
tp3468
a(I0
I410
F1.0
g262
I0
tp3469
a(I0
I456
F1.0
S'good'
p3470
I0
tp3471
a(I0
I578
F1.0
g788
I0
tp3472
a(I0
I832
I0
g3105
I0
tp3473
a(I0
I971
F0.625
g270
I0
tp3474
a(I0
I1328
F1.0
g2294
I0
tp3475
a(I0
I1711
F1.0
g814
I0
tp3476
a(I0
I1711
F-1.0
g816
I0
tp3477
a(I0
I1711
I0
g1156
I0
tp3478
a(I0
I1741
F1.0
g3116
I0
tp3479
a(I0
I2085
F0.5
g820
I0
tp3480
a(I0
I2202
F1.0
S'good'
p3481
I0
tp3482
a(I0
I2288
F1.0
g3134
I0
tp3483
a(I0
I2342
F0.5
S'weight'
p3484
I0
tp3485
a(I0
I2368
F1.0
g3138
I0
tp3486
a(I0
I2404
I0
g288
I0
tp3487
a(I0
I2521
F-0.125
g290
I0
tp3488
a(I0
I2521
F1.0
g292
I0
tp3489
a(I0
I2648
F1.0
S'good'
p3490
I0
tp3491
a(I0
I2648
F1.0
S'excellent'
p3492
I0
tp3493
a(I0
I2741
F1.0
g1780
I0
tp3494
a(I0
I2754
F1.0
g1160
I0
tp3495
a(I0
I2754
F0.875
g1782
I0
tp3496
a(I0
I2754
I0
g1784
I0
tp3497
a(I0
I2754
F-0.625
g1786
I0
tp3498
a(I0
I2797
I0
g2571
I0
tp3499
a(I0
I2797
F1.0
g2573
I0
tp3500
a(I0
I2797
F1.0
g2575
I0
tp3501
a(I0
I2807
F1.0
S'good'
p3502
I0
tp3503
a(I0
I2819
F0.375
S'ok'
p3504
I0
tp3505
a(I0
I2908
F0.125
g2581
I0
tp3506
a(I0
I2948
F-0.875
g2330
I0
tp3507
a(I0
I3064
F1.0
g306
I0
tp3508
a(I0
I3064
F-0.125
g308
I0
tp3509
a(I0
I3324
F-1.0
g851
I0
tp3510
a(I0
I3363
F-0.625
S'average'
p3511
I0
tp3512
a(I0
I3579
F-1.0
g1793
I0
tp3513
a(I0
I3662
F1.0
g316
I0
tp3514
a(I0
I3728
F-0.875
g858
I0
tp3515
a(I0
I3752
F1.0
g3184
I0
tp3516
a(I0
I4162
F-0.625
g1795
I0
tp3517
a(I0
I4223
F0.875
g3203
I0
tp3518
a(I0
I4223
F1.0
g3205
I0
tp3519
a(I0
I4371
I0
g3212
I0
tp3520
a(I0
I4371
F1.0
g3214
I0
tp3521
a(I0
I4403
F0.75
g334
I0
tp3522
a(I0
I4460
F1.0
g3216
I0
tp3523
a(I0
I4460
F1.0
g3218
I0
tp3524
a(I0
I4542
I0
g336
I0
tp3525
a(I0
I4542
F-0.125
g338
I0
tp3526
a(I0
I4637
I0
g1797
I0
tp3527
a(I0
I4767
I0
g1799
I0
tp3528
a(I0
I4767
F1.0
g1801
I0
tp3529
a(I0
I4819
F-0.875
g1803
I0
tp3530
a(I0
I86
F1.0
g3101
I0
tp3531
a(I0
I339
F-0.75
g3466
I0
tp3532
a(I0
I344
I0
g2283
I0
tp3533
a(I0
I410
F1.0
g262
I0
tp3534
a(I0
I456
F1.0
g3470
I0
tp3535
a(I0
I578
F1.0
g788
I0
tp3536
a(I0
I832
I0
g3105
I0
tp3537
a(I0
I971
F0.625
g270
I0
tp3538
a(I0
I1328
F1.0
g2294
I0
tp3539
a(I0
I1711
F1.0
g814
I0
tp3540
a(I0
I1711
F-1.0
g816
I0
tp3541
a(I0
I1711
I0
g1156
I0
tp3542
a(I0
I1741
F1.0
g3116
I0
tp3543
a(I0
I2085
F0.5
g820
I0
tp3544
a(I0
I2202
F1.0
g3481
I0
tp3545
a(I0
I2288
F1.0
g3134
I0
tp3546
a(I0
I2342
F0.5
g3484
I0
tp3547
a(I0
I2368
F1.0
g3138
I0
tp3548
a(I0
I2404
I0
g288
I0
tp3549
a(I0
I2521
F-0.125
g290
I0
tp3550
a(I0
I2521
F1.0
g292
I0
tp3551
a(I0
I2648
F1.0
g3490
I0
tp3552
a(I0
I2648
F1.0
g3492
I0
tp3553
a(I0
I2741
F1.0
g1780
I0
tp3554
a(I0
I2754
F1.0
g1160
I0
tp3555
a(I0
I2754
F0.875
g1782
I0
tp3556
a(I0
I2754
I0
g1784
I0
tp3557
a(I0
I2754
F-0.625
g1786
I0
tp3558
a(I0
I2797
I0
g2571
I0
tp3559
a(I0
I2797
F1.0
g2573
I0
tp3560
a(I0
I2797
F1.0
g2575
I0
tp3561
a(I0
I2807
F1.0
g3502
I0
tp3562
a(I0
I2819
F0.375
g3504
I0
tp3563
a(I0
I2908
F0.125
g2581
I0
tp3564
a(I0
I2948
F-0.875
g2330
I0
tp3565
a(I0
I3064
F1.0
g306
I0
tp3566
a(I0
I3064
F-0.125
g308
I0
tp3567
a(I0
I3324
F-1.0
g851
I0
tp3568
a(I0
I3363
F-0.625
g3511
I0
tp3569
a(I0
I3579
F-1.0
g1793
I0
tp3570
a(I0
I3662
F1.0
g316
I0
tp3571
a(I0
I3728
F-0.875
g858
I0
tp3572
a(I0
I3752
F1.0
g3184
I0
tp3573
a(I0
I4162
F-0.625
g1795
I0
tp3574
a(I0
I4223
F0.875
g3203
I0
tp3575
a(I0
I4223
F1.0
g3205
I0
tp3576
a(I0
I4371
I0
g3212
I0
tp3577
a(I0
I4371
F1.0
g3214
I0
tp3578
a(I0
I4403
F0.75
g334
I0
tp3579
a(I0
I4460
F1.0
g3216
I0
tp3580
a(I0
I4460
F1.0
g3218
I0
tp3581
a(I0
I4542
I0
g336
I0
tp3582
a(I0
I4542
F-0.125
g338
I0
tp3583
a(I0
I4637
I0
g1797
I0
tp3584
a(I0
I4767
I0
g1799
I0
tp3585
a(I0
I4767
F1.0
g1801
I0
tp3586
a(I0
I4819
F-0.875
g1803
I0
tp3587
a(I0
I86
F1.0
g3101
I3
tp3588
a(I0
I339
F-0.75
g3466
I3
tp3589
a(I0
I344
I0
g2283
I3
tp3590
a(I0
I410
F1.0
g262
I3
tp3591
a(I0
I422
F-0.125
g264
I3
tp3592
a(I0
I456
F1.0
g3470
I3
tp3593
a(I0
I493
F1.0
S'good'
p3594
I3
tp3595
a(I0
I512
I0
g3103
I3
tp3596
a(I0
I529
I0
S'most'
p3597
I3
tp3598
a(I0
I549
F-0.125
g266
I3
tp3599
a(I0
I578
F1.0
g788
I3
tp3600
a(I0
I751
F1.0
g268
I3
tp3601
a(I0
I776
F1.0
g2561
I3
tp3602
a(I0
I801
F1.0
S'good'
p3603
I3
tp3604
a(I0
I811
I0
S'update'
p3605
I3
tp3606
a(I0
I811
I0
S'rear'
p3607
I3
tp3608
a(I0
I811
I0
S's'
p3609
I3
tp3610
a(I0
I832
I0
g3105
I3
tp3611
a(I0
I971
F0.625
g270
I3
tp3612
a(I0
I1041
F1.0
g3107
I3
tp3613
a(I0
I1088
F1.0
g3109
I3
tp3614
a(I0
I1110
F1.0
S'good'
p3615
I3
tp3616
a(I0
I1270
F1.0
g802
I3
tp3617
a(I0
I1325
F1.0
g272
I3
tp3618
a(I0
I1328
F1.0
g2294
I3
tp3619
a(I0
I1467
I0
S'descent'
p3620
I3
tp3621
a(I0
I1711
F1.0
g814
I3
tp3622
a(I0
I1711
F-1.0
g816
I3
tp3623
a(I0
I1711
I0
g1156
I3
tp3624
a(I0
I1741
F1.0
g3116
I3
tp3625
a(I0
I1788
I0
S'rear'
p3626
I3
tp3627
a(I0
I1788
F1.0
S'good'
p3628
I3
tp3629
a(I0
I1897
F0.875
S'great'
p3630
I3
tp3631
a(I0
I1928
F1.0
g3118
I3
tp3632
a(I0
I1941
F1.0
g280
I3
tp3633
a(I0
I1941
I0
g282
I3
tp3634
a(I0
I1963
F1.0
g1158
I3
tp3635
a(I0
I1963
F0.875
g3121
I3
tp3636
a(I0
I2033
F1.0
g3123
I3
tp3637
a(I0
I2069
F1.0
g3125
I3
tp3638
a(I0
I2083
F1.0
g3127
I3
tp3639
a(I0
I2085
F0.5
g820
I3
tp3640
a(I0
I2182
F-0.625
g3130
I3
tp3641
a(I0
I2182
I0
g3132
I3
tp3642
a(I0
I2202
F1.0
g3481
I3
tp3643
a(I0
I2288
F1.0
g3134
I3
tp3644
a(I0
I2292
F1.0
S'good'
p3645
I3
tp3646
a(I0
I2342
F0.5
g3484
I3
tp3647
a(I0
I2366
F1.0
g284
I3
tp3648
a(I0
I2366
F-0.125
g286
I3
tp3649
a(I0
I2368
F1.0
g3138
I3
tp3650
a(I0
I2404
I0
g288
I3
tp3651
a(I0
I2508
F1.0
S'good'
p3652
I3
tp3653
a(I0
I2521
F-0.125
g290
I3
tp3654
a(I0
I2521
F1.0
g292
I3
tp3655
a(I0
I2607
F1.0
g3140
I3
tp3656
a(I0
I2648
F1.0
g3490
I3
tp3657
a(I0
I2648
F1.0
g3492
I3
tp3658
a(I0
I2691
F0.625
g3142
I3
tp3659
a(I0
I2723
F1.0
S'good'
p3660
I3
tp3661
a(I0
I2741
F1.0
g1780
I3
tp3662
a(I0
I2754
F1.0
g1160
I3
tp3663
a(I0
I2754
F0.875
g1782
I3
tp3664
a(I0
I2754
I0
g1784
I3
tp3665
a(I0
I2754
F-0.625
g1786
I3
tp3666
a(I0
I2770
F1.0
S'good'
p3667
I3
tp3668
a(I0
I2775
I0
g294
I3
tp3669
a(I0
I2775
F-0.625
g296
I3
tp3670
a(I0
I2775
F-0.625
g298
I3
tp3671
a(I0
I2775
F1.0
g300
I3
tp3672
a(I0
I2775
F-0.125
g302
I3
tp3673
a(I0
I2775
F-0.625
g304
I3
tp3674
a(I0
I2797
I0
g2571
I3
tp3675
a(I0
I2797
F1.0
g2573
I3
tp3676
a(I0
I2797
F1.0
g2575
I3
tp3677
a(I0
I2807
F1.0
g3502
I3
tp3678
a(I0
I2819
F0.375
g3504
I3
tp3679
a(I0
I2868
F1.0
S'good'
p3680
I3
tp3681
a(I0
I2878
F1.0
g2577
I3
tp3682
a(I0
I2878
F-0.875
g2579
I3
tp3683
a(I0
I2908
F0.125
g2581
I3
tp3684
a(I0
I2948
F-0.875
g2330
I3
tp3685
a(I0
I2970
F1.0
g2583
I3
tp3686
a(I0
I3018
F1.0
g3155
I3
tp3687
a(I0
I3064
F1.0
g306
I3
tp3688
a(I0
I3064
F-0.125
g308
I3
tp3689
a(I0
I3184
F1.0
g310
I3
tp3690
a(I0
I3284
F1.0
g3159
I3
tp3691
a(I0
I3321
F-1.0
g3161
I3
tp3692
a(I0
I3321
F1.0
g3163
I3
tp3693
a(I0
I3324
F-1.0
g851
I3
tp3694
a(I0
I3325
F-0.625
S'other'
p3695
I3
tp3696
a(I0
I3363
F-0.625
g3511
I3
tp3697
a(I0
I3373
F0.625
g3166
I3
tp3698
a(I0
I3373
F1.0
g3168
I3
tp3699
a(I0
I3375
F1.0
g3170
I3
tp3700
a(I0
I3423
F1.0
S'good'
p3701
I3
tp3702
a(I0
I3434
F1.0
g2589
I3
tp3703
a(I0
I3458
F1.0
g3173
I3
tp3704
a(I0
I3503
F1.0
g3175
I3
tp3705
a(I0
I3579
F-1.0
g1793
I3
tp3706
a(I0
I3603
F1.0
g312
I3
tp3707
a(I0
I3607
F-0.25
g314
I3
tp3708
a(I0
I3662
F1.0
g316
I3
tp3709
a(I0
I3665
I0
g2591
I3
tp3710
a(I0
I3665
F1.0
g2593
I3
tp3711
a(I0
I3714
F1.0
S'good'
p3712
I3
tp3713
a(I0
I3728
F-0.875
g858
I3
tp3714
a(I0
I3738
F0.375
g3180
I3
tp3715
a(I0
I3738
F1.0
g3182
I3
tp3716
a(I0
I3752
F1.0
g3184
I3
tp3717
a(I0
I3793
F1.0
S'good'
p3718
I3
tp3719
a(I0
I3793
F0.125
S'outdoor'
p3720
I3
tp3721
a(I0
I3814
F-0.625
S'average'
p3722
I3
tp3723
a(I0
I3829
F-0.125
g318
I3
tp3724
a(I0
I3829
F1.0
g320
I3
tp3725
a(I0
I3829
I0
g322
I3
tp3726
a(I0
I3829
F-0.125
g324
I3
tp3727
a(I0
I3873
F-0.125
g326
I3
tp3728
a(I0
I3873
F0.875
g328
I3
tp3729
a(I0
I3893
I-100
S'smoothbeautifulrear'
p3730
I3
tp3731
a(I0
I3914
F1.0
S'good'
p3732
I3
tp3733
a(I0
I3943
F1.0
S'good'
p3734
I3
tp3735
a(I0
I3975
F1.0
g3192
I3
tp3736
a(I0
I4095
I0
g330
I3
tp3737
a(I0
I4158
F1.0
g3195
I3
tp3738
a(I0
I4162
F-0.625
g1795
I3
tp3739
a(I0
I4168
F1.0
g3197
I3
tp3740
a(I0
I4168
F1.0
g3199
I3
tp3741
a(I0
I4173
F0.875
S'great'
p3742
I3
tp3743
a(I0
I4201
F1.0
g3201
I3
tp3744
a(I0
I4223
F0.875
g3203
I3
tp3745
a(I0
I4223
F1.0
g3205
I3
tp3746
a(I0
I4251
F-0.125
g332
I3
tp3747
a(I0
I4336
F1.0
g2604
I3
tp3748
a(I0
I4336
F1.0
g2606
I3
tp3749
a(I0
I4354
F1.0
g3210
I3
tp3750
a(I0
I4371
I0
g3212
I3
tp3751
a(I0
I4371
F1.0
g3214
I3
tp3752
a(I0
I4403
F0.75
g334
I3
tp3753
a(I0
I4460
F1.0
g3216
I3
tp3754
a(I0
I4460
F1.0
g3218
I3
tp3755
a(I0
I4500
F-0.5
g3220
I3
tp3756
a(I0
I4519
F1.0
g877
I3
tp3757
a(I0
I4542
I0
g336
I3
tp3758
a(I0
I4542
F-0.125
g338
I3
tp3759
a(I0
I4548
F1.0
g342
I3
tp3760
a(I0
I4594
F1.0
S'good'
p3761
I3
tp3762
a(I0
I4637
I0
g1797
I3
tp3763
a(I0
I4767
I0
g1799
I3
tp3764
a(I0
I4767
F1.0
g1801
I3
tp3765
a(I0
I4784
I0
S'rear'
p3766
I3
tp3767
a(I0
I4784
F-0.625
S'average'
p3768
I3
tp3769
a(I0
I4784
I0
S'update'
p3770
I3
tp3771
a(I0
I4784
F1.0
S'good'
p3772
I3
tp3773
a(I0
I4811
F1.0
g2612
I3
tp3774
a(I0
I4811
F-0.125
g2614
I3
tp3775
a(I0
I4811
F1.0
g2616
I3
tp3776
a(I0
I4819
F-0.875
g1803
I3
tp3777
a(I0
I86
F1.0
g3101
I0
tp3778
a(I0
I339
F-0.75
g3466
I0
tp3779
a(I0
I344
I0
g2283
I0
tp3780
a(I0
I410
F1.0
g262
I0
tp3781
a(I0
I422
F-0.125
g264
I0
tp3782
a(I0
I456
F1.0
g3470
I0
tp3783
a(I0
I493
F1.0
g3594
I0
tp3784
a(I0
I512
I0
g3103
I0
tp3785
a(I0
I529
I0
g3597
I0
tp3786
a(I0
I549
F-0.125
g266
I0
tp3787
a(I0
I578
F1.0
g788
I0
tp3788
a(I0
I751
F1.0
g268
I0
tp3789
a(I0
I776
F1.0
g2561
I0
tp3790
a(I0
I801
F1.0
g3603
I0
tp3791
a(I0
I811
I0
g3605
I0
tp3792
a(I0
I811
I0
g3607
I0
tp3793
a(I0
I811
I0
g3609
I0
tp3794
a(I0
I832
I0
g3105
I0
tp3795
a(I0
I971
F0.625
g270
I0
tp3796
a(I0
I1041
F1.0
g3107
I0
tp3797
a(I0
I1088
F1.0
g3109
I0
tp3798
a(I0
I1110
F1.0
g3615
I0
tp3799
a(I0
I1270
F1.0
g802
I0
tp3800
a(I0
I1325
F1.0
g272
I0
tp3801
a(I0
I1328
F1.0
g2294
I0
tp3802
a(I0
I1467
I0
g3620
I0
tp3803
a(I0
I1711
F1.0
g814
I0
tp3804
a(I0
I1711
F-1.0
g816
I0
tp3805
a(I0
I1711
I0
g1156
I0
tp3806
a(I0
I1741
F1.0
g3116
I0
tp3807
a(I0
I1788
I0
g3626
I0
tp3808
a(I0
I1788
F1.0
g3628
I0
tp3809
a(I0
I1897
F0.875
g3630
I0
tp3810
a(I0
I1928
F1.0
g3118
I0
tp3811
a(I0
I1941
F1.0
g280
I0
tp3812
a(I0
I1941
I0
g282
I0
tp3813
a(I0
I1963
F1.0
g1158
I0
tp3814
a(I0
I1963
F0.875
g3121
I0
tp3815
a(I0
I2033
F1.0
g3123
I0
tp3816
a(I0
I2069
F1.0
g3125
I0
tp3817
a(I0
I2083
F1.0
g3127
I0
tp3818
a(I0
I2085
F0.5
g820
I0
tp3819
a(I0
I2182
F-0.625
g3130
I0
tp3820
a(I0
I2182
I0
g3132
I0
tp3821
a(I0
I2202
F1.0
g3481
I0
tp3822
a(I0
I2288
F1.0
g3134
I0
tp3823
a(I0
I2292
F1.0
g3645
I0
tp3824
a(I0
I2342
F0.5
g3484
I0
tp3825
a(I0
I2366
F1.0
g284
I0
tp3826
a(I0
I2366
F-0.125
g286
I0
tp3827
a(I0
I2368
F1.0
g3138
I0
tp3828
a(I0
I2404
I0
g288
I0
tp3829
a(I0
I2508
F1.0
g3652
I0
tp3830
a(I0
I2521
F-0.125
g290
I0
tp3831
a(I0
I2521
F1.0
g292
I0
tp3832
a(I0
I2607
F1.0
g3140
I0
tp3833
a(I0
I2648
F1.0
g3490
I0
tp3834
a(I0
I2648
F1.0
g3492
I0
tp3835
a(I0
I2691
F0.625
g3142
I0
tp3836
a(I0
I2723
F1.0
g3660
I0
tp3837
a(I0
I2741
F1.0
g1780
I0
tp3838
a(I0
I2754
F1.0
g1160
I0
tp3839
a(I0
I2754
F0.875
g1782
I0
tp3840
a(I0
I2754
I0
g1784
I0
tp3841
a(I0
I2754
F-0.625
g1786
I0
tp3842
a(I0
I2770
F1.0
g3667
I0
tp3843
a(I0
I2775
I0
g294
I0
tp3844
a(I0
I2775
F-0.625
g296
I0
tp3845
a(I0
I2775
F-0.625
g298
I0
tp3846
a(I0
I2775
F1.0
g300
I0
tp3847
a(I0
I2775
F-0.125
g302
I0
tp3848
a(I0
I2775
F-0.625
g304
I0
tp3849
a(I0
I2797
I0
g2571
I0
tp3850
a(I0
I2797
F1.0
g2573
I0
tp3851
a(I0
I2797
F1.0
g2575
I0
tp3852
a(I0
I2807
F1.0
g3502
I0
tp3853
a(I0
I2819
F0.375
g3504
I0
tp3854
a(I0
I2868
F1.0
g3680
I0
tp3855
a(I0
I2878
F1.0
g2577
I0
tp3856
a(I0
I2878
F-0.875
g2579
I0
tp3857
a(I0
I2908
F0.125
g2581
I0
tp3858
a(I0
I2948
F-0.875
g2330
I0
tp3859
a(I0
I2970
F1.0
g2583
I0
tp3860
a(I0
I3018
F1.0
g3155
I0
tp3861
a(I0
I3064
F1.0
g306
I0
tp3862
a(I0
I3064
F-0.125
g308
I0
tp3863
a(I0
I3184
F1.0
g310
I0
tp3864
a(I0
I3284
F1.0
g3159
I0
tp3865
a(I0
I3321
F-1.0
g3161
I0
tp3866
a(I0
I3321
F1.0
g3163
I0
tp3867
a(I0
I3324
F-1.0
g851
I0
tp3868
a(I0
I3325
F-0.625
g3695
I0
tp3869
a(I0
I3363
F-0.625
g3511
I0
tp3870
a(I0
I3373
F0.625
g3166
I0
tp3871
a(I0
I3373
F1.0
g3168
I0
tp3872
a(I0
I3375
F1.0
g3170
I0
tp3873
a(I0
I3423
F1.0
g3701
I0
tp3874
a(I0
I3434
F1.0
g2589
I0
tp3875
a(I0
I3458
F1.0
g3173
I0
tp3876
a(I0
I3503
F1.0
g3175
I0
tp3877
a(I0
I3579
F-1.0
g1793
I0
tp3878
a(I0
I3603
F1.0
g312
I0
tp3879
a(I0
I3607
F-0.25
g314
I0
tp3880
a(I0
I3662
F1.0
g316
I0
tp3881
a(I0
I3665
I0
g2591
I0
tp3882
a(I0
I3665
F1.0
g2593
I0
tp3883
a(I0
I3714
F1.0
g3712
I0
tp3884
a(I0
I3728
F-0.875
g858
I0
tp3885
a(I0
I3738
F0.375
g3180
I0
tp3886
a(I0
I3738
F1.0
g3182
I0
tp3887
a(I0
I3752
F1.0
g3184
I0
tp3888
a(I0
I3793
F1.0
g3718
I0
tp3889
a(I0
I3793
F0.125
g3720
I0
tp3890
a(I0
I3814
F-0.625
g3722
I0
tp3891
a(I0
I3829
F-0.125
g318
I0
tp3892
a(I0
I3829
F1.0
g320
I0
tp3893
a(I0
I3829
I0
g322
I0
tp3894
a(I0
I3829
F-0.125
g324
I0
tp3895
a(I0
I3873
F-0.125
g326
I0
tp3896
a(I0
I3873
F0.875
g328
I0
tp3897
a(I0
I3914
F1.0
g3732
I0
tp3898
a(I0
I3943
F1.0
g3734
I0
tp3899
a(I0
I3975
F1.0
g3192
I0
tp3900
a(I0
I4095
I0
g330
I0
tp3901
a(I0
I4158
F1.0
g3195
I0
tp3902
a(I0
I4162
F-0.625
g1795
I0
tp3903
a(I0
I4168
F1.0
g3197
I0
tp3904
a(I0
I4168
F1.0
g3199
I0
tp3905
a(I0
I4173
F0.875
g3742
I0
tp3906
a(I0
I4201
F1.0
g3201
I0
tp3907
a(I0
I4223
F0.875
g3203
I0
tp3908
a(I0
I4223
F1.0
g3205
I0
tp3909
a(I0
I4251
F-0.125
g332
I0
tp3910
a(I0
I4336
F1.0
g2604
I0
tp3911
a(I0
I4336
F1.0
g2606
I0
tp3912
a(I0
I4354
F1.0
g3210
I0
tp3913
a(I0
I4371
I0
g3212
I0
tp3914
a(I0
I4371
F1.0
g3214
I0
tp3915
a(I0
I4403
F0.75
g334
I0
tp3916
a(I0
I4460
F1.0
g3216
I0
tp3917
a(I0
I4460
F1.0
g3218
I0
tp3918
a(I0
I4500
F-0.5
g3220
I0
tp3919
a(I0
I4519
F1.0
g877
I0
tp3920
a(I0
I4542
I0
g336
I0
tp3921
a(I0
I4542
F-0.125
g338
I0
tp3922
a(I0
I4548
F1.0
g342
I0
tp3923
a(I0
I4594
F1.0
g3761
I0
tp3924
a(I0
I4637
I0
g1797
I0
tp3925
a(I0
I4767
I0
g1799
I0
tp3926
a(I0
I4767
F1.0
g1801
I0
tp3927
a(I0
I4784
I0
g3766
I0
tp3928
a(I0
I4784
F-0.625
g3768
I0
tp3929
a(I0
I4784
I0
g3770
I0
tp3930
a(I0
I4784
F1.0
g3772
I0
tp3931
a(I0
I4811
F1.0
g2612
I0
tp3932
a(I0
I4811
F-0.125
g2614
I0
tp3933
a(I0
I4811
F1.0
g2616
I0
tp3934
a(I0
I4819
F-0.875
g1803
I0
tp3935
as(S'display'
p3936
tp3937
(lp3938
(I0
I422
F1.0
S'excellent'
p3939
I13
tp3940
a(I0
I422
I-100
S'quality7'
p3941
I13
tp3942
a(I0
I471
I0
S'bright'
p3943
I13
tp3944
a(I0
I543
I0
S'light'
p3945
I13
tp3946
a(I0
I902
F0.5
S'satisfactory'
p3947
I13
tp3948
a(I0
I962
F1.0
S'good'
p3949
I13
tp3950
a(I0
I971
F0.5
S'touch'
p3951
I13
tp3952
a(I0
I1008
I0
S'gb'
p3953
I13
tp3954
a(I0
I1008
F-0.75
S'free'
p3955
I13
tp3956
a(I0
I1008
F1.0
S'good'
p3957
I13
tp3958
a(I0
I1008
F-0.625
S'natural'
p3959
I13
tp3960
a(I0
I1146
I0
S's'
p3961
I13
tp3962
a(I0
I1278
F-0.875
S'poor'
p3963
I13
tp3964
a(I0
I1321
F1.0
S'good'
p3965
I13
tp3966
a(I0
I1893
F1.0
S'good'
p3967
I13
tp3968
a(I0
I1980
F-0.875
S'poor'
p3969
I13
tp3970
a(I0
I2155
F-0.875
S'poor'
p3971
I13
tp3972
a(I0
I2524
F1.0
S'good'
p3973
I13
tp3974
a(I0
I2528
F-0.875
S'poor'
p3975
I13
tp3976
a(I0
I2558
I-100
S'gudits'
p3977
I13
tp3978
a(I0
I2623
F-0.75
S'disappointing'
p3979
I13
tp3980
a(I0
I2676
F1.0
S'good'
p3981
I13
tp3982
a(I0
I2754
F1.0
S'excellent'
p3983
I13
tp3984
a(I0
I2794
F0.375
S'ok'
p3985
I13
tp3986
a(I0
I2794
I0
S'cool'
p3987
I13
tp3988
a(I0
I2797
F1.0
S'good'
p3989
I13
tp3990
a(I0
I2819
F0.125
S'mobile'
p3991
I13
tp3992
a(I0
I2945
F1.0
S'good'
p3993
I13
tp3994
a(I0
I3053
F1.0
S'excellent'
p3995
I13
tp3996
a(I0
I3146
I0
S'screen'
p3997
I13
tp3998
a(I0
I3146
F-0.875
S'poor'
p3999
I13
tp4000
a(I0
I3627
F0.875
S'amazing'
p4001
I13
tp4002
a(I0
I3663
F1.0
S'good'
p4003
I13
tp4004
a(I0
I3674
F0.625
S'smooth'
p4005
I13
tp4006
a(I0
I3674
I0
S'bright'
p4007
I13
tp4008
a(I0
I3674
I0
S'clear'
p4009
I13
tp4010
a(I0
I3702
F1.0
S'best'
p4011
I13
tp4012
a(I0
I3790
F1.0
S'good'
p4013
I13
tp4014
a(I0
I3790
I0
S'inch'
p4015
I13
tp4016
a(I0
I3830
F-0.625
S'average'
p4017
I13
tp4018
a(I0
I3830
F0.875
S'nice'
p4019
I13
tp4020
a(I0
I3969
F1.0
S'good'
p4021
I13
tp4022
a(I0
I4174
F1.0
S'good'
p4023
I13
tp4024
a(I0
I4225
F1.0
S'good'
p4025
I13
tp4026
a(I0
I4352
I0
S'screen'
p4027
I13
tp4028
a(I0
I4462
F1.0
S'excellent'
p4029
I13
tp4030
a(I0
I4640
F-1.0
S'bad'
p4031
I13
tp4032
a(I0
I4719
F0.375
S'ok'
p4033
I13
tp4034
a(I0
I4719
F-0.625
S'red'
p4035
I13
tp4036
a(I0
I4741
F0.625
S'fine'
p4037
I13
tp4038
a(I0
I4840
F-0.875
S'poor'
p4039
I13
tp4040
as(S'lot'
p4041
S'of'
p4042
S'time'
p4043
tp4044
(lp4045
(I0
I822
F0.125
g2141
I1
tp4046
a(I0
I3518
F-0.125
S'overall'
p4047
I1
tp4048
a(I0
I3518
F0.375
S'satisfied'
p4049
I1
tp4050
as(S'mobile'
p4051
S'in'
p4052
S'price'
p4053
tp4054
(lp4055
(I0
I199
F0.125
S'mobile'
p4056
I0
tp4057
a(I0
I199
I0
S's'
p4058
I0
tp4059
a(I0
I971
F1.0
g1938
I0
tp4060
a(I0
I1111
F0.875
S'worthy'
p4061
I0
tp4062
a(I0
I1616
F-0.125
S'overall'
p4063
I0
tp4064
a(I0
I1616
F1.0
S'good'
p4065
I0
tp4066
a(I0
I1780
F1.0
g1443
I0
tp4067
a(I0
I1817
F-0.125
S'overall'
p4068
I0
tp4069
a(I0
I1817
F1.0
S'good'
p4070
I0
tp4071
a(I0
I1873
F0.125
g1942
I0
tp4072
a(I0
I1873
I0
g1944
I0
tp4073
a(I0
I1893
F1.0
g8
I0
tp4074
a(I0
I1963
F-0.25
g2901
I0
tp4075
a(I0
I2088
F-0.875
g1182
I0
tp4076
a(I0
I2391
F1.0
g1447
I0
tp4077
a(I0
I2391
F1.0
g1449
I0
tp4078
a(I0
I3320
F1.0
S'good'
p4079
I0
tp4080
a(I0
I3320
F0.5
g1968
I0
tp4081
a(I0
I3353
F1.0
S'best'
p4082
I0
tp4083
a(I0
I3436
F1.0
g1212
I0
tp4084
a(I0
I3708
F1.0
g1465
I0
tp4085
a(I0
I3746
F0.75
S'wonderful'
p4086
I0
tp4087
a(I0
I3759
I0
S'cool'
p4088
I0
tp4089
a(I0
I4247
I0
g1985
I0
tp4090
a(I0
I4247
F0.5
g1987
I0
tp4091
a(I0
I4311
F0.25
S'ki'
p4092
I0
tp4093
a(I0
I4451
F1.0
S'good'
p4094
I0
tp4095
a(I0
I4460
F0.875
g1989
I0
tp4096
a(I0
I4460
F1.0
g1991
I0
tp4097
a(I0
I4600
F-1.0
S'bad'
p4098
I0
tp4099
a(I0
I4600
F-0.125
S'such'
p4100
I0
tp4101
a(I0
I4600
F0.75
S'wonderful'
p4102
I0
tp4103
a(I0
I4600
I0
g1431
I0
tp4104
a(I0
I4605
F-0.125
g2914
I0
tp4105
a(I0
I4605
F-0.875
g1231
I0
tp4106
a(I0
I4605
F-0.625
g2916
I0
tp4107
a(I0
I4637
I0
S'inbuilt'
p4108
I0
tp4109
a(I0
I4714
I0
S'timely'
p4110
I0
tp4111
a(I0
I4782
F1.0
g1467
I0
tp4112
as(S'rear'
p4113
S'camera'
p4114
tp4115
(lp4116
(I0
I380
I0
S'rear'
p4117
I6
tp4118
a(I0
I406
F-0.875
S'poor'
p4119
I6
tp4120
a(I0
I414
F-1.0
S'bad'
p4121
I6
tp4122
a(I0
I414
I0
S'rear'
p4123
I6
tp4124
a(I0
I416
F-1.0
S'bad'
p4125
I6
tp4126
a(I0
I416
I0
S'rear'
p4127
I6
tp4128
a(I0
I424
I0
g2285
I6
tp4129
a(I0
I458
F1.0
S'good'
p4130
I6
tp4131
a(I0
I512
I0
g3103
I6
tp4132
a(I0
I549
F-0.125
g266
I6
tp4133
a(I0
I737
I0
S'rear'
p4134
I6
tp4135
a(I0
I751
F1.0
g268
I6
tp4136
a(I0
I752
I0
S'rear'
p4137
I6
tp4138
a(I0
I811
I0
g3605
I6
tp4139
a(I0
I811
I0
g3607
I6
tp4140
a(I0
I811
I0
g3609
I6
tp4141
a(I0
I827
I0
S'rear'
p4142
I6
tp4143
a(I0
I1228
I0
g361
I6
tp4144
a(I0
I1228
F-0.25
g363
I6
tp4145
a(I0
I1526
I0
g368
I6
tp4146
a(I0
I1578
I0
S'rear'
p4147
I6
tp4148
a(I0
I1788
I0
g3626
I6
tp4149
a(I0
I1788
F1.0
g3628
I6
tp4150
a(I0
I1941
F1.0
g280
I6
tp4151
a(I0
I1941
I0
g282
I6
tp4152
a(I0
I2195
I0
S'rear'
p4153
I6
tp4154
a(I0
I2195
I0
S'clear'
p4155
I6
tp4156
a(I0
I2205
F-1.0
g377
I6
tp4157
a(I0
I2205
F-1.0
g379
I6
tp4158
a(I0
I2205
F-1.0
g381
I6
tp4159
a(I0
I2205
I0
g383
I6
tp4160
a(I0
I2308
I0
g2307
I6
tp4161
a(I0
I2308
F0.375
g2309
I6
tp4162
a(I0
I2308
I0
g2311
I6
tp4163
a(I0
I2607
F1.0
g3140
I6
tp4164
a(I0
I2682
F-1.0
S'bad'
p4165
I6
tp4166
a(I0
I2689
F0.625
S'interested'
p4167
I6
tp4168
a(I0
I2689
I0
S'rear'
p4169
I6
tp4170
a(I0
I2959
I0
S'rear'
p4171
I6
tp4172
a(I0
I2976
I0
g400
I6
tp4173
a(I0
I3162
I0
S'rear'
p4174
I6
tp4175
a(I0
I3604
I0
S'rear'
p4176
I6
tp4177
a(I0
I3662
F1.0
g316
I6
tp4178
a(I0
I3665
I0
g2591
I6
tp4179
a(I0
I3665
F1.0
g2593
I6
tp4180
a(I0
I3829
F-0.125
g318
I6
tp4181
a(I0
I3829
F1.0
g320
I6
tp4182
a(I0
I3829
I0
g322
I6
tp4183
a(I0
I3829
F-0.125
g324
I6
tp4184
a(I0
I3830
F-0.625
g420
I6
tp4185
a(I0
I4403
F0.75
g334
I6
tp4186
a(I0
I4460
F1.0
g3216
I6
tp4187
a(I0
I4460
F1.0
g3218
I6
tp4188
a(I0
I4542
I0
g336
I6
tp4189
a(I0
I4542
F-0.125
g338
I6
tp4190
a(I0
I4767
I0
g1799
I6
tp4191
a(I0
I4767
F1.0
g1801
I6
tp4192
a(I0
I4784
I0
g3766
I6
tp4193
a(I0
I4784
F-0.625
g3768
I6
tp4194
a(I0
I4784
I0
g3770
I6
tp4195
a(I0
I4784
F1.0
g3772
I6
tp4196
as(S'update'
p4197
tp4198
(lp4199
(I0
I65
F0.375
S'available'
p4200
I1
tp4201
a(I0
I103
F0.625
S'partial'
p4202
I1
tp4203
a(I0
I274
I0
S'current'
p4204
I1
tp4205
a(I0
I274
I-100
S'v029'
p4206
I1
tp4207
a(I0
I719
F-0.625
S'new'
p4208
I1
tp4209
a(I0
I903
F-0.125
S'marshmallow'
p4210
I1
tp4211
a(I0
I1680
F-0.125
S'next'
p4212
I1
tp4213
a(I0
I1919
F-0.5
S'do'
p4214
I1
tp4215
a(I0
I1946
F-0.125
S'next'
p4216
I1
tp4217
a(I0
I3589
F0.25
S'recent'
p4218
I1
tp4219
a(I0
I4059
I-100
S'v25'
p4220
I1
tp4221
a(I0
I4061
F-0.125
S'marshmallow'
p4222
I1
tp4223
a(I0
I4345
F-0.125
S'next'
p4224
I1
tp4225
as(S'sd'
p4226
S'card'
p4227
tp4228
(lp4229
(I0
I1070
F0.5
S'intact'
p4230
I0
tp4231
a(I0
I1266
F-0.25
S'external'
p4232
I0
tp4233
a(I0
I3635
I0
S'sd'
p4234
I0
tp4235
a(I0
I4100
I0
S'sd'
p4236
I0
tp4237
a(I0
I4100
F-0.25
S'insert'
p4238
I0
tp4239
a(I0
I1070
F0.5
g4230
I8
tp4240
a(I0
I1486
F0.625
S'super'
p4241
I8
tp4242
a(I0
I2829
F0.5
S'second'
p4243
I8
tp4244
a(I0
I2829
F0.5
S'readable'
p4245
I8
tp4246
a(I0
I3342
F-0.75
S'unable'
p4247
I8
tp4248
a(I0
I3635
I0
g4234
I8
tp4249
a(I0
I3888
I-100
S'adhaar'
p4250
I8
tp4251
a(I0
I4100
I0
g4236
I8
tp4252
as(S'13'
p4253
S'mp'
p4254
S'camera'
p4255
tp4256
(lp4257
(I0
I456
F1.0
g3470
I0
tp4258
a(I0
I585
I0
S'rear'
p4259
I0
tp4260
a(I0
I1711
F1.0
g814
I0
tp4261
a(I0
I1711
F-1.0
g816
I0
tp4262
a(I0
I1741
F1.0
g3116
I0
tp4263
a(I0
I1885
F0.5
S'like'
p4264
I0
tp4265
a(I0
I1941
F1.0
g280
I0
tp4266
a(I0
I1941
I0
g282
I0
tp4267
a(I0
I1941
F-0.625
S'average'
p4268
I0
tp4269
a(I0
I1980
F-1.0
g1773
I0
tp4270
a(I0
I2308
I0
g2307
I0
tp4271
a(I0
I2308
F0.375
g2309
I0
tp4272
a(I0
I2308
I0
g2311
I0
tp4273
a(I0
I2404
I0
g288
I0
tp4274
a(I0
I2447
F-0.625
S'average'
p4275
I0
tp4276
a(I0
I2447
I0
S'u'
p4277
I0
tp4278
a(I0
I2454
F1.0
S'good'
p4279
I0
tp4280
a(I0
I2607
F1.0
g3140
I0
tp4281
a(I0
I2689
F0.625
g4167
I0
tp4282
a(I0
I2689
I0
g4169
I0
tp4283
a(I0
I2819
F0.375
g3504
I0
tp4284
a(I0
I2886
F1.0
g2325
I0
tp4285
a(I0
I3064
F1.0
g306
I0
tp4286
a(I0
I3064
F-0.125
g308
I0
tp4287
a(I0
I3184
F1.0
g310
I0
tp4288
a(I0
I3305
F-0.875
S'rare'
p4289
I0
tp4290
a(I0
I3324
F-1.0
g851
I0
tp4291
a(I0
I3665
I0
g2591
I0
tp4292
a(I0
I3665
F1.0
g2593
I0
tp4293
a(I0
I3829
F-0.125
g318
I0
tp4294
a(I0
I3829
F1.0
g320
I0
tp4295
a(I0
I3829
I0
g322
I0
tp4296
a(I0
I3829
F-0.125
g324
I0
tp4297
a(I0
I4201
F1.0
g3201
I0
tp4298
a(I0
I4251
F-0.875
S'rare'
p4299
I0
tp4300
a(I0
I4251
F-0.125
g332
I0
tp4301
a(I0
I4387
F-0.625
g875
I0
tp4302
a(I0
I4460
F1.0
g3216
I0
tp4303
a(I0
I4460
F1.0
g3218
I0
tp4304
a(I0
I4700
F-0.625
S'average'
p4305
I0
tp4306
a(I0
I4767
I0
g1799
I0
tp4307
a(I0
I4767
F1.0
g1801
I0
tp4308
a(I0
I585
I0
g4259
I0
tp4309
a(I0
I1885
F0.5
g4264
I0
tp4310
a(I0
I1941
F-0.625
g4268
I0
tp4311
a(I0
I2454
F1.0
g4279
I0
tp4312
a(I0
I4251
F-0.875
g4299
I0
tp4313
a(I0
I4853
F-0.625
S'other'
p4314
I0
tp4315
as(S'value'
p4316
S'for'
p4317
S'money'
p4318
tp4319
(lp4320
(I0
I515
F0.875
S'great'
p4321
I4
tp4322
a(I0
I599
F-0.75
S'absolute'
p4323
I4
tp4324
a(I0
I891
F0.5
S'true'
p4325
I4
tp4326
a(I0
I934
F1.0
S'good'
p4327
I4
tp4328
a(I0
I1855
F0.5
S'true'
p4329
I4
tp4330
a(I0
I1898
F1.0
S'good'
p4331
I4
tp4332
a(I0
I2232
F1.0
S'good'
p4333
I4
tp4334
a(I0
I2291
F-0.625
S'other'
p4335
I4
tp4336
a(I0
I2389
F1.0
S'good'
p4337
I4
tp4338
a(I0
I2519
F1.0
S'good'
p4339
I4
tp4340
a(I0
I2581
I0
S'total'
p4341
I4
tp4342
a(I0
I3434
F0.625
S'smooth'
p4343
I4
tp4344
a(I0
I3560
F0.875
S'nice'
p4345
I4
tp4346
a(I0
I3728
F1.0
S'good'
p4347
I4
tp4348
a(I0
I3839
F-0.125
S'overall'
p4349
I4
tp4350
a(I0
I4164
F1.0
S'excellent'
p4351
I4
tp4352
a(I0
I4289
F1.0
S'best'
p4353
I4
tp4354
a(I0
I4482
F1.0
S'good'
p4355
I4
tp4356
a(I0
I4482
F-0.25
S'earlier'
p4357
I4
tp4358
a(I0
I4525
I0
S'total'
p4359
I4
tp4360
a(I0
I4690
F0.5
S'true'
p4361
I4
tp4362
a(I0
I515
F0.875
g4321
I7
tp4363
a(I0
I599
F-0.75
g4323
I7
tp4364
a(I0
I891
F0.5
g4325
I7
tp4365
a(I0
I934
F1.0
g4327
I7
tp4366
a(I0
I1855
F0.5
g4329
I7
tp4367
a(I0
I1898
F1.0
g4331
I7
tp4368
a(I0
I2232
F1.0
g4333
I7
tp4369
a(I0
I2291
F-0.625
g4335
I7
tp4370
a(I0
I2291
I-100
S'goodbest'
p4371
I7
tp4372
a(I0
I2389
F1.0
g4337
I7
tp4373
a(I0
I2519
F1.0
g4339
I7
tp4374
a(I0
I2581
I0
g4341
I7
tp4375
a(I0
I3416
F0.25
S'worth'
p4376
I7
tp4377
a(I0
I3560
F0.875
g4345
I7
tp4378
a(I0
I3839
F-0.125
g4349
I7
tp4379
a(I0
I4164
F1.0
g4351
I7
tp4380
a(I0
I4289
F1.0
g4353
I7
tp4381
a(I0
I4482
F1.0
g4355
I7
tp4382
a(I0
I4525
I0
g4359
I7
tp4383
a(I0
I4690
F0.5
g4361
I7
tp4384
a(I0
I4874
I-100
S'ridiculousok'
p4385
I7
tp4386
as(S'hai'
p4387
S'jo'
p4388
S'ki'
p4389
tp4390
(lp4391
(I0
I1530
I0
S'iss'
p4392
I0
tp4393
a(I0
I1537
F-0.778
S'common'
p4394
I0
tp4395
a(I0
I1539
F-0.5
S'regular'
p4396
I0
tp4397
as(S'note'
p4398
g670
S'lite'
p4399
tp4400
(lp4401
(I0
I74
I0
S'more'
p4402
I0
tp4403
a(I0
I480
I0
g51
I0
tp4404
a(I0
I480
F1.0
g53
I0
tp4405
a(I0
I512
I0
g55
I0
tp4406
a(I0
I512
F-0.75
g57
I0
tp4407
a(I0
I2151
F0.125
S'pad'
p4408
I0
tp4409
a(I0
I2236
I0
S'inch'
p4410
I0
tp4411
a(I0
I2814
F-0.25
g64
I0
tp4412
a(I0
I2822
I0
g68
I0
tp4413
a(I0
I3115
F-0.625
S'last'
p4414
I0
tp4415
a(I0
I3435
F-0.75
g74
I0
tp4416
a(I0
I3435
I0
g76
I0
tp4417
a(I0
I3640
F-0.625
S'other'
p4418
I0
tp4419
a(I0
I3897
F1.0
S'good'
p4420
I0
tp4421
a(I0
I4179
F0.125
S'mobile'
p4422
I0
tp4423
a(I0
I4266
I0
g41
I0
tp4424
a(I0
I4266
F0.125
g43
I0
tp4425
a(I0
I4274
F0.125
S'pad'
p4426
I0
tp4427
a(I0
I4274
I0
S'light'
p4428
I0
tp4429
a(I0
I4290
F0.875
S'amazing'
p4430
I0
tp4431
a(I0
I4300
I0
g88
I0
tp4432
a(I0
I4756
F-0.75
g92
I0
tp4433
a(I0
I74
I0
g4402
I0
tp4434
a(I0
I3115
F-0.625
g4414
I0
tp4435
a(I0
I4179
F0.125
g4422
I0
tp4436
a(I0
I4274
I0
g4428
I0
tp4437
a(I0
I4290
F0.875
g4430
I0
tp4438
a(I0
I480
I0
g51
I1
tp4439
a(I0
I480
F1.0
g53
I1
tp4440
a(I0
I512
I0
g55
I1
tp4441
a(I0
I512
F-0.75
g57
I1
tp4442
a(I0
I1516
I-100
S'tcoolpad'
p4443
I1
tp4444
a(I0
I2081
I-100
S'okcoolpad'
p4445
I1
tp4446
a(I0
I2117
F-0.25
S'earlier'
p4447
I1
tp4448
a(I0
I2151
F0.125
g4408
I1
tp4449
a(I0
I2236
I0
g4410
I1
tp4450
a(I0
I2286
I-100
S'mobilecoolpad'
p4451
I1
tp4452
a(I0
I2558
I-100
S'allcoolpad'
p4453
I1
tp4454
a(I0
I2703
F0.625
S'prime'
p4455
I1
tp4456
a(I0
I2721
I0
S'mi'
p4457
I1
tp4458
a(I0
I2795
I-100
S'monthcoolpad'
p4459
I1
tp4460
a(I0
I2814
F-0.25
g64
I1
tp4461
a(I0
I2822
I0
g68
I1
tp4462
a(I0
I3090
F1.0
g70
I1
tp4463
a(I0
I3435
F-0.75
g74
I1
tp4464
a(I0
I3435
I-100
S'automaticallycoolpade'
p4465
I1
tp4466
a(I0
I3435
I0
g76
I1
tp4467
a(I0
I3464
I-100
S'improvedcoolpad'
p4468
I1
tp4469
a(I0
I3640
F-0.625
g4418
I1
tp4470
a(I0
I3640
I-100
S'coolpaf'
p4471
I1
tp4472
a(I0
I3897
F1.0
g4420
I1
tp4473
a(I0
I4043
I-100
S'phonecoolpad'
p4474
I1
tp4475
a(I0
I4247
F1.0
g39
I1
tp4476
a(I0
I4266
I0
g41
I1
tp4477
a(I0
I4266
F0.125
g43
I1
tp4478
a(I0
I4274
F0.125
g4426
I1
tp4479
a(I0
I4300
I0
g88
I1
tp4480
a(I0
I4426
I-100
S'faultcoolpad'
p4481
I1
tp4482
a(I0
I4756
F-0.75
g92
I1
tp4483
a(I0
I74
I0
g4402
I0
tp4484
a(I0
I2116
F0.875
S'happy'
p4485
I0
tp4486
a(I0
I3115
F-0.625
g4414
I0
tp4487
a(I0
I4179
F0.125
g4422
I0
tp4488
a(I0
I4274
I0
g4428
I0
tp4489
a(I0
I4290
F0.875
g4430
I0
tp4490
a(I0
I4542
I0
S'cool'
p4491
I0
tp4492
a(I0
I4542
F0.125
S'pad'
p4493
I0
tp4494
as(S'multi'
p4495
S'tasking'
p4496
tp4497
(lp4498
(I0
I2507
F0.5
S'touch'
p4499
I2
tp4500
as(S'looks'
p4501
tp4502
(lp4503
(I0
I447
I0
S'least'
p4504
I14
tp4505
a(I0
I1802
F1.0
S'good'
p4506
I14
tp4507
a(I0
I1802
I-100
S'inndesign'
p4508
I14
tp4509
a(I0
I2385
F-1.0
S'bad'
p4510
I14
tp4511
a(I0
I2475
F0.875
S'superb'
p4512
I14
tp4513
a(I0
I2538
I0
S'nd'
p4514
I14
tp4515
a(I0
I2577
F0.75
S'premium'
p4516
I14
tp4517
a(I0
I3259
F0.625
S'fine'
p4518
I14
tp4519
a(I0
I3301
F1.0
S'good'
p4520
I14
tp4521
a(I0
I3533
F1.0
S'good'
p4522
I14
tp4523
a(I0
I3533
F0.75
S'due'
p4524
I14
tp4525
a(I0
I3864
F0.875
S'decent'
p4526
I14
tp4527
a(I0
I3864
F0.875
S'nice'
p4528
I14
tp4529
a(I0
I4019
F-0.625
S'average'
p4530
I14
tp4531
a(I0
I4460
I-100
S'userthe'
p4532
I14
tp4533
a(I0
I4460
F1.0
S'good'
p4534
I14
tp4535
a(I0
I4767
F-1.0
S'bad'
p4536
I14
tp4537
as(S'viewing'
p4538
S'angles'
p4539
tp4540
(lp4541
(I0
I2017
F1.0
S'good'
p4542
I0
tp4543
a(I0
I4076
F0.875
S'nice'
p4544
I0
tp4545
as(S'front'
p4546
S'and'
p4547
S'rear'
p4548
tp4549
(lp4550
(I0
I1480
F0.875
g274
I1
tp4551
a(I0
I458
F1.0
g4130
I7
tp4552
a(I0
I2682
F-1.0
g4165
I7
tp4553
as(S'good'
p4554
S'in'
p4555
S'price'
p4556
tp4557
(lp4558
(I0
I922
F-0.875
g1172
I0
tp4559
a(I0
I922
F-0.625
g1174
I0
tp4560
a(I0
I971
F1.0
g1938
I0
tp4561
a(I0
I1088
I0
g6
I0
tp4562
a(I0
I1659
F0.875
g3342
I0
tp4563
a(I0
I1711
I0
g1156
I0
tp4564
a(I0
I1873
F0.125
g1942
I0
tp4565
a(I0
I1873
I0
g1944
I0
tp4566
a(I0
I1893
F1.0
g8
I0
tp4567
a(I0
I1963
F1.0
g1158
I0
tp4568
a(I0
I2021
F-0.875
g1948
I0
tp4569
a(I0
I2252
F1.0
g1188
I0
tp4570
a(I0
I2380
F0.5
g1951
I0
tp4571
a(I0
I2451
F-0.875
g1196
I0
tp4572
a(I0
I2556
F0.875
g12
I0
tp4573
a(I0
I2643
I0
g1956
I0
tp4574
a(I0
I2705
F1.0
g1958
I0
tp4575
a(I0
I2754
F1.0
g1160
I0
tp4576
a(I0
I3064
F-0.875
g1204
I0
tp4577
a(I0
I3244
F1.0
g1964
I0
tp4578
a(I0
I3256
I-100
S'phoneits'
p4579
I0
tp4580
a(I0
I3320
F0.5
g1968
I0
tp4581
a(I0
I3326
I0
g3356
I0
tp4582
a(I0
I3436
F1.0
g1212
I0
tp4583
a(I0
I3458
F1.0
g1971
I0
tp4584
a(I0
I3494
F-0.875
g1214
I0
tp4585
a(I0
I3533
F0.875
g1974
I0
tp4586
a(I0
I3751
F1.0
g18
I0
tp4587
a(I0
I3829
F-0.125
g20
I0
tp4588
a(I0
I3878
F1.0
g1980
I0
tp4589
a(I0
I4158
F1.0
g1982
I0
tp4590
a(I0
I4160
F1.0
g24
I0
tp4591
a(I0
I4247
I0
g1985
I0
tp4592
a(I0
I4247
F0.5
g1987
I0
tp4593
a(I0
I4376
F0.125
g1225
I0
tp4594
a(I0
I4460
F0.875
g1989
I0
tp4595
a(I0
I4460
F1.0
g1991
I0
tp4596
a(I0
I4568
F-0.875
g1229
I0
tp4597
a(I0
I4600
I0
g1431
I0
tp4598
a(I0
I4605
F-0.875
g1231
I0
tp4599
as(S'heating'
p4600
S'problem'
p4601
tp4602
(lp4603
(I0
I1245
I0
S't'
p4604
I6
tp4605
a(I0
I1274
I0
S'many'
p4606
I6
tp4607
a(I0
I1495
F0.625
S'major'
p4608
I6
tp4609
a(I0
I1740
F-0.625
S'last'
p4610
I6
tp4611
a(I0
I1820
F-0.625
S'other'
p4612
I6
tp4613
a(I0
I1820
F-0.5
S'heavy'
p4614
I6
tp4615
a(I0
I2088
F0.625
S'major'
p4616
I6
tp4617
a(I0
I2088
F1.0
S'best'
p4618
I6
tp4619
a(I0
I2088
I0
S'biggest'
p4620
I6
tp4621
a(I0
I2088
I-100
S'fasti'
p4622
I6
tp4623
a(I0
I2263
F0.375
S'much'
p4624
I6
tp4625
a(I0
I2387
F0.375
S'much'
p4626
I6
tp4627
a(I0
I2512
I0
S'update'
p4628
I6
tp4629
a(I0
I2720
F-0.625
S'non'
p4630
I6
tp4631
a(I0
I2795
F-0.625
S'other'
p4632
I6
tp4633
a(I0
I2921
F0.5
S'high'
p4634
I6
tp4635
a(I0
I3141
F0.375
S'much'
p4636
I6
tp4637
a(I0
I3461
F0.375
S'much'
p4638
I6
tp4639
a(I0
I3537
F0.5
S'high'
p4640
I6
tp4641
a(I0
I3546
I0
S'only'
p4642
I6
tp4643
a(I0
I3829
F0.5
g1616
I6
tp4644
a(I0
I4177
F0.5
S'second'
p4645
I6
tp4646
a(I0
I4276
I0
S'inbuilt'
p4647
I6
tp4648
a(I0
I4459
F-0.75
S'little'
p4649
I6
tp4650
a(I0
I4500
F1.0
g1620
I6
tp4651
a(I0
I4642
F1.0
S'good'
p4652
I6
tp4653
a(I0
I4642
F0.625
S'major'
p4654
I6
tp4655
a(I0
I4642
F-0.625
S'other'
p4656
I6
tp4657
a(I0
I4785
F-0.875
S'low'
p4658
I6
tp4659
a(I0
I4806
F0.125
S'mobile'
p4660
I6
tp4661
as(S'in'
p4662
S'price'
p4663
S'range'
p4664
tp4665
(lp4666
(I0
I1088
I0
g6
I0
tp4667
a(I0
I1741
I0
g2839
I0
tp4668
a(I0
I1893
F1.0
g8
I0
tp4669
a(I0
I2494
F-0.125
S'overall'
p4670
I0
tp4671
a(I0
I2494
F1.0
S'best'
p4672
I0
tp4673
a(I0
I2556
F0.875
g12
I0
tp4674
a(I0
I2967
F-0.875
g1202
I0
tp4675
a(I0
I3712
F0.375
g16
I0
tp4676
a(I0
I3751
F1.0
g18
I0
tp4677
a(I0
I3829
F-0.125
g20
I0
tp4678
a(I0
I3829
F-0.875
g22
I0
tp4679
a(I0
I3892
I0
S'sure'
p4680
I0
tp4681
a(I0
I4160
F1.0
g24
I0
tp4682
a(I0
I4465
F-0.125
S'such'
p4683
I0
tp4684
a(I0
I4519
I0
g26
I0
tp4685
a(I0
I4853
F0.125
g28
I0
tp4686
a(I0
I1088
I0
g6
I13
tp4687
a(I0
I1527
I0
S'iss'
p4688
I13
tp4689
a(I0
I1527
F-0.375
S'mere'
p4690
I13
tp4691
a(I0
I1741
I0
g2839
I13
tp4692
a(I0
I1893
F1.0
g8
I13
tp4693
a(I0
I2281
I0
g10
I13
tp4694
a(I0
I2494
F-0.125
g4670
I13
tp4695
a(I0
I2494
F1.0
g4672
I13
tp4696
a(I0
I2556
F0.875
g12
I13
tp4697
a(I0
I2796
F0.875
g14
I13
tp4698
a(I0
I2967
F-0.875
g1202
I13
tp4699
a(I0
I3712
F0.375
g16
I13
tp4700
a(I0
I3751
F1.0
g18
I13
tp4701
a(I0
I3829
F-0.125
g20
I13
tp4702
a(I0
I3829
F-0.875
g22
I13
tp4703
a(I0
I3892
I0
g4680
I13
tp4704
a(I0
I4160
F1.0
g24
I13
tp4705
a(I0
I4465
F-0.125
g4683
I13
tp4706
a(I0
I4519
I0
g26
I13
tp4707
a(I0
I4853
F0.125
g28
I13
tp4708
as(S'i.'
p4709
S'e.'
p4710
tp4711
(lp4712
(I0
I3630
F0.125
S'mobile'
p4713
I0
tp4714
as(S'everything'
p4715
tp4716
(lp4717
(I0
I560
F0.625
S'fine'
p4718
I8
tp4719
a(I0
I627
I0
S'clear'
p4720
I8
tp4721
a(I0
I1075
F0.375
S'ok'
p4722
I8
tp4723
a(I0
I1862
F1.0
S'good'
p4724
I8
tp4725
a(I0
I2060
F-0.625
S'other'
p4726
I8
tp4727
a(I0
I2060
I0
S'above'
p4728
I8
tp4729
a(I0
I2231
F0.625
S'fine'
p4730
I8
tp4731
a(I0
I2256
F1.0
S'good'
p4732
I8
tp4733
a(I0
I2302
F0.625
S'fine'
p4734
I8
tp4735
a(I0
I2365
F0.625
S'okay'
p4736
I8
tp4737
a(I0
I2478
F0.75
S'perfect'
p4738
I8
tp4739
a(I0
I2532
F0.625
S'fine'
p4740
I8
tp4741
a(I0
I2535
F1.0
S'good'
p4742
I8
tp4743
a(I0
I2542
F1.0
S'good'
p4744
I8
tp4745
a(I0
I2846
F0.875
S'happy'
p4746
I8
tp4747
a(I0
I2955
F0.625
S'fine'
p4748
I8
tp4749
a(I0
I3063
I-100
S'goodunable'
p4750
I8
tp4751
a(I0
I3324
F0.375
S'ok'
p4752
I8
tp4753
a(I0
I3438
F1.0
S'good'
p4754
I8
tp4755
a(I0
I3514
F1.0
S'good'
p4756
I8
tp4757
a(I0
I3545
F0.625
S'fine'
p4758
I8
tp4759
a(I0
I3939
F0.875
S'nice'
p4760
I8
tp4761
a(I0
I4032
F-0.25
S'i'
p4762
I8
tp4763
a(I0
I4261
F0.375
S'ok'
p4764
I8
tp4765
a(I0
I4270
F0.75
S'perfect'
p4766
I8
tp4767
a(I0
I4296
F1.0
S'better'
p4768
I8
tp4769
a(I0
I4296
F1.0
S'good'
p4770
I8
tp4771
a(I0
I4678
I0
S'cool'
p4772
I8
tp4773
a(I0
I4678
F0.375
S'available'
p4774
I8
tp4775
as(S'performance'
p4776
S'very'
p4777
S'good'
p4778
tp4779
(lp4780
(I0
I237
F1.0
S'good'
p4781
I0
tp4782
a(I0
I943
F1.0
S'good'
p4783
I0
tp4784
a(I0
I959
F1.0
S'good'
p4785
I0
tp4786
a(I0
I1247
F1.0
S'good'
p4787
I0
tp4788
a(I0
I1694
F1.0
S'good'
p4789
I0
tp4790
a(I0
I1944
F1.0
S'good'
p4791
I0
tp4792
a(I0
I1991
F1.0
S'good'
p4793
I0
tp4794
a(I0
I2073
F1.0
S'good'
p4795
I0
tp4796
a(I0
I2170
F1.0
S'good'
p4797
I0
tp4798
a(I0
I2173
F1.0
S'good'
p4799
I0
tp4800
a(I0
I2541
F0.875
S'nice'
p4801
I0
tp4802
a(I0
I2754
F1.0
g1160
I0
tp4803
a(I0
I2758
F0.375
S'ok'
p4804
I0
tp4805
a(I0
I2758
F1.0
S'good'
p4806
I0
tp4807
a(I0
I3366
F1.0
S'good'
p4808
I0
tp4809
a(I0
I3464
F0.5
S'satisfy'
p4810
I0
tp4811
a(I0
I3563
F1.0
S'good'
p4812
I0
tp4813
a(I0
I3662
F1.0
S'good'
p4814
I0
tp4815
a(I0
I3871
F0.75
S'smoothness'
p4816
I0
tp4817
a(I0
I4162
I0
S'n'
p4818
I0
tp4819
a(I0
I4580
F1.0
S'good'
p4820
I0
tp4821
a(I0
I4617
I0
S'camera'
p4822
I0
tp4823
a(I0
I3
F-0.125
S'overall'
p4824
I13
tp4825
a(I0
I7
F1.0
S'best'
p4826
I13
tp4827
a(I0
I7
I0
S'more'
p4828
I13
tp4829
a(I0
I7
I0
S'more'
p4830
I13
tp4831
a(I0
I237
F1.0
g4781
I13
tp4832
a(I0
I400
F-0.375
S'flawless'
p4833
I13
tp4834
a(I0
I415
F1.0
S'good'
p4835
I13
tp4836
a(I0
I455
I0
S's'
p4837
I13
tp4838
a(I0
I455
I-100
S'exllent'
p4839
I13
tp4840
a(I0
I529
F-0.5
S'ordinary'
p4841
I13
tp4842
a(I0
I529
F1.0
S'good'
p4843
I13
tp4844
a(I0
I566
F-0.125
S'overall'
p4845
I13
tp4846
a(I0
I860
F-0.125
S'overall'
p4847
I13
tp4848
a(I0
I860
F1.0
S'good'
p4849
I13
tp4850
a(I0
I943
F1.0
g4783
I13
tp4851
a(I0
I959
F1.0
g4785
I13
tp4852
a(I0
I1102
I-100
S'camerq'
p4853
I13
tp4854
a(I0
I1204
I0
S's'
p4855
I13
tp4856
a(I0
I1247
F1.0
g4787
I13
tp4857
a(I0
I1448
F1.0
S'good'
p4858
I13
tp4859
a(I0
I1598
F1.0
S'excellent'
p4860
I13
tp4861
a(I0
I1694
F1.0
g4789
I13
tp4862
a(I0
I1854
F1.0
S'best'
p4863
I13
tp4864
a(I0
I1944
F1.0
g4791
I13
tp4865
a(I0
I1991
F1.0
g4793
I13
tp4866
a(I0
I2073
F1.0
g4795
I13
tp4867
a(I0
I2098
I-100
S'satisfiedexcellent'
p4868
I13
tp4869
a(I0
I2152
F0.875
S'awesome'
p4870
I13
tp4871
a(I0
I2170
F1.0
g4797
I13
tp4872
a(I0
I2173
F1.0
g4799
I13
tp4873
a(I0
I2316
F1.0
S'best'
p4874
I13
tp4875
a(I0
I2396
F-0.125
S'overall'
p4876
I13
tp4877
a(I0
I2411
F0.875
S'happy'
p4878
I13
tp4879
a(I0
I2411
I0
S'stunning'
p4880
I13
tp4881
a(I0
I2475
F1.0
S'excellent'
p4882
I13
tp4883
a(I0
I2513
F1.0
S'good'
p4884
I13
tp4885
a(I0
I2541
F0.875
g4801
I13
tp4886
a(I0
I2636
F-0.125
S'overall'
p4887
I13
tp4888
a(I0
I2636
F1.0
S'good'
p4889
I13
tp4890
a(I0
I2758
F0.375
g4804
I13
tp4891
a(I0
I2758
F1.0
g4806
I13
tp4892
a(I0
I2825
F1.0
S'good'
p4893
I13
tp4894
a(I0
I3141
F1.0
S'good'
p4895
I13
tp4896
a(I0
I3264
F1.0
S'good'
p4897
I13
tp4898
a(I0
I3366
F1.0
g4808
I13
tp4899
a(I0
I3401
F-0.875
S'low'
p4900
I13
tp4901
a(I0
I3402
F-0.5
S'slow'
p4902
I13
tp4903
a(I0
I3410
F0.375
S'much'
p4904
I13
tp4905
a(I0
I3416
I-100
S'mobilesexcellent'
p4906
I13
tp4907
a(I0
I3416
F1.0
S'better'
p4908
I13
tp4909
a(I0
I3464
F0.5
g4810
I13
tp4910
a(I0
I3510
F1.0
S'excellent'
p4911
I13
tp4912
a(I0
I3542
F1.0
S'better'
p4913
I13
tp4914
a(I0
I3549
F0.875
S'nice'
p4915
I13
tp4916
a(I0
I3563
F1.0
g4812
I13
tp4917
a(I0
I3633
F0.875
S'happy'
p4918
I13
tp4919
a(I0
I3651
I0
S'light'
p4920
I13
tp4921
a(I0
I3662
F1.0
g4814
I13
tp4922
a(I0
I3669
I0
S'many'
p4923
I13
tp4924
a(I0
I3669
I-100
S'featuresgreat'
p4925
I13
tp4926
a(I0
I3744
F1.0
S'good'
p4927
I13
tp4928
a(I0
I3839
F1.0
S'good'
p4929
I13
tp4930
a(I0
I3871
F0.75
g4816
I13
tp4931
a(I0
I3957
F-0.778
S'mediocre'
p4932
I13
tp4933
a(I0
I3991
F0.875
S'decent'
p4934
I13
tp4935
a(I0
I4075
F0.875
S'decent'
p4936
I13
tp4937
a(I0
I4134
I-100
S'superr'
p4938
I13
tp4939
a(I0
I4162
I0
g4818
I13
tp4940
a(I0
I4322
F-0.625
S'average'
p4941
I13
tp4942
a(I0
I4325
F1.0
S'splendid'
p4943
I13
tp4944
a(I0
I4545
F0.875
S'nice'
p4945
I13
tp4946
a(I0
I4580
F1.0
g4820
I13
tp4947
a(I0
I4617
I0
g4822
I13
tp4948
a(I0
I4680
F1.0
S'good'
p4949
I13
tp4950
a(I0
I4768
F-0.5
S'disappointed'
p4951
I13
tp4952
a(I0
I4816
F1.0
S'good'
p4953
I13
tp4954
as(g670
S'gb'
p4955
S'ram'
p4956
tp4957
(lp4958
(I0
I74
F1.0
S'good'
p4959
I0
tp4960
a(I0
I233
F-0.25
g674
I0
tp4961
a(I0
I233
I0
g676
I0
tp4962
a(I0
I233
F0.5
g678
I0
tp4963
a(I0
I233
F0.5
g680
I0
tp4964
a(I0
I431
F0.5
S'frank'
p4965
I0
tp4966
a(I0
I579
F1.0
S'good'
p4967
I0
tp4968
a(I0
I895
I0
S'gb'
p4969
I0
tp4970
a(I0
I973
I0
S'android'
p4971
I0
tp4972
a(I0
I1014
F1.0
S'good'
p4973
I0
tp4974
a(I0
I1203
F0.875
S'nice'
p4975
I0
tp4976
a(I0
I1203
I0
S'more'
p4977
I0
tp4978
a(I0
I1320
F0.125
S'enough'
p4979
I0
tp4980
a(I0
I1320
F0.5
S'daily'
p4981
I0
tp4982
a(I0
I1480
I0
S'android'
p4983
I0
tp4984
a(I0
I1572
F0.75
S'fantastic'
p4985
I0
tp4986
a(I0
I1789
F0.5
S'large'
p4987
I0
tp4988
a(I0
I1963
F-0.625
S'fast'
p4989
I0
tp4990
a(I0
I2071
I0
S'gb'
p4991
I0
tp4992
a(I0
I2236
F0.5
S'dual'
p4993
I0
tp4994
a(I0
I2658
I0
S'gb'
p4995
I0
tp4996
a(I0
I2658
F0.375
S'compact'
p4997
I0
tp4998
a(I0
I2800
I0
S'ic'
p4999
I0
tp5000
a(I0
I2819
I0
g690
I0
tp5001
a(I0
I2846
F0.875
S'awesome'
p5002
I0
tp5003
a(I0
I3260
F0.875
g692
I0
tp5004
a(I0
I3795
F0.5
S'high'
p5005
I0
tp5006
a(I0
I3873
F1.0
g696
I0
tp5007
a(I0
I4311
F1.0
S'best'
p5008
I0
tp5009
a(I0
I4403
F0.5
g682
I0
tp5010
a(I0
I4426
F-1.0
S'worse'
p5011
I0
tp5012
a(I0
I4490
I0
S'useful'
p5013
I0
tp5014
a(I0
I4680
F-0.75
S'free'
p5015
I0
tp5016
a(I0
I4777
F-0.75
S'sufficient'
p5017
I0
tp5018
a(I0
I74
F1.0
g4959
I9
tp5019
a(I0
I233
F-0.25
g674
I9
tp5020
a(I0
I233
I0
g676
I9
tp5021
a(I0
I233
F0.5
g678
I9
tp5022
a(I0
I233
F0.5
g680
I9
tp5023
a(I0
I409
F-0.75
S'free'
p5024
I9
tp5025
a(I0
I431
F0.5
g4965
I9
tp5026
a(I0
I579
F1.0
g4967
I9
tp5027
a(I0
I801
I0
S'above'
p5028
I9
tp5029
a(I0
I801
F-0.75
S'free'
p5030
I9
tp5031
a(I0
I815
I0
S'gb'
p5032
I9
tp5033
a(I0
I815
F0.375
S'available'
p5034
I9
tp5035
a(I0
I895
I0
g4969
I9
tp5036
a(I0
I973
I0
g4971
I9
tp5037
a(I0
I1014
F1.0
g4973
I9
tp5038
a(I0
I1203
F0.875
g4975
I9
tp5039
a(I0
I1203
I0
g4977
I9
tp5040
a(I0
I1305
F-0.75
S'free'
p5041
I9
tp5042
a(I0
I1320
F0.125
g4979
I9
tp5043
a(I0
I1320
F0.5
g4981
I9
tp5044
a(I0
I1480
I0
g4983
I9
tp5045
a(I0
I1572
F0.75
g4985
I9
tp5046
a(I0
I1789
F0.5
g4987
I9
tp5047
a(I0
I1963
F-0.625
g4989
I9
tp5048
a(I0
I2071
I0
g4991
I9
tp5049
a(I0
I2236
F0.5
g4993
I9
tp5050
a(I0
I2658
I0
g4995
I9
tp5051
a(I0
I2658
F0.375
g4997
I9
tp5052
a(I0
I2800
I0
g4999
I9
tp5053
a(I0
I2819
I0
g690
I9
tp5054
a(I0
I2846
F0.875
g5002
I9
tp5055
a(I0
I2908
I-100
S'good3gb'
p5056
I9
tp5057
a(I0
I3213
F-0.75
S'free'
p5058
I9
tp5059
a(I0
I3213
F1.0
S'good'
p5060
I9
tp5061
a(I0
I3260
F0.875
g692
I9
tp5062
a(I0
I3566
I0
S'gb'
p5063
I9
tp5064
a(I0
I3566
F-0.75
S'free'
p5065
I9
tp5066
a(I0
I3795
F0.5
g5005
I9
tp5067
a(I0
I3873
F1.0
g696
I9
tp5068
a(I0
I4311
F1.0
g5008
I9
tp5069
a(I0
I4403
F0.5
g682
I9
tp5070
a(I0
I4426
F-1.0
g5011
I9
tp5071
a(I0
I4490
I0
g5013
I9
tp5072
a(I0
I4680
F-0.75
g5015
I9
tp5073
a(I0
I4681
F-0.75
S'free'
p5074
I9
tp5075
a(I0
I4777
F-0.75
g5017
I9
tp5076
as(S'issues'
p5077
tp5078
(lp5079
(I0
I295
I0
S'thermal'
p5080
I4
tp5081
a(I0
I591
F0.625
S'major'
p5082
I4
tp5083
a(I0
I605
I0
S'n'
p5084
I4
tp5085
a(I0
I605
I-100
S'amazonmultiple'
p5086
I4
tp5087
a(I0
I920
I0
S'big'
p5088
I4
tp5089
a(I0
I1441
I0
S'screen'
p5090
I4
tp5091
a(I0
I1441
F0.5
S'touch'
p5092
I4
tp5093
a(I0
I1510
F-0.125
S'such'
p5094
I4
tp5095
a(I0
I2068
F0.5
S'technical'
p5096
I4
tp5097
a(I0
I2359
I0
S'serious'
p5098
I4
tp5099
a(I0
I2747
F-0.125
S'side'
p5100
I4
tp5101
a(I0
I2758
I0
S'few'
p5102
I4
tp5103
a(I0
I4054
F-1.0
S'worst'
p5104
I4
tp5105
a(I0
I4054
F0.625
S'major'
p5106
I4
tp5107
a(I0
I4175
F0.625
S'first'
p5108
I4
tp5109
a(I0
I4390
F-0.875
S'small'
p5110
I4
tp5111
as(S'color'
p5112
S'reproduction'
p5113
tp5114
(lp5115
(I0
I634
F1.0
S'best'
p5116
I0
tp5117
a(I0
I634
F0.5
S'possible'
p5118
I0
tp5119
a(I0
I659
F1.0
S'good'
p5120
I0
tp5121
a(I0
I1503
F-0.875
S'low'
p5122
I0
tp5123
as(S'very'
p5124
S'good'
p5125
S'mobile'
p5126
tp5127
(lp5128
(I0
I602
F1.0
S'good'
p5129
I0
tp5130
a(I0
I1711
I0
g1156
I0
tp5131
a(I0
I2391
F1.0
g1447
I0
tp5132
a(I0
I2391
F1.0
g1449
I0
tp5133
a(I0
I2401
F1.0
S'good'
p5134
I0
tp5135
a(I0
I2551
I-100
S'goodnot'
p5136
I0
tp5137
a(I0
I2754
F1.0
g1160
I0
tp5138
a(I0
I2754
I-100
S'supernice'
p5139
I0
tp5140
a(I0
I2758
F-0.125
g1451
I0
tp5141
a(I0
I2758
F1.0
g1453
I0
tp5142
a(I0
I2819
F1.0
g1457
I0
tp5143
a(I0
I2968
F1.0
S'good'
p5144
I0
tp5145
a(I0
I3127
F0.625
S'smooth'
p5146
I0
tp5147
a(I0
I3152
F1.0
g2874
I0
tp5148
a(I0
I3165
F1.0
S'good'
p5149
I0
tp5150
a(I0
I3399
F1.0
S'good'
p5151
I0
tp5152
a(I0
I3479
F1.0
g2876
I0
tp5153
a(I0
I3708
F1.0
g1465
I0
tp5154
a(I0
I3749
F1.0
S'good'
p5155
I0
tp5156
a(I0
I3784
F1.0
g2882
I0
tp5157
a(I0
I4451
F1.0
g4094
I0
tp5158
a(I0
I4600
F-1.0
g4098
I0
tp5159
a(I0
I4600
F-0.125
g4100
I0
tp5160
a(I0
I4600
F0.75
g4102
I0
tp5161
a(I0
I4637
I0
g4108
I0
tp5162
a(I0
I4782
F1.0
g1467
I0
tp5163
a(I0
I4867
F1.0
g2895
I0
tp5164
a(I0
I4867
I0
g2897
I0
tp5165
a(I0
I4867
I0
g2899
I0
tp5166
a(I0
I525
F1.0
S'good'
p5167
I1
tp5168
a(I0
I525
F0.5
S'stylish'
p5169
I1
tp5170
a(I0
I602
F1.0
g5129
I1
tp5171
a(I0
I805
F-0.75
S'casual'
p5172
I1
tp5173
a(I0
I1616
F-0.125
g4063
I1
tp5174
a(I0
I1616
F1.0
g4065
I1
tp5175
a(I0
I1711
I0
g1156
I1
tp5176
a(I0
I1764
F1.0
S'good'
p5177
I1
tp5178
a(I0
I1817
F-0.125
g4068
I1
tp5179
a(I0
I1817
F1.0
g4070
I1
tp5180
a(I0
I1963
F1.0
g1158
I1
tp5181
a(I0
I1963
F-0.25
g2901
I1
tp5182
a(I0
I2391
F1.0
g1447
I1
tp5183
a(I0
I2391
F1.0
g1449
I1
tp5184
a(I0
I2401
F1.0
g5134
I1
tp5185
a(I0
I2480
F1.0
S'good'
p5186
I1
tp5187
a(I0
I2480
I-100
S'allit'
p5188
I1
tp5189
a(I0
I2480
F0.875
S'great'
p5190
I1
tp5191
a(I0
I2481
F1.0
S'good'
p5192
I1
tp5193
a(I0
I2754
F1.0
g1160
I1
tp5194
a(I0
I2758
F-0.125
g1451
I1
tp5195
a(I0
I2758
F1.0
g1453
I1
tp5196
a(I0
I2819
F1.0
g1457
I1
tp5197
a(I0
I2949
F1.0
S'excellent'
p5198
I1
tp5199
a(I0
I2968
F1.0
g5144
I1
tp5200
a(I0
I3127
F0.625
g5146
I1
tp5201
a(I0
I3152
F1.0
g2874
I1
tp5202
a(I0
I3165
F1.0
g5149
I1
tp5203
a(I0
I3269
F1.0
g1459
I1
tp5204
a(I0
I3320
F1.0
g4079
I1
tp5205
a(I0
I3399
F1.0
g5151
I1
tp5206
a(I0
I3479
F1.0
g2876
I1
tp5207
a(I0
I3644
F1.0
S'good'
p5208
I1
tp5209
a(I0
I3708
F1.0
g1465
I1
tp5210
a(I0
I3723
F1.0
S'good'
p5211
I1
tp5212
a(I0
I3749
F1.0
g5155
I1
tp5213
a(I0
I3759
I0
g4088
I1
tp5214
a(I0
I3784
F1.0
g2882
I1
tp5215
a(I0
I4050
F1.0
S'good'
p5216
I1
tp5217
a(I0
I4184
F-1.0
S'worst'
p5218
I1
tp5219
a(I0
I4451
F1.0
g4094
I1
tp5220
a(I0
I4491
F1.0
S'good'
p5221
I1
tp5222
a(I0
I4600
F-1.0
g4098
I1
tp5223
a(I0
I4600
F-0.125
g4100
I1
tp5224
a(I0
I4600
F0.75
g4102
I1
tp5225
a(I0
I4605
F-0.125
g2914
I1
tp5226
a(I0
I4605
F-0.625
g2916
I1
tp5227
a(I0
I4637
I0
g4108
I1
tp5228
a(I0
I4661
I-100
S'workingawsome'
p5229
I1
tp5230
a(I0
I4782
F1.0
g1467
I1
tp5231
a(I0
I4867
F1.0
g2895
I1
tp5232
a(I0
I4867
I0
g2897
I1
tp5233
a(I0
I4867
I0
g2899
I1
tp5234
as(S'camera'
p5235
S'very'
p5236
S'poor'
p5237
tp5238
(lp5239
(I0
I1980
F-1.0
g1773
I0
tp5240
a(I0
I2308
I0
g2307
I0
tp5241
a(I0
I2308
F0.375
g2309
I0
tp5242
a(I0
I2308
I0
g2311
I0
tp5243
a(I0
I2404
I0
g288
I0
tp5244
a(I0
I2491
F-0.875
S'poor'
p5245
I0
tp5246
a(I0
I2536
F-0.875
S'poor'
p5247
I0
tp5248
a(I0
I2611
F-0.875
g2323
I0
tp5249
a(I0
I2886
F1.0
g2325
I0
tp5250
a(I0
I2893
F-0.875
g1788
I0
tp5251
a(I0
I2893
F-1.0
g1790
I0
tp5252
a(I0
I2908
F0.125
g2581
I0
tp5253
a(I0
I2948
F-0.875
g2330
I0
tp5254
a(I0
I3169
F-0.875
S'poor'
p5255
I0
tp5256
a(I0
I3728
F-0.875
g858
I0
tp5257
a(I0
I4435
F-0.875
S'poor'
p5258
I0
tp5259
as(S'usage'
p5260
tp5261
(lp5262
(I0
I477
F0.5
S'high'
p5263
I8
tp5264
a(I0
I577
F-0.75
S'wild'
p5265
I8
tp5266
a(I0
I673
F-0.625
S'moderate'
p5267
I8
tp5268
a(I0
I979
F0.5
S'daily'
p5269
I8
tp5270
a(I0
I979
I0
S'nexus'
p5271
I8
tp5272
a(I0
I1306
F-0.625
S'moderate'
p5273
I8
tp5274
a(I0
I1362
F-0.625
S'moderate'
p5275
I8
tp5276
a(I0
I1523
F-0.5
S'heavy'
p5277
I8
tp5278
a(I0
I1587
F-0.5
S'regular'
p5279
I8
tp5280
a(I0
I1719
I0
S'normal'
p5281
I8
tp5282
a(I0
I1914
F-0.625
S'moderate'
p5283
I8
tp5284
a(I0
I2307
F-0.5
S'heavy'
p5285
I8
tp5286
a(I0
I2472
F0.375
S'much'
p5287
I8
tp5288
a(I0
I2935
F-0.5
S'long'
p5289
I8
tp5290
a(I0
I3535
I0
S'min'
p5291
I8
tp5292
a(I0
I3584
I0
S'minimal'
p5293
I8
tp5294
a(I0
I3658
F-0.5
S'heavy'
p5295
I8
tp5296
a(I0
I4203
I0
S'internet'
p5297
I8
tp5298
a(I0
I4203
F1.0
S'good'
p5299
I8
tp5300
as(S'quality'
p5301
S'very'
p5302
S'poor'
p5303
tp5304
(lp5305
(I0
I655
F-0.875
g796
I2
tp5306
a(I0
I655
F-0.125
g798
I2
tp5307
a(I0
I1980
F-1.0
g2300
I2
tp5308
a(I0
I2071
F-0.875
S'poor'
p5309
I2
tp5310
a(I0
I2308
F-0.875
g2305
I2
tp5311
a(I0
I2308
F0.75
g2313
I2
tp5312
a(I0
I2373
F-0.875
g830
I2
tp5313
a(I0
I2387
F-1.0
g832
I2
tp5314
a(I0
I2545
F-0.875
S'poor'
p5315
I2
tp5316
a(I0
I2948
F0.75
g1403
I2
tp5317
a(I0
I3376
F-0.875
g2335
I2
tp5318
a(I0
I3887
I0
S'screen'
p5319
I2
tp5320
a(I0
I3887
F-0.875
S'poor'
p5321
I2
tp5322
a(I0
I3998
F-0.875
S'cheap'
p5323
I2
tp5324
a(I0
I4116
F-0.875
S'poor'
p5325
I2
tp5326
a(I0
I4600
I0
g1418
I2
tp5327
a(I0
I4789
F0.75
g1420
I2
tp5328
as(S'and'
p5329
S'battery'
p5330
S'performance'
p5331
tp5332
(lp5333
(I0
I7
F1.0
g4826
I0
tp5334
a(I0
I7
I0
g4828
I0
tp5335
a(I0
I7
I0
g4830
I0
tp5336
a(I0
I7
F0.5
S'heat'
p5337
I0
tp5338
a(I0
I566
F-0.125
g4845
I0
tp5339
a(I0
I566
F1.0
g2629
I0
tp5340
a(I0
I577
I0
S'least'
p5341
I0
tp5342
a(I0
I577
I0
S'current'
p5343
I0
tp5344
a(I0
I1008
I0
g1335
I0
tp5345
a(I0
I2475
F1.0
g4882
I0
tp5346
a(I0
I2495
F0.875
g2800
I0
tp5347
a(I0
I2636
F-0.125
g4887
I0
tp5348
a(I0
I2636
F1.0
g4889
I0
tp5349
a(I0
I2754
F1.0
S'good'
p5350
I0
tp5351
a(I0
I3141
F1.0
g4895
I0
tp5352
a(I0
I3563
F1.0
g4812
I0
tp5353
a(I0
I3871
F0.75
g4816
I0
tp5354
a(I0
I4322
F-0.625
g4941
I0
tp5355
a(I0
I4545
F0.875
g4945
I0
tp5356
as(S'good'
p5357
S'camera'
p5358
S'quality'
p5359
tp5360
(lp5361
(I0
I344
I0
g2283
I0
tp5362
a(I0
I422
F-0.125
g264
I0
tp5363
a(I0
I481
F1.0
g2362
I0
tp5364
a(I0
I578
F1.0
g788
I0
tp5365
a(I0
I578
F1.0
g790
I0
tp5366
a(I0
I578
F0.25
g792
I0
tp5367
a(I0
I578
F1.0
g794
I0
tp5368
a(I0
I721
I0
S'camera'
p5369
I0
tp5370
a(I0
I721
F-0.875
S'poor'
p5371
I0
tp5372
a(I0
I889
F1.0
g2366
I0
tp5373
a(I0
I1008
F1.0
g800
I0
tp5374
a(I0
I1262
F1.0
S'good'
p5375
I0
tp5376
a(I0
I1270
F1.0
g802
I0
tp5377
a(I0
I1270
F0.5
g804
I0
tp5378
a(I0
I1321
F0.875
g806
I0
tp5379
a(I0
I1328
F1.0
g2294
I0
tp5380
a(I0
I1472
F1.0
g2370
I0
tp5381
a(I0
I1594
F1.0
g812
I0
tp5382
a(I0
I1711
F1.0
g814
I0
tp5383
a(I0
I1711
F-1.0
g816
I0
tp5384
a(I0
I1711
I0
g1156
I0
tp5385
a(I0
I1723
F1.0
g2373
I0
tp5386
a(I0
I1757
I0
S'camera'
p5387
I0
tp5388
a(I0
I1764
F-0.75
S'little'
p5389
I0
tp5390
a(I0
I1764
F-0.875
S'low'
p5391
I0
tp5392
a(I0
I1798
F1.0
g818
I0
tp5393
a(I0
I2085
F0.5
g820
I0
tp5394
a(I0
I2085
I0
g822
I0
tp5395
a(I0
I2387
F-1.0
g832
I0
tp5396
a(I0
I2391
F1.0
g834
I0
tp5397
a(I0
I2451
F1.0
S'good'
p5398
I0
tp5399
a(I0
I2499
F1.0
g836
I0
tp5400
a(I0
I2516
F1.0
S'good'
p5401
I0
tp5402
a(I0
I2827
I0
S'camera'
p5403
I0
tp5404
a(I0
I2827
F-0.875
S'low'
p5405
I0
tp5406
a(I0
I2827
F1.0
S'good'
p5407
I0
tp5408
a(I0
I2933
F0.625
g838
I0
tp5409
a(I0
I2948
F0.75
g1403
I0
tp5410
a(I0
I2948
F-0.875
g2330
I0
tp5411
a(I0
I2956
F1.0
g2390
I0
tp5412
a(I0
I2960
I0
g840
I0
tp5413
a(I0
I3228
F-0.625
g1405
I0
tp5414
a(I0
I3324
F-0.625
g849
I0
tp5415
a(I0
I3324
F-1.0
g851
I0
tp5416
a(I0
I3458
F1.0
g2393
I0
tp5417
a(I0
I3458
F1.0
g3173
I0
tp5418
a(I0
I3529
I0
S'camera'
p5419
I0
tp5420
a(I0
I3529
F-1.0
S'bad'
p5421
I0
tp5422
a(I0
I3579
F-1.0
g1793
I0
tp5423
a(I0
I3579
F-1.0
g1410
I0
tp5424
a(I0
I3662
F1.0
g316
I0
tp5425
a(I0
I3728
F-0.875
g858
I0
tp5426
a(I0
I3829
F-0.125
g318
I0
tp5427
a(I0
I3829
F1.0
g320
I0
tp5428
a(I0
I3829
I0
g322
I0
tp5429
a(I0
I3829
F-0.125
g324
I0
tp5430
a(I0
I3829
F-0.625
g864
I0
tp5431
a(I0
I3989
F1.0
S'good'
p5432
I0
tp5433
a(I0
I4043
F1.0
g2402
I0
tp5434
a(I0
I4066
F1.0
g1412
I0
tp5435
a(I0
I4156
F1.0
g2406
I0
tp5436
a(I0
I4301
F1.0
g1414
I0
tp5437
a(I0
I4313
F-0.875
g871
I0
tp5438
a(I0
I4369
F1.0
g873
I0
tp5439
a(I0
I4519
F1.0
g877
I0
tp5440
a(I0
I4541
F1.0
S'good'
p5441
I0
tp5442
a(I0
I4542
F-0.875
g879
I0
tp5443
a(I0
I4542
I0
g336
I0
tp5444
a(I0
I4542
F-0.125
g338
I0
tp5445
a(I0
I4600
I0
g1418
I0
tp5446
a(I0
I4767
I0
g1799
I0
tp5447
a(I0
I4767
F1.0
g1801
I0
tp5448
a(I0
I4789
F0.75
g1420
I0
tp5449
a(I0
I4819
F-0.875
g1803
I0
tp5450
a(I0
I333
F-0.625
g776
I14
tp5451
a(I0
I344
I0
g2283
I14
tp5452
a(I0
I422
F-0.125
g264
I14
tp5453
a(I0
I424
I0
g2285
I14
tp5454
a(I0
I424
I-100
S'average3'
p5455
I14
tp5456
a(I0
I424
F0.5
g2102
I14
tp5457
a(I0
I452
F-0.625
g778
I14
tp5458
a(I0
I452
F-0.5
g780
I14
tp5459
a(I0
I481
F1.0
g2362
I14
tp5460
a(I0
I558
F-0.75
g782
I14
tp5461
a(I0
I558
F-0.5
g784
I14
tp5462
a(I0
I577
F1.0
g786
I14
tp5463
a(I0
I578
F1.0
g788
I14
tp5464
a(I0
I578
F1.0
g790
I14
tp5465
a(I0
I578
F0.25
g792
I14
tp5466
a(I0
I578
F1.0
g794
I14
tp5467
a(I0
I637
F-0.125
g353
I14
tp5468
a(I0
I655
F-0.875
g796
I14
tp5469
a(I0
I655
F-0.125
g798
I14
tp5470
a(I0
I709
F0.875
S'awesome'
p5471
I14
tp5472
a(I0
I721
I0
g5369
I14
tp5473
a(I0
I721
F-0.875
g5371
I14
tp5474
a(I0
I889
F1.0
g2366
I14
tp5475
a(I0
I1008
F1.0
g800
I14
tp5476
a(I0
I1260
F-0.875
S'poor'
p5477
I14
tp5478
a(I0
I1262
F1.0
g5375
I14
tp5479
a(I0
I1270
F1.0
g802
I14
tp5480
a(I0
I1270
F0.5
g804
I14
tp5481
a(I0
I1321
F0.875
g806
I14
tp5482
a(I0
I1328
F1.0
g2294
I14
tp5483
a(I0
I1457
F-0.875
g808
I14
tp5484
a(I0
I1457
F-1.0
g810
I14
tp5485
a(I0
I1472
F1.0
g2370
I14
tp5486
a(I0
I1487
F-0.125
g2425
I14
tp5487
a(I0
I1594
F1.0
g812
I14
tp5488
a(I0
I1711
F1.0
g814
I14
tp5489
a(I0
I1711
F-1.0
g816
I14
tp5490
a(I0
I1718
F1.0
g2427
I14
tp5491
a(I0
I1723
F1.0
g2373
I14
tp5492
a(I0
I1757
I0
g5387
I14
tp5493
a(I0
I1764
F-0.75
g5389
I14
tp5494
a(I0
I1764
F-0.875
g5391
I14
tp5495
a(I0
I1778
F-0.625
S'average'
p5496
I14
tp5497
a(I0
I1798
F1.0
g818
I14
tp5498
a(I0
I1980
F-1.0
g1773
I14
tp5499
a(I0
I1980
F-1.0
g2300
I14
tp5500
a(I0
I2085
F0.5
g820
I14
tp5501
a(I0
I2085
I0
g822
I14
tp5502
a(I0
I2103
F-1.0
S'worst'
p5503
I14
tp5504
a(I0
I2107
F0.875
S'happy'
p5505
I14
tp5506
a(I0
I2163
F-1.0
g824
I14
tp5507
a(I0
I2276
F-0.125
g826
I14
tp5508
a(I0
I2308
F-0.875
g2305
I14
tp5509
a(I0
I2308
I0
g2307
I14
tp5510
a(I0
I2308
F0.375
g2309
I14
tp5511
a(I0
I2308
I0
g2311
I14
tp5512
a(I0
I2308
F0.75
g2313
I14
tp5513
a(I0
I2317
F0.75
g828
I14
tp5514
a(I0
I2373
F-0.875
g830
I14
tp5515
a(I0
I2387
F-1.0
g832
I14
tp5516
a(I0
I2391
F1.0
g834
I14
tp5517
a(I0
I2433
F-1.0
g1776
I14
tp5518
a(I0
I2451
F1.0
g5398
I14
tp5519
a(I0
I2492
I-100
S'badi'
p5520
I14
tp5521
a(I0
I2499
F1.0
g836
I14
tp5522
a(I0
I2500
F-1.0
g2321
I14
tp5523
a(I0
I2516
F1.0
g5401
I14
tp5524
a(I0
I2541
I-100
S'nicephone'
p5525
I14
tp5526
a(I0
I2611
F-0.875
g2323
I14
tp5527
a(I0
I2613
F-0.625
S'average'
p5528
I14
tp5529
a(I0
I2827
I0
g5403
I14
tp5530
a(I0
I2827
F-0.875
g5405
I14
tp5531
a(I0
I2827
F1.0
g5407
I14
tp5532
a(I0
I2873
F-0.875
S'poor'
p5533
I14
tp5534
a(I0
I2886
F1.0
g2325
I14
tp5535
a(I0
I2893
F-0.875
g1788
I14
tp5536
a(I0
I2893
F-1.0
g1790
I14
tp5537
a(I0
I2933
F0.625
g838
I14
tp5538
a(I0
I2948
F0.75
g1403
I14
tp5539
a(I0
I2948
F-0.875
g2330
I14
tp5540
a(I0
I2956
F1.0
g2390
I14
tp5541
a(I0
I2960
I0
g840
I14
tp5542
a(I0
I2976
I0
g400
I14
tp5543
a(I0
I2976
F-0.375
g843
I14
tp5544
a(I0
I3145
F-0.875
S'poor'
p5545
I14
tp5546
a(I0
I3228
F-0.625
g1405
I14
tp5547
a(I0
I3323
F0.125
g845
I14
tp5548
a(I0
I3323
F-1.0
g847
I14
tp5549
a(I0
I3324
F-0.625
g849
I14
tp5550
a(I0
I3324
F-1.0
g851
I14
tp5551
a(I0
I3347
F0.875
S'great'
p5552
I14
tp5553
a(I0
I3376
F-0.875
g2335
I14
tp5554
a(I0
I3435
F-1.0
g853
I14
tp5555
a(I0
I3458
F1.0
g2393
I14
tp5556
a(I0
I3458
F1.0
g3173
I14
tp5557
a(I0
I3493
F0.5
S'satisfactory'
p5558
I14
tp5559
a(I0
I3529
I0
g5419
I14
tp5560
a(I0
I3529
F-1.0
g5421
I14
tp5561
a(I0
I3579
F-1.0
g1793
I14
tp5562
a(I0
I3579
F-1.0
g1410
I14
tp5563
a(I0
I3640
F-1.0
g855
I14
tp5564
a(I0
I3653
F-0.875
S'pathetic'
p5565
I14
tp5566
a(I0
I3662
F1.0
g316
I14
tp5567
a(I0
I3666
I-100
S'camerabest'
p5568
I14
tp5569
a(I0
I3666
I-100
S'superbpoor'
p5570
I14
tp5571
a(I0
I3728
F-0.875
g858
I14
tp5572
a(I0
I3759
I-100
S'dullso'
p5573
I14
tp5574
a(I0
I3829
F-0.125
g318
I14
tp5575
a(I0
I3829
F1.0
g320
I14
tp5576
a(I0
I3829
I0
g322
I14
tp5577
a(I0
I3829
F-0.125
g324
I14
tp5578
a(I0
I3829
F-0.625
g864
I14
tp5579
a(I0
I3830
F-0.625
g420
I14
tp5580
a(I0
I3830
I0
g867
I14
tp5581
a(I0
I3830
F-0.625
g869
I14
tp5582
a(I0
I3989
F1.0
g5432
I14
tp5583
a(I0
I4043
F1.0
g2402
I14
tp5584
a(I0
I4066
F1.0
g1412
I14
tp5585
a(I0
I4090
F-1.0
S'bad'
p5586
I14
tp5587
a(I0
I4156
F1.0
g2406
I14
tp5588
a(I0
I4231
F1.0
S'better'
p5589
I14
tp5590
a(I0
I4301
F1.0
g1414
I14
tp5591
a(I0
I4313
F-0.875
g871
I14
tp5592
a(I0
I4369
F1.0
g873
I14
tp5593
a(I0
I4387
F-0.625
g875
I14
tp5594
a(I0
I4470
F-1.0
g2345
I14
tp5595
a(I0
I4470
F0.5
g2347
I14
tp5596
a(I0
I4491
I-100
S'betterplzzz'
p5597
I14
tp5598
a(I0
I4519
F1.0
g877
I14
tp5599
a(I0
I4541
F1.0
g5441
I14
tp5600
a(I0
I4542
F-0.875
g879
I14
tp5601
a(I0
I4542
I0
g336
I14
tp5602
a(I0
I4542
F-0.125
g338
I14
tp5603
a(I0
I4600
I0
g1418
I14
tp5604
a(I0
I4607
F0.625
S'super'
p5605
I14
tp5606
a(I0
I4719
I-100
S'angrycamera'
p5607
I14
tp5608
a(I0
I4738
I0
g883
I14
tp5609
a(I0
I4767
I0
g1799
I14
tp5610
a(I0
I4767
F1.0
g1801
I14
tp5611
a(I0
I4776
F0.75
g2442
I14
tp5612
a(I0
I4789
F0.75
g1420
I14
tp5613
a(I0
I4792
I0
S'above'
p5614
I14
tp5615
a(I0
I4819
F-0.875
g1803
I14
tp5616
as(S'3gb'
p5617
S'ram'
p5618
tp5619
(lp5620
(I0
I74
F1.0
g4959
I0
tp5621
a(I0
I431
F0.5
g4965
I0
tp5622
a(I0
I1014
F1.0
g4973
I0
tp5623
a(I0
I1203
F0.875
g4975
I0
tp5624
a(I0
I1203
I0
g4977
I0
tp5625
a(I0
I1320
F0.125
g4979
I0
tp5626
a(I0
I1320
F0.5
g4981
I0
tp5627
a(I0
I2236
F0.5
g4993
I0
tp5628
a(I0
I2800
I0
g4999
I0
tp5629
a(I0
I2846
F0.875
g5002
I0
tp5630
a(I0
I3795
F0.5
g5005
I0
tp5631
a(I0
I4311
F1.0
g5008
I0
tp5632
a(I0
I4426
F-1.0
g5011
I0
tp5633
a(I0
I4680
F-0.75
g5015
I0
tp5634
a(I0
I4777
F-0.75
g5017
I0
tp5635
as(S'amazon'
p5636
tp5637
(lp5638
(I0
I1237
I0
S's'
p5639
I0
tp5640
a(I0
I1456
F1.0
S'best'
p5641
I0
tp5642
a(I0
I1546
F1.0
S'best'
p5643
I0
tp5644
a(I0
I1694
F1.0
S'good'
p5645
I0
tp5646
a(I0
I1736
F-0.125
S'such'
p5647
I0
tp5648
a(I0
I1792
I0
S'thank'
p5649
I0
tp5650
a(I0
I1792
I0
S'u'
p5651
I0
tp5652
a(I0
I2648
I-100
S'smartthanku'
p5653
I0
tp5654
a(I0
I3166
F0.375
S'satisfied'
p5655
I0
tp5656
a(I0
I3369
I0
S'u'
p5657
I0
tp5658
a(I0
I3369
F0.25
S'read'
p5659
I0
tp5660
a(I0
I3454
F0.875
S'amazing'
p5661
I0
tp5662
a(I0
I3725
I-100
S'serviceexcellent'
p5663
I0
tp5664
a(I0
I3865
F0.875
S'nice'
p5665
I0
tp5666
a(I0
I4109
F0.5
S'ready'
p5667
I0
tp5668
a(I0
I4245
F0.25
S'future'
p5669
I0
tp5670
a(I0
I4504
F1.0
S'good'
p5671
I0
tp5672
a(I0
I4764
F0.875
S'awesome'
p5673
I0
tp5674
as(S'very'
p5675
S'good'
p5676
S'battery'
p5677
tp5678
(lp5679
(I0
I6
F-0.5
g2745
I0
tp5680
a(I0
I450
F1.0
g2753
I0
tp5681
a(I0
I975
F0.375
S'full'
p5682
I0
tp5683
a(I0
I1255
F1.0
g1248
I0
tp5684
a(I0
I1873
F0.875
S'great'
p5685
I0
tp5686
a(I0
I1873
F1.0
S'good'
p5687
I0
tp5688
a(I0
I1944
F0.875
S'great'
p5689
I0
tp5690
a(I0
I1944
F-0.5
S'unbelievable'
p5691
I0
tp5692
a(I0
I2387
F-1.0
g1354
I0
tp5693
a(I0
I2754
F1.0
g1160
I0
tp5694
a(I0
I2754
F1.0
g5350
I0
tp5695
a(I0
I2758
F1.0
S'good'
p5696
I0
tp5697
a(I0
I2819
F0.625
g2453
I0
tp5698
a(I0
I2844
F0.375
S'early'
p5699
I0
tp5700
a(I0
I3028
F0.375
S'full'
p5701
I0
tp5702
a(I0
I3363
F-0.5
S'disappointed'
p5703
I0
tp5704
a(I0
I3430
F0.625
g1274
I0
tp5705
a(I0
I3482
F-0.875
g2675
I0
tp5706
a(I0
I4004
F0.125
g1276
I0
tp5707
a(I0
I4160
F-0.625
g2457
I0
tp5708
a(I0
I4164
F-1.0
g2681
I0
tp5709
a(I0
I4600
F1.0
S'good'
p5710
I0
tp5711
a(I0
I4600
F-0.875
S'poor'
p5712
I0
tp5713
a(I0
I4612
F1.0
S'good'
p5714
I0
tp5715
a(I0
I4753
F-0.875
g2691
I0
tp5716
a(I0
I4853
F-0.5
g2693
I0
tp5717
a(I0
I6
F-0.5
g2745
I1
tp5718
a(I0
I422
F1.0
g2625
I1
tp5719
a(I0
I450
F1.0
g2753
I1
tp5720
a(I0
I540
F-0.5
g2757
I1
tp5721
a(I0
I540
F1.0
g2759
I1
tp5722
a(I0
I549
F0.875
g2627
I1
tp5723
a(I0
I566
F1.0
g2629
I1
tp5724
a(I0
I654
F1.0
g2633
I1
tp5725
a(I0
I756
F1.0
S'good'
p5726
I1
tp5727
a(I0
I776
F1.0
S'good'
p5728
I1
tp5729
a(I0
I922
F1.0
S'good'
p5730
I1
tp5731
a(I0
I975
F0.375
g5682
I1
tp5732
a(I0
I1008
I0
g1335
I1
tp5733
a(I0
I1088
I0
S'more'
p5734
I1
tp5735
a(I0
I1255
F1.0
g1248
I1
tp5736
a(I0
I1754
F1.0
g2642
I1
tp5737
a(I0
I1787
F1.0
S'good'
p5738
I1
tp5739
a(I0
I1801
F0.625
S'removable'
p5740
I1
tp5741
a(I0
I1833
I0
S'hot'
p5742
I1
tp5743
a(I0
I1873
F0.875
g5685
I1
tp5744
a(I0
I1873
F1.0
g5687
I1
tp5745
a(I0
I1881
F1.0
g2855
I1
tp5746
a(I0
I1941
F1.0
g2648
I1
tp5747
a(I0
I1944
F0.875
g5689
I1
tp5748
a(I0
I1944
F-0.5
g5691
I1
tp5749
a(I0
I1963
F1.0
g1158
I1
tp5750
a(I0
I2112
F1.0
S'good'
p5751
I1
tp5752
a(I0
I2224
F-0.875
S'poor'
p5753
I1
tp5754
a(I0
I2283
F1.0
S'good'
p5755
I1
tp5756
a(I0
I2315
F-0.625
S'average'
p5757
I1
tp5758
a(I0
I2315
F-0.625
S'average'
p5759
I1
tp5760
a(I0
I2315
F-0.125
S'overall'
p5761
I1
tp5762
a(I0
I2315
F1.0
S'good'
p5763
I1
tp5764
a(I0
I2327
F0.5
S'high'
p5765
I1
tp5766
a(I0
I2337
F1.0
g2654
I1
tp5767
a(I0
I2387
F-1.0
g1354
I1
tp5768
a(I0
I2402
F0.625
S'removable'
p5769
I1
tp5770
a(I0
I2493
F1.0
g1262
I1
tp5771
a(I0
I2623
F1.0
S'good'
p5772
I1
tp5773
a(I0
I2676
F1.0
g2660
I1
tp5774
a(I0
I2754
F1.0
g1160
I1
tp5775
a(I0
I2754
F1.0
g5350
I1
tp5776
a(I0
I2758
F1.0
g5696
I1
tp5777
a(I0
I2819
F0.625
g2453
I1
tp5778
a(I0
I2844
F0.375
g5699
I1
tp5779
a(I0
I2865
F1.0
S'good'
p5780
I1
tp5781
a(I0
I3028
F0.375
g5701
I1
tp5782
a(I0
I3284
F1.0
g2772
I1
tp5783
a(I0
I3288
F1.0
g2668
I1
tp5784
a(I0
I3363
F-0.5
g5703
I1
tp5785
a(I0
I3364
F-0.375
g1162
I1
tp5786
a(I0
I3430
F0.625
g1274
I1
tp5787
a(I0
I3445
F-0.625
g1369
I1
tp5788
a(I0
I3482
F-0.875
g2675
I1
tp5789
a(I0
I3510
F0.625
S'accept'
p5790
I1
tp5791
a(I0
I3659
F1.0
S'good'
p5792
I1
tp5793
a(I0
I3665
F0.375
g2677
I1
tp5794
a(I0
I3687
F1.0
S'good'
p5795
I1
tp5796
a(I0
I4004
F0.125
g1276
I1
tp5797
a(I0
I4147
F1.0
g2780
I1
tp5798
a(I0
I4160
F-0.625
g2457
I1
tp5799
a(I0
I4164
F-1.0
g2681
I1
tp5800
a(I0
I4272
F1.0
S'good'
p5801
I1
tp5802
a(I0
I4587
F1.0
S'good'
p5803
I1
tp5804
a(I0
I4600
F1.0
g5710
I1
tp5805
a(I0
I4600
F-0.875
g5712
I1
tp5806
a(I0
I4612
F1.0
g5714
I1
tp5807
a(I0
I4661
F-0.5
g2685
I1
tp5808
a(I0
I4663
F-0.625
g2687
I1
tp5809
a(I0
I4753
F-0.875
g2691
I1
tp5810
a(I0
I4853
F-0.5
g2693
I1
tp5811
as(S'device'
p5812
tp5813
(lp5814
(I0
I70
F-0.75
S'free'
p5815
I11
tp5816
a(I0
I88
F1.0
S'good'
p5817
I11
tp5818
a(I0
I454
F0.875
S'nice'
p5819
I11
tp5820
a(I0
I454
I0
S'pretty'
p5821
I11
tp5822
a(I0
I573
F-0.625
S'other'
p5823
I11
tp5824
a(I0
I614
F-0.625
S'other'
p5825
I11
tp5826
a(I0
I623
F0.5
S'possible'
p5827
I11
tp5828
a(I0
I718
F1.0
S'good'
p5829
I11
tp5830
a(I0
I720
F1.0
S'good'
p5831
I11
tp5832
a(I0
I977
F0.75
S'perfect'
p5833
I11
tp5834
a(I0
I1176
F0.875
S'happy'
p5835
I11
tp5836
a(I0
I1918
F0.875
S'great'
p5837
I11
tp5838
a(I0
I1940
F1.0
S'good'
p5839
I11
tp5840
a(I0
I1940
F-0.5
S'slow'
p5841
I11
tp5842
a(I0
I2132
F-0.75
S'idle'
p5843
I11
tp5844
a(I0
I2230
I0
S'hot'
p5845
I11
tp5846
a(I0
I2312
I-100
S'pefect'
p5847
I11
tp5848
a(I0
I2373
F0.375
S'much'
p5849
I11
tp5850
a(I0
I2770
F1.0
S'good'
p5851
I11
tp5852
a(I0
I2772
F-0.125
S'overall'
p5853
I11
tp5854
a(I0
I2772
F0.875
S'nice'
p5855
I11
tp5856
a(I0
I3021
I0
S'electronic'
p5857
I11
tp5858
a(I0
I3039
I0
S'more'
p5859
I11
tp5860
a(I0
I3699
I-100
S'returnawesome'
p5861
I11
tp5862
a(I0
I4714
I-100
S'deliveredfantastic'
p5863
I11
tp5864
a(I0
I4719
F0.875
S'superb'
p5865
I11
tp5866
as(S'mail'
p5867
S'id'
p5868
tp5869
(lp5870
(I0
I4875
I-100
S'resistard'
p5871
I0
tp5872
as(S'developer'
p5873
S'options'
p5874
tp5875
(lp5876
(I0
I216
F0.375
S'enable'
p5877
I0
tp5878
as(S'awesome'
p5879
tp5880
(lp5881
(I0
I924
I-100
S'alsp'
p5882
I6
tp5883
a(I0
I973
F0.75
S'easy'
p5884
I6
tp5885
a(I0
I975
F0.875
S'nice'
p5886
I6
tp5887
a(I0
I975
F1.0
S'good'
p5888
I6
tp5889
a(I0
I1480
F-0.875
S'smart'
p5890
I6
tp5891
a(I0
I2495
F0.125
S'mobile'
p5892
I6
tp5893
a(I0
I2937
F0.875
S'nice'
p5894
I6
tp5895
as(S'charger'
p5896
tp5897
(lp5898
(I0
I267
I0
S'screen'
p5899
I16
tp5900
a(I0
I269
F0.625
S'okay'
p5901
I16
tp5902
a(I0
I672
F-0.5
S'original'
p5903
I16
tp5904
a(I0
I822
F-0.5
S'original'
p5905
I16
tp5906
a(I0
I893
I0
S'screen'
p5907
I16
tp5908
a(I0
I1294
F-0.5
S'original'
p5909
I16
tp5910
a(I0
I1903
I0
S'nd'
p5911
I16
tp5912
a(I0
I2289
F-0.25
S'i'
p5913
I16
tp5914
a(I0
I4004
F-0.625
S'other'
p5915
I16
tp5916
a(I0
I4496
F0.125
S'mobile'
p5917
I16
tp5918
a(I0
I4496
F-0.375
S'manual'
p5919
I16
tp5920
a(I0
I4706
I0
S'hot'
p5921
I16
tp5922
as(S'review'
p5923
tp5924
(lp5925
(I0
I113
F0.625
S'first'
p5926
I8
tp5927
a(I0
I113
F0.5
S'detailed'
p5928
I8
tp5929
a(I0
I191
F0.125
S'amazon'
p5930
I8
tp5931
a(I0
I1139
I0
S'initial'
p5932
I8
tp5933
a(I0
I1319
F0.625
S'super'
p5934
I8
tp5935
a(I0
I1465
I0
S'more'
p5936
I8
tp5937
a(I0
I1559
F0.75
S'fantastic'
p5938
I8
tp5939
a(I0
I1971
F0.5
S'detailed'
p5940
I8
tp5941
a(I0
I2284
F0.5
S'true'
p5942
I8
tp5943
a(I0
I3085
F0.125
S'detail'
p5944
I8
tp5945
a(I0
I3305
I0
S'many'
p5946
I8
tp5947
a(I0
I3543
F-0.25
S'i'
p5948
I8
tp5949
a(I0
I3689
F-0.125
S'overall'
p5950
I8
tp5951
a(I0
I4063
F0.625
S'first'
p5952
I8
tp5953
as(S'option'
p5954
tp5955
(lp5956
(I0
I210
I0
S't'
p5957
I6
tp5958
a(I0
I329
F-0.125
S'next'
p5959
I6
tp5960
a(I0
I670
F0.375
S'available'
p5961
I6
tp5962
a(I0
I1698
I-100
S'presnt'
p5963
I6
tp5964
a(I0
I1698
F-0.25
S'i'
p5965
I6
tp5966
a(I0
I1699
F-0.75
S'black'
p5967
I6
tp5968
a(I0
I1846
F0.75
S'due'
p5969
I6
tp5970
a(I0
I2027
F1.0
S'good'
p5971
I6
tp5972
a(I0
I2233
F1.0
S'best'
p5973
I6
tp5974
a(I0
I3211
F1.0
S'good'
p5975
I6
tp5976
a(I0
I3927
F-0.625
S'other'
p5977
I6
tp5978
a(I0
I4476
F0.75
S'fantastic'
p5979
I6
tp5980
a(I0
I4476
I0
S'useful'
p5981
I6
tp5982
a(I0
I4799
F0.375
S'available'
p5983
I6
tp5984
as(S'apps'
p5985
tp5986
(lp5987
(I0
I171
I0
S'different'
p5988
I4
tp5989
a(I0
I407
I0
S'many'
p5990
I4
tp5991
a(I0
I651
F-0.5
S'heavy'
p5992
I4
tp5993
a(I0
I747
F-0.625
S'other'
p5994
I4
tp5995
a(I0
I888
F-0.25
S'i'
p5996
I4
tp5997
a(I0
I1008
F-0.5
S'separate'
p5998
I4
tp5999
a(I0
I1178
F0.25
S'required'
p6000
I4
tp6001
a(I0
I1187
F0.25
S'able'
p6002
I4
tp6003
a(I0
I1232
F-0.625
S'useless'
p6004
I4
tp6005
a(I0
I1516
F-0.75
S'open'
p6006
I4
tp6007
a(I0
I1577
F-0.625
S'new'
p6008
I4
tp6009
a(I0
I2180
F-0.375
S'same'
p6010
I4
tp6011
a(I0
I2610
F-0.625
S'fast'
p6012
I4
tp6013
a(I0
I2662
F-0.625
S'other'
p6014
I4
tp6015
a(I0
I2688
F0.625
S'fine'
p6016
I4
tp6017
a(I0
I3212
F0.625
S'necessary'
p6018
I4
tp6019
a(I0
I3802
F-0.375
S'various'
p6020
I4
tp6021
a(I0
I3803
I0
S'different'
p6022
I4
tp6023
a(I0
I3993
I0
S'useful'
p6024
I4
tp6025
a(I0
I4735
F-0.375
S'generic'
p6026
I4
tp6027
a(I0
I4743
I0
S'individual'
p6028
I4
tp6029
as(S'temple'
p6030
S'run'
p6031
tp6032
(lp6033
(I0
I612
F0.125
S'temple'
p6034
I0
tp6035
as.