(dp0
(S'looks'
p1
tp2
(lp3
(I0
I11
F-0.375
S'same'
p4
I14
tp5
a(I0
I354
F0.75
S'premium'
p6
I14
tp7
a(I0
I383
F0.875
S'great'
p8
I14
tp9
as(S'battery'
p10
S'life'
p11
tp12
(lp13
(I0
I46
F-0.75
S'little'
p14
I3
tp15
a(I0
I62
F-0.25
S'battery'
p16
I3
tp17
a(I0
I62
F0.875
S'awesome'
p18
I3
tp19
a(I0
I101
I0
S'audio'
p20
I3
tp21
a(I0
I101
F0.875
S'decent'
p22
I3
tp23
a(I0
I282
I-100
S'amazingtouch'
p24
I3
tp25
a(I0
I282
F0.875
S'great'
p26
I3
tp27
as(S'print'
p28
S'sensor'
p29
tp30
(lp31
(I0
I59
F1.0
S'good'
p32
I0
tp33
a(I0
I255
I-100
S'configurable'
p34
I0
tp35
a(I0
I345
F0.875
S'awesome'
p36
I0
tp37
a(I0
I59
F1.0
g32
I7
tp38
a(I0
I345
F0.875
g36
I7
tp39
as(S'heating'
p40
S'problem'
p41
tp42
(lp43
(I0
I52
I0
S't'
p44
I6
tp45
a(I0
I414
F0.75
S'due'
p46
I6
tp47
as(S'note'
p48
S'3'
p49
S'plus'
p50
tp51
(lp52
(I0
I118
F0.125
S'dose'
p53
I0
tp54
a(I0
I192
F-0.25
S'i'
p55
I0
tp56
a(I0
I323
I0
S'cool'
p57
I0
tp58
a(I0
I323
F0.125
S'pad'
p59
I0
tp60
a(I0
I11
F-0.25
S'previous'
p61
I1
tp62
a(I0
I23
F0.5
S'expensive'
p63
I1
tp64
a(I0
I46
I-100
S'meizu'
p65
I1
tp66
a(I0
I49
I-100
S'coolpad'
p67
I1
tp68
a(I0
I118
F0.125
g53
I1
tp69
a(I0
I192
F-0.25
g55
I1
tp70
a(I0
I234
I-100
S'collpad'
p71
I1
tp72
a(I0
I305
F0.125
S'pad'
p73
I1
tp74
a(I0
I323
I0
g57
I1
tp75
a(I0
I323
F0.125
g59
I1
tp76
as(S'heating'
p77
S'issue'
p78
tp79
(lp80
(I0
I190
F0.375
S'much'
p81
I2
tp82
a(I0
I256
F-0.625
S'other'
p83
I2
tp84
a(I0
I325
F0.875
S'nice'
p85
I2
tp86
as(S'problems'
p87
tp88
(lp89
(I0
I219
I0
S'u'
p90
I8
tp91
a(I0
I272
I-100
S'orher'
p92
I8
tp93
as(S'coolpad'
p94
S'note'
p95
tp96
(lp97
(I0
I0
F-0.5
S'regular'
p98
I0
tp99
a(I0
I118
F0.125
g53
I0
tp100
a(I0
I180
I-100
S'note3'
p101
I0
tp102
a(I0
I192
F-0.25
g55
I0
tp103
a(I0
I0
F-0.5
g98
I0
tp104
a(I0
I43
F0.5
S'frank'
p105
I0
tp106
a(I0
I196
F1.0
S'better'
p107
I0
tp108
a(I0
I419
I0
S'cool'
p109
I0
tp110
as(S'heavy'
p111
S'games'
p112
tp113
(lp114
(I0
I96
I0
S'u'
p115
I0
tp116
a(I0
I96
F-0.5
S'heavy'
p117
I0
tp118
a(I0
I326
F-0.5
S'heavy'
p119
I0
tp120
a(I0
I333
F-0.5
S'heavy'
p121
I0
tp122
a(I0
I333
F0.375
S'much'
p123
I0
tp124
as(g49
S'gb'
p125
S'ram'
p126
tp127
(lp128
(I0
I69
F0.5
S'internal'
p129
I0
tp130
as(S'don'
p131
S't'
p132
tp133
(lp134
(I0
I183
I0
S't'
p135
I0
tp136
as(S'usage'
p137
tp138
(lp139
(I0
I33
F-0.75
S'little'
p140
I8
tp141
a(I0
I33
I0
S'hot'
p142
I8
tp143
a(I0
I39
I0
S'normal'
p144
I8
tp145
a(I0
I160
F0.5
S'high'
p146
I8
tp147
a(I0
I359
F-0.625
S'average'
p148
I8
tp149
a(I0
I381
F-0.5
S'heavy'
p150
I8
tp151
a(I0
I390
I0
S'initial'
p152
I8
tp153
a(I0
I407
F-0.625
S'moderate'
p154
I8
tp155
as(S'good'
p156
S'camera'
p157
tp158
(lp159
(I0
I53
F-0.25
S'past'
p160
I3
tp161
a(I0
I57
F1.0
S'good'
p162
I3
tp163
a(I0
I169
I0
S'rear'
p164
I3
tp165
a(I0
I210
F-1.0
S'bad'
p166
I3
tp167
a(I0
I234
F1.0
S'good'
p168
I3
tp169
a(I0
I255
F1.0
S'good'
p170
I3
tp171
a(I0
I342
F1.0
S'good'
p172
I3
tp173
a(I0
I342
F0.875
S'nice'
p174
I3
tp175
a(I0
I355
F0.875
S'nice'
p176
I3
tp177
a(I0
I393
F1.0
S'good'
p178
I3
tp179
a(I0
I393
F-0.5
S'long'
p180
I3
tp181
as(S'fingerprint'
p182
S'sensor'
p183
tp184
(lp185
(I0
I59
F1.0
g32
I0
tp186
as(S'lenovo'
p187
S'k4'
p188
tp189
(lp190
(I0
I77
F-0.5
S'heavy'
p191
I0
tp192
a(I0
I77
I-100
S'pre'
p193
I0
tp194
as(S'display'
p195
tp196
(lp197
(I0
I2
F0.875
S'great'
p198
I13
tp199
a(I0
I8
F-0.625
S'sharper'
p200
I13
tp201
a(I0
I49
F1.0
S'good'
p202
I13
tp203
a(I0
I49
F0.625
S'fine'
p204
I13
tp205
a(I0
I129
F1.0
S'good'
p206
I13
tp207
a(I0
I220
I0
S't'
p208
I13
tp209
a(I0
I220
I0
S't'
p210
I13
tp211
a(I0
I355
F0.5
S'crisp'
p212
I13
tp213
a(I0
I392
F0.875
S'great'
p214
I13
tp215
as(S'full'
p216
S'hd'
p217
tp218
(lp219
(I0
I53
F1.0
S'good'
p220
I0
tp221
a(I0
I53
F0.375
S'full'
p222
I0
tp223
a(I0
I53
F0.375
S'full'
p224
I0
tp225
a(I0
I425
F-0.625
S'sharp'
p226
I0
tp227
a(I0
I425
F0.375
S'full'
p228
I0
tp229
as(S'good'
p230
S'mobile'
p231
tp232
(lp233
(I0
I147
F1.0
S'good'
p234
I1
tp235
a(I0
I296
F1.0
S'good'
p236
I1
tp237
a(I0
I310
F1.0
S'good'
p238
I1
tp239
a(I0
I336
F0.25
S'worth'
p240
I1
tp241
a(I0
I336
I-100
S'buyingsuch'
p242
I1
tp243
a(I0
I336
F0.875
S'awesome'
p244
I1
tp245
a(I0
I350
F1.0
S'good'
p246
I1
tp247
a(I0
I353
F1.0
S'good'
p248
I1
tp249
a(I0
I377
F1.0
S'good'
p250
I1
tp251
a(I0
I428
F1.0
S'good'
p252
I1
tp253
as(S'low'
p254
S'light'
p255
tp256
(lp257
(I0
I15
F-0.875
S'low'
p258
I2
tp259
a(I0
I355
F-0.875
S'low'
p260
I2
tp261
as(S'camera'
p262
S'quality'
p263
tp264
(lp265
(I0
I52
F1.0
S'excellent'
p266
I14
tp267
a(I0
I119
F0.875
S'nice'
p268
I14
tp269
a(I0
I161
F1.0
S'good'
p270
I14
tp271
a(I0
I264
F0.875
S'decent'
p272
I14
tp273
a(I0
I295
F1.0
S'good'
p274
I14
tp275
a(I0
I301
I0
S'many'
p276
I14
tp277
a(I0
I301
I0
S'more'
p278
I14
tp279
a(I0
I301
F1.0
S'good'
p280
I14
tp281
as(S'quick'
p282
S'charging'
p283
tp284
(lp285
(I0
I103
F-0.625
S'fast'
p286
I0
tp287
a(I0
I133
I0
S'quick'
p288
I0
tp289
a(I0
I201
I0
S'quick'
p290
I0
tp291
a(I0
I264
F0.5
S'responsive'
p292
I0
tp293
as(S'heavy'
p294
S'user'
p295
tp296
(lp297
(I0
I38
F-0.5
S'heavy'
p298
I0
tp299
a(I0
I405
F-0.5
S'heavy'
p300
I0
tp301
as(S'awesome'
p302
tp303
(lp304
(I0
I313
I-100
S'oneexcellent'
p305
I6
tp306
a(I0
I382
F0.625
S'super'
p307
I6
tp308
as(S'performance'
p309
tp310
(lp311
(I0
I29
F-0.625
S'average'
p312
I13
tp313
a(I0
I36
F0.875
S'great'
p314
I13
tp315
a(I0
I46
F1.0
S'better'
p316
I13
tp317
a(I0
I175
F1.0
S'excellent'
p318
I13
tp319
a(I0
I355
I0
S'clear'
p320
I13
tp321
as(S'note'
p322
g49
S'lite'
p323
tp324
(lp325
(I0
I305
F0.125
g73
I0
tp326
as(S'finger'
p327
S'print'
p328
tp329
(lp330
(I0
I48
I-100
S'k5'
p331
I0
tp332
a(I0
I162
I0
S'finger'
p333
I0
tp334
a(I0
I345
F1.0
S'good'
p335
I0
tp336
as.