(dp0
(S'times'
p1
tp2
(lp3
(I27
I0
I0
S'many'
p4
I11
tp5
a(I52
I3
I0
S'many'
p6
I11
tp7
a(I212
I19
F-0.25
S'i'
p8
I11
tp9
as(S'looks'
p10
tp11
(lp12
(I3
I1
F0.75
S'fantastic'
p13
I14
tp14
a(I3
I1
F0.875
S'great'
p15
I14
tp16
a(I3
I34
F0.875
S'awesome'
p17
I14
tp18
a(I6
I4
F0.875
S'nice'
p19
I14
tp20
a(I30
I2
I0
S'cool'
p21
I14
tp22
a(I104
I3
F0.75
S'beautiful'
p23
I14
tp24
a(I104
I8
F1.0
S'good'
p25
I14
tp26
a(I156
I21
F0.875
S'awesome'
p27
I14
tp28
a(I177
I12
F1.0
S'good'
p29
I14
tp30
a(I196
I3
F0.875
S'nice'
p31
I14
tp32
a(I216
I0
F0.5
S'like'
p33
I14
tp34
a(I216
I0
F-0.375
S'same'
p35
I14
tp36
a(I216
I0
F-0.5
S'original'
p37
I14
tp38
as(S'till'
p39
tp40
(lp41
(I4
I22
I0
S'more'
p42
I18
tp43
a(I4
I22
F0.375
S'satisfied'
p44
I18
tp45
a(I76
I24
F1.0
S'good'
p46
I18
tp47
a(I131
I19
F0.625
S'fine'
p48
I18
tp49
as(S'design'
p50
tp51
(lp52
(I22
I1
F0.375
S'classy'
p53
I4
tp54
a(I22
I1
I0
S'n'
p55
I4
tp56
a(I30
I3
F0.375
S'sleek'
p57
I4
tp58
a(I112
I0
F0.5
S'slim'
p59
I4
tp60
a(I130
I2
F0.5
S'unique'
p61
I4
tp62
a(I171
I0
I0
S'built'
p63
I4
tp64
as(S'buy'
p65
S'from'
p66
S'flipkart'
p67
tp68
(lp69
(I14
I7
I0
S't'
p70
I0
tp71
as(S'1'
p72
S'gb'
p73
S'ram'
p74
tp75
(lp76
(I4
I5
I0
S'least'
p77
I0
tp78
a(I37
I0
I-100
S'jst'
p79
I0
tp80
a(I58
I28
I0
S'gb'
p81
I0
tp82
a(I147
I6
F-0.25
S'ram'
p83
I0
tp84
a(I157
I28
F-0.75
S'sufficient'
p85
I0
tp86
a(I160
I0
F0.5
S'internal'
p87
I0
tp88
a(I176
I0
F-0.875
S'low'
p89
I0
tp90
a(I197
I20
I0
S'more'
p91
I0
tp92
a(I4
I5
I0
g77
I9
tp93
a(I38
I0
F-0.25
S'i'
p94
I9
tp95
a(I58
I28
I0
g81
I9
tp96
a(I125
I0
F0.5
S'internal'
p97
I9
tp98
a(I147
I6
F-0.25
g83
I9
tp99
a(I157
I28
F-0.75
g85
I9
tp100
a(I160
I0
F0.5
g87
I9
tp101
a(I176
I0
F-0.875
g89
I9
tp102
a(I197
I20
I0
g91
I9
tp103
as(S'sar'
p104
S'rating'
p105
tp106
(lp107
(I3
I6
F-0.875
S'lower'
p108
I0
tp109
a(I3
I7
F0.5
S'high'
p110
I0
tp111
a(I191
I0
F0.5
S'high'
p112
I0
tp113
as(S'customer'
p114
S'care'
p115
tp116
(lp117
(I8
I6
F0.375
S'fluent'
p118
I12
tp119
a(I8
I6
I0
S'english'
p120
I12
tp121
a(I8
I6
F0.375
g118
I14
tp122
a(I8
I6
I0
g120
I14
tp123
a(I28
I0
F0.375
S'available'
p124
I14
tp125
as(S'games'
p126
tp127
(lp128
(I31
I8
F-0.25
S'i'
p129
I5
tp130
a(I58
I6
I0
S'online'
p131
I5
tp132
a(I86
I0
I0
S'many'
p133
I5
tp134
a(I86
I0
I0
S't'
p135
I5
tp136
a(I136
I1
I0
S'big'
p137
I5
tp138
a(I156
I17
I0
S'few'
p139
I5
tp140
a(I156
I17
F-0.5
S'heavy'
p141
I5
tp142
a(I156
I17
I0
S'most'
p143
I5
tp144
a(I257
I17
F0.125
S'mobile'
p145
I5
tp146
as(S'good'
p147
S'battery'
p148
tp149
(lp150
(I89
I6
F1.0
S'good'
p151
I1
tp152
a(I104
I8
F1.0
S'good'
p153
I1
tp154
a(I120
I4
F1.0
S'good'
p155
I1
tp156
a(I131
I4
F1.0
S'good'
p157
I1
tp158
a(I131
I12
F1.0
S'good'
p159
I1
tp160
a(I164
I0
F1.0
S'good'
p161
I1
tp162
a(I206
I1
F1.0
S'good'
p163
I1
tp164
as(S'week'
p165
tp166
(lp167
(I0
I31
F-0.25
S'past'
p168
I9
tp169
a(I204
I9
F1.0
S'excellent'
p170
I9
tp171
as(S'brand'
p172
S'name'
p173
tp174
(lp175
(I57
I1
F0.75
S'premium'
p176
I0
tp177
a(I205
I12
F1.0
S'good'
p178
I0
tp179
a(I6
I3
F0.125
S'popular'
p180
I8
tp181
a(I38
I0
F-0.625
S'other'
p182
I8
tp183
a(I57
I1
F0.75
g176
I8
tp184
a(I104
I1
F1.0
S'good'
p185
I8
tp186
a(I169
I17
F1.0
S'good'
p187
I8
tp188
a(I205
I12
F1.0
g178
I8
tp189
as(S'htc'
p190
S'sense'
p191
tp192
(lp193
(I40
I0
I-100
S'htc'
p194
I0
tp195
as(S'nano'
p196
S'sim'
p197
tp198
(lp199
(I95
I12
F0.5
S'understood'
p200
I0
tp201
a(I256
I3
I-100
S'nano'
p202
I0
tp203
as(S'internal'
p204
S'storage'
p205
tp206
(lp207
(I147
I0
F0.5
S'internal'
p208
I2
tp209
a(I199
I15
F0.5
S'internal'
p210
I2
tp211
as(S'sd'
p212
S'card'
p213
tp214
(lp215
(I197
I27
I0
S'sd'
p216
I0
tp217
a(I197
I27
I0
g216
I8
tp218
as(S'light'
p219
S'weight'
p220
tp221
(lp222
(I6
I5
I0
S'light'
p223
I0
tp224
a(I130
I2
I0
S'light'
p225
I0
tp226
a(I196
I4
I0
S'light'
p227
I0
tp228
a(I1
I1
F0.125
S'enough'
p229
I14
tp230
a(I203
I3
F1.0
S'good'
p231
I14
tp232
a(I249
I3
F-0.875
S'low'
p233
I14
tp234
a(I257
I5
F-0.25
S'disconnect'
p235
I14
tp236
as(S'order'
p237
tp238
(lp239
(I16
I0
I0
S'electronic'
p240
I13
tp241
a(I249
I12
F-0.625
S'new'
p242
I13
tp243
as(S'htc'
p244
S'desire'
p245
tp246
(lp247
(I16
I0
F0.125
S'mobile'
p248
I0
tp249
a(I228
I4
F0.75
S'glad'
p250
I0
tp251
as(S'processor'
p252
tp253
(lp254
(I57
I9
F-0.625
S'fast'
p255
I8
tp256
a(I95
I21
F1.0
S'excellent'
p257
I8
tp258
a(I190
I0
F1.0
S'good'
p259
I8
tp260
a(I197
I17
F1.0
S'good'
p261
I8
tp262
as(S'android'
p263
tp264
(lp265
(I74
I0
F0.25
S'future'
p266
I3
tp267
a(I181
I1
F0.5
S'typical'
p268
I3
tp269
as(S'display'
p270
tp271
(lp272
(I2
I1
F-0.625
S'sharp'
p273
I13
tp274
a(I56
I9
F0.125
S'colourful'
p275
I13
tp276
a(I56
I10
I0
S'bright'
p277
I13
tp278
a(I56
I15
F-0.375
S'same'
p279
I13
tp280
a(I156
I1
I0
S'handy'
p281
I13
tp282
a(I156
I1
I0
S'inch'
p283
I13
tp284
a(I196
I6
F0.875
S'nice'
p285
I13
tp286
a(I197
I22
F0.875
S'great'
p287
I13
tp288
a(I204
I1
F1.0
S'good'
p289
I13
tp290
a(I212
I15
F1.0
S'good'
p291
I13
tp292
as(S'apps'
p293
tp294
(lp295
(I136
I3
I-100
S'morethan'
p296
I4
tp297
a(I157
I35
F0.25
S'basic'
p298
I4
tp299
as(S'full'
p300
S'hd'
p301
tp302
(lp303
(I20
I0
F0.375
S'full'
p304
I0
tp305
a(I82
I0
F-0.25
S'i'
p306
I0
tp307
a(I152
I0
F-0.25
S'i'
p308
I0
tp309
as(S'rear'
p310
S'camera'
p311
tp312
(lp313
(I22
I1
F0.875
S'amazing'
p314
I6
tp315
a(I22
I1
F1.0
S'excellent'
p316
I6
tp317
a(I22
I1
I0
S'rear'
p318
I6
tp319
a(I22
I1
F1.0
S'good'
p320
I6
tp321
a(I22
I1
F0.375
S'much'
p322
I6
tp323
a(I22
I1
F-0.625
S'sharper'
p324
I6
tp325
a(I22
I1
F-0.625
S'other'
p326
I6
tp327
a(I80
I6
I0
S'u'
p328
I6
tp329
a(I80
I6
I0
S'rear'
p330
I6
tp331
a(I80
I6
F0.125
S'equal'
p332
I6
tp333
a(I89
I4
I0
S'rear'
p334
I6
tp335
a(I131
I0
I0
S'rear'
p336
I6
tp337
a(I131
I0
F-0.125
S'front'
p338
I6
tp339
a(I203
I3
I0
S'rear'
p340
I6
tp341
as(S'device'
p342
tp343
(lp344
(I3
I15
F0.5
S'elegant'
p345
I11
tp346
a(I257
I25
F1.0
S'good'
p347
I11
tp348
as(S'2'
p349
S'months'
p350
tp351
(lp352
(I205
I6
F0.375
S'ok'
p353
I3
tp354
a(I205
I6
F-0.625
S'useless'
p355
I3
tp356
a(I94
I1
F0.875
S'happy'
p357
I7
tp358
a(I131
I21
F-0.5
S'long'
p359
I7
tp360
a(I205
I6
F0.375
g353
I7
tp361
a(I205
I6
F-0.625
g355
I7
tp362
as(S'service'
p363
S'center'
p364
tp365
(lp366
(I54
I0
F-1.0
S'worst'
p367
I5
tp368
a(I131
I22
F-0.125
S'such'
p369
I5
tp370
a(I131
I22
F-0.875
S'poor'
p371
I5
tp372
as(S'13'
p373
S'mp'
p374
S'camera'
p375
tp376
(lp377
(I1
I1
F-0.125
S'back'
p378
I0
tp379
a(I1
I1
F1.0
S'good'
p380
I0
tp381
a(I80
I6
I0
g328
I0
tp382
a(I80
I6
I0
g330
I0
tp383
a(I80
I6
F0.125
g332
I0
tp384
a(I131
I0
I0
g336
I0
tp385
a(I131
I0
F-0.125
g338
I0
tp386
a(I174
I0
F-0.625
S'average'
p387
I0
tp388
a(I1
I1
F-0.125
g378
I0
tp389
a(I1
I1
F1.0
g380
I0
tp390
a(I80
I6
I0
g328
I0
tp391
a(I80
I6
I0
g330
I0
tp392
a(I80
I6
F0.125
g332
I0
tp393
a(I131
I0
I0
g336
I0
tp394
a(I131
I0
F-0.125
g338
I0
tp395
a(I156
I33
F0.625
S'smooth'
p396
I0
tp397
a(I174
I0
F-0.625
g387
I0
tp398
a(I200
I1
F-0.125
S'front'
p399
I0
tp400
a(I227
I4
F1.0
S'good'
p401
I0
tp402
as(S'front'
p403
S'camera'
p404
tp405
(lp406
(I1
I1
F1.0
g380
I6
tp407
a(I22
I1
F0.875
g314
I6
tp408
a(I22
I1
F1.0
g316
I6
tp409
a(I22
I1
I0
g318
I6
tp410
a(I22
I1
F1.0
g320
I6
tp411
a(I22
I1
F0.375
g322
I6
tp412
a(I22
I1
F-0.625
g324
I6
tp413
a(I22
I1
F-0.625
g326
I6
tp414
a(I89
I4
I0
g334
I6
tp415
a(I131
I0
I0
g336
I6
tp416
a(I131
I0
F-0.125
g338
I6
tp417
a(I147
I7
F1.0
S'good'
p418
I6
tp419
a(I147
I7
F0.875
S'awesome'
p420
I6
tp421
a(I156
I33
F0.625
g396
I6
tp422
a(I157
I36
F1.0
S'good'
p423
I6
tp424
a(I162
I1
F0.125
S'digital'
p425
I6
tp426
a(I200
I1
F-0.125
g399
I6
tp427
a(I56
I3
F0.875
S'awesome'
p428
I14
tp429
a(I110
I0
F0.875
S'superb'
p430
I14
tp431
a(I147
I7
F1.0
g418
I14
tp432
as(S'camera'
p433
S'quality'
p434
tp435
(lp436
(I3
I17
I0
S'more'
p437
I14
tp438
a(I3
I17
F0.875
S'awesome'
p439
I14
tp440
a(I68
I0
F0.875
S'nice'
p441
I14
tp442
a(I80
I6
I0
g328
I14
tp443
a(I80
I6
I0
g330
I14
tp444
a(I80
I6
F0.125
g332
I14
tp445
a(I89
I2
F1.0
S'good'
p446
I14
tp447
a(I131
I10
F0.75
S'primary'
p448
I14
tp449
a(I131
I10
F-0.75
S'secondary'
p450
I14
tp451
a(I131
I10
F1.0
S'good'
p452
I14
tp453
a(I156
I33
F0.625
g396
I14
tp454
a(I156
I33
F1.0
S'good'
p455
I14
tp456
a(I156
I33
F1.0
S'good'
p457
I14
tp458
a(I157
I36
F1.0
g423
I14
tp459
a(I159
I0
F0.5
S'slim'
p460
I14
tp461
a(I169
I5
F1.0
S'good'
p462
I14
tp463
a(I174
I0
F-0.625
g387
I14
tp464
a(I203
I3
I0
g340
I14
tp465
a(I203
I3
F-0.875
S'low'
p466
I14
tp467
a(I203
I3
F-0.25
S'i'
p468
I14
tp469
a(I204
I2
F1.0
S'good'
p470
I14
tp471
a(I204
I2
F0.75
S'sound'
p472
I14
tp473
a(I206
I2
F-0.875
S'poor'
p474
I14
tp475
a(I212
I1
F-0.875
S'poor'
p476
I14
tp477
a(I227
I5
F-0.875
S'poor'
p478
I14
tp479
a(I227
I9
F1.0
S'good'
p480
I14
tp481
a(I235
I0
F-1.0
S'bad'
p482
I14
tp483
a(I235
I1
F-1.0
S'bad'
p484
I14
tp485
a(I243
I0
F-0.875
S'poor'
p486
I14
tp487
as(S'value'
p488
S'for'
p489
S'money'
p490
tp491
(lp492
(I204
I9
F0.875
S'great'
p493
I4
tp494
a(I217
I0
F0.5
S'true'
p495
I4
tp496
as(S'review'
p497
tp498
(lp499
(I3
I0
F-0.75
S'short'
p500
I8
tp501
a(I14
I0
F-1.0
S'bad'
p502
I8
tp503
as(S'back'
p504
S'camera'
p505
tp506
(lp507
(I1
I1
F1.0
g380
I0
tp508
a(I157
I36
F1.0
g423
I0
tp509
a(I163
I0
F1.0
S'good'
p510
I0
tp511
a(I241
I0
F-0.125
S'back'
p512
I0
tp513
as(S'internal'
p514
S'memory'
p515
tp516
(lp517
(I4
I21
F-0.875
S'low'
p518
I3
tp519
a(I4
I21
F0.5
S'internal'
p520
I3
tp521
a(I58
I23
F0.5
S'internal'
p522
I3
tp523
a(I227
I10
F0.5
S'internal'
p524
I3
tp525
a(I227
I13
F0.5
S'internal'
p526
I3
tp527
a(I4
I21
F-0.875
g518
I10
tp528
a(I4
I21
F0.5
g520
I10
tp529
a(I58
I23
F0.5
g522
I10
tp530
a(I135
I1
F-0.875
S'low'
p531
I10
tp532
a(I227
I10
F0.5
g524
I10
tp533
a(I227
I13
F0.5
g526
I10
tp534
as(S'product'
p535
S'from'
p536
S'flipkart'
p537
tp538
(lp539
(I257
I14
I-100
S'defetive'
p540
I0
tp541
as(S'performance'
p542
tp543
(lp544
(I3
I24
F1.0
S'good'
p545
I13
tp546
a(I4
I20
F0.875
S'great'
p547
I13
tp548
a(I30
I4
F1.0
S'good'
p549
I13
tp550
a(I76
I25
F1.0
S'good'
p551
I13
tp552
a(I94
I10
F0.375
S'impressive'
p553
I13
tp554
a(I104
I3
F0.875
S'great'
p555
I13
tp556
a(I120
I3
F0.375
S'satisfied'
p557
I13
tp558
a(I122
I0
F-0.875
S'low'
p559
I13
tp560
a(I129
I1
F-0.125
S'overall'
p561
I13
tp562
a(I129
I1
F-0.75
S'misleading'
p563
I13
tp564
a(I150
I0
F-1.0
S'bad'
p565
I13
tp566
a(I157
I4
F-0.125
S'overall'
p567
I13
tp568
a(I157
I4
F1.0
S'good'
p569
I13
tp570
a(I201
I1
F1.0
S'good'
p571
I13
tp572
a(I204
I12
F1.0
S'good'
p573
I13
tp574
a(I227
I15
F-0.875
S'poor'
p575
I13
tp576
as(S'sound'
p577
S'quality'
p578
tp579
(lp580
(I3
I20
F0.75
S'sound'
p581
I5
tp582
a(I3
I20
F1.0
S'good'
p583
I5
tp584
a(I60
I1
F0.75
S'sound'
p585
I5
tp586
a(I157
I2
F0.75
S'sound'
p587
I5
tp588
a(I157
I2
F1.0
S'good'
p589
I5
tp590
a(I157
I23
F1.0
S'good'
p591
I5
tp592
a(I171
I0
F0.75
S'sound'
p593
I5
tp594
a(I171
I0
F1.0
S'good'
p595
I5
tp596
a(I196
I10
F0.875
S'nice'
p597
I5
tp598
a(I196
I10
F0.75
S'sound'
p599
I5
tp600
a(I196
I10
F1.0
S'good'
p601
I5
tp602
a(I204
I2
F0.75
g472
I5
tp603
a(I205
I3
F-0.875
S'poor'
p604
I5
tp605
a(I22
I6
F-0.875
S'low'
p606
I15
tp607
a(I131
I1
F0.875
S'awesome'
p608
I15
tp609
a(I166
I4
F-0.875
S'low'
p610
I15
tp611
a(I205
I3
F-0.875
g604
I15
tp612
a(I244
I0
F-0.875
S'low'
p613
I15
tp614
as.