(dp0
(S'model'
p1
tp2
(lp3
(I276
I7
F-0.375
S'same'
p4
I6
tp5
a(I338
I3
F-0.25
S'i'
p6
I6
tp7
a(I338
I3
F-0.375
S'same'
p8
I6
tp9
a(I338
I11
F-0.375
S'same'
p10
I6
tp11
a(I338
I11
I0
S'different'
p12
I6
tp13
a(I389
I7
F1.0
S'good'
p14
I6
tp15
as(S'hanging'
p16
tp17
(lp18
(I256
I0
F0.375
S'much'
p19
I6
tp20
a(I256
I0
F-0.5
S'slow'
p21
I6
tp22
as(S'camera'
p23
S'clarity'
p24
tp25
(lp26
(I4
I0
I0
S'pixel'
p27
I2
tp28
a(I4
I0
F-0.125
S'back'
p29
I2
tp30
a(I73
I1
F1.0
S'good'
p31
I2
tp32
a(I172
I1
F1.0
S'good'
p33
I2
tp34
a(I308
I8
F1.0
S'good'
p35
I2
tp36
a(I334
I3
F0.5
S'effective'
p37
I2
tp38
as(S'moto'
p39
S'g2'
p40
tp41
(lp42
(I105
I1
I0
S'x'
p43
I0
tp44
a(I276
I25
F1.0
S'better'
p45
I0
tp46
a(I331
I0
I0
S'compete'
p47
I0
tp48
as(S'order'
p49
tp50
(lp51
(I423
I3
F-0.5
S'clueless'
p52
I13
tp53
a(I454
I4
F-0.875
S'fake'
p54
I13
tp55
a(I455
I0
F-0.25
S'earliest'
p56
I13
tp57
as(S'average'
p58
tp59
(lp60
(I189
I1
I0
S'rear'
p61
I12
tp62
a(I240
I0
I0
S'above'
p63
I12
tp64
a(I436
I16
I-100
S'bt'
p65
I12
tp66
a(I436
I16
I0
S'u'
p67
I12
tp68
as(S'experience'
p69
tp70
(lp71
(I57
I24
F-0.875
S'poor'
p72
I12
tp73
a(I184
I0
F0.875
S'awesome'
p74
I12
tp75
a(I231
I2
F-1.0
S'worst'
p76
I12
tp77
a(I308
I8
F0.875
S'nice'
p78
I12
tp79
a(I361
I2
F0.5
S'possible'
p80
I12
tp81
a(I454
I8
F-1.0
S'worst'
p82
I12
tp83
a(I456
I1
F-1.0
S'worst'
p84
I12
tp85
as(S'apps'
p86
S'to'
p87
S'sd'
p88
tp89
(lp90
(I6
I5
F-0.25
S'external'
p91
I0
tp92
a(I47
I5
F0.125
S'enough'
p93
I4
tp94
a(I90
I1
I0
S'user'
p95
I4
tp96
a(I165
I3
F0.25
S'able'
p97
I4
tp98
a(I165
I4
I0
S'updated'
p99
I4
tp100
a(I192
I20
F0.375
S'much'
p101
I4
tp102
a(I192
I20
F0.625
S'selective'
p103
I4
tp104
a(I283
I12
I0
S'few'
p105
I4
tp106
a(I283
I12
F-0.5
S'slow'
p107
I4
tp108
a(I301
I4
F-0.5
S'heavy'
p109
I4
tp110
a(I303
I18
I0
S'many'
p111
I4
tp112
a(I346
I6
F-0.875
S'limited'
p113
I4
tp114
a(I361
I6
I0
S'normal'
p115
I4
tp116
a(I407
I1
I0
S'most'
p117
I4
tp118
as(S'card'
p119
tp120
(lp121
(I201
I0
F-0.25
S'micro'
p122
I8
tp123
as(S'better'
p124
S'than'
p125
S'moto'
p126
tp127
(lp128
(I40
I0
F1.0
S'better'
p129
I0
tp130
a(I106
I9
F1.0
S'better'
p131
I0
tp132
a(I365
I0
F1.0
S'better'
p133
I0
tp134
a(I40
I0
F1.0
g129
I0
tp135
a(I52
I1
I0
S'most'
p136
I0
tp137
a(I105
I1
I0
g43
I0
tp138
a(I106
I9
F1.0
g131
I0
tp139
a(I331
I0
I0
g47
I0
tp140
a(I365
I0
F1.0
g133
I0
tp141
a(I387
I1
F-0.625
S'new'
p142
I0
tp143
as(S'dirt'
p144
S'magnet'
p145
tp146
(lp147
(I86
I1
F-0.625
S'dirt'
p148
I0
tp149
a(I96
I23
F-0.625
S'dirt'
p150
I0
tp151
a(I160
I11
F-0.625
S'dirt'
p152
I0
tp153
as(S'move'
p154
S'apps'
p155
tp156
(lp157
(I47
I5
F0.125
g93
I0
tp158
a(I165
I3
F0.25
g97
I0
tp159
a(I327
I0
F-0.125
S'cant'
p160
I0
tp161
a(I351
I3
F-0.125
S'cant'
p162
I0
tp163
as(S'performance'
p164
tp165
(lp166
(I24
I1
F0.375
S'impressive'
p167
I13
tp168
a(I44
I2
F-0.125
S'overall'
p169
I13
tp170
a(I48
I0
I0
S's'
p171
I13
tp172
a(I48
I0
F1.0
S'good'
p173
I13
tp174
a(I160
I2
F-0.125
S'overall'
p175
I13
tp176
a(I192
I0
F1.0
S'good'
p177
I13
tp178
a(I194
I8
F1.0
S'excellent'
p179
I13
tp180
a(I202
I5
F0.625
S'quality'
p181
I13
tp182
a(I217
I0
F1.0
S'good'
p183
I13
tp184
a(I249
I2
F1.0
S'good'
p185
I13
tp186
a(I276
I4
F-0.875
S'poor'
p187
I13
tp188
a(I276
I11
I0
S'screen'
p189
I13
tp190
a(I276
I12
F1.0
S'excellent'
p191
I13
tp192
a(I276
I27
F1.0
S'good'
p193
I13
tp194
a(I308
I5
F1.0
S'good'
p195
I13
tp196
a(I322
I0
F0.5
S'high'
p197
I13
tp198
a(I336
I0
I0
S'camera'
p199
I13
tp200
a(I336
I0
I0
S'wow'
p201
I13
tp202
a(I355
I3
F1.0
S'good'
p203
I13
tp204
a(I357
I1
F0.5
S'high'
p205
I13
tp206
a(I381
I3
F-0.625
S'average'
p207
I13
tp208
a(I381
I6
F0.75
S'whole'
p209
I13
tp210
a(I382
I2
F1.0
S'good'
p211
I13
tp212
a(I415
I4
F-0.5
S'slow'
p213
I13
tp214
as(S'sound'
p215
S'quality'
p216
tp217
(lp218
(I96
I7
F1.0
S'good'
p219
I5
tp220
a(I119
I19
F-0.875
S'poor'
p221
I5
tp222
a(I119
I19
F0.75
S'sound'
p223
I5
tp224
a(I130
I1
F-0.875
S'pathetic'
p225
I5
tp226
a(I144
I1
F0.5
S'high'
p227
I5
tp228
a(I171
I0
F0.75
S'sound'
p229
I5
tp230
a(I178
I0
F0.75
S'sound'
p231
I5
tp232
a(I178
I0
F-1.0
S'bad'
p233
I5
tp234
a(I188
I11
F1.0
S'better'
p235
I5
tp236
a(I188
I11
F0.75
S'sound'
p237
I5
tp238
a(I250
I2
F1.0
S'good'
p239
I5
tp240
a(I282
I3
F0.75
S'sound'
p241
I5
tp242
a(I282
I3
F-0.875
S'low'
p243
I5
tp244
a(I289
I1
F-0.875
S'low'
p245
I5
tp246
a(I290
I0
F1.0
S'good'
p247
I5
tp248
a(I306
I4
F0.875
S'awesome'
p249
I5
tp250
a(I359
I1
F0.75
S'sound'
p251
I5
tp252
a(I361
I8
F0.75
S'sound'
p253
I5
tp254
a(I361
I8
F1.0
S'good'
p255
I5
tp256
a(I361
I13
F1.0
S'good'
p257
I5
tp258
a(I382
I12
F0.75
S'sound'
p259
I5
tp260
a(I457
I2
F0.75
S'sound'
p261
I5
tp262
a(I6
I14
F0.875
S'awesome'
p263
I15
tp264
a(I49
I0
F1.0
S'good'
p265
I15
tp266
a(I96
I1
I-100
S'touchpad'
p267
I15
tp268
a(I130
I1
F-0.875
g225
I15
tp269
a(I186
I5
F-0.875
S'poor'
p270
I15
tp271
a(I240
I1
F0.375
S'ok'
p272
I15
tp273
a(I240
I1
F-0.5
S'loud'
p274
I15
tp275
a(I240
I1
F-0.5
S'less'
p276
I15
tp277
a(I312
I3
F0.875
S'decent'
p278
I15
tp279
a(I357
I2
F1.0
S'good'
p280
I15
tp281
a(I436
I17
F-0.5
S'loud'
p282
I15
tp283
as(S'music'
p284
S'lovers'
p285
tp286
(lp287
(I57
I22
F0.875
S'music'
p288
I0
tp289
a(I57
I22
F0.375
S'much'
p290
I0
tp291
a(I125
I5
F-0.625
S'average'
p292
I3
tp293
a(I263
I3
I0
S'audio'
p294
I3
tp295
a(I263
I6
F0.375
S'much'
p296
I3
tp297
a(I263
I6
F1.0
S'better'
p298
I3
tp299
a(I263
I10
F1.0
S'good'
p300
I3
tp301
a(I283
I27
F0.375
S'much'
p302
I3
tp303
as(S'customer'
p304
S'care'
p305
tp306
(lp307
(I451
I0
I-100
S'thier'
p308
I12
tp309
as(S'great'
p310
S'camera'
p311
tp312
(lp313
(I62
I0
F0.5
S'costly'
p314
I0
tp315
a(I62
I0
F0.875
S'awesome'
p316
I0
tp317
a(I62
I0
F0.875
S'great'
p318
I0
tp319
a(I63
I0
F0.875
S'great'
p320
I0
tp321
a(I91
I1
F0.875
S'great'
p322
I0
tp323
a(I150
I1
F0.875
S'great'
p324
I0
tp325
a(I152
I1
F0.875
S'great'
p326
I0
tp327
a(I231
I7
F0.875
S'great'
p328
I0
tp329
a(I289
I0
F0.875
S'great'
p330
I0
tp331
a(I397
I0
F-0.75
S'defective'
p332
I0
tp333
a(I269
I22
F-0.125
S'overall'
p334
I5
tp335
as(S'build'
p336
S'quality'
p337
tp338
(lp339
(I69
I1
F1.0
S'good'
p340
I2
tp341
a(I185
I0
I0
S'build'
p342
I2
tp343
a(I185
I0
F0.75
S'easy'
p344
I2
tp345
a(I220
I0
F-0.875
S'poor'
p346
I2
tp347
a(I320
I0
F1.0
S'good'
p348
I2
tp349
a(I430
I0
F-0.875
S'low'
p350
I2
tp351
a(I430
I0
F1.0
S'best'
p352
I2
tp353
as(S'flip'
p354
S'kart'
p355
tp356
(lp357
(I426
I14
F-1.0
S'bad'
p358
I1
tp359
a(I454
I15
F-0.5
S'flip'
p360
I1
tp361
as(S'one'
p362
S'month'
p363
tp364
(lp365
(I61
I1
F-0.625
S'last'
p366
I3
tp367
a(I67
I8
F0.125
S'mobile'
p368
I3
tp369
a(I67
I8
F-0.375
S'half'
p370
I3
tp371
a(I256
I1
F0.625
S'first'
p372
I3
tp373
a(I300
I3
F-0.625
S'last'
p374
I3
tp375
a(I308
I5
F-0.25
S'past'
p376
I3
tp377
a(I419
I1
I0
S'more'
p378
I3
tp379
a(I421
I3
F-0.625
S'last'
p380
I3
tp381
a(I61
I1
F-0.625
g366
I16
tp382
a(I67
I8
F0.125
g368
I16
tp383
a(I67
I8
F-0.375
g370
I16
tp384
a(I186
I1
F0.5
S'maximum'
p385
I16
tp386
a(I256
I1
F0.625
g372
I16
tp387
a(I300
I3
F-0.625
g374
I16
tp388
a(I308
I5
F-0.25
g376
I16
tp389
a(I417
I11
F0.5
S'old'
p390
I16
tp391
a(I419
I1
I0
g378
I16
tp392
a(I421
I3
F-0.625
g380
I16
tp393
as(S'htc'
p394
S'desire'
p395
tp396
(lp397
(I308
I15
F-0.25
S'i'
p398
I0
tp399
a(I308
I15
F-0.75
S'little'
p400
I0
tp401
a(I308
I15
I-100
S'bitconfused'
p402
I0
tp403
as(S'android'
p404
tp405
(lp406
(I119
I19
F0.75
S'perfect'
p407
I3
tp408
a(I184
I2
F1.0
S'good'
p409
I3
tp410
a(I190
I2
F-0.25
S'latest'
p411
I3
tp412
a(I423
I0
F1.0
S'good'
p413
I3
tp414
a(I423
I0
F-0.875
S'unsatisfied'
p415
I3
tp416
a(I423
I0
F-0.625
S'unsupportable'
p417
I3
tp418
as(S'pros'
p419
S'and'
p420
S'cons'
p421
tp422
(lp423
(I0
I4
F0.125
S'following'
p424
I0
tp425
a(I52
I2
I0
S'brief'
p426
I0
tp427
a(I82
I2
I0
S'own'
p428
I0
tp429
a(I166
I4
F0.125
S'following'
p430
I0
tp431
a(I0
I4
F0.125
g424
I2
tp432
a(I52
I2
I0
g426
I2
tp433
a(I82
I2
I0
g428
I2
tp434
a(I166
I4
F0.125
g430
I2
tp435
a(I117
I2
F-0.25
S'i'
p436
I8
tp437
a(I311
I5
I0
S'few'
p438
I8
tp439
as(S'good'
p440
S'mobile'
p441
tp442
(lp443
(I152
I0
F1.0
S'good'
p444
I1
tp445
a(I160
I16
F1.0
S'good'
p446
I1
tp447
a(I307
I2
F1.0
S'excellent'
p448
I1
tp449
a(I346
I1
F1.0
S'good'
p450
I1
tp451
a(I355
I3
F1.0
S'good'
p452
I1
tp453
a(I389
I0
F1.0
S'good'
p454
I1
tp455
a(I395
I7
F1.0
S'good'
p456
I1
tp457
as(S'guys'
p458
tp459
(lp460
(I417
I22
F0.875
S'important'
p461
I5
tp462
a(I431
I3
I0
S't'
p463
I5
tp464
as(S'user'
p465
S'interface'
p466
tp467
(lp468
(I4
I31
I0
S'quick'
p469
I1
tp470
a(I4
I31
I0
g469
I9
tp471
a(I192
I13
F-0.625
S'average'
p472
I9
tp473
a(I192
I13
F1.0
S'good'
p474
I9
tp475
a(I308
I11
F-0.5
S'regular'
p476
I9
tp477
a(I356
I7
F-0.25
S'previous'
p478
I9
tp479
a(I436
I19
F-0.625
S'moderate'
p480
I9
tp481
as(S'good'
p482
S'quality'
p483
tp484
(lp485
(I18
I1
F1.0
S'good'
p486
I2
tp487
a(I96
I7
F1.0
g219
I2
tp488
a(I103
I1
F1.0
S'good'
p489
I2
tp490
a(I144
I1
F0.5
g227
I2
tp491
a(I178
I2
F0.5
S'touch'
p492
I2
tp493
a(I178
I2
F1.0
S'good'
p494
I2
tp495
a(I188
I7
F1.0
S'good'
p496
I2
tp497
a(I194
I2
F1.0
S'good'
p498
I2
tp499
a(I250
I2
F1.0
g239
I2
tp500
a(I251
I4
F1.0
S'good'
p501
I2
tp502
a(I263
I7
F-0.5
S'call'
p503
I2
tp504
a(I263
I7
F1.0
S'good'
p505
I2
tp506
a(I268
I1
F1.0
S'good'
p507
I2
tp508
a(I270
I4
F1.0
S'good'
p509
I2
tp510
a(I270
I11
I0
S'below'
p511
I2
tp512
a(I270
I11
F-0.5
S'separate'
p513
I2
tp514
a(I270
I11
F1.0
S'good'
p515
I2
tp516
a(I290
I0
F1.0
g247
I2
tp517
a(I291
I5
F1.0
S'good'
p518
I2
tp519
a(I299
I4
F1.0
S'good'
p520
I2
tp521
a(I299
I9
F1.0
S'good'
p522
I2
tp523
a(I302
I0
F1.0
S'good'
p524
I2
tp525
a(I308
I14
F1.0
S'good'
p526
I2
tp527
a(I360
I10
I0
S'screen'
p528
I2
tp529
a(I360
I10
F1.0
S'good'
p530
I2
tp531
a(I361
I8
F0.75
g253
I2
tp532
a(I361
I8
F1.0
g255
I2
tp533
a(I361
I13
F1.0
g257
I2
tp534
a(I382
I12
F0.75
g259
I2
tp535
a(I403
I0
F1.0
S'good'
p536
I2
tp537
a(I413
I1
F1.0
S'good'
p538
I2
tp539
a(I427
I0
F1.0
S'good'
p540
I2
tp541
as(S'good'
p542
S'battery'
p543
S'backup'
p544
tp545
(lp546
(I11
I1
F1.0
S'good'
p547
I0
tp548
a(I72
I1
F1.0
S'good'
p549
I0
tp550
a(I157
I3
F1.0
S'good'
p551
I0
tp552
a(I162
I0
F1.0
S'good'
p553
I0
tp554
a(I293
I3
F1.0
S'good'
p555
I0
tp556
a(I334
I5
F1.0
S'excellent'
p557
I0
tp558
a(I334
I5
F1.0
S'good'
p559
I0
tp560
a(I346
I1
F0.5
S'stylish'
p561
I0
tp562
a(I346
I1
F-0.875
S'poor'
p563
I0
tp564
a(I346
I1
I0
S'internet'
p565
I0
tp566
a(I346
I1
I0
S'ur'
p567
I0
tp568
a(I366
I9
F1.0
S'good'
p569
I0
tp570
a(I11
I1
F1.0
g547
I1
tp571
a(I27
I0
F1.0
S'good'
p572
I1
tp573
a(I47
I19
F1.0
S'good'
p574
I1
tp575
a(I72
I1
F1.0
g549
I1
tp576
a(I162
I0
F1.0
g553
I1
tp577
a(I180
I3
F1.0
S'good'
p578
I1
tp579
a(I249
I8
F1.0
S'good'
p580
I1
tp581
a(I249
I8
F1.0
S'good'
p582
I1
tp583
a(I249
I8
F-0.75
S'dead'
p584
I1
tp585
a(I269
I15
F1.0
S'good'
p586
I1
tp587
a(I293
I3
F1.0
g555
I1
tp588
a(I308
I8
F0.875
S'nice'
p589
I1
tp590
a(I334
I5
F1.0
g557
I1
tp591
a(I340
I0
F1.0
S'good'
p592
I1
tp593
a(I346
I1
F0.5
g561
I1
tp594
a(I346
I1
I0
g565
I1
tp595
a(I346
I1
I0
g567
I1
tp596
a(I357
I3
F1.0
S'good'
p597
I1
tp598
a(I366
I9
F1.0
g569
I1
tp599
as(S'back'
p600
S'cover'
p601
tp602
(lp603
(I47
I9
F-0.5
S'less'
p604
I2
tp605
a(I47
I9
F0.75
S'perfect'
p606
I2
tp607
a(I57
I1
F-0.25
S'external'
p608
I2
tp609
a(I96
I31
F-0.125
S'back'
p610
I2
tp611
a(I96
I31
F0.5
S'plastic'
p612
I2
tp613
a(I195
I4
F-0.125
S'such'
p614
I2
tp615
a(I195
I4
F0.875
S'nice'
p616
I2
tp617
a(I280
I0
F-0.75
S'tight'
p618
I2
tp619
a(I47
I9
F-0.5
g604
I3
tp620
a(I47
I9
F0.75
g606
I3
tp621
a(I96
I31
F-0.125
g610
I3
tp622
a(I96
I31
F0.5
g612
I3
tp623
a(I195
I4
F-0.125
g614
I3
tp624
a(I195
I4
F0.875
g616
I3
tp625
a(I280
I0
F-0.75
g618
I3
tp626
a(I454
I0
F-0.75
S'open'
p627
I3
tp628
a(I454
I1
F-0.625
S'sometime'
p629
I3
tp630
as(S'battery'
p631
S'life'
p632
tp633
(lp634
(I43
I1
F-0.625
S'lasting'
p635
I3
tp636
a(I159
I1
F-0.625
S'lasting'
p637
I3
tp638
a(I160
I7
F0.875
S'superb'
p639
I3
tp640
a(I269
I20
F0.875
S'great'
p641
I3
tp642
a(I357
I3
F1.0
g597
I3
tp643
as(S'brand'
p644
tp645
(lp646
(I6
I14
F1.0
S'good'
p647
I8
tp648
a(I95
I5
F0.375
S'favorite'
p649
I8
tp650
a(I165
I2
I0
S'android'
p651
I8
tp652
a(I174
I6
F-0.625
S'other'
p653
I8
tp654
a(I303
I10
F-0.625
S'new'
p655
I8
tp656
a(I311
I2
I-100
S'concious'
p657
I8
tp658
a(I356
I1
F-0.625
S'new'
p659
I8
tp660
a(I417
I7
F0.125
S'mobile'
p661
I8
tp662
as(S'moto'
p663
S'g'
p664
tp665
(lp666
(I40
I0
F1.0
g129
I0
tp667
a(I52
I1
I0
g136
I0
tp668
a(I105
I1
I0
g43
I0
tp669
a(I106
I9
F1.0
g131
I0
tp670
a(I331
I0
I0
g47
I0
tp671
a(I365
I0
F1.0
g133
I0
tp672
a(I387
I1
F-0.625
g142
I0
tp673
as(S'problems'
p674
tp675
(lp676
(I96
I34
F0.875
S'healthy'
p677
I8
tp678
a(I96
I34
I-100
S'intrernal'
p679
I8
tp680
a(I119
I0
I0
S'many'
p681
I8
tp682
a(I119
I10
F0.125
S'mobile'
p683
I8
tp684
a(I251
I0
F0.875
S'happy'
p685
I8
tp686
a(I257
I0
I0
S'big'
p687
I8
tp688
a(I369
I3
F0.875
S'decent'
p689
I8
tp690
a(I415
I4
I0
S'many'
p691
I8
tp692
a(I454
I12
I0
S'many'
p693
I8
tp694
a(I454
I12
F-0.25
S'i'
p695
I8
tp696
a(I457
I6
F0.5
S'internal'
p697
I8
tp698
as(S'speed'
p699
tp700
(lp701
(I96
I7
F1.0
S'good'
p702
I14
tp703
a(I160
I7
F0.75
S'fantastic'
p704
I14
tp705
a(I306
I0
F1.0
S'good'
p706
I14
tp707
a(I331
I0
F1.0
S'good'
p708
I14
tp709
a(I428
I0
I0
S'useful'
p710
I14
tp711
a(I428
I0
F0.5
S'high'
p712
I14
tp713
as(S'smooth'
p714
tp715
(lp716
(I417
I5
F0.375
S'much'
p717
I3
tp718
as(S'front'
p719
S'and'
p720
S'back'
p721
tp722
(lp723
(I96
I3
F0.5
S'beauty'
p724
I3
tp725
a(I263
I9
F1.0
S'good'
p726
I3
tp727
as(S'feel'
p728
tp729
(lp730
(I15
I3
F1.0
S'good'
p731
I10
tp732
a(I77
I5
F-0.25
S'i'
p733
I10
tp734
a(I152
I3
I0
S't'
p735
I10
tp736
a(I172
I0
F1.0
S'good'
p737
I10
tp738
as(S'low'
p739
S'light'
p740
tp741
(lp742
(I45
I16
F-0.875
S'low'
p743
I2
tp744
a(I276
I33
F-0.875
S'low'
p745
I2
tp746
as(S'samsung'
p747
S'galaxy'
p748
tp749
(lp750
(I179
I3
F0.75
S'grand'
p751
I0
tp752
a(I284
I2
F-0.375
S'same'
p753
I1
tp754
a(I284
I2
F0.5
S'typical'
p755
I1
tp756
a(I334
I4
F1.0
S'better'
p757
I1
tp758
a(I356
I4
I0
S'clear'
p759
I1
tp760
a(I356
I13
F0.75
S'grand'
p761
I1
tp762
a(I365
I0
F0.75
S'grand'
p763
I1
tp764
as(S'rear'
p765
S'camera'
p766
tp767
(lp768
(I55
I0
F1.0
S'good'
p769
I6
tp770
a(I189
I1
F-0.125
S'front'
p771
I6
tp772
a(I189
I1
F0.375
S'ok'
p773
I6
tp774
a(I269
I8
F1.0
S'good'
p775
I6
tp776
a(I270
I10
F1.0
S'good'
p777
I6
tp778
a(I289
I0
F0.875
g330
I6
tp779
a(I325
I0
F0.875
S'nice'
p780
I6
tp781
a(I341
I0
F0.875
S'nice'
p782
I6
tp783
a(I363
I0
F-0.125
S'front'
p784
I6
tp785
a(I363
I0
I0
S'rear'
p786
I6
tp787
a(I363
I0
F0.875
S'awesome'
p788
I6
tp789
as(S'octa'
p790
S'core'
p791
S'processor'
p792
tp793
(lp794
(I4
I22
I0
S'quad'
p795
I0
tp796
a(I4
I22
F0.5
S'dual'
p797
I0
tp798
a(I4
I22
F-0.875
S'rare'
p799
I0
tp800
a(I318
I12
F0.625
S'smooth'
p801
I0
tp802
a(I318
I12
F-0.625
S'fast'
p803
I0
tp804
a(I362
I0
F0.5
S'true'
p805
I0
tp806
a(I4
I22
I0
g795
I0
tp807
a(I4
I22
F0.5
g797
I0
tp808
a(I4
I22
F-0.875
g799
I0
tp809
a(I95
I1
I-100
S'mediatek'
p810
I0
tp811
a(I259
I4
F-0.5
S'slower'
p812
I0
tp813
a(I259
I4
F0.5
S'dual'
p814
I0
tp815
a(I318
I12
F0.625
g801
I0
tp816
a(I318
I12
F-0.625
g803
I0
tp817
a(I362
I0
F0.5
g805
I0
tp818
a(I366
I6
F-0.625
S'real'
p819
I0
tp820
a(I4
I22
I0
g795
I0
tp821
a(I4
I22
F0.5
g797
I0
tp822
a(I4
I22
F-0.875
g799
I0
tp823
a(I362
I0
F0.5
g805
I0
tp824
a(I4
I4
F-0.125
S'next'
p825
I8
tp826
a(I95
I2
F-0.125
S'such'
p827
I8
tp828
a(I177
I0
F1.0
S'good'
p829
I8
tp830
a(I219
I0
F-1.0
S'bad'
p831
I8
tp832
a(I229
I1
F0.75
S'outstanding'
p833
I8
tp834
a(I251
I7
F1.0
S'good'
p835
I8
tp836
a(I253
I0
F1.0
S'good'
p837
I8
tp838
a(I285
I2
F0.875
S'great'
p839
I8
tp840
a(I299
I7
F1.0
S'good'
p841
I8
tp842
a(I350
I0
F1.0
S'good'
p843
I8
tp844
a(I381
I8
I-100
S'excallent'
p845
I8
tp846
a(I382
I1
F1.0
S'good'
p847
I8
tp848
a(I382
I1
F0.625
S'extraordinary'
p849
I8
tp850
a(I382
I1
F-0.125
S'such'
p851
I8
tp852
a(I4
I22
I0
g795
I0
tp853
a(I4
I22
F0.5
g797
I0
tp854
a(I4
I22
F-0.875
g799
I0
tp855
a(I259
I4
F-0.5
g812
I0
tp856
a(I259
I4
F0.5
g814
I0
tp857
a(I362
I0
F0.5
g805
I0
tp858
as(S'speaker'
p859
tp860
(lp861
(I13
I1
F-0.875
S'lower'
p862
I16
tp863
a(I81
I0
F-0.625
S'average'
p864
I16
tp865
a(I89
I1
F-0.875
S'lower'
p866
I16
tp867
a(I303
I21
F-0.875
S'lower'
p868
I16
tp869
as(S'value'
p870
S'for'
p871
S'money'
p872
tp873
(lp874
(I44
I1
F0.75
S'definite'
p875
I4
tp876
a(I160
I1
F0.75
S'definite'
p877
I4
tp878
as(S'sharp'
p879
S'images'
p880
tp881
(lp882
(I9
I1
F-0.625
S'sharp'
p883
I0
tp884
a(I233
I0
F-0.625
S'sharp'
p885
I0
tp886
a(I249
I2
F-0.625
S'sharp'
p887
I0
tp888
as(S'months'
p889
tp890
(lp891
(I119
I11
F0.625
S'first'
p892
I7
tp893
a(I201
I6
F1.0
S'good'
p894
I7
tp895
a(I226
I2
F-0.625
S'last'
p896
I7
tp897
a(I226
I2
F0.375
S'usage'
p898
I7
tp899
a(I284
I0
F-0.25
S'past'
p900
I7
tp901
a(I389
I1
I0
S'many'
p902
I7
tp903
a(I393
I0
F1.0
S'good'
p904
I7
tp905
a(I393
I0
F0.625
S'first'
p906
I7
tp907
a(I456
I0
F-0.25
S'past'
p908
I7
tp909
as(S'good'
p910
S'camera'
p911
tp912
(lp913
(I45
I14
F1.0
S'good'
p914
I3
tp915
a(I47
I17
F1.0
S'good'
p916
I3
tp917
a(I55
I0
F1.0
g769
I3
tp918
a(I73
I1
F1.0
g31
I3
tp919
a(I97
I1
F1.0
S'good'
p920
I3
tp921
a(I97
I1
F1.0
S'better'
p922
I3
tp923
a(I97
I1
F-0.625
S'other'
p924
I3
tp925
a(I160
I14
F1.0
S'good'
p926
I3
tp927
a(I178
I1
I-100
S'quiote'
p928
I3
tp929
a(I178
I1
F1.0
S'good'
p930
I3
tp931
a(I178
I3
F-0.125
S'front'
p932
I3
tp933
a(I182
I1
F1.0
S'good'
p934
I3
tp935
a(I182
I1
I0
S'processor'
p936
I3
tp937
a(I230
I0
F1.0
S'good'
p938
I3
tp939
a(I240
I0
F1.0
S'good'
p940
I3
tp941
a(I249
I3
F1.0
S'good'
p942
I3
tp943
a(I249
I3
F-0.625
S'sharp'
p944
I3
tp945
a(I252
I1
F0.75
S'proper'
p946
I3
tp947
a(I256
I6
F1.0
S'good'
p948
I3
tp949
a(I258
I5
F0.75
S'primary'
p950
I3
tp951
a(I258
I5
F1.0
S'good'
p952
I3
tp953
a(I258
I5
F-0.75
S'secondary'
p954
I3
tp955
a(I269
I8
F1.0
g775
I3
tp956
a(I270
I10
F1.0
g777
I3
tp957
a(I276
I33
F0.875
S'nice'
p958
I3
tp959
a(I283
I21
F-0.125
S'front'
p960
I3
tp961
a(I288
I2
F1.0
S'good'
p962
I3
tp963
a(I302
I0
F-0.125
S'front'
p964
I3
tp965
a(I308
I14
F-0.125
S'overall'
p966
I3
tp967
a(I318
I11
F0.875
S'superb'
p968
I3
tp969
a(I318
I11
F-0.75
S'secondary'
p970
I3
tp971
a(I355
I3
F1.0
S'good'
p972
I3
tp973
a(I366
I6
F1.0
S'good'
p974
I3
tp975
a(I382
I2
F-0.875
S'strong'
p976
I3
tp977
a(I426
I7
F0.75
S'beautiful'
p978
I3
tp979
a(I426
I7
F0.875
S'superb'
p980
I3
tp981
a(I435
I4
F1.0
S'good'
p982
I3
tp983
a(I45
I14
F1.0
g914
I0
tp984
a(I47
I17
F1.0
g916
I0
tp985
a(I55
I0
F1.0
g769
I0
tp986
a(I73
I1
F1.0
g31
I0
tp987
a(I97
I1
F1.0
g920
I0
tp988
a(I97
I1
F1.0
g922
I0
tp989
a(I97
I1
F-0.625
g924
I0
tp990
a(I160
I14
F1.0
g926
I0
tp991
a(I178
I1
F1.0
g930
I0
tp992
a(I178
I3
F-0.125
g932
I0
tp993
a(I182
I1
F1.0
g934
I0
tp994
a(I182
I1
I0
g936
I0
tp995
a(I230
I0
F1.0
g938
I0
tp996
a(I240
I0
F1.0
g940
I0
tp997
a(I249
I3
F1.0
g942
I0
tp998
a(I249
I3
F-0.625
g944
I0
tp999
a(I252
I1
F0.75
g946
I0
tp1000
a(I256
I6
F1.0
g948
I0
tp1001
a(I258
I5
F0.75
g950
I0
tp1002
a(I258
I5
F1.0
g952
I0
tp1003
a(I258
I5
F-0.75
g954
I0
tp1004
a(I269
I8
F1.0
g775
I0
tp1005
a(I270
I10
F1.0
g777
I0
tp1006
a(I276
I33
F0.875
g958
I0
tp1007
a(I283
I21
F-0.125
g960
I0
tp1008
a(I288
I2
F1.0
g962
I0
tp1009
a(I302
I0
F-0.125
g964
I0
tp1010
a(I308
I14
F-0.125
g966
I0
tp1011
a(I318
I11
F0.875
g968
I0
tp1012
a(I318
I11
F-0.75
g970
I0
tp1013
a(I355
I3
F1.0
g972
I0
tp1014
a(I366
I6
F1.0
g974
I0
tp1015
a(I382
I2
F-0.875
g976
I0
tp1016
a(I426
I7
F0.75
g978
I0
tp1017
a(I426
I7
F0.875
g980
I0
tp1018
a(I435
I4
F1.0
g982
I0
tp1019
as(S'internal'
p1020
S'memory'
p1021
tp1022
(lp1023
(I83
I0
I0
S'light'
p1024
I3
tp1025
a(I83
I0
I0
S'gb'
p1026
I3
tp1027
a(I83
I0
F0.5
S'internal'
p1028
I3
tp1029
a(I90
I1
F0.5
S'internal'
p1030
I3
tp1031
a(I165
I4
F0.5
S'internal'
p1032
I3
tp1033
a(I165
I4
F0.375
S'available'
p1034
I3
tp1035
a(I292
I5
F0.5
S'internal'
p1036
I3
tp1037
a(I391
I0
F0.5
S'internal'
p1038
I3
tp1039
a(I456
I9
F0.5
S'internal'
p1040
I3
tp1041
a(I4
I5
I0
S'inbuilt'
p1042
I10
tp1043
a(I12
I1
I-100
S'onboard'
p1044
I10
tp1045
a(I12
I1
I0
S'user'
p1046
I10
tp1047
a(I83
I0
I0
g1024
I10
tp1048
a(I83
I0
I0
g1026
I10
tp1049
a(I83
I0
F0.5
g1028
I10
tp1050
a(I90
I1
F0.5
g1030
I10
tp1051
a(I165
I4
F0.5
g1032
I10
tp1052
a(I165
I4
F0.375
g1034
I10
tp1053
a(I292
I5
F0.5
g1036
I10
tp1054
a(I308
I13
I0
S'gb'
p1055
I10
tp1056
a(I308
I13
I-100
S'avilable'
p1057
I10
tp1058
a(I316
I1
F-0.75
S'little'
p1059
I10
tp1060
a(I391
I0
F0.5
g1038
I10
tp1061
a(I456
I9
F0.5
g1040
I10
tp1062
as(S'touch'
p1063
S'screen'
p1064
tp1065
(lp1066
(I96
I7
F-0.625
S'sharp'
p1067
I2
tp1068
a(I269
I14
F0.625
S'smooth'
p1069
I2
tp1070
a(I269
I14
F-0.625
S'fast'
p1071
I2
tp1072
a(I317
I1
F1.0
S'good'
p1073
I2
tp1074
a(I361
I6
F1.0
S'soft'
p1075
I2
tp1076
a(I361
I6
F0.5
S'touch'
p1077
I2
tp1078
a(I361
I6
F1.0
S'soft'
p1079
I2
tp1080
a(I436
I11
F0.5
S'touch'
p1081
I2
tp1082
as(S'seller'
p1083
tp1084
(lp1085
(I401
I3
F0.125
S'mobile'
p1086
I3
tp1087
as(S'looks'
p1088
tp1089
(lp1090
(I54
I0
F0.875
S'amazing'
p1091
I14
tp1092
a(I67
I18
I0
S'stunning'
p1093
I14
tp1094
a(I77
I2
F1.0
S'good'
p1095
I14
tp1096
a(I83
I0
F1.0
S'good'
p1097
I14
tp1098
a(I83
I0
F0.5
S'expandable'
p1099
I14
tp1100
a(I95
I3
F0.375
S'classy'
p1101
I14
tp1102
a(I283
I16
F0.875
S'great'
p1103
I14
tp1104
a(I287
I0
F0.875
S'attractive'
p1105
I14
tp1106
as(S'pixel'
p1107
S'density'
p1108
tp1109
(lp1110
(I3
I4
I0
S'pixel'
p1111
I0
tp1112
a(I42
I1
F0.5
S'high'
p1113
I0
tp1114
a(I158
I2
F0.5
S'high'
p1115
I0
tp1116
as(S'front'
p1117
S'and'
p1118
S'rear'
p1119
tp1120
(lp1121
(I9
I1
I0
S'rear'
p1122
I1
tp1123
a(I233
I0
I0
S'rear'
p1124
I1
tp1125
a(I325
I0
F0.875
g780
I7
tp1126
a(I9
I1
I0
g1122
I14
tp1127
a(I96
I3
F0.5
g724
I14
tp1128
a(I224
I0
F-1.0
S'bad'
p1129
I14
tp1130
a(I233
I0
I0
g1124
I14
tp1131
a(I250
I2
F-0.875
S'rare'
p1132
I14
tp1133
a(I263
I9
F1.0
g726
I14
tp1134
as(S'2'
p1135
S'days'
p1136
tp1137
(lp1138
(I276
I18
F0.125
S'mobile'
p1139
I2
tp1140
as(S'desire'
p1141
S'620g'
p1142
S'ds'
p1143
tp1144
(lp1145
(I195
I5
F-0.125
S'duplicate'
p1146
I0
tp1147
as(S'picture'
p1148
S'clarity'
p1149
tp1150
(lp1151
(I160
I8
F0.875
S'great'
p1152
I2
tp1153
a(I308
I8
F0.875
S'awesome'
p1154
I2
tp1155
a(I308
I8
F1.0
g35
I2
tp1156
as(S'hd'
p1157
S'display'
p1158
tp1159
(lp1160
(I8
I1
F-0.625
S'sharp'
p1161
I0
tp1162
a(I94
I1
I0
S'inch'
p1163
I0
tp1164
a(I319
I0
F1.0
S'excellent'
p1165
I0
tp1166
a(I331
I0
F1.0
S'good'
p1167
I0
tp1168
a(I42
I1
F1.0
S'good'
p1169
I13
tp1170
a(I45
I11
F0.875
S'awesome'
p1171
I13
tp1172
a(I60
I1
F-0.375
S'same'
p1173
I13
tp1174
a(I80
I0
F1.0
S'good'
p1175
I13
tp1176
a(I80
I0
F0.375
S'colours'
p1177
I13
tp1178
a(I100
I1
F1.0
S'good'
p1179
I13
tp1180
a(I125
I1
I-100
S'laargee'
p1181
I13
tp1182
a(I158
I2
F1.0
S'good'
p1183
I13
tp1184
a(I192
I1
F1.0
S'good'
p1185
I13
tp1186
a(I241
I0
F0.875
S'awesome'
p1187
I13
tp1188
a(I277
I0
F0.875
S'awesome'
p1189
I13
tp1190
a(I299
I6
F1.0
S'good'
p1191
I13
tp1192
a(I318
I11
I0
S'big'
p1193
I13
tp1194
a(I318
I11
F1.0
S'good'
p1195
I13
tp1196
a(I436
I15
F-0.125
S'defected'
p1197
I13
tp1198
as(S'htc'
p1199
S'sense'
p1200
tp1201
(lp1202
(I231
I13
F-0.125
S'present'
p1203
I0
tp1204
a(I457
I6
F0.5
S'compatible'
p1205
I0
tp1206
a(I457
I6
F0.75
S'due'
p1207
I0
tp1208
a(I231
I13
F-0.125
g1203
I0
tp1209
a(I457
I6
F0.5
g1205
I0
tp1210
a(I457
I6
F0.75
g1207
I0
tp1211
as(S'thanks'
p1212
S'to'
p1213
S'flipkart'
p1214
tp1215
(lp1216
(I285
I3
F0.125
S'usual'
p1217
I1
tp1218
a(I285
I3
F-0.875
S'faults'
p1219
I1
tp1220
as(S'go'
p1221
S'for'
p1222
S'htc'
p1223
tp1224
(lp1225
(I6
I17
F1.0
S'good'
p1226
I0
tp1227
a(I237
I2
F-0.125
S'such'
p1228
I0
tp1229
a(I237
I2
F1.0
S'good'
p1230
I0
tp1231
as(S'camera'
p1232
S'both'
p1233
S'front'
p1234
tp1235
(lp1236
(I63
I0
F0.875
g320
I0
tp1237
a(I96
I3
F0.5
g724
I0
tp1238
a(I250
I2
F-0.875
g1132
I0
tp1239
a(I263
I9
F1.0
g726
I0
tp1240
a(I269
I8
F1.0
g775
I0
tp1241
a(I443
I0
F-0.125
S'front'
p1242
I0
tp1243
a(I443
I0
F-0.625
S'average'
p1244
I0
tp1245
a(I4
I0
F-0.125
g29
I6
tp1246
a(I9
I1
I0
g1122
I6
tp1247
a(I43
I8
F0.75
S'perfect'
p1248
I6
tp1249
a(I45
I18
F1.0
S'best'
p1250
I6
tp1251
a(I47
I17
F1.0
g916
I6
tp1252
a(I55
I0
F1.0
g769
I6
tp1253
a(I62
I0
F0.5
g314
I6
tp1254
a(I62
I0
F0.875
g316
I6
tp1255
a(I62
I0
F0.875
g318
I6
tp1256
a(I63
I0
F0.875
g320
I6
tp1257
a(I96
I3
F0.5
g724
I6
tp1258
a(I150
I1
F0.875
g324
I6
tp1259
a(I159
I8
F0.75
S'perfect'
p1260
I6
tp1261
a(I178
I3
F-0.125
g932
I6
tp1262
a(I189
I1
F-0.125
g771
I6
tp1263
a(I189
I1
F0.375
g773
I6
tp1264
a(I224
I0
F-1.0
g1129
I6
tp1265
a(I233
I0
I0
g1124
I6
tp1266
a(I242
I3
F-0.125
S'back'
p1267
I6
tp1268
a(I250
I2
F-0.875
g1132
I6
tp1269
a(I252
I3
F-0.125
S'front'
p1270
I6
tp1271
a(I252
I3
I0
S'normal'
p1272
I6
tp1273
a(I258
I2
F1.0
S'excellent'
p1274
I6
tp1275
a(I258
I2
F-0.125
S'front'
p1276
I6
tp1277
a(I263
I9
F1.0
g726
I6
tp1278
a(I269
I8
F1.0
g775
I6
tp1279
a(I270
I10
F1.0
g777
I6
tp1280
a(I276
I25
F-0.125
S'front'
p1281
I6
tp1282
a(I283
I21
F-0.125
g960
I6
tp1283
a(I288
I2
F1.0
g962
I6
tp1284
a(I302
I0
F-0.125
g964
I6
tp1285
a(I329
I1
F-0.125
S'front'
p1286
I6
tp1287
a(I341
I0
F0.875
g782
I6
tp1288
a(I354
I1
F0.875
S'superb'
p1289
I6
tp1290
a(I355
I3
F1.0
g972
I6
tp1291
a(I363
I0
F-0.125
g784
I6
tp1292
a(I363
I0
I0
g786
I6
tp1293
a(I363
I0
F0.875
g788
I6
tp1294
a(I443
I0
F-0.125
g1242
I6
tp1295
a(I443
I0
F-0.625
g1244
I6
tp1296
a(I4
I0
F-0.125
g29
I0
tp1297
a(I9
I1
I0
g1122
I0
tp1298
a(I43
I8
F0.75
g1248
I0
tp1299
a(I45
I18
F1.0
g1250
I0
tp1300
a(I47
I17
F1.0
g916
I0
tp1301
a(I55
I0
F1.0
g769
I0
tp1302
a(I62
I0
F0.5
g314
I0
tp1303
a(I62
I0
F0.875
g316
I0
tp1304
a(I62
I0
F0.875
g318
I0
tp1305
a(I63
I0
F0.875
g320
I0
tp1306
a(I96
I3
F0.5
g724
I0
tp1307
a(I150
I1
F0.875
g324
I0
tp1308
a(I159
I8
F0.75
g1260
I0
tp1309
a(I178
I3
F-0.125
g932
I0
tp1310
a(I189
I1
F-0.125
g771
I0
tp1311
a(I189
I1
F0.375
g773
I0
tp1312
a(I224
I0
F-1.0
g1129
I0
tp1313
a(I233
I0
I0
g1124
I0
tp1314
a(I242
I3
F-0.125
g1267
I0
tp1315
a(I250
I2
F-0.875
g1132
I0
tp1316
a(I252
I3
F-0.125
g1270
I0
tp1317
a(I252
I3
I0
g1272
I0
tp1318
a(I258
I2
F1.0
g1274
I0
tp1319
a(I258
I2
F-0.125
g1276
I0
tp1320
a(I263
I9
F1.0
g726
I0
tp1321
a(I269
I8
F1.0
g775
I0
tp1322
a(I270
I10
F1.0
g777
I0
tp1323
a(I276
I25
F-0.125
g1281
I0
tp1324
a(I283
I21
F-0.125
g960
I0
tp1325
a(I288
I2
F1.0
g962
I0
tp1326
a(I302
I0
F-0.125
g964
I0
tp1327
a(I329
I1
F-0.125
g1286
I0
tp1328
a(I341
I0
F0.875
g782
I0
tp1329
a(I354
I1
F0.875
g1289
I0
tp1330
a(I355
I3
F1.0
g972
I0
tp1331
a(I363
I0
F-0.125
g784
I0
tp1332
a(I363
I0
I0
g786
I0
tp1333
a(I363
I0
F0.875
g788
I0
tp1334
a(I443
I0
F-0.125
g1242
I0
tp1335
a(I443
I0
F-0.625
g1244
I0
tp1336
as(S'dot'
p1337
S'view'
p1338
tp1339
(lp1340
(I231
I9
I0
S'useful'
p1341
I0
tp1342
a(I334
I0
I0
S'dot'
p1343
I0
tp1344
a(I436
I27
I0
S'dot'
p1345
I0
tp1346
as(S'good'
p1347
S'processor'
p1348
tp1349
(lp1350
(I177
I0
F1.0
g829
I1
tp1351
a(I229
I1
F0.75
g833
I1
tp1352
a(I251
I7
F1.0
g835
I1
tp1353
a(I253
I0
F1.0
g837
I1
tp1354
a(I299
I7
F1.0
g841
I1
tp1355
a(I350
I0
F1.0
g843
I1
tp1356
a(I382
I1
F1.0
g847
I1
tp1357
a(I382
I1
F0.625
g849
I1
tp1358
a(I382
I1
F-0.125
g851
I1
tp1359
as(S'device'
p1360
tp1361
(lp1362
(I45
I21
F0.5
S'efficient'
p1363
I11
tp1364
a(I52
I1
F1.0
S'better'
p1365
I11
tp1366
a(I67
I13
F0.875
S'happy'
p1367
I11
tp1368
a(I96
I23
F0.875
S'decent'
p1369
I11
tp1370
a(I160
I11
F0.875
S'decent'
p1371
I11
tp1372
a(I188
I8
F1.0
S'good'
p1373
I11
tp1374
a(I276
I7
I0
S'sure'
p1375
I11
tp1376
a(I395
I4
F-1.0
S'worst'
p1377
I11
tp1378
a(I397
I0
F0.875
S'great'
p1379
I11
tp1380
as(S'camera'
p1381
S'quality'
p1382
tp1383
(lp1384
(I43
I8
F0.75
g1248
I14
tp1385
a(I57
I12
F0.875
S'awesome'
p1386
I14
tp1387
a(I91
I1
F0.875
g322
I14
tp1388
a(I159
I8
F0.75
g1260
I14
tp1389
a(I186
I4
F-0.875
S'poor'
p1390
I14
tp1391
a(I188
I7
F1.0
g496
I14
tp1392
a(I192
I12
F-0.625
S'average'
p1393
I14
tp1394
a(I194
I2
F1.0
g498
I14
tp1395
a(I202
I7
F0.875
S'fabulous'
p1396
I14
tp1397
a(I206
I0
F0.875
S'fabulous'
p1398
I14
tp1399
a(I250
I2
F1.0
g239
I14
tp1400
a(I265
I1
F0.875
S'nice'
p1401
I14
tp1402
a(I269
I20
F0.875
S'awesome'
p1403
I14
tp1404
a(I270
I4
F1.0
g509
I14
tp1405
a(I276
I28
F-0.875
S'poor'
p1406
I14
tp1407
a(I299
I9
F1.0
g522
I14
tp1408
a(I302
I0
F1.0
g524
I14
tp1409
a(I302
I0
F-0.125
g964
I14
tp1410
a(I308
I6
F0.875
S'decent'
p1411
I14
tp1412
a(I308
I14
F-0.125
g966
I14
tp1413
a(I308
I14
F1.0
g526
I14
tp1414
a(I355
I3
F1.0
g972
I14
tp1415
a(I359
I2
F-0.875
S'poor'
p1416
I14
tp1417
a(I403
I0
F1.0
g536
I14
tp1418
a(I413
I1
F1.0
g538
I14
tp1419
a(I427
I0
F1.0
g540
I14
tp1420
as(S'recommend'
p1421
tp1422
(lp1423
(I6
I12
I0
S't'
p1424
I8
tp1425
as.