(dp0
(S'front'
p1
S'camera'
p2
tp3
(lp4
(I37
I12
F-0.125
S'front'
p5
I6
tp6
a(I38
I4
F0.75
S'perfect'
p7
I6
tp8
a(I42
I0
F-0.125
S'front'
p9
I6
tp10
a(I70
I0
F-0.125
S'front'
p11
I6
tp12
a(I70
I0
I0
S'clear'
p13
I6
tp14
a(I38
I4
F0.75
g7
I14
tp15
as(S'light'
p16
S'weight'
p17
tp18
(lp19
(I21
I5
F0.5
S'weight'
p20
I0
tp21
a(I40
I0
I0
S'light'
p22
I0
tp23
a(I46
I0
I0
S'light'
p24
I0
tp25
as.