(dp0
(S'worth'
p1
S'for'
p2
S'money'
p3
tp4
(lp5
(I1418
I9
F0.25
S'worth'
p6
I0
tp7
a(I1590
I6
F0.25
S'worth'
p8
I0
tp9
a(I1940
I6
F0.25
S'worth'
p10
I0
tp11
a(I2231
I0
F1.0
S'good'
p12
I0
tp13
a(I140
I1
I0
S'more'
p14
I8
tp15
a(I504
I10
I0
S'actual'
p16
I8
tp17
a(I907
I2
F-0.125
S'overall'
p18
I8
tp19
a(I1655
I1
F-0.125
S'overall'
p20
I8
tp21
a(I2195
I10
F0.375
S'much'
p22
I8
tp23
a(I2231
I0
F1.0
g12
I8
tp24
as(S'for'
p25
S'price'
p26
S'range'
p27
tp28
(lp29
(I309
I77
F0.5
S'higher'
p30
I0
tp31
a(I309
I78
F-0.375
S'same'
p32
I0
tp33
a(I504
I15
F-0.875
S'regret'
p34
I0
tp35
a(I855
I4
F0.25
S'worth'
p36
I0
tp37
a(I1343
I0
F0.125
S'enough'
p38
I0
tp39
a(I1878
I2
F-0.375
S'same'
p40
I0
tp41
a(I2094
I0
F1.0
S'good'
p42
I0
tp43
as(S'heating'
p44
S'issue'
p45
tp46
(lp47
(I4
I13
F0.375
S'heating'
p48
I2
tp49
a(I79
I7
F1.0
S'good'
p50
I2
tp51
a(I290
I4
I0
S'more'
p52
I2
tp53
a(I290
I4
F0.375
S'heating'
p54
I2
tp55
a(I290
I4
I0
S'normal'
p56
I2
tp57
a(I309
I64
F-0.75
S'minor'
p58
I2
tp59
a(I470
I13
F0.375
S'heating'
p60
I2
tp61
a(I473
I33
F-0.75
S'abnormal'
p62
I2
tp63
a(I581
I1
F0.5
S'known'
p64
I2
tp65
a(I607
I0
I0
S't'
p66
I2
tp67
a(I673
I23
F0.75
S'due'
p68
I2
tp69
a(I673
I23
F0.375
S'heating'
p70
I2
tp71
a(I702
I2
F0.375
S'heating'
p72
I2
tp73
a(I727
I12
F0.25
S'usable'
p74
I2
tp75
a(I796
I7
F0.375
S'heating'
p76
I2
tp77
a(I818
I1
F-0.125
S'such'
p78
I2
tp79
a(I882
I28
F0.375
S'heating'
p80
I2
tp81
a(I886
I8
F-0.5
S'annoying'
p82
I2
tp83
a(I905
I3
I0
S'big'
p84
I2
tp85
a(I916
I10
I0
S'update'
p86
I2
tp87
a(I929
I7
F0.625
S'major'
p88
I2
tp89
a(I1005
I9
F0.375
S'heating'
p90
I2
tp91
a(I1014
I0
F0.625
S'acceptable'
p92
I2
tp93
a(I1026
I48
F0.375
S'much'
p94
I2
tp95
a(I1042
I18
I0
S't'
p96
I2
tp97
a(I1042
I18
F0.375
S'significant'
p98
I2
tp99
a(I1067
I3
I0
S'update'
p100
I2
tp101
a(I1083
I34
F0.375
S'heating'
p102
I2
tp103
a(I1155
I0
F0.5
S'slight'
p104
I2
tp105
a(I1233
I4
F-0.375
S'same'
p106
I2
tp107
a(I1236
I0
F-0.5
S'disappointed'
p108
I2
tp109
a(I1255
I5
F-0.875
S'severe'
p110
I2
tp111
a(I1286
I1
F0.375
S'heating'
p112
I2
tp113
a(I1456
I2
I0
S'big'
p114
I2
tp115
a(I1562
I1
F-0.125
S'such'
p116
I2
tp117
a(I1681
I0
F-0.875
S'severe'
p118
I2
tp119
a(I1726
I1
F0.625
S'major'
p120
I2
tp121
a(I1742
I17
F-0.375
S'tolerable'
p122
I2
tp123
a(I1808
I4
F0.625
S'major'
p124
I2
tp125
a(I1811
I0
F0.375
S'full'
p126
I2
tp127
a(I1818
I11
I0
S'big'
p128
I2
tp129
a(I1907
I2
F-0.75
S'little'
p130
I2
tp131
a(I1907
I2
F0.375
S'heating'
p132
I2
tp133
a(I1913
I16
F0.375
S'heating'
p134
I2
tp135
a(I1940
I19
F0.375
S'much'
p136
I2
tp137
a(I1940
I19
I0
S'main'
p138
I2
tp139
a(I1985
I0
F-0.778
S'common'
p140
I2
tp141
a(I2104
I1
I0
S'only'
p142
I2
tp143
a(I2177
I6
F0.375
S'much'
p144
I2
tp145
as(S'call'
p146
S'quality'
p147
tp148
(lp149
(I43
I13
I0
S'pretty'
p150
I1
tp151
a(I73
I13
F1.0
S'best'
p152
I1
tp153
a(I88
I1
F0.875
S'decent'
p154
I1
tp155
a(I92
I3
F-0.875
S'poor'
p156
I1
tp157
a(I162
I1
F-0.5
S'call'
p158
I1
tp159
a(I183
I0
F1.0
S'better'
p160
I1
tp161
a(I260
I0
F1.0
S'better'
p162
I1
tp163
a(I329
I9
F-0.875
S'pathetic'
p164
I1
tp165
a(I344
I3
F-0.5
S'call'
p166
I1
tp167
a(I345
I0
F-0.5
S'call'
p168
I1
tp169
a(I448
I1
F-0.625
S'average'
p170
I1
tp171
a(I577
I42
F-1.0
S'bad'
p172
I1
tp173
a(I577
I51
F-0.5
S'call'
p174
I1
tp175
a(I631
I1
F0.75
S'sound'
p176
I1
tp177
a(I631
I1
F1.0
S'excellent'
p178
I1
tp179
a(I631
I1
F0.625
S'okay'
p180
I1
tp181
a(I631
I1
F1.0
S'better'
p182
I1
tp183
a(I727
I7
F-0.125
S'overall'
p184
I1
tp185
a(I727
I7
F-1.0
S'bad'
p186
I1
tp187
a(I796
I24
F-0.5
S'call'
p188
I1
tp189
a(I796
I24
F-0.875
S'poor'
p190
I1
tp191
a(I1026
I1
F-0.5
S'call'
p192
I1
tp193
a(I1206
I6
F-0.5
S'call'
p194
I1
tp195
a(I1336
I31
F1.0
S'good'
p196
I1
tp197
a(I1461
I2
F-0.5
S'call'
p198
I1
tp199
a(I1461
I2
I0
S'clear'
p200
I1
tp201
a(I1549
I1
F1.0
S'good'
p202
I1
tp203
a(I1618
I0
F1.0
S'good'
p204
I1
tp205
as(S'battery'
p206
S'drains'
p207
tp208
(lp209
(I211
I0
I0
S'hrs'
p210
I3
tp211
a(I405
I4
I0
S'aspect'
p212
I3
tp213
a(I445
I16
F-0.875
S'low'
p214
I3
tp215
a(I759
I6
F-0.625
S'fast'
p216
I3
tp217
a(I917
I6
F-0.625
S'fast'
p218
I3
tp219
a(I928
I6
F-0.25
S'battery'
p220
I3
tp221
a(I1103
I3
I0
S'net'
p222
I3
tp223
a(I1767
I8
I0
S'considerable'
p224
I3
tp225
a(I1872
I12
F-0.625
S'fast'
p226
I3
tp227
as(S'at'
p228
S'price'
p229
S'point'
p230
tp231
(lp232
(I422
I6
I0
S'indian'
p233
I0
tp234
a(I1427
I22
F-0.875
S'lower'
p235
I0
tp236
a(I1757
I5
I0
S'more'
p237
I0
tp238
as(S'2'
p239
S'camera'
p240
S'quality'
p241
tp242
(lp243
(I479
I6
F1.0
S'good'
p244
I0
tp245
a(I616
I18
I0
S'pretty'
p246
I0
tp247
a(I616
I18
F-0.625
S'sharp'
p248
I0
tp249
a(I616
I18
F1.0
S'good'
p250
I0
tp251
a(I616
I18
F-0.625
S'other'
p252
I0
tp253
a(I700
I1
F1.0
S'good'
p254
I0
tp255
a(I796
I5
F-0.625
S'average'
p256
I0
tp257
a(I896
I14
F0.875
S'great'
p258
I0
tp259
a(I896
I14
F-1.0
S'bad'
p260
I0
tp261
a(I1025
I3
F0.5
S'comparable'
p262
I0
tp263
a(I616
I18
I0
g246
I0
tp264
a(I616
I18
F-0.625
g248
I0
tp265
a(I616
I18
F-0.625
g252
I0
tp266
a(I796
I5
F-0.625
g256
I0
tp267
a(I810
I1
F-0.375
S'same'
p268
I0
tp269
a(I1108
I19
F1.0
S'good'
p270
I0
tp271
a(I1206
I0
I0
S'lagging'
p272
I0
tp273
a(I1206
I0
F1.0
S'good'
p274
I0
tp275
a(I1248
I5
F1.0
S'good'
p276
I0
tp277
a(I1248
I6
F-0.125
S'front'
p278
I0
tp279
a(I1248
I6
F1.0
S'good'
p280
I0
tp281
a(I1341
I7
F1.0
S'good'
p282
I0
tp283
a(I1552
I0
I0
S'different'
p284
I0
tp285
a(I1568
I1
F-1.0
S'bad'
p286
I0
tp287
a(I1568
I1
F1.0
S'better'
p288
I0
tp289
a(I1725
I1
F1.0
S'good'
p290
I0
tp291
a(I1810
I14
F1.0
S'good'
p292
I0
tp293
as(S'need'
p294
tp295
(lp296
(I177
I2
F-0.25
S'i'
p297
I9
tp298
a(I177
I2
I0
S't'
p299
I9
tp300
a(I555
I0
F0.125
S'remote'
p301
I9
tp302
a(I555
I0
I0
S'u'
p303
I9
tp304
a(I894
I10
F0.375
S'impressive'
p305
I9
tp306
a(I894
I13
F-0.625
S'real'
p307
I9
tp308
a(I1026
I15
I0
S'more'
p309
I9
tp310
a(I1047
I0
I0
S't'
p311
I9
tp312
a(I1053
I2
F-0.75
S'sufficient'
p313
I9
tp314
a(I1168
I7
I0
S'big'
p315
I9
tp316
a(I1349
I6
F-0.375
S'same'
p317
I9
tp318
a(I1754
I11
I0
S'more'
p319
I9
tp320
a(I2037
I0
F-0.625
S'average'
p321
I9
tp322
as(S'with'
p323
S'fast'
p324
S'charging'
p325
tp326
(lp327
(I64
I2
F-0.625
S'fast'
p328
I0
tp329
a(I64
I2
I0
S'v'
p330
I0
tp331
a(I121
I1
F0.625
S'commendable'
p332
I0
tp333
a(I421
I6
F-0.625
S'fast'
p334
I0
tp335
a(I445
I10
F0.375
S'ok'
p336
I0
tp337
a(I609
I4
F-0.625
S'fast'
p338
I0
tp339
a(I809
I0
F-0.625
S'fast'
p340
I0
tp341
a(I809
I0
F0.125
S'enough'
p342
I0
tp343
a(I944
I1
F-0.625
S'fast'
p344
I0
tp345
a(I1027
I6
F-0.625
S'fast'
p346
I0
tp347
a(I1084
I18
F0.5
S'applicable'
p348
I0
tp349
a(I1372
I2
F0.625
S'super'
p350
I0
tp351
a(I1464
I1
F0.875
S'great'
p352
I0
tp353
a(I1810
I10
F0.625
S'super'
p354
I0
tp355
a(I1901
I0
F-0.625
S'fast'
p356
I0
tp357
a(I64
I2
F-0.625
g328
I0
tp358
a(I64
I2
I0
g330
I0
tp359
a(I66
I3
F1.0
S'good'
p360
I0
tp361
a(I74
I5
F-0.625
S'fast'
p362
I0
tp363
a(I95
I2
F-0.625
S'fast'
p364
I0
tp365
a(I121
I1
F0.625
g332
I0
tp366
a(I226
I9
F-0.625
S'fast'
p367
I0
tp368
a(I233
I9
F0.875
S'awesome'
p369
I0
tp370
a(I411
I11
I0
S'ultra'
p371
I0
tp372
a(I421
I6
F-0.625
g334
I0
tp373
a(I445
I10
F0.375
g336
I0
tp374
a(I496
I0
F0.625
S'super'
p375
I0
tp376
a(I529
I12
F-0.625
S'fast'
p377
I0
tp378
a(I529
I12
F-0.625
S'fast'
p379
I0
tp380
a(I609
I4
F-0.625
g338
I0
tp381
a(I809
I0
F-0.625
g340
I0
tp382
a(I809
I0
F0.125
g342
I0
tp383
a(I815
I9
F0.25
S'consistent'
p384
I0
tp385
a(I839
I1
F-0.625
S'fast'
p386
I0
tp387
a(I894
I8
I0
S'quick'
p388
I0
tp389
a(I894
I8
F0.625
S'super'
p390
I0
tp391
a(I916
I16
F-0.625
S'fast'
p392
I0
tp393
a(I916
I16
F0.875
S'worthy'
p394
I0
tp395
a(I925
I1
F-0.625
S'fast'
p396
I0
tp397
a(I929
I8
F-0.625
S'fast'
p398
I0
tp399
a(I932
I8
F-0.625
S'fast'
p400
I0
tp401
a(I944
I1
F-0.625
g344
I0
tp402
a(I1027
I6
F-0.625
g346
I0
tp403
a(I1084
I18
F0.5
g348
I0
tp404
a(I1361
I0
F1.0
S'good'
p405
I0
tp406
a(I1372
I2
F0.625
g350
I0
tp407
a(I1427
I8
F0.125
S'mobile'
p408
I0
tp409
a(I1427
I8
I0
S'hot'
p410
I0
tp411
a(I1461
I0
F0.875
S'superb'
p412
I0
tp413
a(I1464
I1
F0.875
g352
I0
tp414
a(I1471
I15
F0.875
S'awesome'
p415
I0
tp416
a(I1479
I5
F0.75
S'plus'
p417
I0
tp418
a(I1508
I0
F-0.625
S'fast'
p419
I0
tp420
a(I1549
I4
F-0.625
S'fast'
p421
I0
tp422
a(I1622
I1
F-0.625
S'fast'
p423
I0
tp424
a(I1742
I3
F-0.625
S'fast'
p425
I0
tp426
a(I1801
I2
F1.0
S'good'
p427
I0
tp428
a(I1810
I10
F0.625
g354
I0
tp429
a(I1901
I0
F-0.625
g356
I0
tp430
a(I1931
I3
F-0.625
S'fast'
p431
I0
tp432
a(I1931
I3
I0
S'nt'
p433
I0
tp434
a(I2099
I2
F0.875
S'great'
p435
I0
tp436
a(I2101
I0
F-0.625
S'fast'
p437
I0
tp438
a(I2101
I0
I0
S'useful'
p439
I0
tp440
a(I2195
I5
I0
S'pretty'
p441
I0
tp442
a(I2195
I5
I0
S'handy'
p443
I0
tp444
as(S'high'
p445
S'end'
p446
tp447
(lp448
(I196
I1
F0.5
S'high'
p449
I0
tp450
a(I353
I5
F0.5
S'high'
p451
I0
tp452
a(I411
I13
F0.5
S'high'
p453
I0
tp454
a(I423
I21
F0.5
S'high'
p455
I0
tp456
a(I470
I4
F0.5
S'high'
p457
I0
tp458
a(I470
I11
F0.5
S'high'
p459
I0
tp460
a(I616
I21
F0.5
S'high'
p461
I0
tp462
a(I756
I1
F0.5
S'high'
p463
I0
tp464
a(I766
I35
F0.5
S'high'
p465
I0
tp466
a(I883
I2
F0.5
S'high'
p467
I0
tp468
a(I1207
I11
F0.5
S'high'
p469
I0
tp470
a(I1256
I6
F0.5
S'high'
p471
I0
tp472
a(I1312
I3
F0.5
S'high'
p473
I0
tp474
a(I1342
I8
F0.5
S'high'
p475
I0
tp476
a(I1342
I8
F0.375
S'full'
p477
I0
tp478
a(I1443
I1
F0.5
S'high'
p479
I0
tp480
a(I1478
I5
F0.5
S'high'
p481
I0
tp482
a(I1624
I0
F0.5
S'high'
p483
I0
tp484
a(I1643
I2
F0.5
S'high'
p485
I0
tp486
a(I1815
I8
F-0.125
S'such'
p487
I0
tp488
a(I1815
I8
F0.5
S'high'
p489
I0
tp490
a(I1843
I0
F0.5
S'high'
p491
I0
tp492
a(I1848
I1
F0.5
S'high'
p493
I0
tp494
a(I1848
I1
F-0.875
S'low'
p495
I0
tp496
a(I1852
I2
F0.5
S'high'
p497
I0
tp498
a(I1853
I1
F0.5
S'high'
p499
I0
tp500
a(I1901
I0
F0.5
S'high'
p501
I0
tp502
a(I2064
I3
F0.5
S'high'
p503
I0
tp504
a(I2095
I0
F0.5
S'high'
p505
I0
tp506
as(S'screen'
p507
S'on'
p508
S'time'
p509
tp510
(lp511
(I4
I17
F-0.625
S'average'
p512
I0
tp513
a(I43
I4
I0
S'screen'
p514
I0
tp515
a(I421
I11
I0
S'more'
p516
I0
tp517
a(I803
I11
F0.125
S'enough'
p518
I0
tp519
a(I894
I36
F0.625
S'first'
p520
I0
tp521
a(I2013
I37
F-0.625
S'sensitive'
p522
I0
tp523
as(S'playing'
p524
S'games'
p525
tp526
(lp527
(I207
I15
F-0.625
S'fast'
p528
I1
tp529
a(I309
I64
I0
S'more'
p530
I1
tp531
a(I457
I1
F-0.5
S'heavy'
p532
I1
tp533
a(I529
I4
F-0.75
S'casual'
p534
I1
tp535
a(I605
I19
I0
S'video'
p536
I1
tp537
a(I659
I7
I0
S'internet'
p538
I1
tp539
a(I937
I2
F-0.5
S'heavy'
p540
I1
tp541
a(I937
I2
I0
S'graphical'
p542
I1
tp543
a(I937
I2
I0
S'nova'
p544
I1
tp545
a(I943
I0
F-0.5
S'heavy'
p546
I1
tp547
a(I943
I0
I0
S'n'
p548
I1
tp549
a(I957
I1
F-0.5
S'heavy'
p550
I1
tp551
a(I1113
I10
F-0.5
S'heavy'
p552
I1
tp553
a(I1317
I0
I0
S'big'
p554
I1
tp555
a(I1401
I7
F-0.5
S'heavy'
p556
I1
tp557
a(I1478
I5
F-0.625
S'real'
p558
I1
tp559
a(I1545
I1
F0.625
S'smooth'
p560
I1
tp561
a(I1760
I1
F-0.5
S'heavy'
p562
I1
tp563
a(I659
I7
I0
g538
I5
tp564
a(I2051
I12
I0
S'video'
p565
I5
tp566
a(I2051
I14
I0
S'video'
p567
I5
tp568
a(I4
I5
F-0.5
S'heavy'
p569
I5
tp570
a(I92
I10
I0
S'internet'
p571
I5
tp572
a(I139
I2
F0.75
S'outstanding'
p573
I5
tp574
a(I196
I1
F0.25
S'basic'
p575
I5
tp576
a(I207
I15
F-0.625
g528
I5
tp577
a(I309
I64
I0
g530
I5
tp578
a(I309
I65
I0
S'light'
p579
I5
tp580
a(I457
I1
F-0.5
g532
I5
tp581
a(I529
I4
F-0.75
g534
I5
tp582
a(I605
I19
I0
g536
I5
tp583
a(I655
I2
F-0.5
S'heavy'
p584
I5
tp585
a(I691
I1
F-0.5
S'heavy'
p586
I5
tp587
a(I885
I0
F0.375
S'much'
p588
I5
tp589
a(I903
I1
F-0.75
S'difficult'
p590
I5
tp591
a(I937
I2
F-0.5
g540
I5
tp592
a(I937
I2
I0
g542
I5
tp593
a(I937
I2
I0
g544
I5
tp594
a(I943
I0
F-0.5
g546
I5
tp595
a(I943
I0
I0
g548
I5
tp596
a(I957
I1
F-0.5
g550
I5
tp597
a(I980
I4
F-0.5
S'heavy'
p598
I5
tp599
a(I1027
I7
I0
S'normal'
p600
I5
tp601
a(I1027
I7
F0.375
S'usage'
p602
I5
tp603
a(I1027
I7
F-0.5
S'heavy'
p604
I5
tp605
a(I1113
I10
F-0.5
g552
I5
tp606
a(I1123
I2
F-0.625
S'moderate'
p607
I5
tp608
a(I1207
I27
I0
S'few'
p609
I5
tp610
a(I1223
I9
I0
S'big'
p611
I5
tp612
a(I1294
I1
F0.125
S'mobile'
p613
I5
tp614
a(I1294
I1
I0
S'wifi'
p615
I5
tp616
a(I1317
I0
I0
g554
I5
tp617
a(I1329
I14
F-0.5
S'heavy'
p618
I5
tp619
a(I1336
I22
F-0.75
S'little'
p620
I5
tp621
a(I1370
I6
F-0.75
S'casual'
p622
I5
tp623
a(I1401
I7
F-0.5
g556
I5
tp624
a(I1427
I13
F-0.5
S'heavy'
p625
I5
tp626
a(I1478
I5
F-0.625
g558
I5
tp627
a(I1545
I1
F0.625
g560
I5
tp628
a(I1734
I3
F-0.5
S'heavy'
p629
I5
tp630
a(I1760
I1
F-0.5
g562
I5
tp631
a(I1948
I1
F-0.125
S'such'
p632
I5
tp633
as(S'average'
p634
tp635
(lp636
(I42
I5
I0
S'below'
p637
I12
tp638
a(I64
I1
I0
S'above'
p639
I12
tp640
a(I64
I1
F1.0
S'good'
p641
I12
tp642
a(I80
I0
F-0.125
S'overall'
p643
I12
tp644
a(I90
I3
F-1.0
S'bad'
p645
I12
tp646
a(I353
I9
I0
S'below'
p647
I12
tp648
a(I504
I20
I0
S'below'
p649
I12
tp650
a(I655
I3
I0
S'above'
p651
I12
tp652
a(I727
I2
I0
S'above'
p653
I12
tp654
a(I727
I2
I0
S'daylight'
p655
I12
tp656
a(I796
I21
I0
S'below'
p657
I12
tp658
a(I803
I8
I0
S'above'
p659
I12
tp660
a(I853
I3
I0
S'below'
p661
I12
tp662
a(I853
I3
I0
S'above'
p663
I12
tp664
a(I915
I4
I0
S'below'
p665
I12
tp666
a(I1026
I40
I0
S'above'
p667
I12
tp668
a(I1123
I17
I0
S'above'
p669
I12
tp670
a(I1349
I21
F-1.0
S'bad'
p671
I12
tp672
a(I1350
I3
I0
S'above'
p673
I12
tp674
a(I1372
I6
I0
S'below'
p675
I12
tp676
a(I1372
I19
I0
S'above'
p677
I12
tp678
a(I1372
I20
I0
S'below'
p679
I12
tp680
a(I1578
I1
I0
S'below'
p681
I12
tp682
a(I1818
I10
I0
S'above'
p683
I12
tp684
as(S'look'
p685
S'and'
p686
S'feel'
p687
tp688
(lp689
(I40
I4
F0.875
S'awesome'
p690
I0
tp691
a(I550
I34
F1.0
S'good'
p692
I0
tp693
a(I899
I9
F0.875
S'awesome'
p694
I0
tp695
a(I1306
I34
F0.875
S'attractive'
p696
I0
tp697
a(I1333
I8
F0.75
S'premium'
p698
I0
tp699
a(I1447
I1
F-0.375
S'same'
p700
I0
tp701
a(I1623
I6
F0.75
S'premium'
p702
I0
tp703
a(I28
I6
F-0.75
S'warmer'
p704
I10
tp705
a(I40
I4
F0.875
g690
I10
tp706
a(I139
I1
F1.0
S'good'
p707
I10
tp708
a(I478
I2
F-0.75
S'warm'
p709
I10
tp710
a(I725
I8
F0.75
S'premium'
p711
I10
tp712
a(I899
I9
F0.875
g694
I10
tp713
a(I1025
I26
F0.75
S'premium'
p714
I10
tp715
a(I1306
I34
F0.875
g696
I10
tp716
a(I1548
I2
F0.75
S'premium'
p717
I10
tp718
a(I1548
I2
F0.875
S'solid'
p719
I10
tp720
a(I1553
I1
F0.75
S'premium'
p721
I10
tp722
a(I1556
I1
F-0.5
S'less'
p723
I10
tp724
a(I1653
I14
F1.0
S'good'
p725
I10
tp726
a(I1755
I2
F0.125
S'sight'
p727
I10
tp728
a(I1789
I10
F-0.75
S'warm'
p729
I10
tp730
a(I1942
I1
F0.75
S'premium'
p731
I10
tp732
as(S'in'
p733
S'flash'
p734
S'sale'
p735
tp736
(lp737
(I37
I1
F-0.5
S'flash'
p738
I0
tp739
a(I40
I2
F-0.5
S'flash'
p740
I0
tp741
a(I40
I2
F-0.5
S'flash'
p742
I0
tp743
a(I42
I7
F-0.5
S'flash'
p744
I0
tp745
a(I142
I0
F-0.5
S'flash'
p746
I0
tp747
a(I214
I0
F-0.5
S'flash'
p748
I0
tp749
a(I423
I6
F-0.5
S'flash'
p750
I0
tp751
a(I479
I3
F-0.25
S'i'
p752
I0
tp753
a(I479
I3
F-0.5
S'flash'
p754
I0
tp755
a(I533
I2
F-0.5
S'flash'
p756
I0
tp757
a(I599
I3
F-0.5
S'flash'
p758
I0
tp759
a(I604
I5
F-0.5
S'flash'
p760
I0
tp761
a(I610
I0
F-0.5
S'flash'
p762
I0
tp763
a(I659
I0
F-0.5
S'flash'
p764
I0
tp765
a(I659
I0
I0
S'feb'
p766
I0
tp767
a(I803
I0
F-0.5
S'flash'
p768
I0
tp769
a(I812
I5
F-0.5
S'flash'
p770
I0
tp771
a(I812
I5
F-0.5
S'flash'
p772
I0
tp773
a(I814
I0
F-0.5
S'flash'
p774
I0
tp775
a(I1023
I5
F-0.5
S'flash'
p776
I0
tp777
a(I1039
I4
F0.625
S'first'
p778
I0
tp779
a(I1039
I4
F-0.5
S'flash'
p780
I0
tp781
a(I1104
I4
F0.625
S'first'
p782
I0
tp783
a(I1137
I0
F-0.5
S'flash'
p784
I0
tp785
a(I1373
I14
F-0.5
S'flash'
p786
I0
tp787
a(I1419
I3
F-0.5
S'flash'
p788
I0
tp789
a(I1463
I1
F0.875
S'lucky'
p790
I0
tp791
a(I1463
I1
F-0.5
S'flash'
p792
I0
tp793
a(I1488
I14
F-0.5
S'flash'
p794
I0
tp795
a(I1665
I23
F-0.5
S'flash'
p796
I0
tp797
a(I1692
I2
F-0.5
S'flash'
p798
I0
tp799
a(I1707
I13
F-0.125
S'next'
p800
I0
tp801
a(I1713
I2
F0.625
S'first'
p802
I0
tp803
a(I1713
I2
F-0.5
S'flash'
p804
I0
tp805
a(I1738
I2
F-0.5
S'flash'
p806
I0
tp807
a(I1742
I16
F-0.5
S'flash'
p808
I0
tp809
a(I1742
I16
F0.75
S'due'
p810
I0
tp811
a(I1769
I2
F-0.5
S'flash'
p812
I0
tp813
a(I1769
I13
F0.5
S'second'
p814
I0
tp815
a(I1769
I13
F-0.5
S'flash'
p816
I0
tp817
a(I1818
I2
F-0.125
S'next'
p818
I0
tp819
a(I1862
I2
F-0.5
S'flash'
p820
I0
tp821
a(I2150
I0
F-0.5
S'flash'
p822
I0
tp823
a(I37
I1
F-0.5
g738
I0
tp824
a(I40
I2
F-0.5
g740
I0
tp825
a(I40
I2
F-0.5
g742
I0
tp826
a(I42
I7
F-0.5
g744
I0
tp827
a(I142
I0
F-0.5
g746
I0
tp828
a(I214
I0
F-0.5
g748
I0
tp829
a(I423
I6
F-0.5
g750
I0
tp830
a(I473
I38
F-0.5
S'flash'
p831
I0
tp832
a(I479
I3
F-0.25
g752
I0
tp833
a(I479
I3
F-0.5
g754
I0
tp834
a(I533
I2
F-0.5
g756
I0
tp835
a(I599
I3
F-0.5
g758
I0
tp836
a(I604
I5
F-0.5
g760
I0
tp837
a(I610
I0
F-0.5
g762
I0
tp838
a(I659
I0
F-0.5
g764
I0
tp839
a(I659
I0
I0
g766
I0
tp840
a(I803
I0
F-0.5
g768
I0
tp841
a(I812
I5
F-0.5
g770
I0
tp842
a(I812
I5
F-0.5
g772
I0
tp843
a(I814
I0
F-0.5
g774
I0
tp844
a(I903
I18
F-0.5
S'flash'
p845
I0
tp846
a(I1023
I5
F-0.5
g776
I0
tp847
a(I1039
I4
F0.625
g778
I0
tp848
a(I1039
I4
F-0.5
g780
I0
tp849
a(I1104
I4
F0.625
g782
I0
tp850
a(I1104
I5
F-0.5
S'flash'
p851
I0
tp852
a(I1137
I0
F-0.5
g784
I0
tp853
a(I1373
I14
F-0.5
g786
I0
tp854
a(I1419
I3
F-0.5
g788
I0
tp855
a(I1441
I5
F-0.5
S'flash'
p856
I0
tp857
a(I1463
I1
F0.875
g790
I0
tp858
a(I1463
I1
F-0.5
g792
I0
tp859
a(I1488
I14
F-0.5
g794
I0
tp860
a(I1490
I0
F-0.5
S'flash'
p861
I0
tp862
a(I1665
I23
F-0.5
g796
I0
tp863
a(I1692
I2
F-0.5
g798
I0
tp864
a(I1707
I13
F-0.125
g800
I0
tp865
a(I1713
I2
F0.625
g802
I0
tp866
a(I1713
I2
F-0.5
g804
I0
tp867
a(I1738
I2
F-0.5
g806
I0
tp868
a(I1742
I16
F-0.5
g808
I0
tp869
a(I1742
I16
F0.75
g810
I0
tp870
a(I1769
I2
F-0.5
g812
I0
tp871
a(I1769
I13
F0.5
g814
I0
tp872
a(I1769
I13
F-0.5
g816
I0
tp873
a(I1818
I2
F-0.125
g818
I0
tp874
a(I1862
I2
F-0.5
g820
I0
tp875
a(I2150
I0
F-0.5
g822
I0
tp876
a(I2235
I1
F-0.5
S'flash'
p877
I0
tp878
a(I217
I1
F-0.75
S'disappointing'
p879
I3
tp880
a(I234
I7
F-0.875
S'insufficient'
p881
I3
tp882
a(I275
I2
F1.0
S'good'
p883
I3
tp884
a(I319
I1
F-0.75
S'dim'
p885
I3
tp886
a(I319
I1
I0
S'yellowish'
p887
I3
tp888
a(I344
I1
F-0.125
S'next'
p889
I3
tp890
a(I531
I0
F-0.875
S'poor'
p891
I3
tp892
a(I677
I0
F0.625
S'first'
p893
I3
tp894
a(I686
I0
F-0.625
S'nervous'
p895
I3
tp896
a(I1257
I1
F-0.875
S'poor'
p897
I3
tp898
a(I1485
I1
F0.375
S'available'
p899
I3
tp900
a(I1623
I4
F-0.125
S'front'
p901
I3
tp902
a(I1707
I13
F-0.125
g800
I3
tp903
a(I1818
I2
F-0.125
g818
I3
tp904
as(S'excellent'
p905
tp906
(lp907
(I143
I1
F0.75
S'premium'
p908
I4
tp909
a(I1054
I2
F0.375
S'works'
p910
I4
tp911
as(S'well'
p912
tp913
(lp914
(I374
I5
F0.125
S'mobile'
p915
I9
tp916
as(S'software'
p917
tp918
(lp919
(I1
I17
F-0.75
S'minor'
p920
I2
tp921
a(I79
I6
F-0.875
S'poor'
p922
I2
tp923
a(I79
I6
F-0.75
S'minor'
p924
I2
tp925
a(I101
I13
F0.125
S'mobile'
p926
I2
tp927
a(I233
I7
I0
S'few'
p928
I2
tp929
a(I309
I75
I0
S'proprietary'
p930
I2
tp931
a(I309
I76
F1.0
S'good'
p932
I2
tp933
a(I329
I8
F1.0
S'better'
p934
I2
tp935
a(I329
I10
F-1.0
S'bad'
p936
I2
tp937
a(I333
I9
F0.25
S'future'
p938
I2
tp939
a(I478
I0
F1.0
S'good'
p940
I2
tp941
a(I479
I9
F-0.25
S'i'
p942
I2
tp943
a(I533
I6
F0.875
S'simple'
p944
I2
tp945
a(I581
I2
I0
S'update'
p946
I2
tp947
a(I665
I1
F0.125
S'mobile'
p948
I2
tp949
a(I665
I1
F0.25
S'basic'
p950
I2
tp951
a(I755
I1
F0.75
S'easy'
p952
I2
tp953
a(I778
I2
I0
S'most'
p954
I2
tp955
a(I817
I0
F-0.5
S'original'
p956
I2
tp957
a(I876
I1
F0.875
S'simple'
p958
I2
tp959
a(I876
I1
I0
S'user'
p960
I2
tp961
a(I971
I0
I0
S'few'
p962
I2
tp963
a(I1103
I6
I0
S'wont'
p964
I2
tp965
a(I1108
I13
F0.25
S'future'
p966
I2
tp967
a(I1114
I1
F0.375
S'available'
p968
I2
tp969
a(I1190
I3
F-1.0
S'worst'
p970
I2
tp971
a(I1206
I3
F1.0
S'good'
p972
I2
tp973
a(I1301
I0
F0.875
S'simple'
p974
I2
tp975
a(I1370
I4
F0.25
S'fluid'
p976
I2
tp977
a(I1372
I1
F0.75
S'perfect'
p978
I2
tp979
a(I1466
I6
F0.75
S'perfect'
p980
I2
tp981
a(I1487
I18
F0.25
S'consistent'
p982
I2
tp983
a(I1499
I4
I0
S'more'
p984
I2
tp985
a(I1499
I4
I0
S'update'
p986
I2
tp987
a(I1504
I2
F0.25
S'usable'
p988
I2
tp989
a(I1684
I1
F-0.625
S'fast'
p990
I2
tp991
a(I1754
I5
I0
S'rubbish'
p992
I2
tp993
a(I1810
I9
F0.75
S'perfect'
p994
I2
tp995
a(I1830
I5
I0
S'update'
p996
I2
tp997
a(I1937
I19
F1.0
S'good'
p998
I2
tp999
a(I1937
I19
F1.0
S'good'
p1000
I2
tp1001
a(I2045
I5
F1.0
S'good'
p1002
I2
tp1003
a(I2139
I3
F-0.875
S'small'
p1004
I2
tp1005
as(S'in'
p1006
S'1'
p1007
S'hour'
p1008
tp1009
(lp1010
(I1361
I0
F-0.5
S'less'
p1011
I0
tp1012
a(I1694
I0
F-0.375
S'same'
p1013
I0
tp1014
as(g1007
g239
S'gb'
p1015
tp1016
(lp1017
(I1293
I2
F0.125
S'enough'
p1018
I0
tp1019
a(I1348
I11
F0.375
S'much'
p1020
I0
tp1021
as(S'to'
p1022
S'metal'
p1023
S'body'
p1024
tp1025
(lp1026
(I126
I0
F-0.625
S'fragile'
p1027
I0
tp1028
a(I220
I0
F-0.75
S'little'
p1029
I0
tp1030
a(I220
I0
F-0.25
S'i'
p1031
I0
tp1032
a(I290
I4
F0.75
S'due'
p1033
I0
tp1034
a(I600
I2
F0.5
S'stylish'
p1035
I0
tp1036
a(I600
I7
F0.375
S'compact'
p1037
I0
tp1038
a(I885
I16
I0
S'hot'
p1039
I0
tp1040
a(I885
I16
F0.75
S'due'
p1041
I0
tp1042
a(I914
I2
F0.375
S'much'
p1043
I0
tp1044
a(I961
I1
F0.75
S'due'
p1045
I0
tp1046
a(I979
I0
F0.375
S'full'
p1047
I0
tp1048
a(I1014
I0
F0.75
S'due'
p1049
I0
tp1050
a(I1024
I2
I0
S'u'
p1051
I0
tp1052
a(I1075
I8
F-0.625
S'fragile'
p1053
I0
tp1054
a(I1075
I8
I0
S'metallic'
p1055
I0
tp1056
a(I1108
I22
F0.375
S'sleek'
p1057
I0
tp1058
a(I1113
I8
F0.375
S'sleek'
p1059
I0
tp1060
a(I1113
I8
F0.5
S'heats'
p1061
I0
tp1062
a(I1210
I2
F0.75
S'due'
p1063
I0
tp1064
a(I1827
I2
F0.75
S'beautiful'
p1065
I0
tp1066
a(I1827
I2
F0.625
S'rich'
p1067
I0
tp1068
a(I2081
I1
F0.375
S'full'
p1069
I0
tp1070
a(I2087
I4
I0
S'hot'
p1071
I0
tp1072
a(I2087
I4
F0.75
S'due'
p1073
I0
tp1074
a(I30
I10
F1.0
S'excellent'
p1075
I0
tp1076
a(I126
I0
F-0.625
g1027
I0
tp1077
a(I139
I1
F0.875
S'awesome'
p1078
I0
tp1079
a(I143
I2
F0.375
S'full'
p1080
I0
tp1081
a(I220
I0
F-0.75
g1029
I0
tp1082
a(I220
I0
F-0.25
g1031
I0
tp1083
a(I290
I4
F0.75
g1033
I0
tp1084
a(I383
I0
F0.375
S'usage'
p1085
I0
tp1086
a(I383
I0
F-0.5
S'heavy'
p1087
I0
tp1088
a(I473
I34
I0
S'metal'
p1089
I0
tp1090
a(I491
I0
F0.375
S'much'
p1091
I0
tp1092
a(I491
I0
I0
S'metal'
p1093
I0
tp1094
a(I600
I2
F0.5
g1035
I0
tp1095
a(I600
I7
F0.375
g1037
I0
tp1096
a(I703
I8
F-0.875
S'poor'
p1097
I0
tp1098
a(I751
I6
F0.875
S'awesome'
p1099
I0
tp1100
a(I808
I2
F0.375
S'full'
p1101
I0
tp1102
a(I873
I1
F0.75
S'premium'
p1103
I0
tp1104
a(I885
I16
I0
g1039
I0
tp1105
a(I885
I16
F0.75
g1041
I0
tp1106
a(I914
I2
F0.375
g1043
I0
tp1107
a(I961
I1
F0.75
g1045
I0
tp1108
a(I979
I0
F0.375
g1047
I0
tp1109
a(I1014
I0
F0.75
g1049
I0
tp1110
a(I1024
I2
I0
g1051
I0
tp1111
a(I1030
I15
I0
S'metallic'
p1112
I0
tp1113
a(I1075
I8
F-0.625
g1053
I0
tp1114
a(I1075
I8
I0
g1055
I0
tp1115
a(I1108
I22
F0.375
g1057
I0
tp1116
a(I1113
I8
F0.375
g1059
I0
tp1117
a(I1113
I8
F0.5
g1061
I0
tp1118
a(I1207
I13
I0
S'normal'
p1119
I0
tp1120
a(I1207
I13
F0.375
S'full'
p1121
I0
tp1122
a(I1210
I2
F0.75
g1063
I0
tp1123
a(I1248
I8
F0.375
S'full'
p1124
I0
tp1125
a(I1285
I1
I0
S'metal'
p1126
I0
tp1127
a(I1306
I4
F1.0
S'good'
p1128
I0
tp1129
a(I1444
I1
F0.375
S'sleek'
p1130
I0
tp1131
a(I1444
I1
F0.625
S'finish'
p1132
I0
tp1133
a(I1458
I15
F0.375
S'full'
p1134
I0
tp1135
a(I1655
I5
F1.0
S'good'
p1136
I0
tp1137
a(I1827
I2
F0.75
g1065
I0
tp1138
a(I1827
I2
F0.625
g1067
I0
tp1139
a(I1980
I10
F1.0
S'excellent'
p1140
I0
tp1141
a(I2018
I7
F1.0
S'excellent'
p1142
I0
tp1143
a(I2081
I1
F0.375
g1069
I0
tp1144
a(I2087
I4
I0
g1071
I0
tp1145
a(I2087
I4
F0.75
g1073
I0
tp1146
a(I2193
I0
I0
S'metallic'
p1147
I0
tp1148
a(I2199
I1
F1.0
S'good'
p1149
I0
tp1150
a(I2202
I0
F-0.125
S'overall'
p1151
I0
tp1152
a(I4
I11
F0.375
S'full'
p1153
I0
tp1154
a(I30
I10
F1.0
g1075
I0
tp1155
a(I62
I2
F0.375
S'full'
p1156
I0
tp1157
a(I139
I1
F0.875
g1078
I0
tp1158
a(I143
I2
F0.375
g1080
I0
tp1159
a(I220
I0
F-0.75
g1029
I0
tp1160
a(I226
I7
F0.75
S'complete'
p1161
I0
tp1162
a(I347
I1
F0.75
S'complete'
p1163
I0
tp1164
a(I383
I0
F0.375
g1085
I0
tp1165
a(I383
I0
F-0.5
g1087
I0
tp1166
a(I491
I0
F0.375
g1091
I0
tp1167
a(I600
I2
F0.5
g1035
I0
tp1168
a(I600
I7
F0.375
g1037
I0
tp1169
a(I808
I2
F0.375
g1101
I0
tp1170
a(I873
I1
F0.75
g1103
I0
tp1171
a(I979
I0
F0.375
g1047
I0
tp1172
a(I1026
I43
F0.5
S'heat'
p1173
I0
tp1174
a(I1108
I22
F0.375
g1057
I0
tp1175
a(I1113
I8
F0.375
g1059
I0
tp1176
a(I1207
I13
I0
g1119
I0
tp1177
a(I1207
I13
F0.375
g1121
I0
tp1178
a(I1248
I8
F0.375
g1124
I0
tp1179
a(I1306
I4
F1.0
g1128
I0
tp1180
a(I1354
I0
F0.125
S'mobile'
p1181
I0
tp1182
a(I1354
I0
F0.875
S'attractive'
p1183
I0
tp1184
a(I1354
I0
F0.375
S'full'
p1185
I0
tp1186
a(I1440
I1
F0.375
S'full'
p1187
I0
tp1188
a(I1444
I1
F0.375
g1130
I0
tp1189
a(I1458
I15
F0.375
g1134
I0
tp1190
a(I1533
I0
I0
S'stunning'
p1191
I0
tp1192
a(I1548
I4
F0.5
S'sturdy'
p1193
I0
tp1194
a(I1827
I2
F0.75
g1065
I0
tp1195
a(I1827
I2
F0.625
g1067
I0
tp1196
a(I1980
I10
F1.0
g1140
I0
tp1197
a(I2018
I7
F1.0
g1142
I0
tp1198
a(I2081
I1
F0.375
g1069
I0
tp1199
a(I2199
I1
F1.0
g1149
I0
tp1200
a(I126
I0
F-0.625
g1027
I3
tp1201
a(I220
I0
F-0.25
g1031
I3
tp1202
a(I290
I4
F0.75
g1033
I3
tp1203
a(I473
I34
I0
g1089
I3
tp1204
a(I491
I0
I0
g1093
I3
tp1205
a(I535
I3
F-0.125
S'chrome'
p1206
I3
tp1207
a(I703
I8
F-0.875
g1097
I3
tp1208
a(I751
I6
F0.875
g1099
I3
tp1209
a(I766
I8
F0.5
S'sturdy'
p1210
I3
tp1211
a(I882
I0
F0.875
S'superb'
p1212
I3
tp1213
a(I885
I16
I0
g1039
I3
tp1214
a(I885
I16
F0.75
g1041
I3
tp1215
a(I914
I2
F0.375
g1043
I3
tp1216
a(I961
I1
F0.75
g1045
I3
tp1217
a(I1014
I0
F0.75
g1049
I3
tp1218
a(I1024
I2
I0
g1051
I3
tp1219
a(I1030
I15
I0
g1112
I3
tp1220
a(I1059
I0
I0
S'u'
p1221
I3
tp1222
a(I1059
I0
F0.375
S'reachable'
p1223
I3
tp1224
a(I1075
I8
F-0.625
g1053
I3
tp1225
a(I1075
I8
I0
g1055
I3
tp1226
a(I1113
I8
F0.5
g1061
I3
tp1227
a(I1210
I2
F0.75
g1063
I3
tp1228
a(I1285
I1
I0
g1126
I3
tp1229
a(I1306
I34
F0.5
S'stylish'
p1230
I3
tp1231
a(I1444
I1
F0.625
g1132
I3
tp1232
a(I1655
I5
F1.0
g1136
I3
tp1233
a(I1666
I2
F-0.5
S'weak'
p1234
I3
tp1235
a(I1842
I14
F1.0
S'good'
p1236
I3
tp1237
a(I2087
I4
I0
g1071
I3
tp1238
a(I2087
I4
F0.75
g1073
I3
tp1239
a(I2193
I0
I0
g1147
I3
tp1240
a(I2202
I0
F-0.125
g1151
I3
tp1241
as(S'iron'
p1242
S'box'
p1243
tp1244
(lp1245
(I802
I9
I0
S'quick'
p1246
I0
tp1247
a(I1069
I0
I0
S'iron'
p1248
I0
tp1249
a(I1681
I8
I0
S'iron'
p1250
I0
tp1251
as(S'for'
p1252
S'first'
p1253
S'time'
p1254
tp1255
(lp1256
(I3
I4
F0.625
S'first'
p1257
I1
tp1258
a(I463
I5
F0.625
S'first'
p1259
I1
tp1260
a(I593
I5
F0.625
S'first'
p1261
I1
tp1262
a(I821
I4
F0.625
S'first'
p1263
I1
tp1264
a(I853
I3
F0.625
S'first'
p1265
I1
tp1266
a(I894
I20
F0.625
S'first'
p1267
I1
tp1268
a(I894
I36
F0.625
g520
I1
tp1269
a(I964
I1
F0.625
S'first'
p1270
I1
tp1271
a(I1238
I2
F0.625
S'first'
p1272
I1
tp1273
a(I1711
I3
F0.625
S'first'
p1274
I1
tp1275
a(I1767
I12
F0.625
S'first'
p1276
I1
tp1277
a(I1840
I32
F0.625
S'first'
p1278
I1
tp1279
as(S'due'
p1280
S'to'
p1281
S'metal'
p1282
tp1283
(lp1284
(I2081
I1
F0.375
g1069
I0
tp1285
as(S'best'
p1286
S'in'
p1287
S'class'
p1288
tp1289
(lp1290
(I439
I2
F1.0
S'best'
p1291
I0
tp1292
a(I824
I1
F1.0
S'best'
p1293
I0
tp1294
a(I946
I1
F1.0
S'best'
p1295
I0
tp1296
a(I1014
I16
F1.0
S'best'
p1297
I0
tp1298
a(I1458
I23
F1.0
S'best'
p1299
I0
tp1300
a(I1488
I9
F1.0
S'best'
p1301
I0
tp1302
a(I2078
I0
F1.0
S'best'
p1303
I0
tp1304
a(I2158
I2
F1.0
S'best'
p1305
I0
tp1306
a(I2158
I2
F1.0
S'best'
p1307
I0
tp1308
a(I2194
I0
F1.0
S'best'
p1309
I0
tp1310
as(S'too'
p1311
S'much'
p1312
S'heating'
p1313
tp1314
(lp1315
(I1067
I6
F0.375
S'much'
p1316
I2
tp1317
a(I1067
I8
F0.375
S'much'
p1318
I2
tp1319
a(I1229
I0
F0.375
S'much'
p1320
I2
tp1321
a(I1778
I0
F0.375
S'much'
p1322
I2
tp1323
a(I1842
I9
F0.375
S'much'
p1324
I2
tp1325
a(I1940
I19
F0.375
g136
I2
tp1326
a(I1982
I0
F0.375
S'much'
p1327
I2
tp1328
a(I2063
I0
F0.375
S'much'
p1329
I2
tp1330
as(S'double'
p1331
S'tap'
p1332
tp1333
(lp1334
(I273
I1
I0
S'sure'
p1335
I0
tp1336
a(I284
I0
F-0.625
S'double'
p1337
I0
tp1338
a(I817
I5
F-0.625
S'double'
p1339
I0
tp1340
as(S'pros'
p1341
tp1342
(lp1343
(I58
I0
F0.375
S'full'
p1344
I2
tp1345
a(I117
I6
F0.125
S'following'
p1346
I2
tp1347
a(I187
I0
I0
S'few'
p1348
I2
tp1349
a(I1067
I18
F1.0
S'good'
p1350
I2
tp1351
a(I1286
I4
I0
S's'
p1352
I2
tp1353
a(I1871
I1
F1.0
S'good'
p1354
I2
tp1355
as(S'performance'
p1356
tp1357
(lp1358
(I170
I9
F1.0
S'good'
p1359
I13
tp1360
a(I295
I1
F0.5
S'high'
p1361
I13
tp1362
a(I309
I77
F0.5
S'similar'
p1363
I13
tp1364
a(I310
I1
F1.0
S'best'
p1365
I13
tp1366
a(I344
I2
F0.5
S'similar'
p1367
I13
tp1368
a(I352
I1
F0.875
S'great'
p1369
I13
tp1370
a(I353
I4
F-0.875
S'low'
p1371
I13
tp1372
a(I353
I4
I0
S'light'
p1373
I13
tp1374
a(I353
I4
F1.0
S'good'
p1375
I13
tp1376
a(I423
I2
F-0.125
S'overall'
p1377
I13
tp1378
a(I423
I2
F0.875
S'awesome'
p1379
I13
tp1380
a(I463
I5
F1.0
S'better'
p1381
I13
tp1382
a(I470
I1
F-0.875
S'low'
p1383
I13
tp1384
a(I476
I36
F-0.125
S'overall'
p1385
I13
tp1386
a(I476
I36
F0.375
S'satisfied'
p1387
I13
tp1388
a(I526
I5
F0.5
S'high'
p1389
I13
tp1390
a(I528
I11
F-0.75
S'artificial'
p1391
I13
tp1392
a(I533
I21
F-0.875
S'poor'
p1393
I13
tp1394
a(I533
I25
F-0.875
S'poor'
p1395
I13
tp1396
a(I550
I31
F0.75
S'outstanding'
p1397
I13
tp1398
a(I566
I21
F0.875
S'great'
p1399
I13
tp1400
a(I566
I22
F-0.625
S'fast'
p1401
I13
tp1402
a(I577
I9
F1.0
S'excellent'
p1403
I13
tp1404
a(I591
I12
F0.625
S'smooth'
p1405
I13
tp1406
a(I608
I1
F-0.5
S'snappy'
p1407
I13
tp1408
a(I616
I2
F1.0
S'good'
p1409
I13
tp1410
a(I620
I1
F1.0
S'good'
p1411
I13
tp1412
a(I643
I0
F1.0
S'good'
p1413
I13
tp1414
a(I655
I5
F-0.875
S'low'
p1415
I13
tp1416
a(I655
I5
I0
S'light'
p1417
I13
tp1418
a(I655
I5
F1.0
S'good'
p1419
I13
tp1420
a(I659
I1
F1.0
S'better'
p1421
I13
tp1422
a(I659
I10
F-0.625
S'average'
p1423
I13
tp1424
a(I748
I2
F0.875
S'superb'
p1425
I13
tp1426
a(I748
I2
I0
S'more'
p1427
I13
tp1428
a(I796
I17
F0.625
S'smooth'
p1429
I13
tp1430
a(I850
I1
F0.875
S'amazing'
p1431
I13
tp1432
a(I882
I17
F1.0
S'good'
p1433
I13
tp1434
a(I903
I20
F1.0
S'good'
p1435
I13
tp1436
a(I903
I20
F1.0
S'good'
p1437
I13
tp1438
a(I905
I2
F1.0
S'good'
p1439
I13
tp1440
a(I907
I0
F0.875
S'nice'
p1441
I13
tp1442
a(I944
I1
F0.5
S'daily'
p1443
I13
tp1444
a(I954
I1
F0.875
S'superb'
p1445
I13
tp1446
a(I954
I1
F1.0
S'best'
p1447
I13
tp1448
a(I990
I3
F0.875
S'happy'
p1449
I13
tp1450
a(I1001
I3
F1.0
S'good'
p1451
I13
tp1452
a(I1005
I7
F1.0
S'better'
p1453
I13
tp1454
a(I1009
I3
F1.0
S'good'
p1455
I13
tp1456
a(I1012
I1
F0.5
S'high'
p1457
I13
tp1458
a(I1019
I0
F-0.125
S'ultimate'
p1459
I13
tp1460
a(I1026
I36
I0
S'specs'
p1461
I13
tp1462
a(I1043
I3
F-0.625
S'fast'
p1463
I13
tp1464
a(I1056
I4
F-0.875
S'low'
p1465
I13
tp1466
a(I1056
I4
I0
S'light'
p1467
I13
tp1468
a(I1056
I4
F-0.625
S'average'
p1469
I13
tp1470
a(I1167
I3
F-0.125
S'overall'
p1471
I13
tp1472
a(I1167
I3
F1.0
S'good'
p1473
I13
tp1474
a(I1207
I27
F1.0
S'good'
p1475
I13
tp1476
a(I1232
I3
F1.0
S'good'
p1477
I13
tp1478
a(I1248
I15
F1.0
S'good'
p1479
I13
tp1480
a(I1306
I8
F0.5
S'unmatchable'
p1481
I13
tp1482
a(I1306
I17
F1.0
S'better'
p1483
I13
tp1484
a(I1306
I17
F1.0
S'better'
p1485
I13
tp1486
a(I1306
I19
F1.0
S'good'
p1487
I13
tp1488
a(I1306
I21
F1.0
S'good'
p1489
I13
tp1490
a(I1315
I19
F1.0
S'good'
p1491
I13
tp1492
a(I1336
I3
F0.875
S'happy'
p1493
I13
tp1494
a(I1336
I38
F0.625
S'first'
p1495
I13
tp1496
a(I1349
I12
F-0.625
S'average'
p1497
I13
tp1498
a(I1349
I16
F-1.0
S'bad'
p1499
I13
tp1500
a(I1372
I1
F0.875
S'awesome'
p1501
I13
tp1502
a(I1387
I6
F0.5
S'touch'
p1503
I13
tp1504
a(I1439
I10
I0
S'cpu'
p1505
I13
tp1506
a(I1439
I10
F1.0
S'good'
p1507
I13
tp1508
a(I1439
I10
F-0.75
S'open'
p1509
I13
tp1510
a(I1468
I0
F0.75
S'perfect'
p1511
I13
tp1512
a(I1471
I3
F-0.75
S'little'
p1513
I13
tp1514
a(I1487
I2
F1.0
S'good'
p1515
I13
tp1516
a(I1488
I10
F1.0
S'best'
p1517
I13
tp1518
a(I1511
I1
F-0.125
S'overall'
p1519
I13
tp1520
a(I1511
I1
F1.0
S'excellent'
p1521
I13
tp1522
a(I1548
I16
F1.0
S'good'
p1523
I13
tp1524
a(I1574
I1
F1.0
S'good'
p1525
I13
tp1526
a(I1655
I3
F1.0
S'good'
p1527
I13
tp1528
a(I1665
I1
F0.875
S'happy'
p1529
I13
tp1530
a(I1665
I9
F0.5
S'similar'
p1531
I13
tp1532
a(I1665
I9
F-0.5
S'unsatisfactory'
p1533
I13
tp1534
a(I1692
I0
F-1.0
S'bad'
p1535
I13
tp1536
a(I1772
I0
F0.875
S'superb'
p1537
I13
tp1538
a(I1807
I0
F1.0
S'good'
p1539
I13
tp1540
a(I1808
I3
F-0.5
S'disappointed'
p1541
I13
tp1542
a(I1810
I9
F0.875
S'awesome'
p1543
I13
tp1544
a(I1818
I8
F0.375
S'much'
p1545
I13
tp1546
a(I1840
I41
F-0.625
S'seamless'
p1547
I13
tp1548
a(I1871
I1
F1.0
S'good'
p1549
I13
tp1550
a(I1878
I2
F1.0
S'good'
p1551
I13
tp1552
a(I1917
I0
F0.875
S'amazing'
p1553
I13
tp1554
a(I1917
I4
F1.0
S'good'
p1555
I13
tp1556
a(I1919
I0
F1.0
S'good'
p1557
I13
tp1558
a(I1919
I0
F-0.625
S'fast'
p1559
I13
tp1560
a(I1920
I0
F1.0
S'good'
p1561
I13
tp1562
a(I1940
I3
F0.875
S'happy'
p1563
I13
tp1564
a(I1940
I3
F0.125
S'mobile'
p1565
I13
tp1566
a(I1940
I17
F0.875
S'amazing'
p1567
I13
tp1568
a(I1947
I1
I0
S'light'
p1569
I13
tp1570
a(I1947
I1
F-0.75
S'letdown'
p1571
I13
tp1572
a(I1967
I0
F1.0
S'good'
p1573
I13
tp1574
a(I2007
I1
F1.0
S'good'
p1575
I13
tp1576
a(I2028
I0
F-0.875
S'low'
p1577
I13
tp1578
a(I2028
I0
I0
S'light'
p1579
I13
tp1580
a(I2030
I4
F0.5
S'unmatched'
p1581
I13
tp1582
a(I2117
I2
F0.5
S'optimum'
p1583
I13
tp1584
a(I2118
I0
F1.0
S'good'
p1585
I13
tp1586
a(I2119
I4
F1.0
S'good'
p1587
I13
tp1588
a(I2120
I0
F1.0
S'good'
p1589
I13
tp1590
a(I2149
I4
F0.625
S'extraordinary'
p1591
I13
tp1592
a(I2169
I0
F1.0
S'good'
p1593
I13
tp1594
a(I2169
I0
F0.875
S'superb'
p1595
I13
tp1596
a(I2185
I1
I0
S'n'
p1597
I13
tp1598
a(I2185
I1
F1.0
S'better'
p1599
I13
tp1600
a(I2192
I2
F0.625
S'smooth'
p1601
I13
tp1602
a(I2192
I5
F0.875
S'great'
p1603
I13
tp1604
a(I2203
I0
F0.375
S'ok'
p1605
I13
tp1606
a(I2214
I1
F0.375
S'much'
p1607
I13
tp1608
as(S'sound'
p1609
S'quality'
p1610
tp1611
(lp1612
(I153
I1
F1.0
S'good'
p1613
I5
tp1614
a(I229
I5
F0.75
S'sound'
p1615
I5
tp1616
a(I229
I5
F-0.625
S'average'
p1617
I5
tp1618
a(I266
I1
F1.0
S'good'
p1619
I5
tp1620
a(I272
I1
F1.0
S'good'
p1621
I5
tp1622
a(I272
I1
F1.0
S'good'
p1623
I5
tp1624
a(I309
I73
F1.0
S'good'
p1625
I5
tp1626
a(I309
I73
F1.0
S'better'
p1627
I5
tp1628
a(I329
I9
I0
S'clear'
p1629
I5
tp1630
a(I329
I9
F-0.875
g164
I5
tp1631
a(I577
I15
F1.0
S'good'
p1632
I5
tp1633
a(I631
I1
F0.75
g176
I5
tp1634
a(I631
I1
F1.0
g178
I5
tp1635
a(I646
I0
F0.75
S'sound'
p1636
I5
tp1637
a(I646
I0
F1.0
S'good'
p1638
I5
tp1639
a(I704
I3
F0.75
S'sound'
p1640
I5
tp1641
a(I819
I8
F0.75
S'sound'
p1642
I5
tp1643
a(I819
I8
F1.0
S'excellent'
p1644
I5
tp1645
a(I1111
I14
F1.0
S'good'
p1646
I5
tp1647
a(I1111
I14
F-0.5
S'loud'
p1648
I5
tp1649
a(I1111
I14
I0
S'clear'
p1650
I5
tp1651
a(I1248
I7
F0.75
S'sound'
p1652
I5
tp1653
a(I1248
I7
F1.0
S'good'
p1654
I5
tp1655
a(I1306
I5
F0.75
S'sound'
p1656
I5
tp1657
a(I1306
I5
F0.875
S'nice'
p1658
I5
tp1659
a(I1356
I1
F1.0
S'good'
p1660
I5
tp1661
a(I1356
I1
I0
S'clear'
p1662
I5
tp1663
a(I1362
I2
F1.0
S'good'
p1664
I5
tp1665
a(I1458
I25
F0.75
S'sound'
p1666
I5
tp1667
a(I1501
I0
F0.75
S'sound'
p1668
I5
tp1669
a(I1589
I1
F1.0
S'good'
p1670
I5
tp1671
a(I1734
I4
F0.875
S'great'
p1672
I5
tp1673
a(I1845
I0
F1.0
S'good'
p1674
I5
tp1675
a(I1880
I3
F1.0
S'good'
p1676
I5
tp1677
a(I1940
I1
F1.0
S'good'
p1678
I5
tp1679
a(I2203
I1
F0.75
S'sound'
p1680
I5
tp1681
a(I2203
I1
F1.0
S'good'
p1682
I5
tp1683
a(I219
I1
F0.875
S'awesome'
p1684
I15
tp1685
a(I272
I1
F1.0
g1623
I15
tp1686
a(I309
I73
F1.0
g1627
I15
tp1687
a(I329
I9
I0
g1629
I15
tp1688
a(I591
I16
F-0.5
S'loud'
p1689
I15
tp1690
a(I782
I1
F1.0
S'good'
p1691
I15
tp1692
a(I855
I1
F-0.75
S'open'
p1693
I15
tp1694
a(I855
I1
I0
S'crystal'
p1695
I15
tp1696
a(I855
I1
I0
S'clear'
p1697
I15
tp1698
a(I910
I1
F1.0
S'good'
p1699
I15
tp1700
a(I958
I3
F0.875
S'decent'
p1701
I15
tp1702
a(I1111
I14
F1.0
g1646
I15
tp1703
a(I1111
I14
F-0.5
g1648
I15
tp1704
a(I1111
I14
I0
g1650
I15
tp1705
a(I1315
I5
I0
S'clear'
p1706
I15
tp1707
a(I1549
I2
F-0.5
S'loud'
p1708
I15
tp1709
a(I1549
I14
F1.0
S'excellent'
p1710
I15
tp1711
a(I1617
I0
F0.375
S'ok'
p1712
I15
tp1713
a(I1625
I0
F0.875
S'awesome'
p1714
I15
tp1715
a(I1845
I0
F1.0
g1674
I15
tp1716
a(I1880
I3
F1.0
g1676
I15
tp1717
a(I1940
I1
F1.0
g1678
I15
tp1718
a(I2213
I3
F1.0
S'good'
p1719
I15
tp1720
as(S'redmi'
p1721
S'note'
p1722
tp1723
(lp1724
(I927
I0
F-0.125
S'next'
p1725
I0
tp1726
a(I927
I0
I0
S'alternative'
p1727
I0
tp1728
a(I927
I0
F1.0
S'best'
p1729
I0
tp1730
a(I933
I6
F1.0
S'better'
p1731
I0
tp1732
a(I1892
I0
F1.0
S'better'
p1733
I0
tp1734
as(S'in'
p1735
S'low'
p1736
S'light'
p1737
tp1738
(lp1739
(I4
I23
F-0.875
S'low'
p1740
I2
tp1741
a(I234
I7
F-0.875
S'low'
p1742
I2
tp1743
a(I234
I7
F-0.875
S'low'
p1744
I2
tp1745
a(I353
I5
F-0.875
S'low'
p1746
I2
tp1747
a(I479
I6
F-0.875
S'low'
p1748
I2
tp1749
a(I479
I14
F-0.875
S'low'
p1750
I2
tp1751
a(I584
I2
F-0.875
S'low'
p1752
I2
tp1753
a(I591
I7
F1.0
S'good'
p1754
I2
tp1755
a(I591
I7
F-0.875
S'low'
p1756
I2
tp1757
a(I609
I1
F-0.875
S'low'
p1758
I2
tp1759
a(I609
I1
F-0.75
S'artificial'
p1760
I2
tp1761
a(I615
I28
F-0.875
S'low'
p1762
I2
tp1763
a(I615
I28
F-1.0
S'bad'
p1764
I2
tp1765
a(I655
I6
F-0.875
S'low'
p1766
I2
tp1767
a(I816
I9
F-0.875
S'low'
p1768
I2
tp1769
a(I816
I9
F-0.5
S'flash'
p1770
I2
tp1771
a(I816
I9
F-0.75
S'single'
p1772
I2
tp1773
a(I847
I1
F0.625
S'interested'
p1774
I2
tp1775
a(I847
I1
F-0.875
S'low'
p1776
I2
tp1777
a(I853
I3
F-0.875
S'low'
p1778
I2
tp1779
a(I853
I3
I0
S'pretty'
p1780
I2
tp1781
a(I853
I3
F-0.625
S'average'
p1782
I2
tp1783
a(I933
I5
F-0.875
S'low'
p1784
I2
tp1785
a(I933
I5
F0.875
S'great'
p1786
I2
tp1787
a(I1067
I16
F-0.875
S'low'
p1788
I2
tp1789
a(I1108
I0
F-0.875
S'low'
p1790
I2
tp1791
a(I1113
I6
F-0.875
S'low'
p1792
I2
tp1793
a(I1171
I1
F-0.875
S'low'
p1794
I2
tp1795
a(I1177
I2
F-0.875
S'low'
p1796
I2
tp1797
a(I1336
I49
F-0.875
S'low'
p1798
I2
tp1799
a(I1341
I4
F-0.875
S'low'
p1800
I2
tp1801
a(I1350
I3
F-0.875
S'low'
p1802
I2
tp1803
a(I1350
I3
F-0.625
S'average'
p1804
I2
tp1805
a(I1350
I3
F-0.25
S'i'
p1806
I2
tp1807
a(I1359
I3
F-0.875
S'low'
p1808
I2
tp1809
a(I1376
I0
F-0.875
S'low'
p1810
I2
tp1811
a(I1427
I6
F-0.875
S'low'
p1812
I2
tp1813
a(I1510
I18
F-0.875
S'low'
p1814
I2
tp1815
a(I1540
I0
F-0.875
S'low'
p1816
I2
tp1817
a(I1540
I0
F-0.625
S'natural'
p1818
I2
tp1819
a(I1540
I0
F1.0
S'good'
p1820
I2
tp1821
a(I1550
I1
F0.875
S'great'
p1822
I2
tp1823
a(I1550
I1
F-0.875
S'low'
p1824
I2
tp1825
a(I1560
I1
I0
S'bright'
p1826
I2
tp1827
a(I1878
I1
F-0.875
S'low'
p1828
I2
tp1829
a(I1913
I17
F-0.875
S'low'
p1830
I2
tp1831
a(I1913
I17
F1.0
S'good'
p1832
I2
tp1833
as(S'customer'
p1834
S'care'
p1835
tp1836
(lp1837
(I1692
I19
F-0.875
S'pathetic'
p1838
I12
tp1839
a(I1695
I0
F0.25
S'shocked'
p1840
I12
tp1841
a(I1700
I1
F0.5
S'senior'
p1842
I12
tp1843
a(I1703
I0
F0.375
S'available'
p1844
I12
tp1845
a(I1907
I1
F1.0
S'good'
p1846
I12
tp1847
a(I1940
I20
F-1.0
S'bad'
p1848
I12
tp1849
as(S'initial'
p1850
S'impressions'
p1851
tp1852
(lp1853
(I90
I5
I0
S'initial'
p1854
I0
tp1855
a(I101
I10
I0
S'initial'
p1856
I0
tp1857
a(I214
I4
F0.375
S'ok'
p1858
I0
tp1859
a(I214
I4
I0
S'initial'
p1860
I0
tp1861
a(I627
I3
I0
S'initial'
p1862
I0
tp1863
as(S'finger'
p1864
S'print'
p1865
S'scanner'
p1866
tp1867
(lp1868
(I99
I1
F1.0
S'good'
p1869
I0
tp1870
a(I102
I4
F1.0
S'good'
p1871
I0
tp1872
a(I164
I1
I0
S'finger'
p1873
I0
tp1874
a(I233
I5
F1.0
S'good'
p1875
I0
tp1876
a(I265
I1
F-0.375
S'prone'
p1877
I0
tp1878
a(I308
I18
I0
S'quick'
p1879
I0
tp1880
a(I529
I10
F0.75
S'fantastic'
p1881
I0
tp1882
a(I554
I0
I0
S'quick'
p1883
I0
tp1884
a(I573
I1
F0.75
S'perfect'
p1885
I0
tp1886
a(I580
I0
I0
S'cool'
p1887
I0
tp1888
a(I648
I5
F-0.625
S'fingerprint'
p1889
I0
tp1890
a(I792
I2
F1.0
S'good'
p1891
I0
tp1892
a(I796
I21
I0
S'more'
p1893
I0
tp1894
a(I796
I21
F0.25
S'consistent'
p1895
I0
tp1896
a(I916
I14
F1.0
S'good'
p1897
I0
tp1898
a(I916
I21
I0
S'nd'
p1899
I0
tp1900
a(I984
I0
I0
S'quick'
p1901
I0
tp1902
a(I1003
I3
F0.625
S'fine'
p1903
I0
tp1904
a(I1012
I4
F1.0
S'excellent'
p1905
I0
tp1906
a(I1215
I0
F-0.625
S'fastest'
p1907
I0
tp1908
a(I1215
I0
F-0.25
S'i'
p1909
I0
tp1910
a(I1308
I0
F0.875
S'awesome'
p1911
I0
tp1912
a(I1355
I0
F0.5
S'second'
p1913
I0
tp1914
a(I1480
I1
F0.875
S'great'
p1915
I0
tp1916
a(I1486
I1
F1.0
S'good'
p1917
I0
tp1918
a(I1548
I11
F1.0
S'excellent'
p1919
I0
tp1920
a(I1583
I19
F-0.625
S'fingerprint'
p1921
I0
tp1922
a(I1810
I1
F1.0
S'good'
p1923
I0
tp1924
a(I1984
I7
F1.0
S'good'
p1925
I0
tp1926
a(I2013
I8
F0.5
S'accurate'
p1927
I0
tp1928
a(I2013
I9
F-0.125
S'such'
p1929
I0
tp1930
a(I2177
I17
I0
S'handy'
p1931
I0
tp1932
a(I2195
I2
I0
S'finger'
p1933
I0
tp1934
a(I99
I1
F1.0
g1869
I0
tp1935
a(I102
I4
F1.0
g1871
I0
tp1936
a(I164
I1
I0
g1873
I0
tp1937
a(I233
I5
F1.0
g1875
I0
tp1938
a(I265
I1
F-0.375
g1877
I0
tp1939
a(I308
I18
I0
g1879
I0
tp1940
a(I529
I10
F0.75
g1881
I0
tp1941
a(I554
I0
I0
g1883
I0
tp1942
a(I573
I1
F0.75
g1885
I0
tp1943
a(I580
I0
I0
g1887
I0
tp1944
a(I648
I5
F-0.625
g1889
I0
tp1945
a(I792
I2
F1.0
g1891
I0
tp1946
a(I796
I21
I0
g1893
I0
tp1947
a(I796
I21
F0.25
g1895
I0
tp1948
a(I916
I14
F1.0
g1897
I0
tp1949
a(I916
I21
I0
g1899
I0
tp1950
a(I984
I0
I0
g1901
I0
tp1951
a(I1003
I3
F0.625
g1903
I0
tp1952
a(I1215
I0
F-0.625
g1907
I0
tp1953
a(I1215
I0
F-0.25
g1909
I0
tp1954
a(I1308
I0
F0.875
g1911
I0
tp1955
a(I1355
I0
F0.5
g1913
I0
tp1956
a(I1480
I1
F0.875
g1915
I0
tp1957
a(I1486
I1
F1.0
g1917
I0
tp1958
a(I1548
I11
F1.0
g1919
I0
tp1959
a(I1583
I19
F-0.625
g1921
I0
tp1960
a(I1810
I1
F1.0
g1923
I0
tp1961
a(I1984
I7
F1.0
g1925
I0
tp1962
a(I2013
I8
F0.5
g1927
I0
tp1963
a(I2013
I9
F-0.125
g1929
I0
tp1964
a(I2177
I17
I0
g1931
I0
tp1965
a(I2195
I2
I0
g1933
I0
tp1966
a(I99
I1
F1.0
g1869
I0
tp1967
a(I102
I4
F1.0
g1871
I0
tp1968
a(I233
I5
F1.0
g1875
I0
tp1969
a(I265
I1
F-0.375
g1877
I0
tp1970
a(I308
I18
I0
g1879
I0
tp1971
a(I529
I10
F0.75
g1881
I0
tp1972
a(I554
I0
I0
g1883
I0
tp1973
a(I573
I1
F0.75
g1885
I0
tp1974
a(I580
I0
I0
g1887
I0
tp1975
a(I648
I5
F-0.625
g1889
I0
tp1976
a(I792
I2
F1.0
g1891
I0
tp1977
a(I796
I21
I0
g1893
I0
tp1978
a(I796
I21
F0.25
g1895
I0
tp1979
a(I916
I14
F1.0
g1897
I0
tp1980
a(I916
I21
I0
g1899
I0
tp1981
a(I984
I0
I0
g1901
I0
tp1982
a(I1003
I3
F0.625
g1903
I0
tp1983
a(I1207
I16
F0.875
S'great'
p1984
I0
tp1985
a(I1215
I0
F-0.625
g1907
I0
tp1986
a(I1215
I0
F-0.25
g1909
I0
tp1987
a(I1308
I0
F0.875
g1911
I0
tp1988
a(I1355
I0
F0.5
g1913
I0
tp1989
a(I1480
I1
F0.875
g1915
I0
tp1990
a(I1486
I1
F1.0
g1917
I0
tp1991
a(I1548
I11
F1.0
g1919
I0
tp1992
a(I1583
I19
F-0.625
g1921
I0
tp1993
a(I1810
I1
F1.0
g1923
I0
tp1994
a(I1984
I7
F1.0
g1925
I0
tp1995
a(I2013
I8
F0.5
g1927
I0
tp1996
a(I2013
I9
F-0.125
g1929
I0
tp1997
a(I2177
I17
I0
g1931
I0
tp1998
as(S'fingerprint'
p1999
S'scanner'
p2000
tp2001
(lp2002
(I99
I1
F1.0
g1869
I0
tp2003
a(I102
I4
F1.0
g1871
I0
tp2004
a(I265
I1
F-0.375
g1877
I0
tp2005
a(I308
I18
I0
g1879
I0
tp2006
a(I529
I10
F0.75
g1881
I0
tp2007
a(I533
I25
I0
S'update'
p2008
I0
tp2009
a(I648
I5
F-0.625
g1889
I0
tp2010
a(I792
I2
F1.0
g1891
I0
tp2011
a(I796
I21
I0
g1893
I0
tp2012
a(I796
I21
F0.25
g1895
I0
tp2013
a(I976
I0
F1.0
S'good'
p2014
I0
tp2015
a(I1039
I3
F-1.0
S'bad'
p2016
I0
tp2017
a(I1106
I6
F1.0
S'excellent'
p2018
I0
tp2019
a(I1215
I0
F-0.625
g1907
I0
tp2020
a(I1215
I0
F-0.25
g1909
I0
tp2021
a(I1308
I0
F0.875
g1911
I0
tp2022
a(I1355
I0
F0.5
g1913
I0
tp2023
a(I1480
I1
F0.875
g1915
I0
tp2024
a(I1548
I11
F1.0
g1919
I0
tp2025
a(I1583
I19
F-0.625
g1921
I0
tp2026
a(I1810
I1
F1.0
g1923
I0
tp2027
a(I1930
I1
F1.0
S'good'
p2028
I0
tp2029
a(I1984
I7
F1.0
g1925
I0
tp2030
a(I2013
I8
F0.5
g1927
I0
tp2031
a(I2013
I9
F-0.125
g1929
I0
tp2032
a(I2013
I36
F1.0
S'good'
p2033
I0
tp2034
a(I2096
I0
F-1.0
S'bad'
p2035
I0
tp2036
a(I2177
I17
I0
g1931
I0
tp2037
as(S'a'
p2038
S'little'
p2039
S'bit'
p2040
tp2041
(lp2042
(I309
I78
F-0.75
S'little'
p2043
I0
tp2044
a(I353
I7
F-0.75
S'little'
p2045
I0
tp2046
a(I473
I34
F-0.75
S'little'
p2047
I0
tp2048
a(I550
I4
F-0.75
S'little'
p2049
I0
tp2050
a(I882
I29
F-0.75
S'little'
p2051
I0
tp2052
a(I882
I29
F0.5
S'heat'
p2053
I0
tp2054
a(I882
I29
I0
S'normal'
p2055
I0
tp2056
a(I882
I33
F-0.75
S'little'
p2057
I0
tp2058
a(I913
I11
F-0.75
S'little'
p2059
I0
tp2060
a(I980
I10
F-0.875
S'low'
p2061
I0
tp2062
a(I1382
I0
F-0.75
S'little'
p2063
I0
tp2064
a(I1471
I6
F-0.75
S'little'
p2065
I0
tp2066
a(I1917
I5
F-0.75
S'little'
p2067
I0
tp2068
a(I1917
I5
F-0.75
S'unsatisfying'
p2069
I0
tp2070
a(I1984
I5
F-0.75
S'little'
p2071
I0
tp2072
a(I1984
I5
F0.375
S'heating'
p2073
I0
tp2074
a(I2013
I12
F-0.75
S'little'
p2075
I0
tp2076
a(I2023
I1
F-0.75
S'little'
p2077
I0
tp2078
a(I2198
I5
F-0.75
S'little'
p2079
I0
tp2080
as(S'memory'
p2081
tp2082
(lp2083
(I25
I0
F0.5
S'expandable'
p2084
I10
tp2085
a(I74
I4
F-0.75
S'free'
p2086
I10
tp2087
a(I74
I4
F-0.875
S'low'
p2088
I10
tp2089
a(I231
I1
F-0.75
S'free'
p2090
I10
tp2091
a(I231
I1
F-0.5
S'less'
p2092
I10
tp2093
a(I234
I14
F-0.75
S'free'
p2094
I10
tp2095
a(I234
I14
F-0.875
S'low'
p2096
I10
tp2097
a(I278
I1
I0
S'clear'
p2098
I10
tp2099
a(I331
I0
F0.5
S'expandable'
p2100
I10
tp2101
a(I421
I3
F0.5
S'intensive'
p2102
I10
tp2103
a(I504
I5
F0.5
S'true'
p2104
I10
tp2105
a(I634
I1
F0.375
S'available'
p2106
I10
tp2107
a(I664
I9
F-0.125
S'minimum'
p2108
I10
tp2109
a(I682
I0
F0.375
S'available'
p2110
I10
tp2111
a(I766
I26
F-0.75
S'free'
p2112
I10
tp2113
a(I885
I13
F0.875
S'amazing'
p2114
I10
tp2115
a(I900
I0
F0.5
S'internal'
p2116
I10
tp2117
a(I1012
I2
F-0.75
S'sufficient'
p2118
I10
tp2119
a(I1068
I0
F0.375
S'available'
p2120
I10
tp2121
a(I1123
I11
F0.5
S'efficient'
p2122
I10
tp2123
a(I1147
I4
F0.375
S'available'
p2124
I10
tp2125
a(I1147
I4
I0
S'more'
p2126
I10
tp2127
a(I1147
I4
F0.5
S'expandable'
p2128
I10
tp2129
a(I1293
I1
F0.5
S'internal'
p2130
I10
tp2131
a(I1372
I37
F-0.25
S'external'
p2132
I10
tp2133
a(I1460
I2
F0.5
S'expandable'
p2134
I10
tp2135
a(I1504
I0
I0
S'user'
p2136
I10
tp2137
a(I1795
I1
F-0.5
S'less'
p2138
I10
tp2139
a(I1866
I0
F-0.25
S'external'
p2140
I10
tp2141
a(I1907
I8
F0.5
S'internal'
p2142
I10
tp2143
a(I1907
I9
F-0.25
S'external'
p2144
I10
tp2145
a(I1948
I1
F0.25
S'usable'
p2146
I10
tp2147
a(I1953
I1
F-0.75
S'little'
p2148
I10
tp2149
a(I1984
I9
F-0.25
S'external'
p2150
I10
tp2151
a(I1999
I0
F0.5
S'internal'
p2152
I10
tp2153
a(I2024
I3
F0.5
S'internal'
p2154
I10
tp2155
a(I2048
I2
F-0.25
S'external'
p2156
I10
tp2157
a(I2064
I4
F-0.25
S'ram'
p2158
I10
tp2159
a(I2069
I1
F0.5
S'expandable'
p2160
I10
tp2161
a(I2087
I2
F0.875
S'amazing'
p2162
I10
tp2163
a(I2110
I3
F0.875
S'amazing'
p2164
I10
tp2165
a(I2224
I1
F1.0
S'good'
p2166
I10
tp2167
a(I2239
I0
F-0.875
S'low'
p2168
I10
tp2169
as(S'premium'
p2170
tp2171
(lp2172
(I42
I8
F0.5
S'stylish'
p2173
I0
tp2174
a(I43
I6
F0.75
S'whole'
p2175
I0
tp2176
a(I328
I1
F0.375
S'feels'
p2177
I0
tp2178
a(I736
I1
F0.5
S'sturdy'
p2179
I0
tp2180
a(I858
I5
F0.625
S'super'
p2181
I0
tp2182
a(I858
I5
I0
S'cool'
p2183
I0
tp2184
a(I931
I1
F0.375
S'feels'
p2185
I0
tp2186
a(I1692
I3
F0.5
S'stylish'
p2187
I0
tp2188
a(I1818
I4
F0.375
S'much'
p2189
I0
tp2190
a(I1918
I0
F1.0
S'good'
p2191
I0
tp2192
as(S'in'
p2193
S'first'
p2194
S'flash'
p2195
tp2196
(lp2197
(I677
I0
F0.625
g893
I0
tp2198
as(S'heating'
p2199
S'while'
p2200
S'charging'
p2201
tp2202
(lp2203
(I423
I4
F0.375
S'satisfied'
p2204
I1
tp2205
a(I423
I4
F-0.25
S'i'
p2206
I1
tp2207
a(I927
I0
F-0.125
S'nominal'
p2208
I1
tp2209
a(I927
I0
F-1.0
S'worse'
p2210
I1
tp2211
a(I1165
I0
F0.875
S'important'
p2212
I1
tp2213
as(S'design'
p2214
tp2215
(lp2216
(I15
I0
F0.5
S'elegant'
p2217
I4
tp2218
a(I79
I5
F-0.625
S'average'
p2219
I4
tp2220
a(I79
I5
F0.125
S'mobile'
p2221
I4
tp2222
a(I79
I5
F0.875
S'great'
p2223
I4
tp2224
a(I79
I5
I0
S'build'
p2225
I4
tp2226
a(I81
I1
F0.875
S'nice'
p2227
I4
tp2228
a(I99
I5
I0
S'cool'
p2229
I4
tp2230
a(I120
I1
F0.75
S'outstanding'
p2231
I4
tp2232
a(I207
I48
F0.875
S'nice'
p2233
I4
tp2234
a(I226
I8
F0.625
S'major'
p2235
I4
tp2236
a(I345
I1
F-0.625
S'average'
p2237
I4
tp2238
a(I354
I14
F0.125
S'symmetrical'
p2239
I4
tp2240
a(I501
I3
I0
S'impressed'
p2241
I4
tp2242
a(I528
I2
F0.75
S'premium'
p2243
I4
tp2244
a(I528
I2
F0.5
S'stylish'
p2245
I4
tp2246
a(I616
I3
I0
S'cool'
p2247
I4
tp2248
a(I780
I1
F1.0
S'good'
p2249
I4
tp2250
a(I849
I0
I0
S'mind'
p2251
I4
tp2252
a(I897
I6
F0.5
S'stylish'
p2253
I4
tp2254
a(I903
I4
F0.375
S'compact'
p2255
I4
tp2256
a(I903
I17
F0.75
S'beautiful'
p2257
I4
tp2258
a(I903
I17
F-0.25
S'external'
p2259
I4
tp2260
a(I1012
I0
F0.375
S'sleek'
p2261
I4
tp2262
a(I1018
I0
F1.0
S'good'
p2263
I4
tp2264
a(I1103
I0
F1.0
S'good'
p2265
I4
tp2266
a(I1103
I0
I0
S'many'
p2267
I4
tp2268
a(I1251
I1
F0.625
S'super'
p2269
I4
tp2270
a(I1267
I4
F0.625
S'super'
p2271
I4
tp2272
a(I1349
I8
F1.0
S'good'
p2273
I4
tp2274
a(I1449
I6
F1.0
S'good'
p2275
I4
tp2276
a(I1464
I6
F0.875
S'simple'
p2277
I4
tp2278
a(I1464
I6
F0.875
S'clean'
p2279
I4
tp2280
a(I1467
I0
F0.75
S'perfect'
p2281
I4
tp2282
a(I1474
I1
F-0.625
S'average'
p2283
I4
tp2284
a(I1474
I1
I0
S'user'
p2285
I4
tp2286
a(I1488
I15
F1.0
S'excellent'
p2287
I4
tp2288
a(I1644
I1
F-0.75
S'hidden'
p2289
I4
tp2290
a(I1644
I1
F-0.625
S'invisible'
p2291
I4
tp2292
a(I1733
I0
F0.875
S'nice'
p2293
I4
tp2294
a(I1739
I2
F0.75
S'outstanding'
p2295
I4
tp2296
a(I1739
I2
F0.875
S'simple'
p2297
I4
tp2298
a(I1739
I2
F-0.875
S'smart'
p2299
I4
tp2300
a(I1810
I5
I0
S'cool'
p2301
I4
tp2302
a(I1871
I1
I0
S'comfortable'
p2303
I4
tp2304
a(I1909
I1
F-0.125
S'ultimate'
p2305
I4
tp2306
a(I1912
I2
F1.0
S'good'
p2307
I4
tp2308
a(I1972
I0
F0.875
S'attractive'
p2309
I4
tp2310
a(I2008
I3
F-0.625
S'new'
p2311
I4
tp2312
a(I2138
I0
F1.0
S'good'
p2313
I4
tp2314
a(I2213
I2
F0.875
S'nice'
p2315
I4
tp2316
as(S'fingerprint'
p2317
S'sensor'
p2318
tp2319
(lp2320
(I8
I2
F0.5
S'accurate'
p2321
I0
tp2322
a(I170
I1
F1.0
S'good'
p2323
I0
tp2324
a(I170
I1
F0.5
S'responsive'
p2325
I0
tp2326
a(I421
I23
F-0.625
S'fast'
p2327
I0
tp2328
a(I897
I0
F0.875
S'amazing'
p2329
I0
tp2330
a(I990
I5
F0.75
S'perfect'
p2331
I0
tp2332
a(I1111
I11
F0.875
S'decent'
p2333
I0
tp2334
a(I1144
I2
F0.5
S'accurate'
p2335
I0
tp2336
a(I1276
I1
F0.875
S'great'
p2337
I0
tp2338
a(I1341
I1
F1.0
S'good'
p2339
I0
tp2340
a(I1464
I0
F0.875
S'nice'
p2341
I0
tp2342
a(I1482
I0
F0.625
S'super'
p2343
I0
tp2344
a(I1482
I0
F-0.625
S'sensitive'
p2345
I0
tp2346
a(I1488
I21
F0.875
S'nice'
p2347
I0
tp2348
a(I1511
I3
F1.0
S'good'
p2349
I0
tp2350
a(I1511
I3
F1.0
S'excellent'
p2351
I0
tp2352
a(I1588
I2
F1.0
S'good'
p2353
I0
tp2354
a(I1627
I0
F-0.625
S'fast'
p2355
I0
tp2356
a(I1734
I0
F0.625
S'sexy'
p2357
I0
tp2358
a(I1813
I3
I0
S'pretty'
p2359
I0
tp2360
a(I1818
I12
F-0.625
S'fast'
p2361
I0
tp2362
a(I1818
I12
F0.5
S'accurate'
p2363
I0
tp2364
a(I1913
I19
F0.625
S'fine'
p2365
I0
tp2366
a(I1937
I5
F0.75
S'outstanding'
p2367
I0
tp2368
a(I8
I2
F0.5
g2321
I0
tp2369
a(I315
I1
F0.5
S'accurate'
p2370
I0
tp2371
a(I533
I25
I0
g2008
I0
tp2372
a(I601
I3
F0.875
S'awesome'
p2373
I0
tp2374
a(I763
I19
F-0.625
S'fast'
p2375
I0
tp2376
a(I976
I0
F1.0
g2014
I0
tp2377
a(I1039
I3
F-1.0
g2016
I0
tp2378
a(I1106
I6
F1.0
g2018
I0
tp2379
a(I1111
I11
F0.875
g2333
I0
tp2380
a(I1198
I1
F1.0
S'excellent'
p2381
I0
tp2382
a(I1345
I2
I0
S'max'
p2383
I0
tp2384
a(I1639
I0
F1.0
S'good'
p2385
I0
tp2386
a(I1734
I0
F0.625
g2357
I0
tp2387
a(I1835
I10
F1.0
S'good'
p2388
I0
tp2389
a(I1914
I0
F0.5
S'powerful'
p2390
I0
tp2391
a(I1930
I1
F1.0
g2028
I0
tp2392
a(I2013
I36
F1.0
g2033
I0
tp2393
a(I2096
I0
F-1.0
g2035
I0
tp2394
as(S'no'
p2395
S'heating'
p2396
S'problem'
p2397
tp2398
(lp2399
(I334
I5
F-0.75
S'little'
p2400
I1
tp2401
a(I423
I4
F0.375
g2204
I1
tp2402
a(I818
I0
I0
S'seventh'
p2403
I1
tp2404
a(I914
I3
F0.375
S'much'
p2405
I1
tp2406
a(I1147
I17
F0.625
S'major'
p2407
I1
tp2408
a(I1622
I1
I0
S'normal'
p2409
I1
tp2410
a(I1692
I18
I0
S'main'
p2411
I1
tp2412
a(I1872
I2
I0
S'big'
p2413
I1
tp2414
a(I1960
I4
F0.375
S'much'
p2415
I1
tp2416
a(I2045
I10
F0.625
S'major'
p2417
I1
tp2418
a(I9
I26
I0
S'main'
p2419
I6
tp2420
a(I33
I0
F0.625
S'major'
p2421
I6
tp2422
a(I96
I0
I0
S'big'
p2423
I6
tp2424
a(I98
I1
F0.625
S'major'
p2425
I6
tp2426
a(I235
I0
F0.625
S'major'
p2427
I6
tp2428
a(I334
I5
F-0.75
g2400
I6
tp2429
a(I352
I6
F-0.75
S'little'
p2430
I6
tp2431
a(I423
I4
F0.375
g2204
I6
tp2432
a(I813
I0
I0
S'big'
p2433
I6
tp2434
a(I818
I0
I0
g2403
I6
tp2435
a(I856
I1
I0
S'big'
p2436
I6
tp2437
a(I903
I11
I0
S'extreme'
p2438
I6
tp2439
a(I914
I3
F0.375
g2405
I6
tp2440
a(I916
I40
F0.625
S'major'
p2441
I6
tp2442
a(I1026
I50
I0
S't'
p2443
I6
tp2444
a(I1067
I3
I0
S'only'
p2445
I6
tp2446
a(I1113
I10
F0.375
S'heating'
p2447
I6
tp2448
a(I1147
I17
F0.625
g2407
I6
tp2449
a(I1622
I1
I0
g2409
I6
tp2450
a(I1680
I0
I0
S'mentioned'
p2451
I6
tp2452
a(I1681
I0
F-0.875
g118
I6
tp2453
a(I1692
I18
I0
g2411
I6
tp2454
a(I1809
I1
F0.625
S'major'
p2455
I6
tp2456
a(I1872
I2
I0
g2413
I6
tp2457
a(I1906
I2
F0.25
S'worth'
p2458
I6
tp2459
a(I1906
I2
I0
S'only'
p2460
I6
tp2461
a(I1960
I4
F0.375
g2415
I6
tp2462
a(I2013
I21
F0.875
S'awesome'
p2463
I6
tp2464
a(I2045
I10
F0.625
g2417
I6
tp2465
a(I2063
I0
F0.375
g1329
I6
tp2466
a(I2081
I1
F0.75
S'due'
p2467
I6
tp2468
a(I2183
I2
F0.375
S'heating'
p2469
I6
tp2470
as(S'amazing'
p2471
tp2472
(lp2473
(I75
I0
F1.0
S'best'
p2474
I1
tp2475
as(S'front'
p2476
S'camera'
p2477
tp2478
(lp2479
(I4
I25
F-0.625
S'average'
p2480
I6
tp2481
a(I43
I9
F-0.125
S'front'
p2482
I6
tp2483
a(I171
I3
F-0.875
S'poor'
p2484
I6
tp2485
a(I288
I0
I0
S'rear'
p2486
I6
tp2487
a(I288
I0
F-0.875
S'poor'
p2488
I6
tp2489
a(I288
I0
F-0.125
S'front'
p2490
I6
tp2491
a(I308
I32
F-0.125
S'front'
p2492
I6
tp2493
a(I309
I72
F1.0
S'good'
p2494
I6
tp2495
a(I390
I5
F1.0
S'better'
p2496
I6
tp2497
a(I390
I5
I0
S't'
p2498
I6
tp2499
a(I550
I34
F0.875
S'awesome'
p2500
I6
tp2501
a(I607
I1
F-0.125
S'front'
p2502
I6
tp2503
a(I607
I1
F-0.125
S'back'
p2504
I6
tp2505
a(I607
I1
F1.0
S'good'
p2506
I6
tp2507
a(I728
I2
F-0.125
S'front'
p2508
I6
tp2509
a(I728
I2
F-1.0
S'bad'
p2510
I6
tp2511
a(I728
I4
F-1.0
S'bad'
p2512
I6
tp2513
a(I743
I3
F-0.125
S'front'
p2514
I6
tp2515
a(I766
I36
F1.0
S'better'
p2516
I6
tp2517
a(I766
I36
F0.75
S'primary'
p2518
I6
tp2519
a(I802
I1
F0.125
S'mobile'
p2520
I6
tp2521
a(I853
I3
F1.0
S'good'
p2522
I6
tp2523
a(I882
I33
F1.0
S'good'
p2524
I6
tp2525
a(I885
I7
F1.0
S'good'
p2526
I6
tp2527
a(I1039
I3
F-0.125
S'front'
p2528
I6
tp2529
a(I1044
I0
F-1.0
S'bad'
p2530
I6
tp2531
a(I1113
I5
F-1.0
S'bad'
p2532
I6
tp2533
a(I1143
I1
F0.375
S'ok'
p2534
I6
tp2535
a(I1143
I1
F-0.125
S'front'
p2536
I6
tp2537
a(I1147
I17
F1.0
S'good'
p2538
I6
tp2539
a(I1147
I17
F-0.875
S'pathetic'
p2540
I6
tp2541
a(I1153
I0
F-0.125
S'front'
p2542
I6
tp2543
a(I1153
I0
F-0.875
S'poor'
p2544
I6
tp2545
a(I1171
I3
F-0.125
S'back'
p2546
I6
tp2547
a(I1175
I5
F-0.125
S'front'
p2548
I6
tp2549
a(I1203
I1
F0.375
S'ok'
p2550
I6
tp2551
a(I1203
I1
F0.375
S'ok'
p2552
I6
tp2553
a(I1207
I20
F1.0
S'good'
p2554
I6
tp2555
a(I1248
I6
F-0.125
g278
I6
tp2556
a(I1248
I6
F1.0
g280
I6
tp2557
a(I1267
I6
F-0.875
S'poor'
p2558
I6
tp2559
a(I1336
I18
F0.875
S'decent'
p2560
I6
tp2561
a(I1336
I19
F-0.125
S'front'
p2562
I6
tp2563
a(I1336
I51
F-0.625
S'average'
p2564
I6
tp2565
a(I1372
I13
F-0.375
S'same'
p2566
I6
tp2567
a(I1441
I1
F-0.125
S'front'
p2568
I6
tp2569
a(I1471
I3
I0
S'rear'
p2570
I6
tp2571
a(I1510
I28
F-0.125
S'front'
p2572
I6
tp2573
a(I1510
I28
F-0.875
S'poor'
p2574
I6
tp2575
a(I1530
I0
F-0.125
S'front'
p2576
I6
tp2577
a(I1568
I1
F-1.0
g286
I6
tp2578
a(I1568
I1
F1.0
g288
I6
tp2579
a(I1635
I0
F-0.125
S'front'
p2580
I6
tp2581
a(I1635
I0
F-1.0
S'bad'
p2582
I6
tp2583
a(I1713
I0
F-0.625
S'horrible'
p2584
I6
tp2585
a(I1810
I14
F1.0
g292
I6
tp2586
a(I1941
I21
F-0.75
S'black'
p2587
I6
tp2588
a(I2018
I9
F1.0
S'good'
p2589
I6
tp2590
a(I2070
I1
F-0.625
S'average'
p2591
I6
tp2592
a(I2070
I1
F-0.125
S'front'
p2593
I6
tp2594
a(I390
I5
F1.0
g2496
I14
tp2595
a(I728
I4
F-1.0
g2512
I14
tp2596
a(I885
I7
F1.0
g2526
I14
tp2597
a(I1143
I2
I0
S'rear'
p2598
I14
tp2599
a(I1203
I1
F0.375
g2550
I14
tp2600
a(I1203
I1
F0.375
g2552
I14
tp2601
a(I1267
I6
F-0.875
g2558
I14
tp2602
a(I1336
I18
F0.875
g2560
I14
tp2603
a(I1739
I9
I0
S'comfortable'
p2604
I14
tp2605
as(S'heats'
p2606
tp2607
(lp2608
(I613
I0
F0.125
S'mobile'
p2609
I8
tp2610
a(I1458
I35
F-0.75
S'little'
p2611
I8
tp2612
as(S'hours'
p2613
tp2614
(lp2615
(I9
I25
I0
S'few'
p2616
I14
tp2617
a(I151
I3
F0.375
S'usage'
p2618
I14
tp2619
a(I156
I2
F0.375
S'full'
p2620
I14
tp2621
a(I179
I0
I0
S'few'
p2622
I14
tp2623
a(I409
I1
I0
S'more'
p2624
I14
tp2625
a(I571
I1
I0
S'more'
p2626
I14
tp2627
a(I609
I9
F0.875
S'awesome'
p2628
I14
tp2629
a(I1025
I20
F-0.625
S'last'
p2630
I14
tp2631
a(I1041
I10
F-0.625
S'flat'
p2632
I14
tp2633
a(I1084
I19
I0
S'more'
p2634
I14
tp2635
a(I1206
I0
F-0.625
S'last'
p2636
I14
tp2637
a(I1206
I0
F0.875
S'nice'
p2638
I14
tp2639
a(I1237
I1
F-0.625
S'quite'
p2640
I14
tp2641
a(I1378
I0
I0
S'least'
p2642
I14
tp2643
a(I1694
I0
I0
S'few'
p2644
I14
tp2645
as(S'super'
p2646
S'fast'
p2647
tp2648
(lp2649
(I43
I3
F0.625
S'super'
p2650
I0
tp2651
a(I496
I0
F0.625
g375
I0
tp2652
a(I627
I2
F0.625
S'super'
p2653
I0
tp2654
a(I894
I8
I0
g388
I0
tp2655
a(I894
I8
F0.625
g390
I0
tp2656
a(I899
I6
F0.625
S'super'
p2657
I0
tp2658
a(I1111
I6
F1.0
S'good'
p2659
I0
tp2660
a(I1372
I2
F0.625
g350
I0
tp2661
a(I1810
I10
F0.625
g354
I0
tp2662
a(I1901
I1
I0
S'n'
p2663
I0
tp2664
a(I2183
I3
F1.0
S'good'
p2665
I0
tp2666
a(I726
I11
F-0.5
S'slow'
p2667
I5
tp2668
a(I763
I17
F0.625
S'rich'
p2669
I5
tp2670
a(I1111
I6
F1.0
g2659
I5
tp2671
a(I1734
I0
F0.375
S'flexible'
p2672
I5
tp2673
a(I2183
I3
F1.0
g2665
I5
tp2674
as(S'to'
p2675
S'return'
p2676
S'product'
p2677
tp2678
(lp2679
(I899
I13
F0.75
S'due'
p2680
I0
tp2681
a(I1678
I32
F1.0
S'good'
p2682
I0
tp2683
a(I1680
I0
F0.375
S'ok'
p2684
I0
tp2685
a(I1680
I0
F-0.75
S'faulty'
p2686
I0
tp2687
a(I1701
I1
F-0.25
S'i'
p2688
I0
tp2689
as(S'heating'
p2690
S'issues'
p2691
tp2692
(lp2693
(I79
I7
F1.0
g50
I0
tp2694
a(I232
I1
F0.375
S'much'
p2695
I0
tp2696
a(I445
I10
F0.375
S'heating'
p2697
I0
tp2698
a(I473
I33
F-0.75
g62
I0
tp2699
a(I577
I51
F-0.75
S'minor'
p2700
I0
tp2701
a(I670
I0
F-0.625
S'other'
p2702
I0
tp2703
a(I1014
I9
F1.0
S'good'
p2704
I0
tp2705
a(I1155
I0
F0.5
g104
I0
tp2706
a(I1510
I16
F0.625
S'major'
p2707
I0
tp2708
a(I1678
I33
F-0.75
S'unable'
p2709
I0
tp2710
a(I1681
I0
F-0.875
g118
I0
tp2711
a(I1681
I0
F-0.375
S'same'
p2712
I0
tp2713
a(I1688
I7
I0
S'serious'
p2714
I0
tp2715
a(I1690
I4
I0
S'many'
p2716
I0
tp2717
a(I1713
I0
F0.5
S'slight'
p2718
I0
tp2719
a(I1748
I19
F0.375
S'heating'
p2720
I0
tp2721
a(I2177
I6
F0.375
g144
I0
tp2722
a(I2198
I5
F-0.625
S'other'
p2723
I0
tp2724
a(I2201
I0
F-1.0
S'worst'
p2725
I0
tp2726
a(I2201
I0
F-0.875
S'poor'
p2727
I0
tp2728
a(I4
I1
F-0.778
S'common'
p2729
I4
tp2730
a(I207
I12
I0
S'many'
p2731
I4
tp2732
a(I207
I12
F-0.75
S'minor'
p2733
I4
tp2734
a(I232
I1
F0.375
g2695
I4
tp2735
a(I431
I9
I0
S'above'
p2736
I4
tp2737
a(I445
I10
F0.375
g2697
I4
tp2738
a(I476
I12
I0
S'audio'
p2739
I4
tp2740
a(I577
I51
F-0.75
g2700
I4
tp2741
a(I577
I52
F0.5
S'ready'
p2742
I4
tp2743
a(I609
I8
I0
S'most'
p2744
I4
tp2745
a(I659
I13
F0.375
S'available'
p2746
I4
tp2747
a(I660
I17
F0.5
S'similar'
p2748
I4
tp2749
a(I665
I4
F0.125
S'mobile'
p2750
I4
tp2751
a(I665
I4
F0.125
S'mobile'
p2752
I4
tp2753
a(I670
I0
F-0.625
g2702
I4
tp2754
a(I761
I3
I0
S'above'
p2755
I4
tp2756
a(I856
I7
F-0.625
S'other'
p2757
I4
tp2758
a(I894
I31
F0.5
S'similar'
p2759
I4
tp2760
a(I990
I13
F0.125
S'mobile'
p2761
I4
tp2762
a(I1014
I9
F1.0
g2704
I4
tp2763
a(I1047
I3
I0
S'many'
p2764
I4
tp2765
a(I1126
I3
F-0.75
S'minor'
p2766
I4
tp2767
a(I1168
I14
F0.125
S'exact'
p2768
I4
tp2769
a(I1207
I25
F-0.75
S'minor'
p2770
I4
tp2771
a(I1207
I25
I0
S'u'
p2772
I4
tp2773
a(I1291
I1
F0.625
S'fine'
p2774
I4
tp2775
a(I1372
I47
F0.5
S'maximum'
p2776
I4
tp2777
a(I1475
I0
F-0.375
S'same'
p2778
I4
tp2779
a(I1475
I10
I0
S'big'
p2780
I4
tp2781
a(I1510
I16
F0.625
g2707
I4
tp2782
a(I1653
I12
F-0.625
S'other'
p2783
I4
tp2784
a(I1678
I33
F-0.75
g2709
I4
tp2785
a(I1681
I0
F-0.375
g2712
I4
tp2786
a(I1688
I7
I0
g2714
I4
tp2787
a(I1690
I4
I0
g2716
I4
tp2788
a(I1713
I0
F0.5
g2718
I4
tp2789
a(I1748
I19
F0.375
g2720
I4
tp2790
a(I1814
I2
F-0.75
S'minor'
p2791
I4
tp2792
a(I2077
I11
F-0.75
S'minor'
p2793
I4
tp2794
a(I2116
I12
F-0.625
S'real'
p2795
I4
tp2796
a(I2198
I5
F-0.625
g2723
I4
tp2797
a(I2201
I0
F-1.0
g2725
I4
tp2798
a(I2201
I0
F-0.875
g2727
I4
tp2799
as(g2038
S'factory'
p2800
S'reset'
p2801
tp2802
(lp2803
(I1141
I1
F-0.25
S'i'
p2804
I0
tp2805
a(I1713
I5
F-0.625
S'other'
p2806
I0
tp2807
a(I2118
I2
F-0.625
S'last'
p2808
I0
tp2809
a(I2118
I2
I0
S'update'
p2810
I0
tp2811
a(I2118
I2
I0
S'factory'
p2812
I0
tp2813
a(I2118
I2
F0.625
S'fine'
p2814
I0
tp2815
a(I1141
I1
F-0.25
g2804
I0
tp2816
a(I1713
I5
F-0.625
g2806
I0
tp2817
a(I2118
I2
F-0.625
g2808
I0
tp2818
a(I2118
I2
I0
g2810
I0
tp2819
a(I2118
I2
I0
g2812
I0
tp2820
a(I2118
I2
F0.625
g2814
I0
tp2821
as(S'battery'
p2822
S'life'
p2823
tp2824
(lp2825
(I1
I14
F-0.25
S'battery'
p2826
I3
tp2827
a(I1
I14
F-0.875
S'low'
p2828
I3
tp2829
a(I1
I14
F0.875
S'decent'
p2830
I3
tp2831
a(I3
I5
I0
S'more'
p2832
I3
tp2833
a(I3
I5
F-0.5
S'less'
p2834
I3
tp2835
a(I4
I16
F-0.625
S'average'
p2836
I3
tp2837
a(I43
I6
F-0.875
S'poor'
p2838
I3
tp2839
a(I309
I78
F1.0
S'better'
p2840
I3
tp2841
a(I345
I1
F-0.25
S'battery'
p2842
I3
tp2843
a(I384
I0
F0.375
S'ok'
p2844
I3
tp2845
a(I421
I5
F1.0
S'good'
p2846
I3
tp2847
a(I546
I7
I0
S'total'
p2848
I3
tp2849
a(I591
I10
F-0.25
S'battery'
p2850
I3
tp2851
a(I591
I10
F1.0
S'good'
p2852
I3
tp2853
a(I593
I6
I0
S'more'
p2854
I3
tp2855
a(I593
I6
F-0.5
S'less'
p2856
I3
tp2857
a(I609
I4
F0.375
S'mighty'
p2858
I3
tp2859
a(I803
I10
F0.875
S'decent'
p2860
I3
tp2861
a(I809
I0
F0.375
S'full'
p2862
I3
tp2863
a(I821
I5
I0
S'more'
p2864
I3
tp2865
a(I821
I5
F-0.5
S'less'
p2866
I3
tp2867
a(I882
I26
F-0.375
S'same'
p2868
I3
tp2869
a(I916
I30
F-0.625
S'average'
p2870
I3
tp2871
a(I916
I30
F-0.25
S'battery'
p2872
I3
tp2873
a(I998
I1
F0.875
S'decent'
p2874
I3
tp2875
a(I1006
I1
F0.875
S'decent'
p2876
I3
tp2877
a(I1025
I17
F-0.625
S'average'
p2878
I3
tp2879
a(I1140
I4
F-0.25
S'battery'
p2880
I3
tp2881
a(I1159
I1
F-0.875
S'low'
p2882
I3
tp2883
a(I1196
I1
F1.0
S'excellent'
p2884
I3
tp2885
a(I1196
I1
F-0.875
S'poor'
p2886
I3
tp2887
a(I1225
I6
F1.0
S'good'
p2888
I3
tp2889
a(I1245
I1
F0.5
S'typical'
p2890
I3
tp2891
a(I1306
I0
F0.875
S'decent'
p2892
I3
tp2893
a(I1315
I16
I0
S'more'
p2894
I3
tp2895
a(I1341
I5
F1.0
S'good'
p2896
I3
tp2897
a(I1349
I16
F-0.75
S'short'
p2898
I3
tp2899
a(I1372
I2
F0.875
S'great'
p2900
I3
tp2901
a(I1372
I2
F-0.625
S'fast'
p2902
I3
tp2903
a(I1499
I0
F1.0
S'good'
p2904
I3
tp2905
a(I1499
I3
F1.0
S'good'
p2906
I3
tp2907
a(I1678
I20
F-0.875
S'poor'
p2908
I3
tp2909
a(I1682
I2
F0.875
S'decent'
p2910
I3
tp2911
a(I1692
I18
F-0.875
S'poor'
p2912
I3
tp2913
a(I1810
I10
F0.875
S'great'
p2914
I3
tp2915
a(I1810
I10
F-0.625
S'fast'
p2916
I3
tp2917
a(I2013
I23
F-0.875
S'poor'
p2918
I3
tp2919
a(I2013
I39
F1.0
S'good'
p2920
I3
tp2921
a(I2014
I3
F1.0
S'good'
p2922
I3
tp2923
a(I2045
I10
F1.0
S'good'
p2924
I3
tp2925
a(I2149
I5
F0.875
S'nice'
p2926
I3
tp2927
a(I2192
I3
F1.0
S'good'
p2928
I3
tp2929
a(I1
I14
F-0.25
g2826
I8
tp2930
a(I1
I14
F-0.875
g2828
I8
tp2931
a(I3
I5
F-0.5
g2834
I8
tp2932
a(I345
I1
F-0.25
g2842
I8
tp2933
a(I384
I0
F0.375
g2844
I8
tp2934
a(I421
I4
F-0.625
S'real'
p2935
I8
tp2936
a(I421
I5
F1.0
g2846
I8
tp2937
a(I591
I10
F-0.25
g2850
I8
tp2938
a(I591
I10
F1.0
g2852
I8
tp2939
a(I593
I6
F-0.5
g2856
I8
tp2940
a(I803
I10
F0.875
g2860
I8
tp2941
a(I821
I5
F-0.5
g2866
I8
tp2942
a(I882
I26
F-0.375
g2868
I8
tp2943
a(I916
I30
F-0.625
g2870
I8
tp2944
a(I916
I30
F-0.25
g2872
I8
tp2945
a(I955
I3
F-1.0
S'bad'
p2946
I8
tp2947
a(I955
I3
F1.0
S'good'
p2948
I8
tp2949
a(I1025
I17
F-0.625
g2878
I8
tp2950
a(I1089
I0
F0.125
S'mobile'
p2951
I8
tp2952
a(I1127
I5
F-0.75
S'wild'
p2953
I8
tp2954
a(I1140
I4
F-0.25
g2880
I8
tp2955
a(I1159
I1
F-0.875
g2882
I8
tp2956
a(I1315
I16
I0
g2894
I8
tp2957
a(I1349
I16
F-0.75
g2898
I8
tp2958
a(I1372
I2
F-0.625
g2902
I8
tp2959
a(I1678
I20
F-0.875
g2908
I8
tp2960
a(I1682
I2
F0.875
g2910
I8
tp2961
a(I1692
I18
F-0.875
g2912
I8
tp2962
a(I1810
I10
F-0.625
g2916
I8
tp2963
a(I2013
I23
F-0.875
g2918
I8
tp2964
a(I2013
I39
F1.0
g2920
I8
tp2965
a(I2014
I3
F1.0
g2922
I8
tp2966
as(S'gb'
p2967
S'of'
p2968
S'ram'
p2969
tp2970
(lp2971
(I63
I1
I0
S'installed'
p2972
I1
tp2973
a(I504
I2
F-0.75
S'free'
p2974
I1
tp2975
a(I550
I35
F0.75
S'perfect'
p2976
I1
tp2977
a(I665
I1
F-0.25
S'ram'
p2978
I1
tp2979
a(I665
I1
F-0.75
S'free'
p2980
I1
tp2981
a(I760
I6
F-0.75
S'free'
p2982
I1
tp2983
a(I894
I40
F-0.75
S'free'
p2984
I1
tp2985
a(I1042
I22
F-0.75
S'free'
p2986
I1
tp2987
a(I1047
I4
I0
S'gb'
p2988
I1
tp2989
a(I1113
I3
F-0.75
S'free'
p2990
I1
tp2991
a(I1140
I3
F0.375
S'available'
p2992
I1
tp2993
a(I1289
I3
F0.875
S'great'
p2994
I1
tp2995
a(I1336
I14
F0.375
S'available'
p2996
I1
tp2997
a(I1463
I4
F0.5
S'dual'
p2998
I1
tp2999
a(I1522
I0
F-0.75
S'free'
p3000
I1
tp3001
a(I63
I1
I0
g2972
I9
tp3002
a(I95
I15
I0
S'gb'
p3003
I9
tp3004
a(I95
I15
F0.375
S'available'
p3005
I9
tp3006
a(I169
I2
I0
S'more'
p3007
I9
tp3008
a(I207
I21
F-0.75
S'open'
p3009
I9
tp3010
a(I466
I1
F0.125
S'usual'
p3011
I9
tp3012
a(I471
I4
F-0.25
S'previous'
p3013
I9
tp3014
a(I471
I4
F0.125
S'mobile'
p3015
I9
tp3016
a(I504
I2
F-0.75
g2974
I9
tp3017
a(I540
I0
I0
S'big'
p3018
I9
tp3019
a(I540
I2
F-0.75
S'free'
p3020
I9
tp3021
a(I550
I35
F0.75
g2976
I9
tp3022
a(I635
I2
F-0.75
S'free'
p3023
I9
tp3024
a(I635
I2
I0
S'sure'
p3025
I9
tp3026
a(I635
I2
F-0.5
S'heavy'
p3027
I9
tp3028
a(I665
I1
F-0.25
g2978
I9
tp3029
a(I665
I1
F-0.75
g2980
I9
tp3030
a(I760
I6
F-0.75
g2982
I9
tp3031
a(I794
I5
F-0.75
S'free'
p3032
I9
tp3033
a(I882
I18
I0
S'more'
p3034
I9
tp3035
a(I882
I18
F-0.75
S'free'
p3036
I9
tp3037
a(I894
I40
F-0.75
g2984
I9
tp3038
a(I953
I5
I0
S'gb'
p3039
I9
tp3040
a(I953
I5
F0.375
S'available'
p3041
I9
tp3042
a(I1042
I22
F-0.75
g2986
I9
tp3043
a(I1047
I4
I0
g2988
I9
tp3044
a(I1113
I3
F-0.75
g2990
I9
tp3045
a(I1140
I3
F0.375
g2992
I9
tp3046
a(I1289
I3
F0.875
g2994
I9
tp3047
a(I1329
I10
F0.375
S'available'
p3048
I9
tp3049
a(I1336
I14
F0.375
g2996
I9
tp3050
a(I1458
I39
I0
S'gb'
p3051
I9
tp3052
a(I1458
I39
F-0.75
S'free'
p3053
I9
tp3054
a(I1463
I4
F0.5
g2998
I9
tp3055
a(I1504
I1
I0
S'gb'
p3056
I9
tp3057
a(I1522
I0
F-0.75
g3000
I9
tp3058
a(I1574
I7
F-0.875
S'low'
p3059
I9
tp3060
a(I1741
I1
I0
S'only'
p3061
I9
tp3062
a(I1788
I5
F1.0
S'good'
p3063
I9
tp3064
a(I1788
I31
F0.375
S'available'
p3065
I9
tp3066
a(I1789
I13
F-0.625
S'other'
p3067
I9
tp3068
a(I2047
I0
I0
S'gb'
p3069
I9
tp3070
a(I2152
I1
I0
S'gb'
p3071
I9
tp3072
a(I2181
I6
F0.375
S'full'
p3073
I9
tp3074
as(S'looks'
p3075
tp3076
(lp3077
(I92
I12
F0.75
S'premium'
p3078
I14
tp3079
a(I232
I4
F0.5
S'older'
p3080
I14
tp3081
a(I445
I0
F1.0
S'better'
p3082
I14
tp3083
a(I448
I3
F1.0
S'better'
p3084
I14
tp3085
a(I506
I1
F1.0
S'good'
p3086
I14
tp3087
a(I552
I2
F1.0
S'best'
p3088
I14
tp3089
a(I725
I17
F-0.375
S'passable'
p3090
I14
tp3091
a(I763
I17
I0
S'n'
p3092
I14
tp3093
a(I873
I1
F0.875
S'attractive'
p3094
I14
tp3095
a(I982
I1
F1.0
S'best'
p3096
I14
tp3097
a(I1012
I0
F0.875
S'great'
p3098
I14
tp3099
a(I1026
I3
F0.75
S'premium'
p3100
I14
tp3101
a(I1067
I14
F0.875
S'awesome'
p3102
I14
tp3103
a(I1147
I1
F0.75
S'premium'
p3104
I14
tp3105
a(I1147
I1
F0.5
S'stylish'
p3106
I14
tp3107
a(I1197
I1
F-0.125
S'front'
p3108
I14
tp3109
a(I1197
I1
F0.375
S'ok'
p3110
I14
tp3111
a(I1197
I1
F0.375
S'ok'
p3112
I14
tp3113
a(I1235
I1
F1.0
S'excellent'
p3114
I14
tp3115
a(I1248
I8
F0.75
S'fantastic'
p3116
I14
tp3117
a(I1325
I1
I0
S't'
p3118
I14
tp3119
a(I1336
I35
I0
S'more'
p3120
I14
tp3121
a(I1348
I10
I0
S'handy'
p3122
I14
tp3123
a(I1372
I8
F1.0
S'good'
p3124
I14
tp3125
a(I1427
I18
F1.0
S'good'
p3126
I14
tp3127
a(I1458
I14
F1.0
S'excellent'
p3128
I14
tp3129
a(I1478
I1
F0.75
S'premium'
p3130
I14
tp3131
a(I1478
I1
F0.25
S'official'
p3132
I14
tp3133
a(I1482
I0
F0.875
S'awesome'
p3134
I14
tp3135
a(I1708
I0
F1.0
S'good'
p3136
I14
tp3137
a(I1801
I0
F1.0
S'good'
p3138
I14
tp3139
a(I1827
I1
I0
S'ultra'
p3140
I14
tp3141
a(I1829
I4
F-0.5
S'snappy'
p3142
I14
tp3143
a(I1940
I13
F0.75
S'grand'
p3144
I14
tp3145
a(I2013
I36
F0.875
S'amazing'
p3146
I14
tp3147
a(I2072
I0
F0.875
S'awesome'
p3148
I14
tp3149
a(I2072
I0
F0.125
S'mobile'
p3150
I14
tp3151
a(I2072
I0
F1.0
S'good'
p3152
I14
tp3153
a(I2111
I10
F1.0
S'excellent'
p3154
I14
tp3155
a(I2117
I8
I0
S'stunning'
p3156
I14
tp3157
a(I2177
I22
F0.5
S'similar'
p3158
I14
tp3159
a(I2191
I1
F1.0
S'good'
p3160
I14
tp3161
a(I2209
I0
F0.75
S'outstanding'
p3162
I14
tp3163
as(S'finger'
p3164
S'print'
p3165
S'sensor'
p3166
tp3167
(lp3168
(I103
I4
F1.0
S'good'
p3169
I0
tp3170
a(I122
I1
F1.0
S'excellent'
p3171
I0
tp3172
a(I139
I7
I0
S'pretty'
p3173
I0
tp3174
a(I170
I1
F1.0
g2323
I0
tp3175
a(I170
I1
F0.5
g2325
I0
tp3176
a(I185
I0
I0
S'finger'
p3177
I0
tp3178
a(I185
I0
I0
S'1st'
p3179
I0
tp3180
a(I355
I0
F0.5
S'unique'
p3181
I0
tp3182
a(I421
I23
F-0.625
g2327
I0
tp3183
a(I566
I6
F0.875
S'amazing'
p3184
I0
tp3185
a(I707
I0
F0.625
S'super'
p3186
I0
tp3187
a(I757
I2
I0
S'sure'
p3188
I0
tp3189
a(I757
I2
I0
S'sure'
p3190
I0
tp3191
a(I781
I1
F1.0
S'good'
p3192
I0
tp3193
a(I882
I13
F0.875
S'awesome'
p3194
I0
tp3195
a(I897
I0
F0.875
g2329
I0
tp3196
a(I990
I5
F0.75
g2331
I0
tp3197
a(I1144
I2
F0.5
g2335
I0
tp3198
a(I1267
I1
F1.0
S'good'
p3199
I0
tp3200
a(I1276
I1
F0.875
g2337
I0
tp3201
a(I1315
I7
F1.0
S'good'
p3202
I0
tp3203
a(I1341
I1
F1.0
g2339
I0
tp3204
a(I1372
I23
F0.625
S'okay'
p3205
I0
tp3206
a(I1372
I25
F1.0
S'better'
p3207
I0
tp3208
a(I1372
I26
I0
S'finger'
p3209
I0
tp3210
a(I1387
I7
F0.875
S'great'
p3211
I0
tp3212
a(I1464
I0
F0.875
g2341
I0
tp3213
a(I1482
I0
F0.625
g2343
I0
tp3214
a(I1482
I0
F-0.625
g2345
I0
tp3215
a(I1488
I21
F0.875
g2347
I0
tp3216
a(I1511
I3
F1.0
g2349
I0
tp3217
a(I1511
I3
F1.0
g2351
I0
tp3218
a(I1588
I2
F1.0
g2353
I0
tp3219
a(I1627
I0
F-0.625
g2355
I0
tp3220
a(I1742
I7
F0.5
S'touch'
p3221
I0
tp3222
a(I1813
I3
I0
g2359
I0
tp3223
a(I1818
I12
F-0.625
g2361
I0
tp3224
a(I1818
I12
F0.5
g2363
I0
tp3225
a(I1846
I0
F0.875
S'awesome'
p3226
I0
tp3227
a(I1913
I19
F0.625
g2365
I0
tp3228
a(I1921
I0
I0
S'finger'
p3229
I0
tp3230
a(I1921
I0
F-0.125
S'such'
p3231
I0
tp3232
a(I1937
I5
F0.75
g2367
I0
tp3233
a(I2095
I1
F1.0
S'good'
p3234
I0
tp3235
a(I2177
I4
F0.75
S'perfect'
p3236
I0
tp3237
a(I2198
I5
F1.0
S'good'
p3238
I0
tp3239
a(I2198
I5
F1.0
S'good'
p3240
I0
tp3241
a(I103
I4
F1.0
g3169
I0
tp3242
a(I122
I1
F1.0
g3171
I0
tp3243
a(I139
I7
I0
g3173
I0
tp3244
a(I170
I1
F1.0
g2323
I0
tp3245
a(I170
I1
F0.5
g2325
I0
tp3246
a(I185
I0
I0
g3177
I0
tp3247
a(I421
I23
F-0.625
g2327
I0
tp3248
a(I707
I0
F0.625
g3186
I0
tp3249
a(I781
I1
F1.0
g3192
I0
tp3250
a(I882
I13
F0.875
g3194
I0
tp3251
a(I897
I0
F0.875
g2329
I0
tp3252
a(I990
I5
F0.75
g2331
I0
tp3253
a(I1144
I2
F0.5
g2335
I0
tp3254
a(I1276
I1
F0.875
g2337
I0
tp3255
a(I1315
I7
F1.0
g3202
I0
tp3256
a(I1341
I1
F1.0
g2339
I0
tp3257
a(I1372
I23
F0.625
g3205
I0
tp3258
a(I1372
I25
F1.0
g3207
I0
tp3259
a(I1372
I26
I0
g3209
I0
tp3260
a(I1387
I7
F0.875
g3211
I0
tp3261
a(I1464
I0
F0.875
g2341
I0
tp3262
a(I1482
I0
F0.625
g2343
I0
tp3263
a(I1482
I0
F-0.625
g2345
I0
tp3264
a(I1488
I21
F0.875
g2347
I0
tp3265
a(I1511
I3
F1.0
g2349
I0
tp3266
a(I1511
I3
F1.0
g2351
I0
tp3267
a(I1588
I2
F1.0
g2353
I0
tp3268
a(I1627
I0
F-0.625
g2355
I0
tp3269
a(I1813
I3
I0
g2359
I0
tp3270
a(I1818
I12
F-0.625
g2361
I0
tp3271
a(I1818
I12
F0.5
g2363
I0
tp3272
a(I1846
I0
F0.875
g3226
I0
tp3273
a(I1913
I19
F0.625
g2365
I0
tp3274
a(I1921
I0
I0
g3229
I0
tp3275
a(I1921
I0
F-0.125
g3231
I0
tp3276
a(I1937
I5
F0.75
g2367
I0
tp3277
a(I2177
I4
F0.75
g3236
I0
tp3278
a(I2198
I5
F1.0
g3240
I0
tp3279
a(I164
I1
I0
g1873
I0
tp3280
a(I185
I0
I0
g3177
I0
tp3281
a(I185
I0
I0
g3179
I0
tp3282
a(I200
I1
F0.5
S'accurate'
p3283
I0
tp3284
a(I355
I0
F0.5
g3181
I0
tp3285
a(I566
I6
F0.875
g3184
I0
tp3286
a(I757
I2
I0
g3188
I0
tp3287
a(I757
I2
I0
g3190
I0
tp3288
a(I1012
I4
F1.0
g1905
I0
tp3289
a(I1267
I1
F1.0
g3199
I0
tp3290
a(I1336
I11
F0.875
S'awesome'
p3291
I0
tp3292
a(I1372
I26
I0
g3209
I0
tp3293
a(I1508
I0
I0
S'finger'
p3294
I0
tp3295
a(I1742
I7
F0.5
g3221
I0
tp3296
a(I1921
I0
I0
g3229
I0
tp3297
a(I2095
I1
F1.0
g3234
I0
tp3298
a(I2101
I0
F0.625
S'fine'
p3299
I0
tp3300
a(I2195
I2
I0
g1933
I0
tp3301
a(I2198
I5
F1.0
g3238
I0
tp3302
a(I103
I4
F1.0
g3169
I7
tp3303
a(I122
I1
F1.0
g3171
I7
tp3304
a(I139
I7
I0
g3173
I7
tp3305
a(I170
I1
F1.0
g2323
I7
tp3306
a(I170
I1
F0.5
g2325
I7
tp3307
a(I324
I8
F-0.625
S'silent'
p3308
I7
tp3309
a(I421
I23
F-0.625
g2327
I7
tp3310
a(I707
I0
F0.625
g3186
I7
tp3311
a(I781
I1
F1.0
g3192
I7
tp3312
a(I882
I13
F0.875
g3194
I7
tp3313
a(I897
I0
F0.875
g2329
I7
tp3314
a(I905
I5
F1.0
S'good'
p3315
I7
tp3316
a(I990
I5
F0.75
g2331
I7
tp3317
a(I1144
I2
F0.5
g2335
I7
tp3318
a(I1275
I1
F0.875
S'great'
p3319
I7
tp3320
a(I1276
I1
F0.875
g2337
I7
tp3321
a(I1315
I7
F1.0
g3202
I7
tp3322
a(I1341
I1
F1.0
g2339
I7
tp3323
a(I1348
I19
F1.0
S'good'
p3324
I7
tp3325
a(I1372
I23
F0.625
g3205
I7
tp3326
a(I1372
I25
F1.0
g3207
I7
tp3327
a(I1387
I7
F0.875
g3211
I7
tp3328
a(I1464
I0
F0.875
g2341
I7
tp3329
a(I1482
I0
F0.625
g2343
I7
tp3330
a(I1482
I0
F-0.625
g2345
I7
tp3331
a(I1488
I21
F0.875
g2347
I7
tp3332
a(I1511
I3
F1.0
g2349
I7
tp3333
a(I1511
I3
F1.0
g2351
I7
tp3334
a(I1588
I2
F1.0
g2353
I7
tp3335
a(I1627
I0
F-0.625
g2355
I7
tp3336
a(I1813
I3
I0
g2359
I7
tp3337
a(I1818
I12
F-0.625
g2361
I7
tp3338
a(I1818
I12
F0.5
g2363
I7
tp3339
a(I1833
I0
F-0.625
S'sensitive'
p3340
I7
tp3341
a(I1846
I0
F0.875
g3226
I7
tp3342
a(I1913
I19
F0.625
g2365
I7
tp3343
a(I1921
I0
F-0.125
g3231
I7
tp3344
a(I1937
I5
F0.75
g2367
I7
tp3345
a(I2177
I4
F0.75
g3236
I7
tp3346
a(I2186
I7
F1.0
S'good'
p3347
I7
tp3348
a(I2198
I5
F1.0
g3240
I7
tp3349
a(I164
I1
I0
g1873
I1
tp3350
a(I185
I0
I0
g3177
I1
tp3351
a(I200
I1
F0.5
g3283
I1
tp3352
a(I1336
I11
F0.875
g3291
I1
tp3353
a(I1372
I26
I0
g3209
I1
tp3354
a(I1508
I0
I0
g3294
I1
tp3355
a(I1921
I0
I0
g3229
I1
tp3356
a(I2101
I0
F0.625
g3299
I1
tp3357
a(I2195
I2
I0
g1933
I1
tp3358
a(I31
I23
F0.875
S'right'
p3359
I0
tp3360
a(I185
I0
I0
g3179
I0
tp3361
a(I355
I0
F0.5
g3181
I0
tp3362
a(I566
I6
F0.875
g3184
I0
tp3363
a(I757
I2
I0
g3188
I0
tp3364
a(I757
I2
I0
g3190
I0
tp3365
a(I882
I21
F-0.625
S'sensitive'
p3366
I0
tp3367
a(I973
I0
F1.0
S'good'
p3368
I0
tp3369
a(I1012
I4
F1.0
g1905
I0
tp3370
a(I1207
I16
F0.5
S'touch'
p3371
I0
tp3372
a(I1267
I1
F1.0
g3199
I0
tp3373
a(I1742
I7
F0.5
g3221
I0
tp3374
a(I2095
I1
F1.0
g3234
I0
tp3375
a(I2198
I5
F1.0
g3238
I0
tp3376
as(S'3000'
p3377
S'mah'
p3378
S'battery'
p3379
tp3380
(lp3381
(I43
I1
F-0.375
S'ulterior'
p3382
I0
tp3383
a(I546
I1
F1.0
S'good'
p3384
I0
tp3385
a(I609
I4
F0.375
g2858
I0
tp3386
a(I896
I0
F1.0
S'good'
p3387
I0
tp3388
a(I1040
I0
F1.0
S'good'
p3389
I0
tp3390
a(I1245
I1
F0.5
g2890
I0
tp3391
as(S'mega'
p3392
S'pixel'
p3393
tp3394
(lp3395
(I1687
I0
F1.0
S'better'
p3396
I0
tp3397
as(S'first'
p3398
S'flash'
p3399
S'sale'
p3400
tp3401
(lp3402
(I40
I2
F-0.5
g740
I0
tp3403
a(I40
I2
F-0.5
g742
I0
tp3404
a(I812
I5
F-0.5
g770
I0
tp3405
a(I812
I5
F-0.5
g772
I0
tp3406
a(I1039
I4
F0.625
g778
I0
tp3407
a(I1039
I4
F-0.5
g780
I0
tp3408
a(I1104
I4
F0.625
g782
I0
tp3409
a(I1137
I0
F-0.5
g784
I0
tp3410
a(I1488
I14
F-0.5
g794
I0
tp3411
a(I1490
I0
F-0.5
g861
I0
tp3412
a(I1713
I2
F0.625
g802
I0
tp3413
a(I1713
I2
F-0.5
g804
I0
tp3414
a(I1738
I2
F-0.5
g806
I0
tp3415
a(I1769
I2
F-0.5
g812
I0
tp3416
as(S'user'
p3417
tp3418
(lp3419
(I4
I52
F0.375
S'available'
p3420
I9
tp3421
a(I226
I3
F-0.625
S'average'
p3422
I9
tp3423
a(I231
I4
F-0.625
S'average'
p3424
I9
tp3425
a(I233
I12
F-0.625
S'average'
p3426
I9
tp3427
a(I566
I2
F0.875
S'nice'
p3428
I9
tp3429
a(I657
I6
I0
S'light'
p3430
I9
tp3431
a(I657
I6
I0
S'more'
p3432
I9
tp3433
a(I659
I9
F-0.625
S'average'
p3434
I9
tp3435
a(I802
I17
F0.625
S'friendly'
p3436
I9
tp3437
a(I807
I0
F-0.5
S'heavy'
p3438
I9
tp3439
a(I809
I0
F-0.5
S'heavy'
p3440
I9
tp3441
a(I894
I24
F0.5
S'avid'
p3442
I9
tp3443
a(I955
I6
F-0.625
S'moderate'
p3444
I9
tp3445
a(I1068
I3
I0
S'u'
p3446
I9
tp3447
a(I1207
I9
F-0.625
S'new'
p3448
I9
tp3449
a(I1224
I3
F0.375
S'available'
p3450
I9
tp3451
a(I1333
I7
I0
S'current'
p3452
I9
tp3453
a(I1336
I17
I0
S'normal'
p3454
I9
tp3455
a(I1336
I17
F1.0
S'good'
p3456
I9
tp3457
a(I1341
I5
F-0.625
S'average'
p3458
I9
tp3459
a(I1341
I5
F0.125
S'mobile'
p3460
I9
tp3461
a(I1350
I0
F-0.5
S'heavy'
p3462
I9
tp3463
a(I1378
I0
F-0.5
S'heavy'
p3464
I9
tp3465
a(I1400
I0
F0.5
S'daily'
p3466
I9
tp3467
a(I1742
I9
F-0.875
S'poor'
p3468
I9
tp3469
a(I1754
I1
F-0.5
S'heavy'
p3470
I9
tp3471
a(I1985
I1
F-0.5
S'heavy'
p3472
I9
tp3473
a(I2142
I4
F0.875
S'happy'
p3474
I9
tp3475
as(S'days'
p3476
S'of'
p3477
S'use'
p3478
tp3479
(lp3480
(I1713
I7
I0
S'few'
p3481
I0
tp3482
a(I1713
I7
F-0.25
S'i'
p3483
I0
tp3484
a(I2051
I9
F-0.75
S'difficult'
p3485
I0
tp3486
as(S'lenovo'
p3487
S'k4'
p3488
S'note'
p3489
tp3490
(lp3491
(I927
I0
F-0.125
g1725
I0
tp3492
a(I927
I0
I0
g1727
I0
tp3493
a(I927
I0
F1.0
g1729
I0
tp3494
a(I487
I0
F-0.5
S'less'
p3495
I0
tp3496
a(I487
I0
F0.875
S'nice'
p3497
I0
tp3498
a(I803
I15
F1.0
S'better'
p3499
I0
tp3500
a(I927
I0
F-0.125
g1725
I0
tp3501
a(I927
I0
I0
g1727
I0
tp3502
a(I927
I0
F1.0
g1729
I0
tp3503
a(I1385
I0
F1.0
S'better'
p3504
I0
tp3505
a(I1727
I1
F-0.375
S'le'
p3506
I0
tp3507
a(I1840
I29
F1.0
S'better'
p3508
I0
tp3509
a(I487
I0
F-0.5
g3495
I1
tp3510
a(I487
I0
F0.875
g3497
I1
tp3511
a(I927
I0
F-0.125
g1725
I1
tp3512
a(I927
I0
I0
g1727
I1
tp3513
a(I927
I0
F1.0
g1729
I1
tp3514
a(I933
I6
F1.0
g1731
I1
tp3515
a(I964
I0
I0
S'galaxy'
p3516
I1
tp3517
a(I1471
I7
F0.125
S'please'
p3518
I1
tp3519
a(I1548
I8
I0
S'bigger'
p3520
I1
tp3521
a(I1549
I15
I0
S'galaxy'
p3522
I1
tp3523
a(I1691
I0
I0
S'serious'
p3524
I1
tp3525
a(I1892
I0
F1.0
g1733
I1
tp3526
as(S'octa'
p3527
S'core'
p3528
S'processor'
p3529
tp3530
(lp3531
(I550
I19
F0.625
S'smooth'
p3532
I0
tp3533
a(I1427
I9
I0
S'normal'
p3534
I0
tp3535
a(I1427
I9
F0.75
S'due'
p3536
I0
tp3537
a(I4
I57
F-0.5
S'snappy'
p3538
I8
tp3539
a(I203
I0
F0.5
S'powerful'
p3540
I8
tp3541
a(I207
I21
F-0.625
S'fast'
p3542
I8
tp3543
a(I491
I0
F-0.5
S'heavy'
p3544
I8
tp3545
a(I550
I19
F0.625
g3532
I8
tp3546
a(I577
I4
F-0.5
S'weak'
p3547
I8
tp3548
a(I916
I40
F0.75
S'due'
p3549
I8
tp3550
a(I991
I1
F0.125
S'mobile'
p3551
I8
tp3552
a(I1025
I0
I0
S's'
p3553
I8
tp3554
a(I1025
I0
F0.5
S'powerful'
p3555
I8
tp3556
a(I1025
I0
F0.125
S'mobile'
p3557
I8
tp3558
a(I1026
I47
I0
S'normal'
p3559
I8
tp3560
a(I1043
I3
F-0.125
S'ultimate'
p3561
I8
tp3562
a(I1103
I6
I0
S'wont'
p3563
I8
tp3564
a(I1108
I18
F-0.5
S'snappy'
p3565
I8
tp3566
a(I1111
I8
F0.5
S'powerful'
p3567
I8
tp3568
a(I1113
I8
F0.5
S'powerful'
p3569
I8
tp3570
a(I1232
I2
F0.75
S'fantastic'
p3571
I8
tp3572
a(I1248
I5
F1.0
S'excellent'
p3573
I8
tp3574
a(I1336
I45
F1.0
S'best'
p3575
I8
tp3576
a(I1427
I12
F-0.625
S'fast'
p3577
I8
tp3578
a(I1427
I27
F-0.625
S'fast'
p3579
I8
tp3580
a(I1815
I4
I0
S'pretty'
p3581
I8
tp3582
a(I1937
I13
F0.5
S'high'
p3583
I8
tp3584
a(I2116
I3
F0.875
S'decent'
p3585
I8
tp3586
a(I2181
I6
F0.875
S'nice'
p3587
I8
tp3588
as(S'ota'
p3589
S'update'
p3590
tp3591
(lp3592
(I1
I15
F-0.625
S'new'
p3593
I0
tp3594
a(I9
I10
F-0.375
S'stay'
p3595
I0
tp3596
a(I334
I7
F-0.125
S'next'
p3597
I0
tp3598
a(I530
I0
F-0.625
S'new'
p3599
I0
tp3600
a(I852
I1
F-0.125
S'next'
p3601
I0
tp3602
a(I896
I20
F-0.25
S'latest'
p3603
I0
tp3604
a(I1041
I4
F-0.625
S'new'
p3605
I0
tp3606
a(I1041
I4
I0
S'update'
p3607
I0
tp3608
a(I1041
I4
I0
S'update'
p3609
I0
tp3610
a(I1107
I2
F-0.625
S'last'
p3611
I0
tp3612
a(I1107
I2
I0
S'least'
p3613
I0
tp3614
a(I1139
I3
I0
S'upcoming'
p3615
I0
tp3616
a(I1817
I2
F0.125
S'scheduled'
p3617
I0
tp3618
a(I9
I10
F-0.375
g3595
I1
tp3619
a(I106
I1
F0.25
S'future'
p3620
I1
tp3621
a(I164
I0
F0.625
S'first'
p3622
I1
tp3623
a(I431
I6
F-0.75
S'likely'
p3624
I1
tp3625
a(I615
I27
F-0.125
S'next'
p3626
I1
tp3627
a(I670
I0
I0
S'feb'
p3628
I1
tp3629
a(I798
I2
I0
S'feb'
p3630
I1
tp3631
a(I811
I0
F-0.125
S'next'
p3632
I1
tp3633
a(I916
I12
I0
S'nd'
p3634
I1
tp3635
a(I916
I12
F-0.125
S'next'
p3636
I1
tp3637
a(I929
I7
F-0.25
S'latest'
p3638
I1
tp3639
a(I1014
I17
F-0.625
S'last'
p3640
I1
tp3641
a(I1103
I2
F0.375
S'much'
p3642
I1
tp3643
a(I1107
I2
I0
g3613
I1
tp3644
a(I1170
I22
F0.5
S'stable'
p3645
I1
tp3646
a(I1175
I24
F-0.25
S'latest'
p3647
I1
tp3648
a(I1345
I1
F-0.125
S'next'
p3649
I1
tp3650
a(I1401
I6
I0
S'need'
p3651
I1
tp3652
a(I1702
I1
F-0.625
S'new'
p3653
I1
tp3654
a(I1767
I31
F-0.25
S'latest'
p3655
I1
tp3656
a(I1880
I7
F-0.625
S'new'
p3657
I1
tp3658
a(I2013
I35
F-0.625
S'new'
p3659
I1
tp3660
a(I2116
I0
F-0.125
S'marshmallow'
p3661
I1
tp3662
a(I2195
I7
F0.25
S'recent'
p3663
I1
tp3664
a(I2195
I8
F-0.125
S'marshmallow'
p3665
I1
tp3666
as(S'full'
p3667
S'hd'
p3668
S'display'
p3669
tp3670
(lp3671
(I58
I0
F1.0
S'good'
p3672
I0
tp3673
a(I550
I17
I0
S'inch'
p3674
I0
tp3675
a(I550
I17
F0.375
S'full'
p3676
I0
tp3677
a(I577
I12
F1.0
S'excellent'
p3678
I0
tp3679
a(I577
I12
F0.5
S'touch'
p3680
I0
tp3681
a(I796
I16
F0.375
S'full'
p3682
I0
tp3683
a(I796
I16
I0
S'bright'
p3684
I0
tp3685
a(I974
I5
F0.375
S'full'
p3686
I0
tp3687
a(I1138
I1
F0.375
S'full'
p3688
I0
tp3689
a(I1342
I8
I0
S'more'
p3690
I0
tp3691
a(I1439
I14
F0.375
S'full'
p3692
I0
tp3693
a(I1439
I14
F1.0
S'good'
p3694
I0
tp3695
a(I1992
I0
F1.0
S'good'
p3696
I0
tp3697
a(I1992
I0
F0.375
S'full'
p3698
I0
tp3699
a(I4
I49
F1.0
S'good'
p3700
I13
tp3701
a(I51
I0
F1.0
S'good'
p3702
I13
tp3703
a(I58
I0
F1.0
g3672
I13
tp3704
a(I99
I3
F0.75
S'perfect'
p3705
I13
tp3706
a(I162
I6
F0.625
S'superior'
p3707
I13
tp3708
a(I188
I1
F0.75
S'gorgeous'
p3709
I13
tp3710
a(I207
I49
F-0.625
S'average'
p3711
I13
tp3712
a(I230
I1
F0.375
S'ok'
p3713
I13
tp3714
a(I312
I1
F1.0
S'good'
p3715
I13
tp3716
a(I323
I6
F0.5
S'crisp'
p3717
I13
tp3718
a(I328
I1
F0.625
S'vibrant'
p3719
I13
tp3720
a(I335
I1
F0.875
S'great'
p3721
I13
tp3722
a(I341
I2
F-0.875
S'poor'
p3723
I13
tp3724
a(I349
I0
F0.875
S'superb'
p3725
I13
tp3726
a(I357
I0
F-0.625
S'sharp'
p3727
I13
tp3728
a(I357
I0
I0
S'clear'
p3729
I13
tp3730
a(I422
I7
F1.0
S'good'
p3731
I13
tp3732
a(I451
I2
I0
S'stunning'
p3733
I13
tp3734
a(I476
I17
F0.625
S'fine'
p3735
I13
tp3736
a(I477
I0
F-0.625
S'sharp'
p3737
I13
tp3738
a(I557
I0
F1.0
S'best'
p3739
I13
tp3740
a(I566
I3
F0.875
S'awesome'
p3741
I13
tp3742
a(I577
I12
F0.5
g3680
I13
tp3743
a(I591
I0
F-0.125
S'overall'
p3744
I13
tp3745
a(I607
I8
F0.5
S'crisp'
p3746
I13
tp3747
a(I610
I3
F0.875
S'great'
p3748
I13
tp3749
a(I627
I0
F0.125
S'mobile'
p3750
I13
tp3751
a(I630
I1
F0.875
S'awesome'
p3752
I13
tp3753
a(I655
I16
F-0.125
S'such'
p3754
I13
tp3755
a(I655
I16
F1.0
S'good'
p3756
I13
tp3757
a(I700
I0
F1.0
S'good'
p3758
I13
tp3759
a(I703
I8
F0.75
S'wonderful'
p3760
I13
tp3761
a(I756
I1
F0.5
S'high'
p3762
I13
tp3763
a(I786
I1
F-0.875
S'poor'
p3764
I13
tp3765
a(I794
I7
F1.0
S'best'
p3766
I13
tp3767
a(I796
I16
I0
g3684
I13
tp3768
a(I803
I7
I0
S'inch'
p3769
I13
tp3770
a(I916
I27
F0.875
S'amazing'
p3771
I13
tp3772
a(I955
I2
F0.625
S'super'
p3773
I13
tp3774
a(I980
I8
F0.5
S'crisp'
p3775
I13
tp3776
a(I980
I8
F-0.625
S'sharp'
p3777
I13
tp3778
a(I986
I0
F1.0
S'best'
p3779
I13
tp3780
a(I990
I7
F1.0
S'excellent'
p3781
I13
tp3782
a(I1082
I8
F0.875
S'awesome'
p3783
I13
tp3784
a(I1091
I1
I0
S'screen'
p3785
I13
tp3786
a(I1114
I5
F-0.75
S'defective'
p3787
I13
tp3788
a(I1184
I0
F0.125
S'pressed'
p3789
I13
tp3790
a(I1201
I1
F1.0
S'good'
p3791
I13
tp3792
a(I1206
I5
F1.0
S'good'
p3793
I13
tp3794
a(I1315
I1
F-0.625
S'sharp'
p3795
I13
tp3796
a(I1315
I1
I0
S'bright'
p3797
I13
tp3798
a(I1315
I21
F1.0
S'good'
p3799
I13
tp3800
a(I1315
I21
F1.0
S'best'
p3801
I13
tp3802
a(I1339
I4
F1.0
S'good'
p3803
I13
tp3804
a(I1340
I0
F-0.625
S'average'
p3805
I13
tp3806
a(I1340
I0
I0
S'screen'
p3807
I13
tp3808
a(I1342
I8
I0
g3690
I13
tp3809
a(I1349
I5
F1.0
S'excellent'
p3810
I13
tp3811
a(I1349
I9
F1.0
S'good'
p3812
I13
tp3813
a(I1354
I3
I0
S'big'
p3814
I13
tp3815
a(I1369
I2
I0
S'inch'
p3816
I13
tp3817
a(I1369
I2
F1.0
S'best'
p3818
I13
tp3819
a(I1372
I1
F0.75
S'fantastic'
p3820
I13
tp3821
a(I1439
I14
F1.0
g3694
I13
tp3822
a(I1464
I2
F-0.875
S'hard'
p3823
I13
tp3824
a(I1464
I2
F1.0
S'good'
p3825
I13
tp3826
a(I1464
I5
I0
S'few'
p3827
I13
tp3828
a(I1464
I5
I0
S'different'
p3829
I13
tp3830
a(I1488
I16
F-0.625
S'sharp'
p3831
I13
tp3832
a(I1500
I1
F0.875
S'awesome'
p3833
I13
tp3834
a(I1510
I6
F1.0
S'good'
p3835
I13
tp3836
a(I1584
I6
F0.875
S'awesome'
p3837
I13
tp3838
a(I1589
I0
F-0.375
S'appealing'
p3839
I13
tp3840
a(I1593
I1
F1.0
S'good'
p3841
I13
tp3842
a(I1616
I1
F-0.625
S'average'
p3843
I13
tp3844
a(I1626
I0
I0
S'clear'
p3845
I13
tp3846
a(I1733
I0
I0
S'bright'
p3847
I13
tp3848
a(I1758
I1
F0.875
S'great'
p3849
I13
tp3850
a(I1758
I1
F1.0
S'excellent'
p3851
I13
tp3852
a(I1767
I31
I0
S'clear'
p3853
I13
tp3854
a(I1789
I7
F1.0
S'good'
p3855
I13
tp3856
a(I1810
I3
F0.75
S'perfect'
p3857
I13
tp3858
a(I1810
I9
F0.75
S'fantastic'
p3859
I13
tp3860
a(I1828
I1
F-0.625
S'natural'
p3861
I13
tp3862
a(I1835
I6
F0.875
S'great'
p3863
I13
tp3864
a(I1870
I1
F0.875
S'great'
p3865
I13
tp3866
a(I1872
I1
F-0.5
S'shattered'
p3867
I13
tp3868
a(I1880
I4
F1.0
S'good'
p3869
I13
tp3870
a(I1881
I1
F-0.75
S'little'
p3871
I13
tp3872
a(I1928
I1
F1.0
S'good'
p3873
I13
tp3874
a(I1938
I9
F1.0
S'good'
p3875
I13
tp3876
a(I1990
I2
F0.875
S'great'
p3877
I13
tp3878
a(I2120
I7
F1.0
S'excellent'
p3879
I13
tp3880
a(I2131
I5
F0.875
S'awesome'
p3881
I13
tp3882
a(I2155
I2
I0
S'big'
p3883
I13
tp3884
a(I2155
I2
I0
S'bright'
p3885
I13
tp3886
a(I2198
I3
F-0.25
S'i'
p3887
I13
tp3888
a(I2198
I3
F0.375
S'much'
p3889
I13
tp3890
a(I2199
I1
F1.0
S'good'
p3891
I13
tp3892
a(I2225
I0
F0.875
S'great'
p3893
I13
tp3894
as(S'value'
p3895
S'for'
p3896
S'money'
p3897
tp3898
(lp3899
(I333
I8
F0.875
S'great'
p3900
I4
tp3901
a(I374
I10
F0.875
S'great'
p3902
I4
tp3903
a(I421
I19
F-0.125
S'present'
p3904
I4
tp3905
a(I421
I19
F1.0
S'best'
p3906
I4
tp3907
a(I566
I4
F-0.125
S'overall'
p3908
I4
tp3909
a(I761
I5
I0
S'total'
p3910
I4
tp3911
a(I973
I1
F1.0
S'good'
p3912
I4
tp3913
a(I1030
I14
F0.875
S'great'
p3914
I4
tp3915
a(I1094
I1
F0.5
S'true'
p3916
I4
tp3917
a(I1425
I0
F-0.125
S'overall'
p3918
I4
tp3919
a(I1463
I0
F0.875
S'superb'
p3920
I4
tp3921
a(I1466
I8
F1.0
S'best'
p3922
I4
tp3923
a(I1623
I2
F0.5
S'true'
p3924
I4
tp3925
a(I1870
I0
F1.0
S'good'
p3926
I4
tp3927
a(I2085
I3
F1.0
S'best'
p3928
I4
tp3929
a(I2140
I3
F1.0
S'good'
p3930
I4
tp3931
a(I2229
I2
F1.0
S'good'
p3932
I4
tp3933
as(S'o'
p3934
g3934
tp3935
(lp3936
(I1510
I24
I0
S'o'
p3937
I13
tp3938
as(S'at'
p3939
S'price'
p3940
S'range'
p3941
tp3942
(lp3943
(I309
I78
F-0.375
g32
I0
tp3944
a(I504
I15
F-0.875
g34
I0
tp3945
a(I1343
I0
F0.125
g38
I0
tp3946
a(I1623
I3
I0
S'above'
p3947
I0
tp3948
a(I2101
I0
F1.0
S'good'
p3949
I0
tp3950
as(S'day'
p3951
S'to'
p3952
S'day'
p3953
tp3954
(lp3955
(I43
I2
F0.625
S'first'
p3956
I0
tp3957
a(I92
I12
F0.625
S'first'
p3958
I0
tp3959
a(I101
I1
F-0.125
S'next'
p3960
I0
tp3961
a(I146
I1
F0.625
S'broad'
p3962
I0
tp3963
a(I207
I38
F0.5
S'entire'
p3964
I0
tp3965
a(I309
I63
F0.75
S'whole'
p3966
I0
tp3967
a(I476
I34
F0.75
S'whole'
p3968
I0
tp3969
a(I530
I5
F0.625
S'first'
p3970
I0
tp3971
a(I704
I4
F-0.375
S'half'
p3972
I0
tp3973
a(I796
I5
F0.75
S'whole'
p3974
I0
tp3975
a(I796
I5
I0
S'normal'
p3976
I0
tp3977
a(I979
I0
F0.875
S'great'
p3978
I0
tp3979
a(I979
I0
F0.125
S'mobile'
p3980
I0
tp3981
a(I1025
I18
F-0.625
S'last'
p3982
I0
tp3983
a(I1041
I2
F-0.125
S'next'
p3984
I0
tp3985
a(I1067
I15
I0
S'normal'
p3986
I0
tp3987
a(I1070
I1
F0.625
S'first'
p3988
I0
tp3989
a(I1083
I30
F-0.875
S'atrocious'
p3990
I0
tp3991
a(I1110
I2
F0.625
S'first'
p3992
I0
tp3993
a(I1114
I1
F0.375
S'usage'
p3994
I0
tp3995
a(I1114
I4
F0.5
S'second'
p3996
I0
tp3997
a(I1203
I1
F1.0
S'good'
p3998
I0
tp3999
a(I1203
I1
F0.375
S'ok'
p4000
I0
tp4001
a(I1203
I1
I0
S'light'
p4002
I0
tp4003
a(I1209
I0
F-0.75
S'sufficient'
p4004
I0
tp4005
a(I1306
I30
I0
S'least'
p4006
I0
tp4007
a(I1350
I3
I0
S'light'
p4008
I0
tp4009
a(I1509
I4
F-0.75
S'single'
p4010
I0
tp4011
a(I1665
I5
F-0.125
S'next'
p4012
I0
tp4013
a(I1665
I9
F-0.125
S'next'
p4014
I0
tp4015
a(I1707
I11
F-0.125
S'next'
p4016
I0
tp4017
a(I1709
I5
I0
S'more'
p4018
I0
tp4019
a(I1742
I17
F0.5
S'entire'
p4020
I0
tp4021
as(S'viewing'
p4022
S'angles'
p4023
tp4024
(lp4025
(I94
I0
F1.0
S'good'
p4026
I0
tp4027
a(I738
I2
F1.0
S'good'
p4028
I0
tp4029
a(I815
I1
F0.875
S'nice'
p4030
I0
tp4031
a(I871
I1
F1.0
S'good'
p4032
I0
tp4033
a(I1272
I1
F0.875
S'great'
p4034
I0
tp4035
a(I1813
I5
F0.875
S'great'
p4036
I0
tp4037
as(S'in'
p4038
S'price'
p4039
S'range'
p4040
tp4041
(lp4042
(I309
I77
F0.5
g30
I0
tp4043
a(I309
I78
F-0.375
g32
I0
tp4044
a(I609
I2
F-0.375
S'same'
p4045
I0
tp4046
a(I1302
I1
F1.0
S'best'
p4047
I0
tp4048
a(I1343
I0
F0.125
g38
I0
tp4049
a(I1623
I3
I0
g3947
I0
tp4050
a(I1840
I2
F1.0
S'good'
p4051
I0
tp4052
a(I1850
I0
F-0.625
S'other'
p4053
I0
tp4054
a(I1878
I2
F-0.375
g40
I0
tp4055
a(I2092
I2
I0
S'bright'
p4056
I0
tp4057
a(I2101
I0
F1.0
g3949
I0
tp4058
a(I309
I77
F0.5
g30
I13
tp4059
a(I309
I78
F-0.375
g32
I13
tp4060
a(I504
I15
F-0.875
g34
I13
tp4061
a(I609
I2
F-0.375
g4045
I13
tp4062
a(I855
I4
F0.25
g36
I13
tp4063
a(I1302
I1
F1.0
g4047
I13
tp4064
a(I1343
I0
F0.125
g38
I13
tp4065
a(I1623
I3
I0
g3947
I13
tp4066
a(I1840
I2
F1.0
g4051
I13
tp4067
a(I1850
I0
F-0.625
g4053
I13
tp4068
a(I1878
I2
F-0.375
g40
I13
tp4069
a(I2092
I2
I0
g4056
I13
tp4070
a(I2094
I0
F1.0
g42
I13
tp4071
a(I2101
I0
F1.0
g3949
I13
tp4072
as(g1007
S'gb'
p4073
S'ram'
p4074
tp4075
(lp4076
(I95
I15
I0
g3003
I0
tp4077
a(I95
I15
F0.375
g3005
I0
tp4078
a(I207
I21
F-0.75
g3009
I0
tp4079
a(I471
I4
F-0.25
g3013
I0
tp4080
a(I471
I4
F0.125
g3015
I0
tp4081
a(I550
I35
F0.75
g2976
I0
tp4082
a(I794
I5
F-0.75
g3032
I0
tp4083
a(I882
I18
I0
g3034
I0
tp4084
a(I882
I18
F-0.75
g3036
I0
tp4085
a(I894
I40
F-0.75
g2984
I0
tp4086
a(I953
I5
I0
g3039
I0
tp4087
a(I953
I5
F0.375
g3041
I0
tp4088
a(I1113
I3
F-0.75
g2990
I0
tp4089
a(I1329
I10
F0.375
g3048
I0
tp4090
a(I1336
I14
F0.375
g2996
I0
tp4091
a(I1458
I39
I0
g3051
I0
tp4092
a(I1458
I39
F-0.75
g3053
I0
tp4093
a(I1504
I1
I0
g3056
I0
tp4094
a(I1522
I0
F-0.75
g3000
I0
tp4095
a(I1741
I1
I0
g3061
I0
tp4096
a(I2047
I0
I0
g3069
I0
tp4097
as(g239
S'days'
p4098
tp4099
(lp4100
(I354
I9
F-0.625
S'last'
p4101
I2
tp4102
a(I504
I8
F0.75
S'beautiful'
p4103
I2
tp4104
a(I605
I14
F-0.25
S'i'
p4105
I2
tp4106
a(I654
I0
I0
S'light'
p4107
I2
tp4108
a(I654
I0
F0.375
S'usage'
p4109
I2
tp4110
a(I980
I14
F0.125
S'enough'
p4111
I2
tp4112
a(I1421
I3
F0.625
S'first'
p4113
I2
tp4114
a(I1427
I23
F-0.625
S'last'
p4115
I2
tp4116
as(S'worth'
p4117
S'every'
p4118
S'penny'
p4119
tp4120
(lp4121
(I482
I0
F0.25
S'worth'
p4122
I0
tp4123
a(I792
I1
F0.25
S'worth'
p4124
I0
tp4125
a(I944
I2
F0.25
S'worth'
p4126
I0
tp4127
a(I1584
I10
F0.25
S'worth'
p4128
I0
tp4129
a(I1707
I8
F0.25
S'worth'
p4130
I0
tp4131
a(I2064
I2
F0.25
S'worth'
p4132
I0
tp4133
a(I2100
I0
F0.25
S'worth'
p4134
I0
tp4135
a(I2100
I0
F-0.75
S'single'
p4136
I0
tp4137
a(I2195
I10
F0.375
g22
I0
tp4138
as(S'good'
p4139
S'build'
p4140
S'quality'
p4141
tp4142
(lp4143
(I50
I1
F1.0
S'good'
p4144
I0
tp4145
a(I81
I2
I0
S'build'
p4146
I0
tp4147
a(I229
I3
F1.0
S'good'
p4148
I0
tp4149
a(I288
I0
F0.125
S'indoor'
p4150
I0
tp4151
a(I311
I1
F1.0
S'good'
p4152
I0
tp4153
a(I803
I1
F0.875
S'brilliant'
p4154
I0
tp4155
a(I803
I1
I0
S'build'
p4156
I0
tp4157
a(I914
I10
F-0.5
S'disappointed'
p4158
I0
tp4159
a(I914
I10
I0
S'build'
p4160
I0
tp4161
a(I1239
I1
F1.0
S'good'
p4162
I0
tp4163
a(I1368
I5
F1.0
S'best'
p4164
I0
tp4165
a(I1427
I1
F1.0
S'good'
p4166
I0
tp4167
a(I1428
I1
F1.0
S'good'
p4168
I0
tp4169
a(I1439
I3
F1.0
S'good'
p4170
I0
tp4171
a(I1758
I1
F1.0
S'good'
p4172
I0
tp4173
a(I1840
I34
F1.0
S'good'
p4174
I0
tp4175
a(I1840
I34
I0
S'build'
p4176
I0
tp4177
a(I2094
I1
F1.0
S'good'
p4178
I0
tp4179
a(I1
I6
F1.0
S'excellent'
p4180
I2
tp4181
a(I50
I1
F1.0
g4144
I2
tp4182
a(I81
I2
I0
g4146
I2
tp4183
a(I210
I0
I0
S'build'
p4184
I2
tp4185
a(I214
I1
I0
S'build'
p4186
I2
tp4187
a(I229
I3
F1.0
g4148
I2
tp4188
a(I288
I0
F0.125
g4150
I2
tp4189
a(I288
I2
I0
S'build'
p4190
I2
tp4191
a(I309
I51
I0
S'build'
p4192
I2
tp4193
a(I309
I51
F-0.5
S'snappy'
p4194
I2
tp4195
a(I311
I1
F1.0
g4152
I2
tp4196
a(I324
I17
I0
S's'
p4197
I2
tp4198
a(I324
I17
I0
S'build'
p4199
I2
tp4200
a(I326
I1
F0.875
S'solid'
p4201
I2
tp4202
a(I528
I6
I0
S'build'
p4203
I2
tp4204
a(I566
I3
I0
S'build'
p4205
I2
tp4206
a(I577
I6
F1.0
S'excellent'
p4207
I2
tp4208
a(I591
I4
I0
S'build'
p4209
I2
tp4210
a(I591
I4
F0.875
S'nice'
p4211
I2
tp4212
a(I642
I0
I0
S'build'
p4213
I2
tp4214
a(I642
I0
F0.875
S'amazing'
p4215
I2
tp4216
a(I653
I5
I0
S'impressed'
p4217
I2
tp4218
a(I653
I5
I0
S'build'
p4219
I2
tp4220
a(I793
I1
I0
S'build'
p4221
I2
tp4222
a(I796
I15
F0.875
S'great'
p4223
I2
tp4224
a(I796
I15
I0
S'build'
p4225
I2
tp4226
a(I803
I1
F0.875
g4154
I2
tp4227
a(I803
I1
I0
g4156
I2
tp4228
a(I856
I0
F0.5
S'touch'
p4229
I2
tp4230
a(I883
I3
F-0.875
S'cheaper'
p4231
I2
tp4232
a(I914
I10
F-0.5
g4158
I2
tp4233
a(I914
I10
I0
g4160
I2
tp4234
a(I916
I39
I0
S'build'
p4235
I2
tp4236
a(I920
I0
I0
S'build'
p4237
I2
tp4238
a(I980
I6
I0
S'build'
p4239
I2
tp4240
a(I980
I6
F0.875
S'solid'
p4241
I2
tp4242
a(I980
I6
F0.5
S'sturdy'
p4243
I2
tp4244
a(I1023
I8
I0
S'build'
p4245
I2
tp4246
a(I1103
I9
I0
S'build'
p4247
I2
tp4248
a(I1111
I1
F1.0
S'excellent'
p4249
I2
tp4250
a(I1239
I1
F1.0
g4162
I2
tp4251
a(I1262
I0
F1.0
S'excellent'
p4252
I2
tp4253
a(I1269
I1
F1.0
S'excellent'
p4254
I2
tp4255
a(I1315
I11
F0.875
S'happy'
p4256
I2
tp4257
a(I1315
I11
I0
S'build'
p4258
I2
tp4259
a(I1368
I2
I0
S'build'
p4260
I2
tp4261
a(I1368
I2
F-0.375
S'top'
p4262
I2
tp4263
a(I1368
I5
F1.0
g4164
I2
tp4264
a(I1427
I1
F1.0
g4166
I2
tp4265
a(I1428
I1
F1.0
g4168
I2
tp4266
a(I1439
I3
F1.0
g4170
I2
tp4267
a(I1466
I6
I0
S'build'
p4268
I2
tp4269
a(I1545
I1
I0
S'screen'
p4270
I2
tp4271
a(I1545
I1
I0
S'build'
p4272
I2
tp4273
a(I1545
I1
F-0.5
S'extra'
p4274
I2
tp4275
a(I1588
I1
F0.75
S'premium'
p4276
I2
tp4277
a(I1616
I0
F0.75
S'premium'
p4278
I2
tp4279
a(I1748
I15
F0.875
S'awesome'
p4280
I2
tp4281
a(I1758
I1
F1.0
g4172
I2
tp4282
a(I1788
I30
F0.75
S'wonderful'
p4283
I2
tp4284
a(I1788
I30
I0
S'build'
p4285
I2
tp4286
a(I1838
I5
I0
S'build'
p4287
I2
tp4288
a(I1838
I5
F-1.0
S'bad'
p4289
I2
tp4290
a(I1840
I34
F1.0
g4174
I2
tp4291
a(I1840
I34
I0
g4176
I2
tp4292
a(I1862
I9
I0
S'build'
p4293
I2
tp4294
a(I2094
I1
F1.0
g4178
I2
tp4295
a(I1
I6
F1.0
g4180
I2
tp4296
a(I229
I3
F1.0
g4148
I2
tp4297
a(I311
I1
F1.0
g4152
I2
tp4298
a(I326
I1
F0.875
g4201
I2
tp4299
a(I412
I0
F1.0
S'good'
p4300
I2
tp4301
a(I577
I6
F1.0
g4207
I2
tp4302
a(I1106
I0
F1.0
S'best'
p4303
I2
tp4304
a(I1111
I1
F1.0
g4249
I2
tp4305
a(I1239
I1
F1.0
g4162
I2
tp4306
a(I1269
I1
F1.0
g4254
I2
tp4307
a(I1349
I5
F1.0
S'excellent'
p4308
I2
tp4309
a(I1368
I5
F1.0
g4164
I2
tp4310
a(I1372
I7
F0.875
S'nice'
p4311
I2
tp4312
a(I1427
I1
F1.0
g4166
I2
tp4313
a(I1428
I1
F1.0
g4168
I2
tp4314
a(I1439
I8
F0.875
S'awesome'
p4315
I2
tp4316
a(I1634
I1
F1.0
S'good'
p4317
I2
tp4318
a(I1758
I1
F1.0
g4172
I2
tp4319
a(I2094
I1
F1.0
g4178
I2
tp4320
a(I2156
I8
F1.0
S'good'
p4321
I2
tp4322
a(I2156
I8
F0.875
S'great'
p4323
I2
tp4324
as(S'full'
p4325
S'metal'
p4326
S'body'
p4327
tp4328
(lp4329
(I143
I2
F0.375
g1080
I0
tp4330
a(I808
I2
F0.375
g1101
I0
tp4331
a(I979
I0
F0.375
g1047
I0
tp4332
a(I1030
I15
I0
g1112
I0
tp4333
a(I1207
I13
I0
g1119
I0
tp4334
a(I1207
I13
F0.375
g1121
I0
tp4335
a(I1248
I8
F0.375
g1124
I0
tp4336
a(I1458
I15
F0.375
g1134
I0
tp4337
a(I2081
I1
F0.375
g1069
I0
tp4338
as(S'letv'
p4339
tp4340
(lp4341
(I39
I0
F-0.625
S'new'
p4342
I0
tp4343
a(I40
I3
F-0.5
S'fix'
p4344
I0
tp4345
a(I57
I0
F-0.25
S'i'
p4346
I0
tp4347
a(I95
I6
F-0.125
S'overall'
p4348
I0
tp4349
a(I177
I0
F-0.625
S'new'
p4350
I0
tp4351
a(I334
I7
I0
S'sure'
p4352
I0
tp4353
a(I407
I2
I0
S'update'
p4354
I0
tp4355
a(I411
I2
F-0.125
S'such'
p4356
I0
tp4357
a(I424
I0
F1.0
S'good'
p4358
I0
tp4359
a(I431
I9
F1.0
S'better'
p4360
I0
tp4361
a(I670
I0
F0.625
S'hen'
p4362
I0
tp4363
a(I699
I1
F1.0
S'excellent'
p4364
I0
tp4365
a(I711
I0
F-0.625
S'new'
p4366
I0
tp4367
a(I711
I0
I0
S'entrant'
p4368
I0
tp4369
a(I738
I3
F-0.625
S'natural'
p4370
I0
tp4371
a(I738
I3
F1.0
S'soft'
p4372
I0
tp4373
a(I803
I4
I0
S'quick'
p4374
I0
tp4375
a(I810
I0
F1.0
S'better'
p4376
I0
tp4377
a(I812
I6
F-0.5
S'fix'
p4378
I0
tp4379
a(I1030
I16
F0.625
S'first'
p4380
I0
tp4381
a(I1099
I0
F-0.25
S'i'
p4382
I0
tp4383
a(I1213
I5
F0.5
S'compatible'
p4384
I0
tp4385
a(I1349
I21
F-0.125
S'overall'
p4386
I0
tp4387
a(I1401
I6
F-0.25
S'earliest'
p4388
I0
tp4389
a(I1451
I8
F0.5
S'powerful'
p4390
I0
tp4391
a(I1519
I0
F-0.625
S'last'
p4392
I0
tp4393
a(I1682
I12
F-0.625
S'new'
p4394
I0
tp4395
a(I1694
I0
I0
S'total'
p4396
I0
tp4397
a(I1749
I1
F0.5
S'similar'
p4398
I0
tp4399
a(I1788
I28
F1.0
S'better'
p4400
I0
tp4401
a(I1804
I1
F-0.625
S'new'
p4402
I0
tp4403
a(I1960
I3
F1.0
S'best'
p4404
I0
tp4405
as(S'3'
p4406
S'gb'
p4407
S'ram'
p4408
tp4409
(lp4410
(I63
I1
I0
g2972
I0
tp4411
a(I466
I1
F0.125
g3011
I0
tp4412
a(I471
I4
F-0.25
g3013
I0
tp4413
a(I471
I4
F0.125
g3015
I0
tp4414
a(I504
I2
F-0.75
g2974
I0
tp4415
a(I540
I0
I0
g3018
I0
tp4416
a(I550
I35
F0.75
g2976
I0
tp4417
a(I760
I6
F-0.75
g2982
I0
tp4418
a(I1047
I4
I0
g2988
I0
tp4419
a(I1113
I3
F-0.75
g2990
I0
tp4420
a(I1140
I3
F0.375
g2992
I0
tp4421
a(I1289
I3
F0.875
g2994
I0
tp4422
a(I1329
I10
F0.375
g3048
I0
tp4423
a(I1336
I14
F0.375
g2996
I0
tp4424
a(I1463
I4
F0.5
g2998
I0
tp4425
a(I1504
I1
I0
g3056
I0
tp4426
a(I1522
I0
F-0.75
g3000
I0
tp4427
a(I1574
I7
F-0.875
g3059
I0
tp4428
a(I1741
I1
I0
g3061
I0
tp4429
a(I1788
I5
F1.0
g3063
I0
tp4430
a(I1788
I31
F0.375
g3065
I0
tp4431
a(I1789
I13
F-0.625
g3067
I0
tp4432
a(I2047
I0
I0
g3069
I0
tp4433
a(I2152
I1
I0
g3071
I0
tp4434
a(I2181
I6
F0.375
g3073
I0
tp4435
as(S'cons'
p4436
tp4437
(lp4438
(I92
I12
F0.125
S'mobile'
p4439
I8
tp4440
a(I659
I2
F-0.75
S'little'
p4441
I8
tp4442
a(I659
I2
F-0.875
S'worried'
p4443
I8
tp4444
a(I659
I2
F0.625
S'major'
p4445
I8
tp4446
a(I911
I1
I0
S'only'
p4447
I8
tp4448
a(I911
I1
I0
S'delicate'
p4449
I8
tp4450
a(I1205
I2
F0.25
S'able'
p4451
I8
tp4452
a(I1293
I3
F-0.625
S'other'
p4453
I8
tp4454
a(I1373
I0
F0.625
S'first'
p4455
I8
tp4456
a(I2180
I4
I0
S'only'
p4457
I8
tp4458
as(S'horizontal'
p4459
S'strip'
p4460
tp4461
(lp4462
(I800
I1
I0
S'horizontal'
p4463
I0
tp4464
a(I800
I1
I0
S'vertical'
p4465
I0
tp4466
a(I801
I0
I0
S'horizontal'
p4467
I0
tp4468
as(S'ir'
p4469
S'blaster'
p4470
tp4471
(lp4472
(I192
I1
F1.0
S'good'
p4473
I0
tp4474
a(I555
I0
I0
S'adaptable'
p4475
I0
tp4476
a(I700
I2
I0
S'ir'
p4477
I0
tp4478
a(I1106
I7
F0.625
S'fine'
p4479
I0
tp4480
a(I1343
I2
F0.5
S'compatible'
p4481
I0
tp4482
as(g2038
S'metal'
p4483
S'body'
p4484
tp4485
(lp4486
(I30
I10
F1.0
g1075
I0
tp4487
a(I126
I0
F-0.625
g1027
I0
tp4488
a(I139
I1
F0.875
g1078
I0
tp4489
a(I143
I2
F0.375
g1080
I0
tp4490
a(I220
I0
F-0.75
g1029
I0
tp4491
a(I220
I0
F-0.25
g1031
I0
tp4492
a(I290
I4
F0.75
g1033
I0
tp4493
a(I383
I0
F0.375
g1085
I0
tp4494
a(I383
I0
F-0.5
g1087
I0
tp4495
a(I473
I34
I0
g1089
I0
tp4496
a(I491
I0
F0.375
g1091
I0
tp4497
a(I491
I0
I0
g1093
I0
tp4498
a(I600
I2
F0.5
g1035
I0
tp4499
a(I600
I7
F0.375
g1037
I0
tp4500
a(I703
I8
F-0.875
g1097
I0
tp4501
a(I751
I6
F0.875
g1099
I0
tp4502
a(I808
I2
F0.375
g1101
I0
tp4503
a(I873
I1
F0.75
g1103
I0
tp4504
a(I885
I16
I0
g1039
I0
tp4505
a(I885
I16
F0.75
g1041
I0
tp4506
a(I914
I2
F0.375
g1043
I0
tp4507
a(I961
I1
F0.75
g1045
I0
tp4508
a(I979
I0
F0.375
g1047
I0
tp4509
a(I1014
I0
F0.75
g1049
I0
tp4510
a(I1024
I2
I0
g1051
I0
tp4511
a(I1030
I15
I0
g1112
I0
tp4512
a(I1075
I8
F-0.625
g1053
I0
tp4513
a(I1075
I8
I0
g1055
I0
tp4514
a(I1108
I22
F0.375
g1057
I0
tp4515
a(I1113
I8
F0.375
g1059
I0
tp4516
a(I1113
I8
F0.5
g1061
I0
tp4517
a(I1207
I13
I0
g1119
I0
tp4518
a(I1207
I13
F0.375
g1121
I0
tp4519
a(I1210
I2
F0.75
g1063
I0
tp4520
a(I1248
I8
F0.375
g1124
I0
tp4521
a(I1285
I1
I0
g1126
I0
tp4522
a(I1306
I4
F1.0
g1128
I0
tp4523
a(I1444
I1
F0.375
g1130
I0
tp4524
a(I1444
I1
F0.625
g1132
I0
tp4525
a(I1458
I15
F0.375
g1134
I0
tp4526
a(I1655
I5
F1.0
g1136
I0
tp4527
a(I1827
I2
F0.75
g1065
I0
tp4528
a(I1827
I2
F0.625
g1067
I0
tp4529
a(I1980
I10
F1.0
g1140
I0
tp4530
a(I2018
I7
F1.0
g1142
I0
tp4531
a(I2081
I1
F0.375
g1069
I0
tp4532
a(I2087
I4
I0
g1071
I0
tp4533
a(I2087
I4
F0.75
g1073
I0
tp4534
a(I2193
I0
I0
g1147
I0
tp4535
a(I2199
I1
F1.0
g1149
I0
tp4536
a(I2202
I0
F-0.125
g1151
I0
tp4537
as(S'people'
p4538
tp4539
(lp4540
(I73
I6
I0
S'most'
p4541
I5
tp4542
a(I162
I0
I0
S'impressed'
p4543
I5
tp4544
a(I226
I0
F0.5
S'improved'
p4545
I5
tp4546
a(I404
I0
F-1.0
S'worst'
p4547
I5
tp4548
a(I406
I3
F0.375
S'much'
p4549
I5
tp4550
a(I408
I3
F-0.625
S'other'
p4551
I5
tp4552
a(I421
I4
I0
S'most'
p4553
I5
tp4554
a(I470
I22
F-0.25
S'i'
p4555
I5
tp4556
a(I473
I36
F-0.875
S'negative'
p4557
I5
tp4558
a(I528
I9
F-1.0
S'bad'
p4559
I5
tp4560
a(I530
I2
I0
S'y'
p4561
I5
tp4562
a(I693
I0
I0
S'many'
p4563
I5
tp4564
a(I693
I0
F0.625
S'rich'
p4565
I5
tp4566
a(I704
I9
F0.75
S'premium'
p4567
I5
tp4568
a(I766
I2
I0
S'most'
p4569
I5
tp4570
a(I766
I2
F0.875
S'lucky'
p4571
I5
tp4572
a(I766
I2
F1.0
S'good'
p4573
I5
tp4574
a(I796
I4
F-0.625
S'excited'
p4575
I5
tp4576
a(I852
I1
F-0.625
S'average'
p4577
I5
tp4578
a(I852
I1
F-1.0
S'bad'
p4579
I5
tp4580
a(I933
I9
I0
S'least'
p4581
I5
tp4582
a(I964
I0
F0.375
S'much'
p4583
I5
tp4584
a(I1025
I24
F-0.625
S'other'
p4585
I5
tp4586
a(I1174
I1
I0
S'least'
p4587
I5
tp4588
a(I1174
I1
I0
S'more'
p4589
I5
tp4590
a(I1288
I2
F-0.125
S'grab'
p4591
I5
tp4592
a(I1349
I20
F-0.875
S'wrong'
p4593
I5
tp4594
a(I1354
I2
I0
S'few'
p4595
I5
tp4596
a(I1458
I13
I0
S'least'
p4597
I5
tp4598
a(I1458
I13
F-0.75
S'confused'
p4599
I5
tp4600
a(I1481
I10
I0
S'many'
p4601
I5
tp4602
a(I1696
I0
F-0.25
S'i'
p4603
I5
tp4604
a(I1734
I9
I0
S'hot'
p4605
I5
tp4606
a(I1734
I9
I0
S'hot'
p4607
I5
tp4608
a(I1734
I12
I0
S't'
p4609
I5
tp4610
a(I1840
I5
F0.625
S'fool'
p4611
I5
tp4612
as(S'works'
p4613
tp4614
(lp4615
(I700
I2
F0.125
S'remote'
p4616
I3
tp4617
a(I1129
I3
F0.875
S'great'
p4618
I3
tp4619
a(I1207
I18
F0.875
S'great'
p4620
I3
tp4621
as(S'normal'
p4622
S'usage'
p4623
tp4624
(lp4625
(I4
I4
I0
S'normal'
p4626
I1
tp4627
a(I4
I17
I0
S'normal'
p4628
I1
tp4629
a(I109
I2
I0
S'normal'
p4630
I1
tp4631
a(I109
I6
I0
S'normal'
p4632
I1
tp4633
a(I147
I1
I0
S'normal'
p4634
I1
tp4635
a(I421
I5
I0
S'normal'
p4636
I1
tp4637
a(I473
I40
I0
S'normal'
p4638
I1
tp4639
a(I503
I17
F0.25
S'basic'
p4640
I1
tp4641
a(I917
I3
I0
S'normal'
p4642
I1
tp4643
a(I925
I0
I0
S'normal'
p4644
I1
tp4645
a(I1023
I1
I0
S'normal'
p4646
I1
tp4647
a(I1047
I1
I0
S'normal'
p4648
I1
tp4649
a(I1147
I10
I0
S'normal'
p4650
I1
tp4651
a(I1147
I10
F0.375
S'much'
p4652
I1
tp4653
a(I1147
I10
F-0.375
S'tolerable'
p4654
I1
tp4655
a(I1175
I11
I0
S'normal'
p4656
I1
tp4657
a(I1237
I0
I0
S'normal'
p4658
I1
tp4659
a(I1306
I1
I0
S'normal'
p4660
I1
tp4661
a(I1306
I29
I0
S'normal'
p4662
I1
tp4663
a(I1315
I17
I0
S'normal'
p4664
I1
tp4665
a(I1341
I2
I0
S'normal'
p4666
I1
tp4667
a(I1427
I11
I0
S'normal'
p4668
I1
tp4669
a(I1559
I4
I0
S'normal'
p4670
I1
tp4671
a(I1563
I0
I0
S'normal'
p4672
I1
tp4673
a(I1709
I11
I0
S'normal'
p4674
I1
tp4675
a(I1813
I1
I0
S'normal'
p4676
I1
tp4677
a(I1836
I2
F-0.75
S'warm'
p4678
I1
tp4679
a(I1836
I2
I0
S'normal'
p4680
I1
tp4681
a(I2182
I2
I0
S'normal'
p4682
I1
tp4683
as(S'good'
p4684
S'camera'
p4685
S'quality'
p4686
tp4687
(lp4688
(I288
I0
F0.125
g4150
I0
tp4689
a(I288
I0
I0
g2486
I0
tp4690
a(I288
I0
F-0.875
g2488
I0
tp4691
a(I288
I0
F-0.125
g2490
I0
tp4692
a(I479
I6
F1.0
g244
I0
tp4693
a(I504
I17
F-1.0
S'bad'
p4694
I0
tp4695
a(I550
I12
F1.0
S'good'
p4696
I0
tp4697
a(I616
I18
I0
g246
I0
tp4698
a(I616
I18
F-0.625
g248
I0
tp4699
a(I616
I18
F1.0
g250
I0
tp4700
a(I616
I18
F-0.625
g252
I0
tp4701
a(I616
I19
F1.0
S'good'
p4702
I0
tp4703
a(I616
I19
F0.5
S'high'
p4704
I0
tp4705
a(I700
I1
F1.0
g254
I0
tp4706
a(I796
I5
F-0.625
g256
I0
tp4707
a(I916
I17
I0
S'normal'
p4708
I0
tp4709
a(I916
I17
F1.0
S'good'
p4710
I0
tp4711
a(I1014
I12
F1.0
S'good'
p4712
I0
tp4713
a(I1068
I2
F1.0
S'good'
p4714
I0
tp4715
a(I1225
I2
F-1.0
S'bad'
p4716
I0
tp4717
a(I1248
I7
F0.75
g1652
I0
tp4718
a(I1248
I7
F1.0
g1654
I0
tp4719
a(I1315
I20
F1.0
S'good'
p4720
I0
tp4721
a(I1336
I31
F0.875
S'decent'
p4722
I0
tp4723
a(I1341
I5
F1.0
S'good'
p4724
I0
tp4725
a(I1359
I3
F1.0
S'good'
p4726
I0
tp4727
a(I1488
I18
F1.0
S'good'
p4728
I0
tp4729
a(I1590
I1
F1.0
S'good'
p4730
I0
tp4731
a(I1590
I1
F0.875
S'great'
p4732
I0
tp4733
a(I1681
I9
F-1.0
S'worst'
p4734
I0
tp4735
a(I1681
I9
F1.0
S'good'
p4736
I0
tp4737
a(I1684
I1
F0.875
S'nice'
p4738
I0
tp4739
a(I1684
I1
F-0.875
S'poor'
p4740
I0
tp4741
a(I1796
I1
F1.0
S'good'
p4742
I0
tp4743
a(I1901
I2
I0
S'camera'
p4744
I0
tp4745
a(I1901
I2
F-0.875
S'poor'
p4746
I0
tp4747
a(I1909
I4
F1.0
S'good'
p4748
I0
tp4749
a(I1970
I1
F1.0
S'good'
p4750
I0
tp4751
a(I2008
I0
F0.375
S'ok'
p4752
I0
tp4753
a(I2008
I0
F1.0
S'good'
p4754
I0
tp4755
a(I2018
I9
F1.0
g2589
I0
tp4756
a(I2051
I6
F1.0
S'good'
p4757
I0
tp4758
a(I2051
I6
F0.625
S'first'
p4759
I0
tp4760
a(I2173
I0
F1.0
S'good'
p4761
I0
tp4762
a(I2175
I1
F0.875
S'nice'
p4763
I0
tp4764
a(I2175
I1
F1.0
S'good'
p4765
I0
tp4766
a(I2195
I7
F1.0
S'good'
p4767
I0
tp4768
a(I2202
I0
F1.0
S'good'
p4769
I0
tp4770
a(I2202
I0
F1.0
S'good'
p4771
I0
tp4772
a(I2215
I0
I0
S'camera'
p4773
I0
tp4774
a(I2215
I0
F1.0
S'good'
p4775
I0
tp4776
a(I2234
I2
I0
S'camera'
p4777
I0
tp4778
a(I50
I1
F1.0
g4144
I0
tp4779
a(I81
I2
I0
g4146
I0
tp4780
a(I153
I1
F1.0
g1613
I0
tp4781
a(I218
I1
F1.0
S'good'
p4782
I0
tp4783
a(I266
I1
F1.0
g1619
I0
tp4784
a(I272
I1
F1.0
g1621
I0
tp4785
a(I288
I0
F0.125
g4150
I0
tp4786
a(I309
I71
F1.0
S'good'
p4787
I0
tp4788
a(I309
I73
F1.0
g1625
I0
tp4789
a(I479
I6
F1.0
g244
I0
tp4790
a(I504
I17
F-1.0
g4694
I0
tp4791
a(I577
I15
F1.0
g1632
I0
tp4792
a(I616
I18
F1.0
g250
I0
tp4793
a(I616
I19
F0.5
g4704
I0
tp4794
a(I646
I0
F0.75
g1636
I0
tp4795
a(I646
I0
F1.0
g1638
I0
tp4796
a(I700
I1
F1.0
g254
I0
tp4797
a(I743
I2
F0.125
S'indoor'
p4798
I0
tp4799
a(I743
I2
F0.875
S'nice'
p4800
I0
tp4801
a(I803
I1
F0.875
g4154
I0
tp4802
a(I803
I1
I0
g4156
I0
tp4803
a(I882
I12
F1.0
S'good'
p4804
I0
tp4805
a(I882
I12
F-0.5
S'loud'
p4806
I0
tp4807
a(I882
I36
F0.125
S'outdoor'
p4808
I0
tp4809
a(I882
I36
F1.0
S'good'
p4810
I0
tp4811
a(I914
I10
F-0.5
g4158
I0
tp4812
a(I914
I10
I0
g4160
I0
tp4813
a(I916
I17
I0
g4708
I0
tp4814
a(I916
I17
F1.0
g4710
I0
tp4815
a(I999
I1
F1.0
S'good'
p4816
I0
tp4817
a(I1003
I2
F1.0
S'good'
p4818
I0
tp4819
a(I1005
I6
F1.0
S'good'
p4820
I0
tp4821
a(I1007
I1
F1.0
S'good'
p4822
I0
tp4823
a(I1014
I12
F1.0
g4712
I0
tp4824
a(I1067
I19
F0.375
S'impressive'
p4825
I0
tp4826
a(I1068
I2
F1.0
g4714
I0
tp4827
a(I1091
I1
F1.0
S'good'
p4828
I0
tp4829
a(I1174
I21
F1.0
S'good'
p4830
I0
tp4831
a(I1206
I6
F-0.5
g194
I0
tp4832
a(I1225
I2
F-1.0
g4716
I0
tp4833
a(I1233
I4
F1.0
S'good'
p4834
I0
tp4835
a(I1248
I7
F0.75
g1652
I0
tp4836
a(I1248
I7
F1.0
g1654
I0
tp4837
a(I1315
I20
F1.0
g4720
I0
tp4838
a(I1349
I11
F1.0
S'good'
p4839
I0
tp4840
a(I1356
I1
F1.0
g1660
I0
tp4841
a(I1356
I1
I0
g1662
I0
tp4842
a(I1359
I3
F1.0
g4726
I0
tp4843
a(I1362
I2
F1.0
g1664
I0
tp4844
a(I1439
I3
F1.0
g4170
I0
tp4845
a(I1488
I18
F1.0
g4728
I0
tp4846
a(I1501
I0
F0.75
g1668
I0
tp4847
a(I1549
I1
F1.0
g202
I0
tp4848
a(I1589
I1
F1.0
g1670
I0
tp4849
a(I1590
I1
F1.0
g4730
I0
tp4850
a(I1590
I1
F0.875
g4732
I0
tp4851
a(I1618
I0
F1.0
g204
I0
tp4852
a(I1680
I2
F1.0
S'good'
p4853
I0
tp4854
a(I1681
I9
F-1.0
g4734
I0
tp4855
a(I1684
I1
F-0.875
g4740
I0
tp4856
a(I1734
I2
F1.0
S'good'
p4857
I0
tp4858
a(I1796
I1
F1.0
g4742
I0
tp4859
a(I1832
I2
F1.0
S'good'
p4860
I0
tp4861
a(I1840
I34
F1.0
g4174
I0
tp4862
a(I1840
I34
I0
g4176
I0
tp4863
a(I1901
I2
I0
g4744
I0
tp4864
a(I1901
I2
F-0.875
g4746
I0
tp4865
a(I1909
I4
F1.0
g4748
I0
tp4866
a(I1970
I1
F1.0
g4750
I0
tp4867
a(I1979
I0
F1.0
S'good'
p4868
I0
tp4869
a(I2008
I0
F0.375
g4752
I0
tp4870
a(I2008
I0
F1.0
g4754
I0
tp4871
a(I2051
I6
F1.0
g4757
I0
tp4872
a(I2051
I6
F0.625
g4759
I0
tp4873
a(I2086
I0
F1.0
S'good'
p4874
I0
tp4875
a(I2120
I8
F1.0
S'good'
p4876
I0
tp4877
a(I2140
I4
F1.0
S'excellent'
p4878
I0
tp4879
a(I2150
I8
F1.0
S'good'
p4880
I0
tp4881
a(I2150
I8
F1.0
S'good'
p4882
I0
tp4883
a(I2155
I3
F1.0
S'good'
p4884
I0
tp4885
a(I2155
I4
F1.0
S'good'
p4886
I0
tp4887
a(I2173
I0
F1.0
g4761
I0
tp4888
a(I2174
I1
F0.75
S'premium'
p4889
I0
tp4890
a(I2175
I1
F0.875
g4763
I0
tp4891
a(I2175
I1
F1.0
g4765
I0
tp4892
a(I2195
I7
F1.0
g4767
I0
tp4893
a(I2202
I0
F1.0
g4771
I0
tp4894
a(I2203
I1
F0.75
g1680
I0
tp4895
a(I2203
I1
F1.0
g1682
I0
tp4896
a(I2214
I0
F1.0
S'good'
p4897
I0
tp4898
a(I2215
I0
I0
g4773
I0
tp4899
a(I2215
I0
F1.0
g4775
I0
tp4900
a(I2234
I2
I0
g4777
I0
tp4901
a(I95
I4
F1.0
S'good'
p4902
I3
tp4903
a(I288
I0
I0
g2486
I3
tp4904
a(I288
I0
F-0.875
g2488
I3
tp4905
a(I288
I0
F-0.125
g2490
I3
tp4906
a(I309
I72
F1.0
g2494
I3
tp4907
a(I421
I0
I0
S'rear'
p4908
I3
tp4909
a(I421
I1
F1.0
S'good'
p4910
I3
tp4911
a(I449
I10
F1.0
S'good'
p4912
I3
tp4913
a(I449
I10
F1.0
S'best'
p4914
I3
tp4915
a(I507
I1
F1.0
S'good'
p4916
I3
tp4917
a(I550
I12
F1.0
g4696
I3
tp4918
a(I550
I34
F0.875
g2500
I3
tp4919
a(I566
I5
F-0.625
S'average'
p4920
I3
tp4921
a(I591
I7
F1.0
S'good'
p4922
I3
tp4923
a(I591
I7
F-0.625
S'average'
p4924
I3
tp4925
a(I601
I1
F1.0
S'good'
p4926
I3
tp4927
a(I607
I1
F-0.125
g2502
I3
tp4928
a(I607
I1
F-0.125
g2504
I3
tp4929
a(I607
I1
F1.0
g2506
I3
tp4930
a(I616
I5
F1.0
S'good'
p4931
I3
tp4932
a(I616
I18
I0
g246
I3
tp4933
a(I616
I18
F-0.625
g248
I3
tp4934
a(I616
I18
F-0.625
g252
I3
tp4935
a(I616
I19
F1.0
g4702
I3
tp4936
a(I616
I20
F-0.125
S'overall'
p4937
I3
tp4938
a(I616
I20
F1.0
S'good'
p4939
I3
tp4940
a(I616
I20
F1.0
S'good'
p4941
I3
tp4942
a(I685
I0
F1.0
S'good'
p4943
I3
tp4944
a(I743
I3
F-0.125
g2514
I3
tp4945
a(I763
I10
F1.0
S'good'
p4946
I3
tp4947
a(I766
I35
F1.0
S'good'
p4948
I3
tp4949
a(I796
I5
F-0.625
g256
I3
tp4950
a(I808
I2
F-0.625
S'average'
p4951
I3
tp4952
a(I808
I2
F1.0
S'good'
p4953
I3
tp4954
a(I808
I2
F-1.0
S'bad'
p4955
I3
tp4956
a(I810
I1
F-0.375
g268
I3
tp4957
a(I853
I3
F1.0
g2522
I3
tp4958
a(I882
I33
F1.0
g2524
I3
tp4959
a(I899
I5
F1.0
S'good'
p4960
I3
tp4961
a(I903
I20
F-1.0
S'bad'
p4962
I3
tp4963
a(I903
I20
F-0.875
S'cheap'
p4964
I3
tp4965
a(I903
I20
I0
S'mp'
p4966
I3
tp4967
a(I913
I7
F1.0
S'good'
p4968
I3
tp4969
a(I915
I3
F1.0
S'good'
p4970
I3
tp4971
a(I955
I2
F1.0
S'good'
p4972
I3
tp4973
a(I1043
I4
F1.0
S'good'
p4974
I3
tp4975
a(I1102
I5
F1.0
S'good'
p4976
I3
tp4977
a(I1108
I19
F1.0
g270
I3
tp4978
a(I1143
I1
F0.375
g2534
I3
tp4979
a(I1143
I1
F-0.125
g2536
I3
tp4980
a(I1147
I17
F1.0
g2538
I3
tp4981
a(I1147
I17
F-0.875
g2540
I3
tp4982
a(I1150
I0
F1.0
S'good'
p4983
I3
tp4984
a(I1167
I2
F1.0
S'good'
p4985
I3
tp4986
a(I1171
I3
F-0.125
g2546
I3
tp4987
a(I1205
I3
F1.0
S'good'
p4988
I3
tp4989
a(I1206
I0
I0
g272
I3
tp4990
a(I1206
I0
F1.0
g274
I3
tp4991
a(I1207
I20
F1.0
g2554
I3
tp4992
a(I1217
I1
F1.0
S'good'
p4993
I3
tp4994
a(I1248
I5
F1.0
g276
I3
tp4995
a(I1248
I6
F-0.125
g278
I3
tp4996
a(I1248
I6
F1.0
g280
I3
tp4997
a(I1336
I31
F0.875
g4722
I3
tp4998
a(I1341
I5
F1.0
g4724
I3
tp4999
a(I1341
I7
F1.0
g282
I3
tp5000
a(I1348
I19
F0.875
S'right'
p5001
I3
tp5002
a(I1391
I0
F1.0
S'good'
p5003
I3
tp5004
a(I1391
I0
F1.0
S'good'
p5005
I3
tp5006
a(I1427
I5
F0.875
S'decent'
p5007
I3
tp5008
a(I1460
I2
F1.0
S'good'
p5009
I3
tp5010
a(I1471
I20
F1.0
S'good'
p5011
I3
tp5012
a(I1471
I20
I0
S'u'
p5013
I3
tp5014
a(I1540
I0
I0
S'descent'
p5015
I3
tp5016
a(I1568
I1
F-1.0
g286
I3
tp5017
a(I1568
I1
F1.0
g288
I3
tp5018
a(I1578
I1
I0
S'u'
p5019
I3
tp5020
a(I1578
I1
F1.0
S'good'
p5021
I3
tp5022
a(I1584
I8
F1.0
S'good'
p5023
I3
tp5024
a(I1635
I0
F-0.125
g2580
I3
tp5025
a(I1635
I0
F-1.0
g2582
I3
tp5026
a(I1664
I0
I0
S'normal'
p5027
I3
tp5028
a(I1681
I9
F1.0
g4736
I3
tp5029
a(I1684
I1
F0.875
g4738
I3
tp5030
a(I1707
I15
F1.0
S'good'
p5031
I3
tp5032
a(I1725
I1
F1.0
g290
I3
tp5033
a(I1748
I7
F1.0
S'good'
p5034
I3
tp5035
a(I1804
I7
F1.0
S'good'
p5036
I3
tp5037
a(I1810
I14
F1.0
g292
I3
tp5038
a(I1847
I1
F1.0
S'good'
p5039
I3
tp5040
a(I1937
I3
F1.0
S'excellent'
p5041
I3
tp5042
a(I1940
I4
F1.0
S'good'
p5043
I3
tp5044
a(I1941
I4
F1.0
S'good'
p5045
I3
tp5046
a(I2013
I12
F1.0
S'good'
p5047
I3
tp5048
a(I2018
I9
F1.0
g2589
I3
tp5049
a(I2051
I1
F1.0
S'good'
p5050
I3
tp5051
a(I2051
I1
F0.875
S'awesome'
p5052
I3
tp5053
a(I2066
I1
F1.0
S'good'
p5054
I3
tp5055
a(I2072
I1
F1.0
S'good'
p5056
I3
tp5057
a(I2085
I0
F1.0
S'good'
p5058
I3
tp5059
a(I2088
I0
F1.0
S'good'
p5060
I3
tp5061
a(I2099
I1
F1.0
S'good'
p5062
I3
tp5063
a(I2118
I5
F1.0
S'good'
p5064
I3
tp5065
a(I2118
I5
F1.0
S'good'
p5066
I3
tp5067
a(I2131
I3
F1.0
S'good'
p5068
I3
tp5069
a(I2146
I0
F1.0
S'good'
p5070
I3
tp5071
a(I2156
I8
F1.0
S'good'
p5072
I3
tp5073
a(I2177
I15
F1.0
S'good'
p5074
I3
tp5075
a(I2177
I15
F0.75
S'primary'
p5076
I3
tp5077
a(I2177
I15
F-0.75
S'secondary'
p5078
I3
tp5079
a(I2201
I0
F-0.5
S'heavy'
p5080
I3
tp5081
a(I2202
I0
F1.0
g4769
I3
tp5082
a(I2225
I0
F-0.875
S'poor'
p5083
I3
tp5084
a(I54
I1
F-0.875
S'poor'
p5085
I14
tp5086
a(I54
I1
F0.125
S'indoor'
p5087
I14
tp5088
a(I97
I2
F-0.875
S'poor'
p5089
I14
tp5090
a(I129
I5
F-0.5
S'dissatisfied'
p5091
I14
tp5092
a(I162
I1
F-0.5
g158
I14
tp5093
a(I232
I3
F-0.875
S'pathetic'
p5094
I14
tp5095
a(I234
I4
F-1.0
S'worst'
p5096
I14
tp5097
a(I234
I7
F0.875
S'great'
p5098
I14
tp5099
a(I234
I7
F-1.0
S'bad'
p5100
I14
tp5101
a(I288
I0
F0.125
g4150
I14
tp5102
a(I288
I0
I0
g2486
I14
tp5103
a(I288
I0
F-0.875
g2488
I14
tp5104
a(I288
I0
F-0.125
g2490
I14
tp5105
a(I376
I6
F-0.75
S'disappointing'
p5106
I14
tp5107
a(I390
I6
F-0.875
S'pathetic'
p5108
I14
tp5109
a(I479
I6
F1.0
g244
I14
tp5110
a(I479
I13
F-0.625
S'sharp'
p5111
I14
tp5112
a(I504
I17
F-1.0
g4694
I14
tp5113
a(I531
I0
F-0.875
S'poor'
p5114
I14
tp5115
a(I542
I2
F-1.0
S'bad'
p5116
I14
tp5117
a(I550
I12
F1.0
g4696
I14
tp5118
a(I566
I3
I0
g4205
I14
tp5119
a(I577
I51
F-0.5
g174
I14
tp5120
a(I597
I1
F-0.875
S'poor'
p5121
I14
tp5122
a(I597
I1
F0.125
S'indoor'
p5123
I14
tp5124
a(I616
I18
I0
g246
I14
tp5125
a(I616
I18
F-0.625
g248
I14
tp5126
a(I616
I18
F1.0
g250
I14
tp5127
a(I616
I18
F-0.625
g252
I14
tp5128
a(I616
I19
F1.0
g4702
I14
tp5129
a(I616
I19
F0.5
g4704
I14
tp5130
a(I700
I1
F1.0
g254
I14
tp5131
a(I704
I2
F0.875
S'decent'
p5132
I14
tp5133
a(I764
I0
F-1.0
S'bad'
p5134
I14
tp5135
a(I764
I0
F0.125
S'mobile'
p5136
I14
tp5137
a(I796
I5
F-0.625
g256
I14
tp5138
a(I896
I14
F0.875
g258
I14
tp5139
a(I896
I14
F-1.0
g260
I14
tp5140
a(I916
I17
I0
g4708
I14
tp5141
a(I916
I17
F1.0
g4710
I14
tp5142
a(I918
I0
F0.5
S'uncommon'
p5143
I14
tp5144
a(I1014
I12
F1.0
g4712
I14
tp5145
a(I1025
I3
F0.5
g262
I14
tp5146
a(I1026
I39
F-0.375
S'stress'
p5147
I14
tp5148
a(I1026
I39
F-0.375
S'exceptional'
p5149
I14
tp5150
a(I1068
I1
F-1.0
S'bad'
p5151
I14
tp5152
a(I1068
I2
F1.0
g4714
I14
tp5153
a(I1096
I1
F-0.875
S'poor'
p5154
I14
tp5155
a(I1096
I1
F0.125
S'indoor'
p5156
I14
tp5157
a(I1108
I0
I0
S'rear'
p5158
I14
tp5159
a(I1113
I5
F-1.0
g2532
I14
tp5160
a(I1210
I0
F-0.625
S'average'
p5161
I14
tp5162
a(I1225
I2
F-1.0
g4716
I14
tp5163
a(I1248
I7
F0.75
g1652
I14
tp5164
a(I1248
I7
F1.0
g1654
I14
tp5165
a(I1248
I16
F-0.75
S'little'
p5166
I14
tp5167
a(I1248
I16
F-0.5
S'dull'
p5168
I14
tp5169
a(I1252
I0
F-0.875
S'poor'
p5170
I14
tp5171
a(I1255
I1
F-0.875
S'poor'
p5172
I14
tp5173
a(I1315
I20
F1.0
g4720
I14
tp5174
a(I1329
I1
F-0.625
S'average'
p5175
I14
tp5176
a(I1336
I31
F0.875
g4722
I14
tp5177
a(I1341
I5
F1.0
g4724
I14
tp5178
a(I1348
I3
F-1.0
S'bad'
p5179
I14
tp5180
a(I1359
I3
F1.0
g4726
I14
tp5181
a(I1488
I18
F1.0
g4728
I14
tp5182
a(I1510
I7
F1.0
S'excellent'
p5183
I14
tp5184
a(I1545
I1
I0
g4270
I14
tp5185
a(I1545
I1
F-0.625
S'average'
p5186
I14
tp5187
a(I1545
I1
I0
g4272
I14
tp5188
a(I1545
I1
F-0.5
g4274
I14
tp5189
a(I1565
I0
F-0.625
S'average'
p5190
I14
tp5191
a(I1590
I1
F1.0
g4730
I14
tp5192
a(I1590
I1
F0.875
g4732
I14
tp5193
a(I1679
I6
F0.375
S'available'
p5194
I14
tp5195
a(I1679
I6
F-0.875
S'poor'
p5196
I14
tp5197
a(I1681
I9
F-1.0
g4734
I14
tp5198
a(I1681
I9
F1.0
g4736
I14
tp5199
a(I1684
I1
F0.875
g4738
I14
tp5200
a(I1684
I1
F-0.875
g4740
I14
tp5201
a(I1796
I1
F1.0
g4742
I14
tp5202
a(I1842
I12
F-0.875
S'poor'
p5203
I14
tp5204
a(I1847
I3
F-0.875
S'low'
p5205
I14
tp5206
a(I1872
I2
F-0.875
S'poor'
p5207
I14
tp5208
a(I1901
I2
I0
g4744
I14
tp5209
a(I1901
I2
F-0.875
g4746
I14
tp5210
a(I1903
I0
F-0.875
S'low'
p5211
I14
tp5212
a(I1909
I4
F1.0
g4748
I14
tp5213
a(I1970
I1
F1.0
g4750
I14
tp5214
a(I1984
I3
F-0.625
S'average'
p5215
I14
tp5216
a(I2008
I0
F0.375
g4752
I14
tp5217
a(I2008
I0
F1.0
g4754
I14
tp5218
a(I2018
I9
F1.0
g2589
I14
tp5219
a(I2051
I6
F1.0
g4757
I14
tp5220
a(I2051
I6
F0.625
g4759
I14
tp5221
a(I2133
I0
F0.875
S'nice'
p5222
I14
tp5223
a(I2173
I0
F1.0
g4761
I14
tp5224
a(I2175
I1
F0.875
g4763
I14
tp5225
a(I2175
I1
F1.0
g4765
I14
tp5226
a(I2195
I7
F1.0
g4767
I14
tp5227
a(I2202
I0
F1.0
g4769
I14
tp5228
a(I2202
I0
F1.0
g4771
I14
tp5229
a(I2215
I0
I0
g4773
I14
tp5230
a(I2215
I0
F1.0
g4775
I14
tp5231
a(I2215
I3
F-0.75
S'little'
p5232
I14
tp5233
a(I2215
I3
I0
S'update'
p5234
I14
tp5235
a(I2234
I2
I0
g4777
I14
tp5236
as(S'wide'
p5237
S'angle'
p5238
tp5239
(lp5240
(I1336
I19
F-0.625
S'wide'
p5241
I0
tp5242
a(I1583
I14
F-0.625
S'wide'
p5243
I0
tp5244
a(I1583
I14
I0
S'fr'
p5245
I0
tp5246
as(S'3gb'
p5247
S'ram'
p5248
tp5249
(lp5250
(I466
I1
F0.125
g3011
I0
tp5251
a(I550
I35
F0.75
g2976
I0
tp5252
a(I1336
I14
F0.375
g2996
I0
tp5253
a(I1463
I4
F0.5
g2998
I0
tp5254
a(I1574
I7
F-0.875
g3059
I0
tp5255
a(I1741
I1
I0
g3061
I0
tp5256
a(I1788
I31
F0.375
g3065
I0
tp5257
a(I2181
I6
F0.375
g3073
I0
tp5258
as(S'low'
p5259
S'light'
p5260
S'conditions'
p5261
tp5262
(lp5263
(I4
I23
F-0.875
g1740
I0
tp5264
a(I4
I23
F-0.125
S'lighting'
p5265
I0
tp5266
a(I4
I26
I0
S'light'
p5267
I0
tp5268
a(I232
I3
F-0.875
S'low'
p5269
I0
tp5270
a(I232
I3
I0
S'light'
p5271
I0
tp5272
a(I577
I22
I0
S'light'
p5273
I0
tp5274
a(I577
I22
F-1.0
S'bad'
p5275
I0
tp5276
a(I577
I22
F-0.875
S'low'
p5277
I0
tp5278
a(I577
I22
I0
S'light'
p5279
I0
tp5280
a(I827
I1
I0
S'light'
p5281
I0
tp5282
a(I853
I3
F-0.875
g1778
I0
tp5283
a(I853
I3
I0
g1780
I0
tp5284
a(I853
I3
F-0.625
g1782
I0
tp5285
a(I853
I3
I0
S'light'
p5286
I0
tp5287
a(I1139
I2
I0
S'light'
p5288
I0
tp5289
a(I1171
I1
F-0.875
g1794
I0
tp5290
a(I1336
I49
F-0.875
g1798
I0
tp5291
a(I1336
I49
F-0.125
S'lighting'
p5292
I0
tp5293
a(I1336
I53
I0
S'light'
p5294
I0
tp5295
a(I1341
I4
F-0.875
g1800
I0
tp5296
a(I1488
I18
F1.0
S'good'
p5297
I0
tp5298
a(I1488
I18
F-0.875
S'low'
p5299
I0
tp5300
a(I1488
I18
I0
S'light'
p5301
I0
tp5302
a(I1488
I18
F0.625
S'acceptable'
p5303
I0
tp5304
a(I4
I23
F-0.875
g1740
I2
tp5305
a(I95
I4
F-0.875
S'low'
p5306
I2
tp5307
a(I234
I7
F-0.875
g1742
I2
tp5308
a(I234
I7
F-0.875
g1744
I2
tp5309
a(I353
I5
F-0.875
g1746
I2
tp5310
a(I421
I1
F-0.875
S'low'
p5311
I2
tp5312
a(I479
I6
F-0.875
g1748
I2
tp5313
a(I479
I14
F-0.875
g1750
I2
tp5314
a(I543
I0
F-0.875
S'low'
p5315
I2
tp5316
a(I584
I2
F-0.875
g1752
I2
tp5317
a(I591
I7
F1.0
g1754
I2
tp5318
a(I591
I7
F-0.875
g1756
I2
tp5319
a(I609
I1
F-0.875
g1758
I2
tp5320
a(I609
I1
F-0.75
g1760
I2
tp5321
a(I615
I28
F-0.875
g1762
I2
tp5322
a(I615
I28
F-1.0
g1764
I2
tp5323
a(I655
I6
F-0.875
g1766
I2
tp5324
a(I816
I9
F-0.875
g1768
I2
tp5325
a(I816
I9
F-0.5
g1770
I2
tp5326
a(I816
I9
F-0.75
g1772
I2
tp5327
a(I847
I1
F0.625
g1774
I2
tp5328
a(I847
I1
F-0.875
g1776
I2
tp5329
a(I853
I3
F-0.875
g1778
I2
tp5330
a(I853
I3
I0
g1780
I2
tp5331
a(I853
I3
F-0.625
g1782
I2
tp5332
a(I933
I5
F-0.875
g1784
I2
tp5333
a(I933
I5
F0.875
g1786
I2
tp5334
a(I1067
I16
F-0.875
g1788
I2
tp5335
a(I1108
I0
F-0.875
g1790
I2
tp5336
a(I1113
I6
F-0.875
g1792
I2
tp5337
a(I1171
I1
F-0.875
g1794
I2
tp5338
a(I1177
I2
F-0.875
g1796
I2
tp5339
a(I1336
I49
F-0.875
g1798
I2
tp5340
a(I1341
I4
F-0.875
g1800
I2
tp5341
a(I1350
I3
F-0.875
g1802
I2
tp5342
a(I1350
I3
F-0.625
g1804
I2
tp5343
a(I1350
I3
F-0.25
g1806
I2
tp5344
a(I1359
I3
F-0.875
g1808
I2
tp5345
a(I1376
I0
F-0.875
g1810
I2
tp5346
a(I1427
I6
F-0.875
g1812
I2
tp5347
a(I1510
I18
F-0.875
g1814
I2
tp5348
a(I1540
I0
F-0.875
g1816
I2
tp5349
a(I1540
I0
F-0.625
g1818
I2
tp5350
a(I1540
I0
F1.0
g1820
I2
tp5351
a(I1550
I1
F0.875
g1822
I2
tp5352
a(I1550
I1
F-0.875
g1824
I2
tp5353
a(I1560
I1
I0
g1826
I2
tp5354
a(I1578
I4
F-0.875
S'low'
p5355
I2
tp5356
a(I1878
I1
F-0.875
g1828
I2
tp5357
a(I1913
I17
F-0.875
g1830
I2
tp5358
a(I1913
I17
F1.0
g1832
I2
tp5359
a(I2198
I1
F-0.875
S'low'
p5360
I2
tp5361
a(I4
I23
F-0.875
g1740
I14
tp5362
a(I95
I4
F-0.875
g5306
I14
tp5363
a(I207
I28
F1.0
S'good'
p5364
I14
tp5365
a(I207
I28
F0.125
S'outdoor'
p5366
I14
tp5367
a(I207
I28
F1.0
S'good'
p5368
I14
tp5369
a(I234
I7
F-0.875
g1742
I14
tp5370
a(I234
I7
F-0.875
g1744
I14
tp5371
a(I353
I5
F-0.875
g1746
I14
tp5372
a(I421
I1
F-0.875
g5311
I14
tp5373
a(I479
I6
F-0.875
g1748
I14
tp5374
a(I479
I14
F-0.875
g1750
I14
tp5375
a(I543
I0
F-0.875
g5315
I14
tp5376
a(I584
I2
F-0.875
g1752
I14
tp5377
a(I591
I7
F1.0
g1754
I14
tp5378
a(I591
I7
F-0.875
g1756
I14
tp5379
a(I609
I1
F-0.875
g1758
I14
tp5380
a(I609
I1
F-0.75
g1760
I14
tp5381
a(I615
I28
F-0.875
g1762
I14
tp5382
a(I615
I28
F-1.0
g1764
I14
tp5383
a(I655
I6
F-0.875
g1766
I14
tp5384
a(I816
I8
I0
S'bright'
p5385
I14
tp5386
a(I816
I9
F-0.875
g1768
I14
tp5387
a(I816
I9
F-0.5
g1770
I14
tp5388
a(I816
I9
F-0.75
g1772
I14
tp5389
a(I847
I1
F0.625
g1774
I14
tp5390
a(I847
I1
F-0.875
g1776
I14
tp5391
a(I853
I3
F-0.875
g1778
I14
tp5392
a(I853
I3
I0
g1780
I14
tp5393
a(I853
I3
F-0.625
g1782
I14
tp5394
a(I896
I15
F-0.625
S'natural'
p5395
I14
tp5396
a(I933
I5
F-0.875
g1784
I14
tp5397
a(I933
I5
F0.875
g1786
I14
tp5398
a(I1067
I16
F-0.875
g1788
I14
tp5399
a(I1108
I0
F-0.875
g1790
I14
tp5400
a(I1108
I1
F-0.75
S'sufficient'
p5401
I14
tp5402
a(I1113
I6
F-0.875
g1792
I14
tp5403
a(I1171
I1
F-0.875
g1794
I14
tp5404
a(I1177
I2
F-0.875
g1796
I14
tp5405
a(I1203
I1
F0.375
S'ok'
p5406
I14
tp5407
a(I1210
I1
F-0.625
S'natural'
p5408
I14
tp5409
a(I1225
I2
F-0.75
S'artificial'
p5410
I14
tp5411
a(I1336
I49
F-0.875
g1798
I14
tp5412
a(I1341
I4
F-0.875
g1800
I14
tp5413
a(I1350
I3
F-0.875
g1802
I14
tp5414
a(I1350
I3
F-0.625
g1804
I14
tp5415
a(I1350
I3
F-0.25
g1806
I14
tp5416
a(I1359
I3
F-0.875
g1808
I14
tp5417
a(I1373
I0
F0.5
S'visible'
p5418
I14
tp5419
a(I1376
I0
F-0.875
g1810
I14
tp5420
a(I1423
I2
F1.0
S'good'
p5421
I14
tp5422
a(I1427
I6
F-0.875
g1812
I14
tp5423
a(I1510
I18
F-0.875
g1814
I14
tp5424
a(I1540
I0
F-0.875
g1816
I14
tp5425
a(I1540
I0
F-0.625
g1818
I14
tp5426
a(I1540
I0
F1.0
g1820
I14
tp5427
a(I1550
I1
F0.875
g1822
I14
tp5428
a(I1550
I1
F-0.875
g1824
I14
tp5429
a(I1560
I1
I0
g1826
I14
tp5430
a(I1578
I4
F-0.875
g5355
I14
tp5431
a(I1878
I1
F-0.875
g1828
I14
tp5432
a(I1913
I17
F-0.875
g1830
I14
tp5433
a(I1913
I17
F1.0
g1832
I14
tp5434
a(I2116
I11
F1.0
S'good'
p5435
I14
tp5436
a(I2116
I11
F0.375
S'available'
p5437
I14
tp5438
a(I2198
I1
F-0.875
g5360
I14
tp5439
as(S'usb'
p5440
S'type'
p5441
S'c'
p5442
tp5443
(lp5444
(I754
I2
I0
S'type'
p5445
I0
tp5446
a(I1054
I2
F-0.625
S'fast'
p5447
I0
tp5448
a(I1147
I14
F-0.875
S'rare'
p5449
I0
tp5450
a(I473
I27
I0
S'impressed'
p5451
I0
tp5452
a(I496
I0
I0
S'type'
p5453
I0
tp5454
a(I587
I1
I0
S'standard'
p5455
I0
tp5456
a(I604
I3
F-0.375
S'same'
p5457
I0
tp5458
a(I616
I19
F0.375
S'ok'
p5459
I0
tp5460
a(I754
I2
I0
g5445
I0
tp5461
a(I963
I1
I0
S'c'
p5462
I0
tp5463
a(I1539
I0
I0
S'type'
p5464
I0
tp5465
a(I1744
I6
I0
S'type'
p5466
I0
tp5467
a(I1754
I9
I0
S'type'
p5468
I0
tp5469
as(S'device'
p5470
tp5471
(lp5472
(I65
I1
I0
S'ur'
p5473
I11
tp5474
a(I65
I1
F-0.25
S'previous'
p5475
I11
tp5476
a(I98
I1
I0
S'only'
p5477
I11
tp5478
a(I103
I13
F-0.375
S'appealing'
p5479
I11
tp5480
a(I103
I13
F-0.625
S'real'
p5481
I11
tp5482
a(I226
I2
I0
S'electronic'
p5483
I11
tp5484
a(I226
I2
F0.375
S'much'
p5485
I11
tp5486
a(I337
I1
F1.0
S'good'
p5487
I11
tp5488
a(I386
I0
F0.25
S'able'
p5489
I11
tp5490
a(I467
I1
I0
S'electronic'
p5491
I11
tp5492
a(I528
I10
F0.125
S'ios'
p5493
I11
tp5494
a(I550
I32
F-0.25
S'past'
p5495
I11
tp5496
a(I607
I3
I0
S'handy'
p5497
I11
tp5498
a(I761
I3
F0.875
S'happy'
p5499
I11
tp5500
a(I877
I5
F0.5
S'compatible'
p5501
I11
tp5502
a(I877
I5
F-0.75
S'warm'
p5503
I11
tp5504
a(I877
I5
I0
S'normal'
p5505
I11
tp5506
a(I894
I30
I0
S'more'
p5507
I11
tp5508
a(I899
I14
F1.0
S'good'
p5509
I11
tp5510
a(I933
I8
F0.875
S'great'
p5511
I11
tp5512
a(I981
I2
F1.0
S'excellent'
p5513
I11
tp5514
a(I1025
I26
F0.75
S'perfect'
p5515
I11
tp5516
a(I1027
I1
F1.0
S'good'
p5517
I11
tp5518
a(I1067
I10
F-0.25
S'i'
p5519
I11
tp5520
a(I1069
I3
F-0.875
S'unhappy'
p5521
I11
tp5522
a(I1069
I3
F0.625
S'fine'
p5523
I11
tp5524
a(I1114
I6
F0.875
S'happy'
p5525
I11
tp5526
a(I1114
I6
F-0.625
S'relaxed'
p5527
I11
tp5528
a(I1114
I6
F-0.75
S'defective'
p5529
I11
tp5530
a(I1114
I7
F-0.5
S'replaced'
p5531
I11
tp5532
a(I1115
I0
F-0.875
S'stuck'
p5533
I11
tp5534
a(I1139
I3
F0.5
S'polished'
p5535
I11
tp5536
a(I1170
I3
F1.0
S'best'
p5537
I11
tp5538
a(I1372
I1
F0.875
S'brilliant'
p5539
I11
tp5540
a(I1466
I7
F0.875
S'amazing'
p5541
I11
tp5542
a(I1584
I1
F0.5
S'high'
p5543
I11
tp5544
a(I1756
I0
I0
S'ur'
p5545
I11
tp5546
a(I1809
I1
I0
S'only'
p5547
I11
tp5548
a(I1810
I9
F0.875
S'brilliant'
p5549
I11
tp5550
a(I1840
I24
I0
S'more'
p5551
I11
tp5552
a(I1840
I24
F0.875
S'important'
p5553
I11
tp5554
a(I1840
I24
F0.375
S'working'
p5555
I11
tp5556
a(I2127
I0
F1.0
S'good'
p5557
I11
tp5558
a(I2127
I0
F0.5
S'slim'
p5559
I11
tp5560
a(I2150
I6
F0.875
S'happy'
p5561
I11
tp5562
a(I2150
I6
F1.0
S'excellent'
p5563
I11
tp5564
a(I2158
I0
F-0.875
S'cheap'
p5565
I11
tp5566
a(I2158
I0
F0.5
S'compatible'
p5567
I11
tp5568
a(I2190
I0
F0.75
S'beautiful'
p5569
I11
tp5570
a(I2211
I0
F0.75
S'premium'
p5571
I11
tp5572
as(S'heavy'
p5573
tp5574
(lp5575
(I317
I2
F-0.75
S'little'
p5576
I2
tp5577
a(I317
I2
F-0.25
S'ram'
p5578
I2
tp5579
a(I528
I3
F-0.75
S'little'
p5580
I2
tp5581
a(I528
I3
F-0.5
S'heavy'
p5582
I2
tp5583
a(I1025
I19
F0.125
S'mobile'
p5584
I2
tp5585
a(I1373
I8
F0.75
S'easy'
p5586
I2
tp5587
as(S'buy'
p5588
S'for'
p5589
S'camera'
p5590
tp5591
(lp5592
(I174
I1
F-1.0
S'bad'
p5593
I0
tp5594
as(S'awesome'
p5595
tp5596
(lp5597
(I591
I0
F0.875
S'great'
p5598
I6
tp5599
a(I1003
I3
F-0.25
S'device'
p5600
I6
tp5601
a(I1003
I4
I0
S'metallic'
p5602
I6
tp5603
a(I1132
I1
F-0.125
S'cant'
p5604
I6
tp5605
a(I1132
I1
F1.0
S'better'
p5606
I6
tp5607
a(I1633
I0
F-0.125
S'overall'
p5608
I6
tp5609
a(I1861
I5
I0
S's'
p5610
I6
tp5611
as(S'charger'
p5612
tp5613
(lp5614
(I66
I7
F-0.375
S'same'
p5615
I16
tp5616
a(I78
I1
I0
S'bulky'
p5617
I16
tp5618
a(I87
I2
F-0.625
S'fast'
p5619
I16
tp5620
a(I121
I1
F-0.625
S'fast'
p5621
I16
tp5622
a(I308
I22
F0.75
S'beautiful'
p5623
I16
tp5624
a(I308
I22
F0.5
S'effective'
p5625
I16
tp5626
a(I754
I2
F0.875
S'awesome'
p5627
I16
tp5628
a(I803
I13
F0.125
S'supplied'
p5629
I16
tp5630
a(I803
I13
F1.0
S'best'
p5631
I16
tp5632
a(I815
I12
I0
S'big'
p5633
I16
tp5634
a(I864
I1
I0
S'bulky'
p5635
I16
tp5636
a(I864
I1
F-0.5
S'heavy'
p5637
I16
tp5638
a(I1005
I9
F-0.625
S'fast'
p5639
I16
tp5640
a(I1025
I21
F-0.625
S'fast'
p5641
I16
tp5642
a(I1026
I42
F-0.625
S'fast'
p5643
I16
tp5644
a(I1174
I6
I0
S'watt'
p5645
I16
tp5646
a(I1274
I1
F-0.625
S'fast'
p5647
I16
tp5648
a(I1427
I25
F-0.625
S'fast'
p5649
I16
tp5650
a(I1584
I4
I0
S'watt'
p5651
I16
tp5652
a(I1729
I3
I0
S'different'
p5653
I16
tp5654
a(I1729
I3
F-0.625
S'fast'
p5655
I16
tp5656
a(I1742
I22
I0
S'normal'
p5657
I16
tp5658
a(I1746
I1
F0.25
S'portable'
p5659
I16
tp5660
a(I1748
I6
F-0.625
S'fast'
p5661
I16
tp5662
a(I1748
I6
I0
S'hot'
p5663
I16
tp5664
a(I1748
I6
F-0.625
S'average'
p5665
I16
tp5666
a(I1748
I6
F-0.25
S'i'
p5667
I16
tp5668
a(I1748
I6
F0.5
S'old'
p5669
I16
tp5670
a(I1862
I24
F-0.125
S'universal'
p5671
I16
tp5672
a(I1904
I0
I0
S't'
p5673
I16
tp5674
as(S'review'
p5675
tp5676
(lp5677
(I117
I5
F-0.75
S'confused'
p5678
I8
tp5679
a(I207
I34
I0
S'update'
p5680
I8
tp5681
a(I220
I0
F0.5
S'detailed'
p5682
I8
tp5683
a(I419
I1
I0
S's'
p5684
I8
tp5685
a(I419
I1
I0
S'quick'
p5686
I8
tp5687
a(I423
I24
F-0.625
S'other'
p5688
I8
tp5689
a(I448
I7
F0.75
S'whole'
p5690
I8
tp5691
a(I476
I27
F0.5
S'second'
p5692
I8
tp5693
a(I520
I0
F-0.636
S'genuine'
p5694
I8
tp5695
a(I656
I2
F0.25
S'helpful'
p5696
I8
tp5697
a(I748
I3
F0.375
S'full'
p5698
I8
tp5699
a(I812
I3
I0
S'useful'
p5700
I8
tp5701
a(I822
I1
I0
S's'
p5702
I8
tp5703
a(I980
I1
F0.375
S'full'
p5704
I8
tp5705
a(I1083
I21
F0.625
S'first'
p5706
I8
tp5707
a(I1122
I2
F0.75
S'honest'
p5708
I8
tp5709
a(I1173
I0
F0.125
S'justified'
p5710
I8
tp5711
a(I1173
I0
F-0.125
S'overall'
p5712
I8
tp5713
a(I1194
I0
F-0.636
S'genuine'
p5714
I8
tp5715
a(I1205
I5
F-0.875
S'negative'
p5716
I8
tp5717
a(I1224
I4
F-0.125
S'overall'
p5718
I8
tp5719
a(I1349
I20
F0.5
S'true'
p5720
I8
tp5721
a(I1352
I14
I0
S'update'
p5722
I8
tp5723
a(I1372
I6
F-0.125
S'overall'
p5724
I8
tp5725
a(I1373
I14
F0.75
S'honest'
p5726
I8
tp5727
a(I1510
I14
F0.375
S'full'
p5728
I8
tp5729
a(I1510
I20
F1.0
S'good'
p5730
I8
tp5731
a(I1519
I1
F-0.25
S'mixed'
p5732
I8
tp5733
a(I1640
I0
I0
S'update'
p5734
I8
tp5735
a(I1724
I0
F0.625
S'first'
p5736
I8
tp5737
a(I1787
I2
I0
S'u'
p5738
I8
tp5739
a(I1838
I6
F1.0
S'good'
p5740
I8
tp5741
a(I1862
I27
I0
S'guys'
p5742
I8
tp5743
a(I1894
I4
I0
S'many'
p5744
I8
tp5745
as(S'dead'
p5746
S'trigger'
p5747
tp5748
(lp5749
(I756
I1
F-0.75
S'dead'
p5750
I0
tp5751
as(S'good'
p5752
S'battery'
p5753
S'backup'
p5754
tp5755
(lp5756
(I421
I21
F1.0
S'good'
p5757
I0
tp5758
a(I605
I6
F1.0
S'good'
p5759
I0
tp5760
a(I605
I6
F0.75
S'outstanding'
p5761
I0
tp5762
a(I605
I6
F-0.625
S'fast'
p5763
I0
tp5764
a(I973
I0
F1.0
S'good'
p5765
I0
tp5766
a(I990
I0
F1.0
S'good'
p5767
I0
tp5768
a(I990
I6
F1.0
S'good'
p5769
I0
tp5770
a(I1273
I1
F1.0
S'good'
p5771
I0
tp5772
a(I1315
I3
F1.0
S'good'
p5773
I0
tp5774
a(I1427
I10
F1.0
S'good'
p5775
I0
tp5776
a(I1797
I1
F1.0
S'good'
p5777
I0
tp5778
a(I1810
I15
F1.0
S'good'
p5779
I0
tp5780
a(I1881
I0
F1.0
S'good'
p5781
I0
tp5782
a(I1914
I0
F1.0
S'good'
p5783
I0
tp5784
a(I1966
I0
F1.0
S'good'
p5785
I0
tp5786
a(I1997
I0
F1.0
S'good'
p5787
I0
tp5788
a(I2013
I28
F0.5
S'stylish'
p5789
I0
tp5790
a(I2013
I28
F1.0
S'good'
p5791
I0
tp5792
a(I2085
I1
F1.0
S'good'
p5793
I0
tp5794
a(I2089
I0
F1.0
S'good'
p5795
I0
tp5796
a(I2195
I12
F1.0
S'good'
p5797
I0
tp5798
a(I9
I12
F1.0
S'good'
p5799
I1
tp5800
a(I89
I1
F1.0
S'good'
p5801
I1
tp5802
a(I100
I14
F1.0
S'good'
p5803
I1
tp5804
a(I341
I3
F1.0
S'good'
p5805
I1
tp5806
a(I546
I1
F1.0
g3384
I1
tp5807
a(I591
I0
F1.0
S'good'
p5808
I1
tp5809
a(I605
I6
F1.0
g5759
I1
tp5810
a(I616
I4
F1.0
S'good'
p5811
I1
tp5812
a(I659
I3
F0.625
S'major'
p5813
I1
tp5814
a(I659
I9
F-0.125
S'overall'
p5815
I1
tp5816
a(I659
I9
F1.0
S'good'
p5817
I1
tp5818
a(I796
I5
F1.0
S'good'
p5819
I1
tp5820
a(I885
I10
F1.0
S'good'
p5821
I1
tp5822
a(I905
I4
F1.0
S'good'
p5823
I1
tp5824
a(I916
I29
F1.0
S'good'
p5825
I1
tp5826
a(I973
I0
F1.0
g5765
I1
tp5827
a(I990
I6
F1.0
g5769
I1
tp5828
a(I1040
I0
F1.0
g3389
I1
tp5829
a(I1225
I6
F1.0
g2888
I1
tp5830
a(I1336
I1
F1.0
S'good'
p5831
I1
tp5832
a(I1341
I5
F1.0
g2896
I1
tp5833
a(I1499
I0
F1.0
g2904
I1
tp5834
a(I1499
I3
F1.0
g2906
I1
tp5835
a(I1528
I0
F1.0
S'good'
p5836
I1
tp5837
a(I1552
I2
F1.0
S'good'
p5838
I1
tp5839
a(I1811
I0
F1.0
S'good'
p5840
I1
tp5841
a(I1811
I0
F0.5
S'stable'
p5842
I1
tp5843
a(I1817
I1
I0
S'normal'
p5844
I1
tp5845
a(I1870
I1
F1.0
S'good'
p5846
I1
tp5847
a(I1878
I0
F1.0
S'good'
p5848
I1
tp5849
a(I1878
I0
F-0.875
S'poor'
p5850
I1
tp5851
a(I1914
I0
F1.0
g5783
I1
tp5852
a(I1931
I2
F1.0
S'good'
p5853
I1
tp5854
a(I1990
I0
F1.0
S'good'
p5855
I1
tp5856
a(I1990
I0
F0.5
S'satisfactory'
p5857
I1
tp5858
a(I1997
I0
F1.0
g5787
I1
tp5859
a(I2013
I28
F0.5
g5789
I1
tp5860
a(I2013
I28
F1.0
g5791
I1
tp5861
a(I2045
I10
F1.0
g2924
I1
tp5862
a(I2089
I0
F1.0
g5795
I1
tp5863
a(I2092
I0
F1.0
S'good'
p5864
I1
tp5865
a(I2120
I9
F1.0
S'good'
p5866
I1
tp5867
a(I2138
I0
F1.0
S'excellent'
p5868
I1
tp5869
a(I2176
I10
F1.0
S'good'
p5870
I1
tp5871
a(I2178
I1
F1.0
S'good'
p5872
I1
tp5873
a(I2192
I3
F1.0
g2928
I1
tp5874
a(I2201
I0
F1.0
S'good'
p5875
I1
tp5876
as(S'apps'
p5877
tp5878
(lp5879
(I9
I21
F-0.625
S'other'
p5880
I4
tp5881
a(I102
I1
I0
S'unnecessary'
p5882
I4
tp5883
a(I129
I10
I0
S'standard'
p5884
I4
tp5885
a(I145
I1
F1.0
S'good'
p5886
I4
tp5887
a(I172
I2
I0
S'many'
p5888
I4
tp5889
a(I231
I1
I0
S'few'
p5890
I4
tp5891
a(I256
I5
F-0.25
S'google'
p5892
I4
tp5893
a(I309
I38
I0
S'many'
p5894
I4
tp5895
a(I378
I4
I0
S'least'
p5896
I4
tp5897
a(I445
I5
I0
S'few'
p5898
I4
tp5899
a(I445
I25
F-0.5
S'regular'
p5900
I4
tp5901
a(I471
I4
F-0.375
S'same'
p5902
I4
tp5903
a(I471
I9
F-0.125
S'minimum'
p5904
I4
tp5905
a(I600
I18
I0
S'multiple'
p5906
I4
tp5907
a(I660
I13
F-0.625
S'other'
p5908
I4
tp5909
a(I664
I9
F-0.625
S'other'
p5910
I4
tp5911
a(I664
I10
F0.375
S'available'
p5912
I4
tp5913
a(I697
I0
F-0.25
S'google'
p5914
I4
tp5915
a(I730
I1
I0
S'unnecessary'
p5916
I4
tp5917
a(I763
I5
I0
S'downloaded'
p5918
I4
tp5919
a(I795
I0
I0
S'few'
p5920
I4
tp5921
a(I815
I18
I0
S'individual'
p5922
I4
tp5923
a(I882
I32
I0
S'unnecessary'
p5924
I4
tp5925
a(I882
I32
F0.375
S'available'
p5926
I4
tp5927
a(I894
I36
I0
S't'
p5928
I4
tp5929
a(I896
I12
F0.375
S'much'
p5930
I4
tp5931
a(I916
I13
I0
S'u'
p5932
I4
tp5933
a(I916
I18
F-0.375
S'disable'
p5934
I4
tp5935
a(I916
I18
F-0.625
S'non'
p5936
I4
tp5937
a(I916
I18
F0.25
S'usable'
p5938
I4
tp5939
a(I1039
I1
I0
S'many'
p5940
I4
tp5941
a(I1083
I20
I0
S'ur'
p5942
I4
tp5943
a(I1140
I3
F-0.875
S'small'
p5944
I4
tp5945
a(I1299
I2
I0
S'few'
p5946
I4
tp5947
a(I1299
I2
F0.875
S'simple'
p5948
I4
tp5949
a(I1309
I2
F0.875
S'attractive'
p5950
I4
tp5951
a(I1362
I1
F1.0
S'good'
p5952
I4
tp5953
a(I1475
I6
F-0.625
S'other'
p5954
I4
tp5955
a(I1475
I6
F0.5
S'similar'
p5956
I4
tp5957
a(I1488
I17
F-0.5
S'heavy'
p5958
I4
tp5959
a(I1527
I0
F1.0
S'good'
p5960
I4
tp5961
a(I1666
I2
I0
S's'
p5962
I4
tp5963
a(I1666
I2
F-0.625
S'other'
p5964
I4
tp5965
a(I1692
I19
F-0.625
S'other'
p5966
I4
tp5967
a(I1804
I9
I0
S'multiple'
p5968
I4
tp5969
a(I1823
I0
I0
S'company'
p5970
I4
tp5971
a(I1941
I7
F0.625
S'fine'
p5972
I4
tp5973
a(I2013
I6
I0
S'different'
p5974
I4
tp5975
as(S'days'
p5976
S'of'
p5977
S'usage'
p5978
tp5979
(lp5980
(I100
I13
F-0.25
S'i'
p5981
I0
tp5982
a(I142
I1
F-0.375
S'half'
p5983
I0
tp5984
a(I4
I4
I0
g4626
I8
tp5985
a(I4
I17
I0
g4628
I8
tp5986
a(I41
I0
I0
S'hot'
p5987
I8
tp5988
a(I56
I0
F0.5
S'suitable'
p5989
I8
tp5990
a(I100
I13
F-0.25
g5981
I8
tp5991
a(I106
I3
F0.25
S'future'
p5992
I8
tp5993
a(I109
I2
I0
g4630
I8
tp5994
a(I109
I3
F0.5
S'optimum'
p5995
I8
tp5996
a(I109
I6
I0
g4632
I8
tp5997
a(I147
I1
I0
g4634
I8
tp5998
a(I226
I12
F-0.625
S'moderate'
p5999
I8
tp6000
a(I233
I11
F0.5
S'high'
p6001
I8
tp6002
a(I233
I11
F-0.625
S'last'
p6003
I8
tp6004
a(I309
I62
F0.5
S'everyday'
p6005
I8
tp6006
a(I329
I6
F-0.625
S'moderate'
p6007
I8
tp6008
a(I421
I4
F-0.5
S'regular'
p6009
I8
tp6010
a(I421
I4
F1.0
S'good'
p6011
I8
tp6012
a(I421
I5
I0
g4636
I8
tp6013
a(I473
I40
I0
g4638
I8
tp6014
a(I503
I17
F0.25
g4640
I8
tp6015
a(I504
I16
I0
S'minimal'
p6016
I8
tp6017
a(I571
I1
F0.375
S'full'
p6018
I8
tp6019
a(I571
I1
F-0.125
S'such'
p6020
I8
tp6021
a(I653
I13
F-0.5
S'heavy'
p6022
I8
tp6023
a(I657
I16
I0
S'internet'
p6024
I8
tp6025
a(I759
I6
F-0.625
S'moderate'
p6026
I8
tp6027
a(I812
I7
I0
S'hot'
p6028
I8
tp6029
a(I857
I5
F-0.625
S'moderate'
p6030
I8
tp6031
a(I917
I3
I0
g4642
I8
tp6032
a(I917
I4
F0.5
S'optimum'
p6033
I8
tp6034
a(I925
I0
I0
g4644
I8
tp6035
a(I928
I6
F0.375
S'full'
p6036
I8
tp6037
a(I1005
I13
F0.5
S'daily'
p6038
I8
tp6039
a(I1023
I1
I0
g4646
I8
tp6040
a(I1025
I20
F-0.5
S'heavy'
p6041
I8
tp6042
a(I1037
I0
I0
S'hot'
p6043
I8
tp6044
a(I1037
I0
F0.375
S'extensive'
p6045
I8
tp6046
a(I1047
I1
I0
g4648
I8
tp6047
a(I1089
I6
F-0.5
S'heavy'
p6048
I8
tp6049
a(I1089
I6
I0
S's'
p6050
I8
tp6051
a(I1089
I6
F0.625
S'evident'
p6052
I8
tp6053
a(I1098
I0
F0.5
S'suitable'
p6054
I8
tp6055
a(I1111
I9
F-0.5
S'heavy'
p6056
I8
tp6057
a(I1113
I1
F-0.875
S'low'
p6058
I8
tp6059
a(I1120
I6
F0.75
S'proper'
p6060
I8
tp6061
a(I1123
I2
I0
S'wifi'
p6062
I8
tp6063
a(I1124
I0
F-0.5
S'heavy'
p6064
I8
tp6065
a(I1131
I0
F0.5
S'daily'
p6066
I8
tp6067
a(I1147
I10
I0
g4650
I8
tp6068
a(I1147
I10
F0.375
g4652
I8
tp6069
a(I1147
I10
F-0.375
g4654
I8
tp6070
a(I1174
I14
F-0.5
S'heavy'
p6071
I8
tp6072
a(I1175
I11
I0
g4656
I8
tp6073
a(I1195
I4
I0
S'mb'
p6074
I8
tp6075
a(I1196
I1
F-0.5
S'continuous'
p6076
I8
tp6077
a(I1196
I1
I0
S'more'
p6078
I8
tp6079
a(I1228
I2
I0
S'net'
p6080
I8
tp6081
a(I1237
I0
I0
g4658
I8
tp6082
a(I1306
I1
I0
g4660
I8
tp6083
a(I1306
I29
I0
g4662
I8
tp6084
a(I1315
I14
F-0.5
S'heavy'
p6085
I8
tp6086
a(I1315
I17
I0
g4664
I8
tp6087
a(I1336
I16
F-0.5
S'heavy'
p6088
I8
tp6089
a(I1336
I60
F0.5
S'high'
p6090
I8
tp6091
a(I1341
I2
I0
g4666
I8
tp6092
a(I1341
I3
I0
S'minimal'
p6093
I8
tp6094
a(I1418
I7
I0
S'min'
p6095
I8
tp6096
a(I1427
I11
I0
g4668
I8
tp6097
a(I1458
I9
F0.375
S'much'
p6098
I8
tp6099
a(I1559
I4
I0
g4670
I8
tp6100
a(I1563
I0
I0
g4672
I8
tp6101
a(I1583
I6
F-0.5
S'heavy'
p6102
I8
tp6103
a(I1678
I21
F-0.875
S'low'
p6104
I8
tp6105
a(I1709
I11
I0
g4674
I8
tp6106
a(I1813
I1
I0
g4676
I8
tp6107
a(I1832
I0
F-0.625
S'moderate'
p6108
I8
tp6109
a(I1836
I2
F-0.75
g4678
I8
tp6110
a(I1836
I2
I0
g4680
I8
tp6111
a(I1840
I43
F-0.5
S'heavy'
p6112
I8
tp6113
a(I1872
I12
F-0.5
S'continuous'
p6114
I8
tp6115
a(I2111
I5
F-0.5
S'continuous'
p6116
I8
tp6117
a(I2176
I3
I0
S'minimal'
p6118
I8
tp6119
a(I2182
I2
I0
g4682
I8
tp6120
as(S'mind'
p6121
S'blowing'
p6122
tp6123
(lp6124
(I1213
I1
I0
S'mind'
p6125
I0
tp6126
a(I2230
I0
I0
S'mind'
p6127
I0
tp6128
as.