(dp0
(S'2'
p1
S'gb'
p2
S'ram'
p3
tp4
(lp5
(I9
I0
F0.375
S'available'
p6
I4
tp7
a(I272
I2
I0
S'gb'
p8
I4
tp9
a(I439
I7
F0.375
S'available'
p10
I4
tp11
a(I466
I11
F1.0
S'good'
p12
I4
tp13
a(I466
I11
F0.625
S'graphic'
p14
I4
tp15
a(I592
I43
F0.375
S'available'
p16
I4
tp17
a(I620
I1
F-0.75
S'free'
p18
I4
tp19
a(I670
I1
F-0.75
S'free'
p20
I4
tp21
a(I748
I20
F-0.875
S'spite'
p22
I4
tp23
a(I748
I20
I0
S'gb'
p24
I4
tp25
a(I781
I9
F-0.125
S'cant'
p26
I4
tp27
a(I814
I9
F0.875
S'attractive'
p28
I4
tp29
a(I814
I9
I0
S'more'
p30
I4
tp31
a(I848
I1
F0.375
S'available'
p32
I4
tp33
a(I1066
I5
F-0.75
S'free'
p34
I4
tp35
a(I1066
I5
F0.375
S'available'
p36
I4
tp37
a(I1066
I5
I0
S'most'
p38
I4
tp39
a(I1415
I1
I0
S'actual'
p40
I4
tp41
a(I1415
I1
F0.375
S'available'
p42
I4
tp43
a(I1415
I1
F-0.5
S'less'
p44
I4
tp45
a(I1479
I1
F0.5
S'expandable'
p46
I4
tp47
a(I1569
I11
F0.375
S'available'
p48
I4
tp49
a(I1663
I1
F-0.5
S'less'
p50
I4
tp51
a(I1724
I1
I0
S'gb'
p52
I4
tp53
a(I1743
I4
F0.375
S'available'
p54
I4
tp55
a(I1864
I0
F0.375
S'full'
p56
I4
tp57
a(I2093
I1
F0.375
S'available'
p58
I4
tp59
a(I2139
I4
F1.0
S'good'
p60
I4
tp61
a(I2172
I2
F0.5
S'large'
p62
I4
tp63
a(I2422
I6
F0.375
S'available'
p64
I4
tp65
a(I2617
I0
F-0.5
S'less'
p66
I4
tp67
a(I2617
I0
I0
S'mb'
p68
I4
tp69
a(I2617
I0
F-0.75
S'free'
p70
I4
tp71
a(I9
I0
F0.375
g6
I9
tp72
a(I206
I49
I0
S'more'
p73
I9
tp74
a(I216
I1
F-0.125
S'minimum'
p75
I9
tp76
a(I272
I2
I0
g8
I9
tp77
a(I323
I4
F-0.75
S'free'
p78
I9
tp79
a(I439
I7
F0.375
g10
I9
tp80
a(I466
I11
F1.0
g12
I9
tp81
a(I466
I11
F0.625
g14
I9
tp82
a(I590
I4
F0.375
S'available'
p83
I9
tp84
a(I590
I4
F-0.5
S'less'
p85
I9
tp86
a(I590
I4
I-100
S'than1gb'
p87
I9
tp88
a(I592
I43
F0.375
g16
I9
tp89
a(I620
I1
F-0.75
g18
I9
tp90
a(I670
I1
F-0.75
g20
I9
tp91
a(I748
I20
F-0.875
g22
I9
tp92
a(I748
I20
I0
g24
I9
tp93
a(I781
I9
F-0.125
g26
I9
tp94
a(I814
I9
F0.875
g28
I9
tp95
a(I814
I9
I0
g30
I9
tp96
a(I848
I1
F0.375
g32
I9
tp97
a(I1006
I18
F-0.875
S'poor'
p98
I9
tp99
a(I1006
I18
F-0.75
S'free'
p100
I9
tp101
a(I1006
I18
F-0.75
S'free'
p102
I9
tp103
a(I1066
I5
F-0.75
g34
I9
tp104
a(I1066
I5
F0.375
g36
I9
tp105
a(I1066
I5
I0
g38
I9
tp106
a(I1136
I1
F-0.125
S'minimum'
p107
I9
tp108
a(I1285
I6
F-0.625
S'other'
p109
I9
tp110
a(I1322
I5
F0.5
S'internal'
p111
I9
tp112
a(I1409
I1
F-0.125
S'os'
p113
I9
tp114
a(I1415
I1
I0
g40
I9
tp115
a(I1415
I1
F0.375
g42
I9
tp116
a(I1415
I1
F-0.5
g44
I9
tp117
a(I1479
I1
F0.5
g46
I9
tp118
a(I1569
I11
F0.375
g48
I9
tp119
a(I1663
I1
F-0.5
g50
I9
tp120
a(I1670
I5
I0
S'gb'
p121
I9
tp122
a(I1724
I1
I0
g52
I9
tp123
a(I1743
I4
F0.375
g54
I9
tp124
a(I1864
I0
F0.375
g56
I9
tp125
a(I1919
I2
I0
S'gb'
p126
I9
tp127
a(I2093
I1
F0.375
g58
I9
tp128
a(I2139
I4
F1.0
g60
I9
tp129
a(I2172
I2
F0.5
g62
I9
tp130
a(I2192
I33
F0.625
S'smooth'
p131
I9
tp132
a(I2422
I6
F0.375
g64
I9
tp133
a(I2617
I0
F-0.5
g66
I9
tp134
a(I2617
I0
I0
g68
I9
tp135
a(I2617
I0
F-0.75
g70
I9
tp136
a(I2617
I2
F0.375
S'much'
p137
I9
tp138
a(I77
I0
I0
S'inbuilt'
p139
I7
tp140
a(I814
I9
I0
g30
I7
tp141
a(I1246
I16
F0.25
S'able'
p142
I7
tp143
a(I1428
I0
F0.5
S'internal'
p144
I7
tp145
a(I1874
I10
F-0.75
S'free'
p146
I7
tp147
a(I2060
I2
F0.5
S'expandable'
p148
I7
tp149
a(I2172
I2
F0.5
g62
I7
tp150
a(I2176
I10
F-0.25
S'external'
p151
I7
tp152
as(S'high'
p153
S'end'
p154
S'games'
p155
tp156
(lp157
(I129
I1
F0.5
S'high'
p158
I0
tp159
a(I206
I24
F0.5
S'high'
p160
I0
tp161
a(I213
I1
F0.5
S'high'
p162
I0
tp163
a(I256
I1
F0.5
S'high'
p164
I0
tp165
a(I274
I2
F0.5
S'high'
p166
I0
tp167
a(I296
I13
F0.5
S'high'
p168
I0
tp169
a(I296
I19
F0.5
S'high'
p170
I0
tp171
a(I422
I0
F0.5
S'high'
p172
I0
tp173
a(I431
I6
F0.5
S'high'
p174
I0
tp175
a(I591
I1
F0.5
S'high'
p176
I0
tp177
a(I1082
I5
F0.5
S'high'
p178
I0
tp179
a(I1082
I5
I0
S'graphical'
p180
I0
tp181
a(I1919
I3
F0.5
S'high'
p182
I0
tp183
a(I2035
I0
F0.5
S'high'
p184
I0
tp185
a(I2546
I1
F0.5
S'high'
p186
I0
tp187
a(I2591
I7
F1.0
S'good'
p188
I0
tp189
a(I2591
I7
F0.5
S'high'
p190
I0
tp191
a(I2591
I7
F-0.875
S'low'
p192
I0
tp193
a(I0
I4
F0.5
S'high'
p194
I0
tp195
a(I129
I1
F0.5
g158
I0
tp196
a(I206
I24
F0.5
g160
I0
tp197
a(I213
I1
F0.5
g162
I0
tp198
a(I256
I1
F0.5
g164
I0
tp199
a(I274
I2
F0.5
g166
I0
tp200
a(I296
I13
F0.5
g168
I0
tp201
a(I296
I19
F0.5
g170
I0
tp202
a(I352
I2
F0.5
S'high'
p203
I0
tp204
a(I422
I0
F0.5
g172
I0
tp205
a(I431
I6
F0.5
g174
I0
tp206
a(I438
I5
F0.5
S'high'
p207
I0
tp208
a(I591
I1
F0.5
g176
I0
tp209
a(I624
I10
F0.5
S'high'
p210
I0
tp211
a(I624
I10
F0.125
S'mobile'
p212
I0
tp213
a(I1073
I31
F0.5
S'higher'
p214
I0
tp215
a(I1075
I6
F0.5
S'high'
p216
I0
tp217
a(I1082
I5
F0.5
g178
I0
tp218
a(I1082
I5
I0
g180
I0
tp219
a(I1094
I5
F0.5
S'high'
p220
I0
tp221
a(I1301
I1
F0.5
S'high'
p222
I0
tp223
a(I1618
I19
F0.5
S'high'
p224
I0
tp225
a(I1919
I3
F0.5
g182
I0
tp226
a(I2035
I0
F0.5
g184
I0
tp227
a(I2380
I3
F0.5
S'higher'
p228
I0
tp229
a(I2400
I5
F-0.125
S'present'
p230
I0
tp231
a(I2400
I5
F0.5
S'high'
p232
I0
tp233
a(I2546
I1
F0.5
g186
I0
tp234
a(I2591
I7
F1.0
g188
I0
tp235
a(I2591
I7
F0.5
g190
I0
tp236
a(I2591
I7
F-0.875
g192
I0
tp237
a(I22
I2
I0
S't'
p238
I5
tp239
a(I42
I3
F0.625
S'smooth'
p240
I5
tp241
a(I65
I55
F-0.5
S'heavy'
p242
I5
tp243
a(I134
I13
I0
S'most'
p244
I5
tp245
a(I152
I0
F0.875
S'great'
p246
I5
tp247
a(I206
I26
I0
S'comfortable'
p248
I5
tp249
a(I206
I27
I-100
S'caual'
p250
I5
tp251
a(I309
I0
F-0.5
S'heavy'
p252
I5
tp253
a(I316
I11
F-0.5
S'heavy'
p254
I5
tp255
a(I332
I3
F0.5
S'recommended'
p256
I5
tp257
a(I332
I3
F0.375
S'much'
p258
I5
tp259
a(I515
I2
F0.5
S'intensive'
p260
I5
tp261
a(I519
I35
F-0.5
S'heavy'
p262
I5
tp263
a(I538
I1
F-0.875
S'small'
p264
I5
tp265
a(I538
I1
I0
S'big'
p266
I5
tp267
a(I577
I13
F-0.25
S'i'
p268
I5
tp269
a(I577
I13
F-0.5
S'heavy'
p270
I5
tp271
a(I615
I4
I0
S'big'
p272
I5
tp273
a(I620
I7
F-0.625
S'other'
p274
I5
tp275
a(I624
I9
F-0.625
S'other'
p276
I5
tp277
a(I641
I2
F0.125
S'popular'
p278
I5
tp279
a(I754
I3
F0.5
S'high'
p280
I5
tp281
a(I754
I3
I0
S'graphical'
p282
I5
tp283
a(I902
I0
I0
S'hot'
p284
I5
tp285
a(I950
I0
I-100
S'asalpht8'
p286
I5
tp287
a(I1007
I7
I0
S'normal'
p288
I5
tp289
a(I1198
I9
F-0.5
S'heavy'
p290
I5
tp291
a(I1228
I0
F-0.5
S'heavy'
p292
I5
tp293
a(I1244
I1
F-0.125
S'minimum'
p294
I5
tp295
a(I1286
I1
F1.0
S'good'
p296
I5
tp297
a(I1286
I1
F-0.5
S'heavy'
p298
I5
tp299
a(I1310
I17
F-0.5
S'heavy'
p300
I5
tp301
a(I1310
I17
I0
S'hot'
p302
I5
tp303
a(I1444
I0
F-0.75
S'casual'
p304
I5
tp305
a(I1518
I1
F-0.5
S'heavy'
p306
I5
tp307
a(I1548
I8
I0
S'more'
p308
I5
tp309
a(I1767
I1
F-0.5
S'heavy'
p310
I5
tp311
a(I1857
I0
F-0.5
S'browse'
p312
I5
tp313
a(I1976
I1
F0.5
S'true'
p314
I5
tp315
a(I2050
I21
F-0.5
S'heavy'
p316
I5
tp317
a(I2050
I21
I0
S'lags'
p318
I5
tp319
a(I2067
I8
F-0.5
S'continuous'
p320
I5
tp321
a(I2067
I8
I0
S'online'
p322
I5
tp323
a(I2085
I0
F0.625
S'smooth'
p324
I5
tp325
a(I2085
I0
I-100
S'gameloft'
p326
I5
tp327
a(I2085
I0
I-100
S'mc5'
p328
I5
tp329
a(I2105
I0
I0
S'many'
p330
I5
tp331
a(I2134
I1
I-100
S'rec'
p332
I5
tp333
a(I2145
I0
I0
S'fps'
p334
I5
tp335
a(I2192
I46
I0
S'most'
p336
I5
tp337
a(I2193
I3
I0
S'update'
p338
I5
tp339
a(I2241
I0
F-0.375
S'loaded'
p340
I5
tp341
a(I2241
I0
F-0.5
S'lame'
p342
I5
tp343
a(I2342
I1
I0
S'n'
p344
I5
tp345
a(I2384
I0
F0.875
S'great'
p346
I5
tp347
a(I2454
I1
F-0.5
S'heavy'
p348
I5
tp349
a(I2456
I3
F-0.5
S'heavy'
p350
I5
tp351
a(I2505
I49
F-0.875
S'small'
p352
I5
tp353
a(I2519
I4
F0.5
S'high'
p354
I5
tp355
a(I2519
I4
F0.625
S'graphic'
p356
I5
tp357
a(I2530
I3
I0
S'many'
p358
I5
tp359
a(I2541
I0
F0.625
S'crazy'
p360
I5
tp361
a(I2628
I0
F0.125
S'mobile'
p362
I5
tp363
as(S'rear'
p364
S'camera'
p365
tp366
(lp367
(I2
I14
I0
S'rear'
p368
I6
tp369
a(I2
I14
F1.0
S'good'
p370
I6
tp371
a(I118
I3
I0
S'rear'
p372
I6
tp373
a(I188
I0
I0
S'rear'
p374
I6
tp375
a(I188
I2
I0
S'rear'
p376
I6
tp377
a(I238
I12
F1.0
S'good'
p378
I6
tp379
a(I238
I12
F-0.625
S'average'
p380
I6
tp381
a(I285
I13
I0
S'rear'
p382
I6
tp383
a(I285
I13
F-1.0
S'bad'
p384
I6
tp385
a(I287
I14
F-0.125
S'front'
p386
I6
tp387
a(I287
I14
F1.0
S'good'
p388
I6
tp389
a(I287
I14
F1.0
S'best'
p390
I6
tp391
a(I310
I0
I0
S'rear'
p392
I6
tp393
a(I315
I14
F1.0
S'good'
p394
I6
tp395
a(I315
I14
I0
S'rear'
p396
I6
tp397
a(I315
I14
F0.875
S'decent'
p398
I6
tp399
a(I380
I0
F0.125
S'mobile'
p400
I6
tp401
a(I380
I0
F0.375
S'much'
p402
I6
tp403
a(I438
I3
I0
S'rear'
p404
I6
tp405
a(I438
I3
F0.875
S'awesome'
p406
I6
tp407
a(I452
I8
F0.875
S'decent'
p408
I6
tp409
a(I492
I0
F1.0
S'good'
p410
I6
tp411
a(I547
I9
I0
S'rear'
p412
I6
tp413
a(I571
I0
F1.0
S'good'
p414
I6
tp415
a(I571
I0
I0
S'rear'
p416
I6
tp417
a(I571
I0
F1.0
S'good'
p418
I6
tp419
a(I599
I4
I0
S'rear'
p420
I6
tp421
a(I612
I1
I0
S'rear'
p422
I6
tp423
a(I612
I1
F0.875
S'awesome'
p424
I6
tp425
a(I754
I22
I0
S'descent'
p426
I6
tp427
a(I754
I22
F-0.125
S'front'
p428
I6
tp429
a(I817
I1
I0
S'rear'
p430
I6
tp431
a(I824
I10
I0
S'rear'
p432
I6
tp433
a(I824
I10
F0.375
S'ok'
p434
I6
tp435
a(I826
I18
I0
S'rear'
p436
I6
tp437
a(I1006
I10
F0.5
S'satisfactory'
p438
I6
tp439
a(I1006
I10
I0
S'rear'
p440
I6
tp441
a(I1050
I0
I0
S'rear'
p442
I6
tp443
a(I1050
I0
F-0.125
S'front'
p444
I6
tp445
a(I1109
I22
I0
S'rear'
p446
I6
tp447
a(I1109
I22
F1.0
S'good'
p448
I6
tp449
a(I1304
I28
I0
S'rear'
p450
I6
tp451
a(I1304
I28
F0.875
S'awesome'
p452
I6
tp453
a(I1304
I68
I0
S'rear'
p454
I6
tp455
a(I1388
I4
I0
S'rear'
p456
I6
tp457
a(I1420
I7
F1.0
S'good'
p458
I6
tp459
a(I1420
I7
I0
S'rear'
p460
I6
tp461
a(I1460
I0
I0
S'rear'
p462
I6
tp463
a(I1511
I3
I0
S'rear'
p464
I6
tp465
a(I1515
I0
I0
S'rear'
p466
I6
tp467
a(I1523
I0
I0
S'rear'
p468
I6
tp469
a(I1549
I23
F1.0
S'good'
p470
I6
tp471
a(I1549
I23
F-0.125
S'front'
p472
I6
tp473
a(I1569
I8
I0
S'below'
p474
I6
tp475
a(I1569
I8
F-0.625
S'average'
p476
I6
tp477
a(I1617
I3
F-0.125
S'front'
p478
I6
tp479
a(I1617
I3
F1.0
S'good'
p480
I6
tp481
a(I1617
I3
I0
S'rear'
p482
I6
tp483
a(I1630
I9
I0
S'rear'
p484
I6
tp485
a(I1630
I9
F-0.875
S'cheap'
p486
I6
tp487
a(I1630
I9
F1.0
S'better'
p488
I6
tp489
a(I1676
I0
I0
S'rear'
p490
I6
tp491
a(I1810
I0
I0
S'rear'
p492
I6
tp493
a(I1810
I2
I0
S'rear'
p494
I6
tp495
a(I1829
I2
I0
S'rear'
p496
I6
tp497
a(I1863
I0
I0
S'rear'
p498
I6
tp499
a(I1863
I0
F1.0
S'excellent'
p500
I6
tp501
a(I1863
I0
F-0.125
S'front'
p502
I6
tp503
a(I1932
I0
I0
S'rear'
p504
I6
tp505
a(I1932
I0
F-0.125
S'front'
p506
I6
tp507
a(I1950
I1
F1.0
S'good'
p508
I6
tp509
a(I1963
I1
I0
S'rear'
p510
I6
tp511
a(I1963
I1
I0
S'okey'
p512
I6
tp513
a(I2010
I1
I0
S'rear'
p514
I6
tp515
a(I2010
I1
F0.875
S'awesome'
p516
I6
tp517
a(I2048
I17
I0
S'rear'
p518
I6
tp519
a(I2048
I17
F0.875
S'awesome'
p520
I6
tp521
a(I2048
I18
I0
S'rear'
p522
I6
tp523
a(I2063
I5
I0
S'rear'
p524
I6
tp525
a(I2154
I7
F-0.125
S'front'
p526
I6
tp527
a(I2170
I1
F1.0
S'good'
p528
I6
tp529
a(I2194
I0
I0
S'rear'
p530
I6
tp531
a(I2216
I3
I0
S'rear'
p532
I6
tp533
a(I2216
I3
F1.0
S'good'
p534
I6
tp535
a(I2233
I2
I0
S'sure'
p536
I6
tp537
a(I2304
I0
F0.75
S'primary'
p538
I6
tp539
a(I2304
I0
I0
S'rear'
p540
I6
tp541
a(I2354
I0
F1.0
S'good'
p542
I6
tp543
a(I2354
I0
F1.0
S'excellent'
p544
I6
tp545
a(I2376
I0
I0
S'rear'
p546
I6
tp547
a(I2400
I20
F1.0
S'good'
p548
I6
tp549
a(I2499
I4
I0
S'n'
p550
I6
tp551
a(I2499
I4
I0
S'rear'
p552
I6
tp553
a(I2499
I4
F-1.0
S'bad'
p554
I6
tp555
a(I2586
I3
F-0.125
S'front'
p556
I6
tp557
a(I2596
I4
F-0.125
S'front'
p558
I6
tp559
a(I2596
I4
F0.375
S'snap'
p560
I6
tp561
as(S'battery'
p562
S'drains'
p563
tp564
(lp565
(I65
I17
F-0.75
S'sufficient'
p566
I3
tp567
a(I437
I14
F-0.625
S'fast'
p568
I3
tp569
a(I619
I8
F-0.625
S'fast'
p570
I3
tp571
a(I1008
I10
F-0.75
S'sufficient'
p572
I3
tp573
a(I1304
I71
F-0.625
S'fast'
p574
I3
tp575
a(I2050
I3
I0
S'min'
p576
I3
tp577
as(S'gorilla'
p578
S'glass'
p579
S'protection'
p580
tp581
(lp582
(I1287
I8
F0.375
S'available'
p583
I0
tp584
a(I1549
I21
I0
S'gorilla'
p585
I0
tp586
a(I1581
I14
I0
S'tempered'
p587
I0
tp588
a(I2217
I13
I0
S'tempered'
p589
I0
tp590
a(I2217
I13
I0
S'additional'
p591
I0
tp592
a(I2579
I23
I0
S'screen'
p593
I0
tp594
as(S'playing'
p595
S'games'
p596
tp597
(lp598
(I620
I7
F-0.625
g274
I1
tp599
a(I754
I3
F0.5
g280
I1
tp600
a(I754
I3
I0
g282
I1
tp601
a(I902
I0
I0
g284
I1
tp602
a(I1286
I1
F1.0
g296
I1
tp603
a(I1286
I1
F-0.5
g298
I1
tp604
a(I2067
I8
F-0.5
g320
I1
tp605
a(I2067
I8
I0
g322
I1
tp606
a(I2384
I0
F0.875
g346
I1
tp607
a(I2454
I1
F-0.5
g348
I1
tp608
a(I2505
I49
F-0.875
g352
I1
tp609
a(I2519
I4
F0.5
g354
I1
tp610
a(I2519
I4
F0.625
g356
I1
tp611
a(I2541
I0
I-100
S'crady'
p612
I1
tp613
a(I2541
I0
F0.625
g360
I1
tp614
as(S'a'
p615
S'tempered'
p616
S'glass'
p617
tp618
(lp619
(I1
I1
I0
S'tempered'
p620
I0
tp621
a(I318
I1
I0
S'tempered'
p622
I0
tp623
a(I433
I1
I0
S'tempered'
p624
I0
tp625
a(I545
I0
I0
S'tempered'
p626
I0
tp627
a(I547
I7
I0
S'tempered'
p628
I0
tp629
a(I615
I7
I0
S'tempered'
p630
I0
tp631
a(I673
I9
I0
S'tempered'
p632
I0
tp633
a(I876
I4
I0
S'tempered'
p634
I0
tp635
a(I1047
I1
I0
S'tempered'
p636
I0
tp637
a(I1047
I2
I0
S'tempered'
p638
I0
tp639
a(I1287
I4
I0
S'tempered'
p640
I0
tp641
a(I1425
I1
I0
S'tempered'
p642
I0
tp643
a(I1453
I0
I0
S'tempered'
p644
I0
tp645
a(I1581
I14
I0
g587
I0
tp646
a(I2217
I13
I0
g589
I0
tp647
a(I2423
I8
F1.0
S'good'
p648
I0
tp649
a(I2424
I0
F-0.5
S'extra'
p650
I0
tp651
a(I2478
I7
I0
S'tempered'
p652
I0
tp653
a(I2579
I24
I0
S'tempered'
p654
I0
tp655
a(I1
I1
I0
g620
I2
tp656
a(I318
I1
I0
g622
I2
tp657
a(I433
I1
I0
g624
I2
tp658
a(I545
I0
I0
g626
I2
tp659
a(I547
I7
I0
g628
I2
tp660
a(I615
I7
I0
g630
I2
tp661
a(I673
I9
I0
g632
I2
tp662
a(I876
I4
I0
g634
I2
tp663
a(I1047
I1
I0
g636
I2
tp664
a(I1047
I2
I0
g638
I2
tp665
a(I1287
I4
I0
g640
I2
tp666
a(I1425
I1
I0
g642
I2
tp667
a(I1453
I0
I0
g644
I2
tp668
a(I1581
I14
I0
g587
I2
tp669
a(I2217
I13
I0
g589
I2
tp670
a(I2423
I8
F1.0
g648
I2
tp671
a(I2424
I0
F-0.5
g650
I2
tp672
a(I2478
I7
I0
g652
I2
tp673
a(I2579
I24
I0
g654
I2
tp674
as(S'average'
p675
tp676
(lp677
(I134
I10
I0
S'most'
p678
I12
tp679
a(I224
I15
I0
S'above'
p680
I12
tp681
a(I288
I10
I0
S'above'
p682
I12
tp683
a(I992
I2
F0.125
S'mobile'
p684
I12
tp685
a(I995
I9
I0
S'above'
p686
I12
tp687
a(I995
I9
I0
S'u'
p688
I12
tp689
a(I1006
I6
I0
S'above'
p690
I12
tp691
a(I1006
I10
I0
S'above'
p692
I12
tp693
a(I1292
I1
I0
S'below'
p694
I12
tp695
a(I1569
I13
I0
S'below'
p696
I12
tp697
a(I2010
I10
I0
S'above'
p698
I12
tp699
a(I2029
I1
F0.5
S'high'
p700
I12
tp701
a(I2154
I12
I0
S'above'
p702
I12
tp703
a(I2216
I5
I0
S'above'
p704
I12
tp705
a(I2547
I1
F0.75
S'up'
p706
I12
tp707
a(I2547
I1
F-0.625
S'last'
p708
I12
tp709
as(S'sd'
p710
S'card'
p711
tp712
(lp713
(I238
I8
F-0.25
S'external'
p714
I0
tp715
a(I288
I1
I0
S'sd'
p716
I0
tp717
a(I288
I1
I0
S'ur'
p718
I0
tp719
a(I766
I7
I0
S'sd'
p720
I0
tp721
a(I825
I14
F-0.25
S'external'
p722
I0
tp723
a(I836
I3
F0.625
S'manageable'
p724
I0
tp725
a(I895
I25
I0
S'sd'
p726
I0
tp727
a(I1246
I16
F0.625
S'fine'
p728
I0
tp729
a(I1590
I3
I0
S'sd'
p730
I0
tp731
a(I2151
I2
I0
S'most'
p732
I0
tp733
a(I2321
I3
F0.5
S'dual'
p734
I0
tp735
a(I2321
I10
I0
S'sd'
p736
I0
tp737
a(I2423
I8
I0
S'additional'
p738
I0
tp739
a(I2423
I8
I0
S'sd'
p740
I0
tp741
a(I288
I1
I0
g716
I8
tp742
a(I288
I1
I0
g718
I8
tp743
a(I766
I7
I0
g720
I8
tp744
a(I836
I3
F0.625
g724
I8
tp745
a(I895
I25
I0
g726
I8
tp746
a(I1214
I4
I0
S'hot'
p747
I8
tp748
a(I1214
I4
I-100
S'swappable'
p749
I8
tp750
a(I1214
I4
F0.125
S'memory'
p751
I8
tp752
a(I1246
I16
F0.625
g728
I8
tp753
a(I1590
I3
I0
g730
I8
tp754
a(I2151
I2
I0
g732
I8
tp755
a(I2296
I1
F0.375
S'full'
p756
I8
tp757
a(I2321
I3
F0.5
g734
I8
tp758
a(I2321
I10
I0
g736
I8
tp759
a(I2423
I8
I0
g738
I8
tp760
a(I2423
I8
I0
g740
I8
tp761
a(I2476
I13
F-0.25
S'bloody'
p762
I8
tp763
as(S'experience'
p764
tp765
(lp766
(I84
I1
F0.625
S'smooth'
p767
I12
tp768
a(I246
I9
F-0.125
S'overall'
p769
I12
tp770
a(I282
I7
I0
S'current'
p771
I12
tp772
a(I327
I1
I0
S'user'
p773
I12
tp774
a(I422
I6
F0.375
S'full'
p775
I12
tp776
a(I509
I2
I0
S'user'
p777
I12
tp778
a(I515
I3
F1.0
S'good'
p779
I12
tp780
a(I515
I3
F0.5
S'high'
p781
I12
tp782
a(I517
I2
F-0.375
S'same'
p783
I12
tp784
a(I526
I25
F-0.125
S'overall'
p785
I12
tp786
a(I547
I1
F0.625
S'smooth'
p787
I12
tp788
a(I576
I1
F1.0
S'good'
p789
I12
tp790
a(I649
I11
F-1.0
S'worst'
p791
I12
tp792
a(I673
I20
F1.0
S'good'
p793
I12
tp794
a(I673
I20
F0.75
S'sound'
p795
I12
tp796
a(I694
I5
F0.5
S'personal'
p797
I12
tp798
a(I696
I12
F-0.125
S'overall'
p799
I12
tp800
a(I696
I12
F0.5
S'touch'
p801
I12
tp802
a(I696
I18
F-0.625
S'real'
p803
I12
tp804
a(I696
I18
F-1.0
S'bad'
p805
I12
tp806
a(I702
I0
F-0.5
S'less'
p807
I12
tp808
a(I731
I6
F-0.625
S'sharp'
p809
I12
tp810
a(I731
I6
F0.5
S'personal'
p811
I12
tp812
a(I747
I7
F0.875
S'nice'
p813
I12
tp814
a(I883
I0
F1.0
S'best'
p815
I12
tp816
a(I883
I0
I0
S'audio'
p817
I12
tp818
a(I914
I5
I0
S'own'
p819
I12
tp820
a(I987
I1
F-0.625
S'horrible'
p821
I12
tp822
a(I991
I27
F-1.0
S'worst'
p823
I12
tp824
a(I991
I27
F-0.625
S'last'
p825
I12
tp826
a(I1041
I2
F0.625
S'smooth'
p827
I12
tp828
a(I1105
I1
F0.625
S'fine'
p829
I12
tp830
a(I1174
I17
I0
S'own'
p831
I12
tp832
a(I1174
I21
F-0.25
S'i'
p833
I12
tp834
a(I1277
I1
F0.875
S'great'
p835
I12
tp836
a(I1277
I1
F-0.625
S'horrible'
p837
I12
tp838
a(I1299
I3
I0
S't'
p839
I12
tp840
a(I1304
I5
F-0.125
S'overall'
p841
I12
tp842
a(I1304
I5
F0.5
S'satisfactory'
p843
I12
tp844
a(I1491
I23
F-0.75
S'short'
p845
I12
tp846
a(I1491
I38
F-1.0
S'worst'
p847
I12
tp848
a(I1493
I7
F-1.0
S'worst'
p849
I12
tp850
a(I1513
I32
F-0.125
S'such'
p851
I12
tp852
a(I1513
I32
F0.75
S'fantastic'
p853
I12
tp854
a(I1549
I31
F-0.875
S'poor'
p855
I12
tp856
a(I1549
I33
F-1.0
S'bad'
p857
I12
tp858
a(I1562
I0
F0.75
S'sound'
p859
I12
tp860
a(I1562
I0
F0.625
S'rich'
p861
I12
tp862
a(I1581
I0
F1.0
S'good'
p863
I12
tp864
a(I1605
I1
F-1.0
S'worst'
p865
I12
tp866
a(I1662
I5
F1.0
S'good'
p867
I12
tp868
a(I1712
I2
I0
S'u'
p869
I12
tp870
a(I1930
I15
F0.75
S'pleasant'
p871
I12
tp872
a(I1962
I1
I0
S'sure'
p873
I12
tp874
a(I2015
I1
F0.875
S'awesome'
p875
I12
tp876
a(I2025
I6
F0.5
S'detailed'
p877
I12
tp878
a(I2176
I11
F-0.125
S'overall'
p879
I12
tp880
a(I2176
I11
F1.0
S'good'
p881
I12
tp882
a(I2192
I5
F0.625
S'smooth'
p883
I12
tp884
a(I2219
I3
I0
S'user'
p885
I12
tp886
a(I2396
I5
I0
S't'
p887
I12
tp888
a(I2491
I1
F-1.0
S'worst'
p889
I12
tp890
a(I2579
I54
F0.75
S'sound'
p891
I12
tp892
as(S'2900'
p893
S'mah'
p894
S'battery'
p895
tp896
(lp897
(I183
I0
I0
S'rom'
p898
I0
tp899
a(I288
I8
I0
S'more'
p900
I0
tp901
a(I898
I13
F0.875
S'amazing'
p902
I0
tp903
a(I992
I24
F-0.5
S'weak'
p904
I0
tp905
a(I1008
I11
I0
S'only'
p906
I0
tp907
a(I1831
I0
I0
S'light'
p908
I0
tp909
a(I2580
I1
F0.625
S'removable'
p910
I0
tp911
a(I2633
I6
I0
S'mentioned'
p912
I0
tp913
as(S'and'
p914
S'front'
p915
S'camera'
p916
tp917
(lp918
(I2
I14
I0
g368
I0
tp919
a(I2
I14
F1.0
g370
I0
tp920
a(I86
I1
F-0.125
S'front'
p921
I0
tp922
a(I287
I14
F-0.125
g386
I0
tp923
a(I287
I14
F1.0
g388
I0
tp924
a(I287
I14
F1.0
g390
I0
tp925
a(I292
I1
F-0.125
S'front'
p926
I0
tp927
a(I315
I14
F1.0
g394
I0
tp928
a(I315
I14
I0
g396
I0
tp929
a(I315
I14
F0.875
g398
I0
tp930
a(I345
I4
F-0.125
S'front'
p931
I0
tp932
a(I409
I1
F-0.875
S'pathetic'
p933
I0
tp934
a(I561
I5
F-0.125
S'front'
p935
I0
tp936
a(I599
I4
I0
g420
I0
tp937
a(I812
I16
F-0.125
S'front'
p938
I0
tp939
a(I1016
I0
F-0.125
S'front'
p940
I0
tp941
a(I1050
I0
I0
g442
I0
tp942
a(I1050
I0
F-0.125
g444
I0
tp943
a(I1167
I3
F-0.125
S'front'
p944
I0
tp945
a(I1343
I0
F0.625
S'fine'
p946
I0
tp947
a(I1420
I7
F1.0
g458
I0
tp948
a(I1420
I7
I0
g460
I0
tp949
a(I1460
I0
F1.0
S'good'
p950
I0
tp951
a(I1460
I0
I0
g462
I0
tp952
a(I1518
I11
F0.875
S'great'
p953
I0
tp954
a(I1548
I15
F0.625
S'acceptable'
p955
I0
tp956
a(I1630
I9
I0
g484
I0
tp957
a(I1630
I9
F-0.875
g486
I0
tp958
a(I1630
I9
F1.0
g488
I0
tp959
a(I1932
I0
I0
g504
I0
tp960
a(I1932
I0
F-0.125
g506
I0
tp961
a(I1983
I0
I0
S'rear'
p962
I0
tp963
a(I1983
I0
F1.0
S'good'
p964
I0
tp965
a(I2067
I4
F-0.125
S'front'
p966
I0
tp967
a(I2112
I3
F1.0
S'good'
p968
I0
tp969
a(I2276
I7
F0.75
S'primary'
p970
I0
tp971
a(I2400
I20
F1.0
g548
I0
tp972
a(I2486
I0
F-0.125
S'front'
p973
I0
tp974
a(I2486
I0
F0.875
S'nice'
p975
I0
tp976
a(I2579
I28
F-0.125
S'front'
p977
I0
tp978
a(I2579
I28
I0
S'pretty'
p979
I0
tp980
a(I2579
I28
F0.875
S'decent'
p981
I0
tp982
a(I2586
I3
F-0.125
g556
I0
tp983
a(I2596
I4
F-0.125
g558
I0
tp984
a(I2596
I4
F0.375
g560
I0
tp985
a(I2
I14
I0
g368
I6
tp986
a(I2
I14
F1.0
g370
I6
tp987
a(I54
I0
F-0.125
S'front'
p988
I6
tp989
a(I54
I0
F-0.125
S'next'
p990
I6
tp991
a(I79
I3
F1.0
S'better'
p992
I6
tp993
a(I86
I1
F-0.125
g921
I6
tp994
a(I118
I3
I0
S'n'
p995
I6
tp996
a(I118
I3
I0
g372
I6
tp997
a(I213
I3
F0.875
S'awesome'
p998
I6
tp999
a(I238
I12
F1.0
g378
I6
tp1000
a(I238
I12
F-0.625
g380
I6
tp1001
a(I285
I13
I0
g382
I6
tp1002
a(I285
I13
F-1.0
g384
I6
tp1003
a(I287
I14
F-0.125
g386
I6
tp1004
a(I287
I14
F1.0
g388
I6
tp1005
a(I287
I14
F1.0
g390
I6
tp1006
a(I292
I1
F-0.125
g926
I6
tp1007
a(I315
I14
F1.0
g394
I6
tp1008
a(I315
I14
I0
g396
I6
tp1009
a(I315
I14
F0.875
g398
I6
tp1010
a(I345
I4
F-0.125
g931
I6
tp1011
a(I380
I0
F0.125
g400
I6
tp1012
a(I380
I0
F0.375
g402
I6
tp1013
a(I409
I1
F-0.875
g933
I6
tp1014
a(I439
I1
F-0.875
S'pathetic'
p1015
I6
tp1016
a(I452
I8
F0.875
g408
I6
tp1017
a(I466
I10
F-0.125
S'front'
p1018
I6
tp1019
a(I492
I0
F1.0
g410
I6
tp1020
a(I547
I13
F-0.125
S'front'
p1021
I6
tp1022
a(I561
I5
F-0.125
g935
I6
tp1023
a(I571
I0
F1.0
g414
I6
tp1024
a(I571
I0
I0
g416
I6
tp1025
a(I571
I0
F1.0
g418
I6
tp1026
a(I577
I0
F-0.125
S'front'
p1027
I6
tp1028
a(I577
I16
F1.0
S'good'
p1029
I6
tp1030
a(I588
I9
F1.0
S'good'
p1031
I6
tp1032
a(I588
I9
F-0.125
S'back'
p1033
I6
tp1034
a(I599
I4
I0
g420
I6
tp1035
a(I607
I10
F1.0
S'good'
p1036
I6
tp1037
a(I607
I10
F-0.125
S'front'
p1038
I6
tp1039
a(I737
I1
F-0.875
S'pathetic'
p1040
I6
tp1041
a(I754
I22
I0
g426
I6
tp1042
a(I754
I22
F-0.125
g428
I6
tp1043
a(I812
I16
F-0.125
g938
I6
tp1044
a(I818
I0
F-0.125
S'front'
p1045
I6
tp1046
a(I824
I9
F1.0
S'good'
p1047
I6
tp1048
a(I875
I6
F-0.125
S'front'
p1049
I6
tp1050
a(I875
I6
F1.0
S'excellent'
p1051
I6
tp1052
a(I896
I8
F-0.625
S'average'
p1053
I6
tp1054
a(I953
I13
F1.0
S'good'
p1055
I6
tp1056
a(I1006
I10
F0.5
g438
I6
tp1057
a(I1006
I10
I0
g440
I6
tp1058
a(I1016
I0
F-0.125
g940
I6
tp1059
a(I1050
I0
I0
g442
I6
tp1060
a(I1050
I0
F-0.125
g444
I6
tp1061
a(I1089
I2
I0
S'n'
p1062
I6
tp1063
a(I1109
I22
I0
g446
I6
tp1064
a(I1109
I22
F1.0
g448
I6
tp1065
a(I1112
I8
F0.875
S'nice'
p1066
I6
tp1067
a(I1131
I4
F0.875
S'awesome'
p1068
I6
tp1069
a(I1167
I3
F-0.125
g944
I6
tp1070
a(I1343
I0
F0.625
g946
I6
tp1071
a(I1420
I7
F1.0
g458
I6
tp1072
a(I1420
I7
I0
g460
I6
tp1073
a(I1460
I0
F1.0
g950
I6
tp1074
a(I1460
I0
I0
g462
I6
tp1075
a(I1518
I11
F0.875
g953
I6
tp1076
a(I1524
I0
F-0.125
S'front'
p1077
I6
tp1078
a(I1524
I0
F-0.625
S'average'
p1079
I6
tp1080
a(I1548
I15
F0.625
g955
I6
tp1081
a(I1548
I16
F-0.125
S'front'
p1082
I6
tp1083
a(I1571
I1
F1.0
S'good'
p1084
I6
tp1085
a(I1617
I3
F-0.125
g478
I6
tp1086
a(I1617
I3
F1.0
g480
I6
tp1087
a(I1617
I3
I0
g482
I6
tp1088
a(I1630
I9
I0
g484
I6
tp1089
a(I1630
I9
F-0.875
g486
I6
tp1090
a(I1630
I9
F1.0
g488
I6
tp1091
a(I1770
I0
F1.0
S'good'
p1092
I6
tp1093
a(I1863
I0
I0
g498
I6
tp1094
a(I1863
I0
F1.0
g500
I6
tp1095
a(I1863
I0
F-0.125
g502
I6
tp1096
a(I1916
I1
F-0.125
S'front'
p1097
I6
tp1098
a(I1930
I5
F-0.125
S'front'
p1099
I6
tp1100
a(I1930
I5
F0.875
S'right'
p1101
I6
tp1102
a(I1930
I5
F-0.125
S'next'
p1103
I6
tp1104
a(I1932
I0
I0
g504
I6
tp1105
a(I1932
I0
F-0.125
g506
I6
tp1106
a(I1963
I1
I0
g510
I6
tp1107
a(I1963
I1
I0
g512
I6
tp1108
a(I1983
I0
I0
g962
I6
tp1109
a(I1983
I0
F1.0
g964
I6
tp1110
a(I2010
I6
F1.0
S'good'
p1111
I6
tp1112
a(I2067
I4
F-0.125
g966
I6
tp1113
a(I2069
I6
F-0.125
S'front'
p1114
I6
tp1115
a(I2069
I6
F1.0
S'good'
p1116
I6
tp1117
a(I2079
I0
I0
S'few'
p1118
I6
tp1119
a(I2079
I0
I0
S's'
p1120
I6
tp1121
a(I2112
I3
F1.0
g968
I6
tp1122
a(I2154
I7
F-0.125
g526
I6
tp1123
a(I2158
I1
F-0.125
S'front'
p1124
I6
tp1125
a(I2193
I31
F-0.125
S'front'
p1126
I6
tp1127
a(I2276
I7
F0.75
g970
I6
tp1128
a(I2370
I4
F-0.5
S'unsatisfactory'
p1129
I6
tp1130
a(I2400
I20
F1.0
g548
I6
tp1131
a(I2486
I0
F-0.125
g973
I6
tp1132
a(I2486
I0
F0.875
g975
I6
tp1133
a(I2499
I4
I0
g550
I6
tp1134
a(I2499
I4
I0
g552
I6
tp1135
a(I2499
I4
F-1.0
g554
I6
tp1136
a(I2579
I28
F-0.125
g977
I6
tp1137
a(I2579
I28
I0
g979
I6
tp1138
a(I2579
I28
F0.875
g981
I6
tp1139
a(I2586
I3
F-0.125
g556
I6
tp1140
a(I2596
I4
F-0.125
g558
I6
tp1141
a(I2596
I4
F0.375
g560
I6
tp1142
as(S'games'
p1143
S'like'
p1144
S'asphalt'
p1145
tp1146
(lp1147
(I309
I0
F-0.5
g252
I0
tp1148
a(I316
I11
F-0.5
g254
I0
tp1149
a(I538
I1
F-0.875
g264
I0
tp1150
a(I538
I1
I0
g266
I0
tp1151
a(I615
I4
I0
g272
I0
tp1152
a(I620
I7
F-0.625
g274
I0
tp1153
a(I754
I3
F0.5
g280
I0
tp1154
a(I754
I3
I0
g282
I0
tp1155
a(I1198
I9
F-0.5
g290
I0
tp1156
a(I1767
I1
F-0.5
g310
I0
tp1157
a(I1976
I1
F0.5
g314
I0
tp1158
as(S'in'
p1159
S'first'
p1160
S'flash'
p1161
tp1162
(lp1163
(I894
I10
F-0.5
S'flash'
p1164
I0
tp1165
a(I1065
I0
F0.625
S'first'
p1166
I0
tp1167
a(I438
I4
F1.0
S'good'
p1168
I3
tp1169
a(I512
I7
F0.5
S'powerful'
p1170
I3
tp1171
a(I512
I7
F-0.875
S'low'
p1172
I3
tp1173
a(I631
I5
F-0.875
S'low'
p1174
I3
tp1175
a(I631
I5
I0
S'light'
p1176
I3
tp1177
a(I818
I0
I0
S'screen'
p1178
I3
tp1179
a(I1065
I0
F0.625
g1166
I3
tp1180
a(I1721
I0
F0.5
S'dual'
p1181
I3
tp1182
a(I2139
I4
F-0.875
S'smart'
p1183
I3
tp1184
a(I2579
I27
F0.5
S'dual'
p1185
I3
tp1186
as(S'fingerprint'
p1187
S'magnet'
p1188
tp1189
(lp1190
(I225
I7
F-0.625
S'fingerprint'
p1191
I0
tp1192
a(I673
I9
F-0.625
S'fingerprint'
p1193
I0
tp1194
a(I686
I0
F-0.625
S'fingerprint'
p1195
I0
tp1196
a(I2113
I8
F-0.625
S'fingerprint'
p1197
I0
tp1198
as(S'gaming'
p1199
tp1200
(lp1201
(I256
I1
F0.25
S'usable'
p1202
I5
tp1203
a(I256
I1
F-0.625
S'average'
p1204
I5
tp1205
a(I321
I0
F-0.75
S'casual'
p1206
I5
tp1207
a(I419
I5
F-0.75
S'little'
p1208
I5
tp1209
a(I523
I0
F-0.5
S'heavy'
p1210
I5
tp1211
a(I523
I0
F-0.5
S'long'
p1212
I5
tp1213
a(I592
I23
F-0.5
S'heavy'
p1214
I5
tp1215
a(I1057
I0
F0.75
S'outstanding'
p1216
I5
tp1217
a(I1082
I4
F-1.0
S'bad'
p1218
I5
tp1219
a(I1444
I0
I0
S'specific'
p1220
I5
tp1221
a(I1513
I36
F-0.625
S'other'
p1222
I5
tp1223
a(I1542
I3
F0.5
S'suitable'
p1224
I5
tp1225
a(I1542
I3
F0.5
S'high'
p1226
I5
tp1227
a(I1542
I3
F0.625
S'graphic'
p1228
I5
tp1229
a(I1549
I9
F-0.25
S'i'
p1230
I5
tp1231
a(I1549
I9
F-0.375
S'same'
p1232
I5
tp1233
a(I1552
I1
F-0.125
S'nominal'
p1234
I5
tp1235
a(I2015
I3
F0.375
S'much'
p1236
I5
tp1237
a(I2505
I10
F-0.5
S'heavy'
p1238
I5
tp1239
a(I2579
I46
F-0.75
S'casual'
p1240
I5
tp1241
a(I2579
I50
F0.625
S'smooth'
p1242
I5
tp1243
as(S'lenovo'
p1244
S'service'
p1245
S'center'
p1246
tp1247
(lp1248
(I620
I11
I0
S'own'
p1249
I0
tp1250
a(I716
I12
F0.125
S'dissatisfy'
p1251
I0
tp1252
a(I716
I12
F-0.625
S'last'
p1253
I0
tp1254
a(I716
I12
F-0.25
S'i'
p1255
I0
tp1256
a(I1414
I3
I0
S'local'
p1257
I0
tp1258
a(I1489
I15
I0
S'nearest'
p1259
I0
tp1260
a(I1489
I15
I0
S'update'
p1261
I0
tp1262
a(I79
I11
F-0.25
S'surprised'
p1263
I1
tp1264
a(I238
I18
F0.625
S'first'
p1265
I1
tp1266
a(I422
I2
F1.0
S'good'
p1267
I1
tp1268
a(I432
I5
F-0.125
S'next'
p1269
I1
tp1270
a(I432
I5
I0
S'update'
p1271
I1
tp1272
a(I545
I0
F0.75
S'fit'
p1273
I1
tp1274
a(I560
I2
I0
S'own'
p1275
I1
tp1276
a(I577
I10
F0.125
S'mobile'
p1277
I1
tp1278
a(I641
I6
F1.0
S'good'
p1279
I1
tp1280
a(I655
I6
I0
S'few'
p1281
I1
tp1282
a(I696
I17
F-0.625
S'last'
p1283
I1
tp1284
a(I696
I17
I0
S'least'
p1285
I1
tp1286
a(I714
I7
F0.625
S'aware'
p1287
I1
tp1288
a(I717
I11
I0
S't'
p1289
I1
tp1290
a(I810
I24
F0.125
S'mobile'
p1291
I1
tp1292
a(I845
I7
F-0.375
S'same'
p1293
I1
tp1294
a(I872
I20
F-0.625
S'other'
p1295
I1
tp1296
a(I1047
I7
I-100
S'lastday'
p1297
I1
tp1298
a(I1064
I0
F1.0
S'good'
p1299
I1
tp1300
a(I1086
I0
F-0.125
S'overall'
p1301
I1
tp1302
a(I1094
I14
I0
S'u'
p1303
I1
tp1304
a(I1114
I6
I0
S'online'
p1305
I1
tp1306
a(I1129
I4
I-100
S'handsfree'
p1307
I1
tp1308
a(I1171
I18
F0.875
S'awesome'
p1309
I1
tp1310
a(I1174
I39
F0.75
S'whole'
p1311
I1
tp1312
a(I1180
I8
I0
S'few'
p1313
I1
tp1314
a(I1180
I8
F-0.375
S'authorised'
p1315
I1
tp1316
a(I1195
I21
F-1.0
S'bad'
p1317
I1
tp1318
a(I1196
I20
F1.0
S'better'
p1319
I1
tp1320
a(I1322
I23
I0
S'only'
p1321
I1
tp1322
a(I1325
I19
F-0.625
S'new'
p1323
I1
tp1324
a(I1414
I8
F-0.125
S'needle'
p1325
I1
tp1326
a(I1428
I1
F-0.75
S'free'
p1327
I1
tp1328
a(I1442
I3
F-0.5
S'weak'
p1329
I1
tp1330
a(I1489
I15
I0
g1259
I1
tp1331
a(I1514
I5
F1.0
S'good'
p1332
I1
tp1333
a(I1579
I22
F-0.125
S'overall'
p1334
I1
tp1335
a(I1728
I0
F0.125
S'frequent'
p1336
I1
tp1337
a(I1759
I9
F-0.25
S'i'
p1338
I1
tp1339
a(I1829
I4
F-0.25
S'i'
p1340
I1
tp1341
a(I1930
I0
F-0.625
S'other'
p1342
I1
tp1343
a(I2024
I0
F-0.625
S'new'
p1344
I1
tp1345
a(I2024
I2
F0.5
S'technical'
p1346
I1
tp1347
a(I2025
I0
I0
S'nearest'
p1348
I1
tp1349
a(I2078
I7
F0.25
S'awaited'
p1350
I1
tp1351
a(I2095
I6
F0.5
S'high'
p1352
I1
tp1353
a(I2183
I0
F-0.625
S'other'
p1354
I1
tp1355
a(I2362
I5
F-0.25
S'i'
p1356
I1
tp1357
a(I2370
I0
F0.625
S'first'
p1358
I1
tp1359
a(I2437
I3
F0.125
S'mobile'
p1360
I1
tp1361
a(I2465
I0
F-0.625
S'new'
p1362
I1
tp1363
a(I2505
I53
F-0.625
S'new'
p1364
I1
tp1365
a(I2557
I0
F0.75
S'dear'
p1366
I1
tp1367
a(I2579
I19
F-0.125
S'such'
p1368
I1
tp1369
a(I2596
I2
I0
S'own'
p1370
I1
tp1371
a(I2596
I6
F-0.75
S'disappointing'
p1372
I1
tp1373
as(S'priority'
p1374
S'pass'
p1375
tp1376
(lp1377
(I56
I0
F0.875
S'lucky'
p1378
I0
tp1379
a(I56
I0
I0
S'few'
p1380
I0
tp1381
a(I1605
I5
F0.875
S'lucky'
p1382
I0
tp1383
a(I1605
I5
I0
S'few'
p1384
I0
tp1385
as(S'with'
p1386
S'k3'
p1387
S'note'
p1388
tp1389
(lp1390
(I245
I12
F-0.625
S'new'
p1391
I0
tp1392
a(I506
I0
F0.25
S'able'
p1393
I0
tp1394
a(I859
I0
F0.75
S'perfect'
p1395
I0
tp1396
a(I1094
I5
I0
S'u'
p1397
I0
tp1398
a(I1491
I12
I0
S'many'
p1399
I0
tp1400
a(I188
I6
F-1.0
S'bad'
p1401
I0
tp1402
a(I206
I40
F-0.625
S'last'
p1403
I0
tp1404
a(I245
I12
F-0.625
g1391
I0
tp1405
a(I316
I17
F-0.75
S'rigid'
p1406
I0
tp1407
a(I506
I0
F0.25
g1393
I0
tp1408
a(I619
I16
F-0.875
S'poor'
p1409
I0
tp1410
a(I619
I16
F-1.0
S'worst'
p1411
I0
tp1412
a(I620
I5
F0.375
S'available'
p1413
I0
tp1414
a(I695
I12
I0
S'mb'
p1415
I0
tp1416
a(I695
I12
I0
S'update'
p1417
I0
tp1418
a(I754
I68
F1.0
S'best'
p1419
I0
tp1420
a(I781
I8
I0
S'u'
p1421
I0
tp1422
a(I859
I0
F0.75
g1395
I0
tp1423
a(I902
I5
F-0.875
S'cheaper'
p1424
I0
tp1425
a(I1052
I8
F-1.0
S'bad'
p1426
I0
tp1427
a(I1085
I1
F0.5
S'safe'
p1428
I0
tp1429
a(I1094
I5
I0
g1397
I0
tp1430
a(I1157
I12
F0.5
S'second'
p1431
I0
tp1432
a(I1333
I1
I0
S'impressed'
p1433
I0
tp1434
a(I1444
I3
F-0.778
S'mediocre'
p1435
I0
tp1436
a(I1444
I3
F1.0
S'better'
p1437
I0
tp1438
a(I1491
I12
I0
g1399
I0
tp1439
a(I1511
I9
F-0.625
S'last'
p1440
I0
tp1441
a(I1630
I14
F-0.25
S'i'
p1442
I0
tp1443
a(I1653
I0
F-0.375
S'killer'
p1444
I0
tp1445
a(I1933
I7
F-0.625
S'new'
p1446
I0
tp1447
a(I1933
I7
F0.5
S'higher'
p1448
I0
tp1449
a(I2114
I0
F-0.625
S'last'
p1450
I0
tp1451
a(I2422
I12
F0.25
S'awaited'
p1452
I0
tp1453
a(I2439
I0
F1.0
S'excellent'
p1454
I0
tp1455
a(I2579
I16
I0
S'light'
p1456
I0
tp1457
a(I2579
I16
F0.75
S'easy'
p1458
I0
tp1459
a(I2579
I26
F-1.0
S'bad'
p1460
I0
tp1461
a(I2583
I0
I0
S'sure'
p1462
I0
tp1463
a(I86
I2
I0
S'mi'
p1464
I1
tp1465
a(I188
I6
F-1.0
g1401
I1
tp1466
a(I206
I40
F-0.625
g1403
I1
tp1467
a(I279
I20
I0
S'lighter'
p1468
I1
tp1469
a(I292
I2
I0
S'mi'
p1470
I1
tp1471
a(I316
I17
F-0.75
g1406
I1
tp1472
a(I404
I1
I0
S'pretty'
p1473
I1
tp1474
a(I404
I1
F-0.625
S'useless'
p1475
I1
tp1476
a(I437
I22
F-0.5
S'less'
p1477
I1
tp1478
a(I619
I16
F-0.875
g1409
I1
tp1479
a(I619
I16
F-1.0
g1411
I1
tp1480
a(I754
I50
F1.0
S'better'
p1481
I1
tp1482
a(I754
I50
F1.0
S'better'
p1483
I1
tp1484
a(I754
I68
F1.0
g1419
I1
tp1485
a(I781
I8
I0
g1421
I1
tp1486
a(I836
I7
F-0.375
S'killer'
p1487
I1
tp1488
a(I842
I1
I-100
S'remdi'
p1489
I1
tp1490
a(I859
I0
F0.75
g1395
I1
tp1491
a(I902
I5
F-0.875
g1424
I1
tp1492
a(I1052
I8
F-1.0
g1426
I1
tp1493
a(I1085
I1
F0.5
g1428
I1
tp1494
a(I1122
I12
F-0.25
S'latest'
p1495
I1
tp1496
a(I1174
I13
I0
S'more'
p1497
I1
tp1498
a(I1333
I1
I0
g1433
I1
tp1499
a(I1444
I3
F1.0
g1437
I1
tp1500
a(I1491
I12
I0
g1399
I1
tp1501
a(I1511
I9
F-0.625
g1440
I1
tp1502
a(I1590
I7
I0
S'u'
p1503
I1
tp1504
a(I1653
I0
F-0.375
g1444
I1
tp1505
a(I1792
I0
F-0.375
S'killer'
p1506
I1
tp1507
a(I1933
I7
F0.5
g1448
I1
tp1508
a(I2114
I0
F-0.625
g1450
I1
tp1509
a(I2504
I1
I0
S'm1'
p1510
I1
tp1511
a(I2579
I16
I0
g1456
I1
tp1512
a(I2579
I16
F0.75
g1458
I1
tp1513
a(I2579
I26
F-1.0
g1460
I1
tp1514
as(S'wifi'
p1515
tp1516
(lp1517
(I162
I0
F-0.75
S'defective'
p1518
I1
tp1519
a(I238
I8
F0.75
S'proper'
p1520
I1
tp1521
a(I352
I38
F-0.375
S'same'
p1522
I1
tp1523
a(I439
I17
F0.625
S'fine'
p1524
I1
tp1525
a(I593
I1
F0.125
S'signal'
p1526
I1
tp1527
a(I593
I3
F-0.375
S'same'
p1528
I1
tp1529
a(I718
I7
F0.75
S'direct'
p1530
I1
tp1531
a(I718
I7
F0.375
S'available'
p1532
I1
tp1533
a(I826
I15
F-0.875
S'small'
p1534
I1
tp1535
a(I1066
I24
I0
S'more'
p1536
I1
tp1537
a(I1936
I6
F0.75
S'due'
p1538
I1
tp1539
a(I1986
I3
F0.5
S'high'
p1540
I1
tp1541
a(I1986
I3
F0.5
S'intensive'
p1542
I1
tp1543
a(I1994
I0
F-0.875
S'strong'
p1544
I1
tp1545
a(I2022
I2
F0.25
S'able'
p1546
I1
tp1547
a(I2022
I4
F-0.75
S'open'
p1548
I1
tp1549
a(I2061
I10
F-0.875
S'poor'
p1550
I1
tp1551
a(I2192
I15
I0
S'active'
p1552
I1
tp1553
a(I2501
I0
I0
S'update'
p1554
I1
tp1555
a(I2581
I5
F-0.625
S'fast'
p1556
I1
tp1557
as(S'performance'
p1558
tp1559
(lp1560
(I42
I3
F0.875
S'great'
p1561
I13
tp1562
a(I42
I3
F0.875
S'awesome'
p1563
I13
tp1564
a(I42
I3
F-0.75
S'open'
p1565
I13
tp1566
a(I58
I7
F0.875
S'awesome'
p1567
I13
tp1568
a(I65
I27
F1.0
S'good'
p1569
I13
tp1570
a(I79
I0
F0.875
S'great'
p1571
I13
tp1572
a(I89
I1
F1.0
S'good'
p1573
I13
tp1574
a(I182
I5
F-0.875
S'poor'
p1575
I13
tp1576
a(I186
I1
F1.0
S'better'
p1577
I13
tp1578
a(I245
I11
I0
S'online'
p1579
I13
tp1580
a(I266
I3
F0.625
S'smooth'
p1581
I13
tp1582
a(I282
I10
F0.75
S'fantastic'
p1583
I13
tp1584
a(I285
I4
I-100
S'luk'
p1585
I13
tp1586
a(I327
I0
F-0.125
S'overall'
p1587
I13
tp1588
a(I327
I0
F0.625
S'smooth'
p1589
I13
tp1590
a(I388
I0
F-0.5
S'intrusive'
p1591
I13
tp1592
a(I420
I22
F0.875
S'awesome'
p1593
I13
tp1594
a(I456
I0
F-0.625
S'average'
p1595
I13
tp1596
a(I512
I2
F0.875
S'decent'
p1597
I13
tp1598
a(I512
I8
I0
S'light'
p1599
I13
tp1600
a(I526
I17
F0.375
S'much'
p1601
I13
tp1602
a(I526
I17
I0
S's'
p1603
I13
tp1604
a(I541
I0
F1.0
S'good'
p1605
I13
tp1606
a(I573
I4
F0.875
S'decent'
p1607
I13
tp1608
a(I573
I14
F-0.375
S'same'
p1609
I13
tp1610
a(I573
I15
I0
S's'
p1611
I13
tp1612
a(I573
I15
I0
S'build'
p1613
I13
tp1614
a(I656
I1
F0.125
S'mobile'
p1615
I13
tp1616
a(I656
I3
F-0.25
S'i'
p1617
I13
tp1618
a(I656
I3
F-0.125
S'overall'
p1619
I13
tp1620
a(I806
I1
F0.875
S'great'
p1621
I13
tp1622
a(I807
I1
F0.875
S'great'
p1623
I13
tp1624
a(I823
I2
F-0.636
S'genuine'
p1625
I13
tp1626
a(I823
I2
F0.125
S'mobile'
p1627
I13
tp1628
a(I873
I0
F0.875
S'happy'
p1629
I13
tp1630
a(I873
I0
I0
S's'
p1631
I13
tp1632
a(I967
I7
F0.875
S'great'
p1633
I13
tp1634
a(I992
I5
F-0.125
S'overall'
p1635
I13
tp1636
a(I1017
I3
I-100
S'awazem'
p1637
I13
tp1638
a(I1037
I1
F0.625
S'super'
p1639
I13
tp1640
a(I1113
I10
F-0.625
S'average'
p1641
I13
tp1642
a(I1122
I12
F-0.125
S'marshmallow'
p1643
I13
tp1644
a(I1122
I12
I0
S'update'
p1645
I13
tp1646
a(I1172
I1
F1.0
S'good'
p1647
I13
tp1648
a(I1246
I18
F0.5
S'stable'
p1649
I13
tp1650
a(I1276
I0
F-0.625
S'real'
p1651
I13
tp1652
a(I1278
I3
F-0.875
S'pathetic'
p1653
I13
tp1654
a(I1282
I2
F-0.875
S'poor'
p1655
I13
tp1656
a(I1312
I11
F1.0
S'better'
p1657
I13
tp1658
a(I1323
I11
F-0.625
S'other'
p1659
I13
tp1660
a(I1323
I11
F0.5
S'satisfactory'
p1661
I13
tp1662
a(I1323
I11
I-100
S'bettery'
p1663
I13
tp1664
a(I1323
I11
F1.0
S'good'
p1665
I13
tp1666
a(I1331
I0
F1.0
S'good'
p1667
I13
tp1668
a(I1333
I3
F0.75
S'wonderful'
p1669
I13
tp1670
a(I1477
I7
F-0.625
S'average'
p1671
I13
tp1672
a(I1511
I10
F-0.125
S'overall'
p1673
I13
tp1674
a(I1511
I10
F1.0
S'good'
p1675
I13
tp1676
a(I1511
I11
F0.875
S'nice'
p1677
I13
tp1678
a(I1513
I30
F-0.875
S'bit'
p1679
I13
tp1680
a(I1513
I30
F-0.625
S'average'
p1681
I13
tp1682
a(I1533
I1
F-0.75
S'free'
p1683
I13
tp1684
a(I1607
I7
F0.875
S'awesome'
p1685
I13
tp1686
a(I1614
I0
F1.0
S'good'
p1687
I13
tp1688
a(I1669
I0
F1.0
S'better'
p1689
I13
tp1690
a(I1691
I1
F0.875
S'awesome'
p1691
I13
tp1692
a(I1716
I3
F1.0
S'excellent'
p1693
I13
tp1694
a(I1720
I0
F0.875
S'awesome'
p1695
I13
tp1696
a(I1727
I0
I0
S'gaming'
p1697
I13
tp1698
a(I1727
I0
F1.0
S'good'
p1699
I13
tp1700
a(I1729
I4
F1.0
S'best'
p1701
I13
tp1702
a(I1731
I0
I0
S'audio'
p1703
I13
tp1704
a(I1731
I0
F1.0
S'good'
p1705
I13
tp1706
a(I1808
I1
F1.0
S'better'
p1707
I13
tp1708
a(I1812
I0
F1.0
S'good'
p1709
I13
tp1710
a(I1859
I2
F1.0
S'good'
p1711
I13
tp1712
a(I1879
I4
F-0.625
S'average'
p1713
I13
tp1714
a(I1934
I0
I0
S'multimedia'
p1715
I13
tp1716
a(I1949
I1
F0.875
S'nice'
p1717
I13
tp1718
a(I2020
I10
F1.0
S'good'
p1719
I13
tp1720
a(I2020
I10
F1.0
S'excellent'
p1721
I13
tp1722
a(I2021
I15
F1.0
S'better'
p1723
I13
tp1724
a(I2025
I9
F-0.875
S'low'
p1725
I13
tp1726
a(I2038
I6
I0
S'actual'
p1727
I13
tp1728
a(I2038
I9
F1.0
S'good'
p1729
I13
tp1730
a(I2046
I1
F-0.875
S'unfortunately'
p1731
I13
tp1732
a(I2046
I13
F1.0
S'better'
p1733
I13
tp1734
a(I2053
I3
F0.875
S'decent'
p1735
I13
tp1736
a(I2126
I0
F0.875
S'amazing'
p1737
I13
tp1738
a(I2155
I1
F0.375
S'impressive'
p1739
I13
tp1740
a(I2159
I0
F-0.625
S'average'
p1741
I13
tp1742
a(I2189
I1
F1.0
S'good'
p1743
I13
tp1744
a(I2192
I4
F1.0
S'better'
p1745
I13
tp1746
a(I2192
I45
F0.875
S'decent'
p1747
I13
tp1748
a(I2193
I27
I0
S'gaming'
p1749
I13
tp1750
a(I2440
I1
F1.0
S'good'
p1751
I13
tp1752
a(I2446
I3
F-0.125
S'overall'
p1753
I13
tp1754
a(I2448
I0
F1.0
S'good'
p1755
I13
tp1756
a(I2465
I2
F1.0
S'excellent'
p1757
I13
tp1758
a(I2570
I7
F1.0
S'good'
p1759
I13
tp1760
a(I2590
I0
F1.0
S'good'
p1761
I13
tp1762
a(I2591
I8
F1.0
S'good'
p1763
I13
tp1764
a(I2596
I4
F1.0
S'good'
p1765
I13
tp1766
a(I2596
I4
F1.0
S'good'
p1767
I13
tp1768
a(I2596
I5
F-0.625
S'moderate'
p1769
I13
tp1770
a(I2618
I9
F0.5
S'satisfactory'
p1771
I13
tp1772
a(I2620
I5
F-0.125
S'such'
p1773
I13
tp1774
a(I2620
I5
F-0.875
S'pathetic'
p1775
I13
tp1776
a(I2620
I18
F-0.875
S'worried'
p1777
I13
tp1778
a(I2620
I18
F0.125
S'mobile'
p1779
I13
tp1780
as(S'high'
p1781
S'sar'
p1782
S'value'
p1783
tp1784
(lp1785
(I43
I1
F0.5
S'high'
p1786
I0
tp1787
a(I79
I6
F0.5
S'high'
p1788
I0
tp1789
a(I206
I4
F0.5
S'maximum'
p1790
I0
tp1791
a(I206
I4
I0
S'actual'
p1792
I0
tp1793
a(I321
I2
F0.5
S'high'
p1794
I0
tp1795
a(I354
I6
F0.5
S'high'
p1796
I0
tp1797
a(I416
I0
F0.5
S'high'
p1798
I0
tp1799
a(I428
I7
F0.5
S'high'
p1800
I0
tp1801
a(I453
I4
F0.5
S'high'
p1802
I0
tp1803
a(I459
I0
F0.5
S'high'
p1804
I0
tp1805
a(I519
I1
F0.5
S'high'
p1806
I0
tp1807
a(I557
I1
F0.5
S'high'
p1808
I0
tp1809
a(I557
I3
F0.5
S'high'
p1810
I0
tp1811
a(I573
I19
F0.5
S'high'
p1812
I0
tp1813
a(I599
I8
F0.5
S'high'
p1814
I0
tp1815
a(I836
I10
F0.5
S'high'
p1816
I0
tp1817
a(I1066
I42
F0.5
S'high'
p1818
I0
tp1819
a(I1066
I50
F0.5
S'higher'
p1820
I0
tp1821
a(I1174
I34
F0.5
S'high'
p1822
I0
tp1823
a(I1177
I1
F0.5
S'high'
p1824
I0
tp1825
a(I1286
I6
F0.5
S'high'
p1826
I0
tp1827
a(I1302
I1
F0.5
S'higher'
p1828
I0
tp1829
a(I1325
I34
F0.5
S'high'
p1830
I0
tp1831
a(I1548
I20
F0.5
S'high'
p1832
I0
tp1833
a(I1621
I0
F0.5
S'high'
p1834
I0
tp1835
a(I1624
I3
F0.5
S'high'
p1836
I0
tp1837
a(I1758
I9
F0.5
S'high'
p1838
I0
tp1839
a(I1758
I9
F0.5
S'highest'
p1840
I0
tp1841
a(I2016
I0
F0.5
S'highest'
p1842
I0
tp1843
a(I2136
I0
F0.5
S'high'
p1844
I0
tp1845
a(I2219
I1
F0.5
S'high'
p1846
I0
tp1847
a(I2223
I0
F0.5
S'high'
p1848
I0
tp1849
a(I2232
I6
F0.5
S'high'
p1850
I0
tp1851
a(I2271
I1
F0.5
S'high'
p1852
I0
tp1853
a(I2448
I0
F0.5
S'high'
p1854
I0
tp1855
a(I2555
I5
F0.5
S'highest'
p1856
I0
tp1857
a(I2555
I9
F-0.875
S'lower'
p1858
I0
tp1859
a(I2555
I9
F0.5
S'higher'
p1860
I0
tp1861
a(I2560
I0
F0.5
S'high'
p1862
I0
tp1863
a(I2590
I3
F0.5
S'high'
p1864
I0
tp1865
a(I2590
I11
F0.5
S'higher'
p1866
I0
tp1867
a(I2616
I17
F0.5
S'high'
p1868
I0
tp1869
a(I2635
I3
F0.5
S'high'
p1870
I0
tp1871
a(I43
I1
F0.5
g1786
I0
tp1872
a(I79
I6
F0.5
g1788
I0
tp1873
a(I85
I2
F-0.875
S'worried'
p1874
I0
tp1875
a(I205
I0
I0
S'specific'
p1876
I0
tp1877
a(I205
I1
F0.5
S'maximum'
p1878
I0
tp1879
a(I206
I4
F0.5
g1790
I0
tp1880
a(I206
I4
I0
g1792
I0
tp1881
a(I238
I19
I0
S'more'
p1882
I0
tp1883
a(I321
I2
F0.5
g1794
I0
tp1884
a(I354
I6
F0.5
g1796
I0
tp1885
a(I416
I0
F0.5
g1798
I0
tp1886
a(I428
I7
F0.5
g1800
I0
tp1887
a(I431
I1
I0
S'sure'
p1888
I0
tp1889
a(I453
I4
F0.5
g1802
I0
tp1890
a(I459
I0
F0.5
g1804
I0
tp1891
a(I519
I1
F0.5
g1806
I0
tp1892
a(I557
I1
F0.5
g1808
I0
tp1893
a(I557
I3
F0.5
g1810
I0
tp1894
a(I573
I19
F0.5
g1812
I0
tp1895
a(I599
I8
F0.5
g1814
I0
tp1896
a(I731
I9
F0.75
S'competent'
p1897
I0
tp1898
a(I836
I10
F0.5
g1816
I0
tp1899
a(I968
I18
F0.5
S'maximum'
p1900
I0
tp1901
a(I1066
I42
F0.5
g1818
I0
tp1902
a(I1066
I50
F0.5
g1820
I0
tp1903
a(I1085
I1
F0.5
S'maximum'
p1904
I0
tp1905
a(I1174
I32
I0
S'more'
p1906
I0
tp1907
a(I1174
I32
F-0.875
S'negative'
p1908
I0
tp1909
a(I1174
I34
F0.5
g1822
I0
tp1910
a(I1174
I36
F0.5
S'maximum'
p1911
I0
tp1912
a(I1177
I1
F0.5
g1824
I0
tp1913
a(I1234
I1
I0
S'above'
p1914
I0
tp1915
a(I1234
I1
F-0.625
S'harmful'
p1916
I0
tp1917
a(I1286
I6
F0.5
g1826
I0
tp1918
a(I1302
I1
F0.5
g1828
I0
tp1919
a(I1325
I34
F0.5
g1830
I0
tp1920
a(I1548
I20
F0.5
g1832
I0
tp1921
a(I1621
I0
F0.5
g1834
I0
tp1922
a(I1624
I1
F0.5
S'maximum'
p1923
I0
tp1924
a(I1624
I3
F0.5
g1836
I0
tp1925
a(I1758
I9
F0.5
g1838
I0
tp1926
a(I1758
I9
F0.5
g1840
I0
tp1927
a(I2016
I0
F0.5
g1842
I0
tp1928
a(I2113
I13
I0
S'actual'
p1929
I0
tp1930
a(I2136
I0
F0.5
g1844
I0
tp1931
a(I2219
I1
F0.5
g1846
I0
tp1932
a(I2223
I0
F0.5
g1848
I0
tp1933
a(I2232
I6
F0.5
g1850
I0
tp1934
a(I2271
I1
F0.5
g1852
I0
tp1935
a(I2448
I0
F0.5
g1854
I0
tp1936
a(I2555
I5
F0.5
g1856
I0
tp1937
a(I2555
I9
F-0.875
g1858
I0
tp1938
a(I2555
I9
F0.5
g1860
I0
tp1939
a(I2555
I10
F-0.75
S'single'
p1940
I0
tp1941
a(I2560
I0
F0.5
g1862
I0
tp1942
a(I2590
I3
F0.5
g1864
I0
tp1943
a(I2590
I11
F0.5
g1866
I0
tp1944
a(I2616
I17
F0.5
g1868
I0
tp1945
a(I2635
I3
F0.5
g1870
I0
tp1946
a(I43
I1
F0.5
g1786
I0
tp1947
a(I79
I6
F0.5
g1788
I0
tp1948
a(I178
I1
F0.5
S'high'
p1949
I0
tp1950
a(I206
I4
I0
g1792
I0
tp1951
a(I321
I2
F0.5
g1794
I0
tp1952
a(I354
I6
F0.5
g1796
I0
tp1953
a(I377
I0
F0.5
S'high'
p1954
I0
tp1955
a(I453
I4
F0.5
g1802
I0
tp1956
a(I459
I0
F0.5
g1804
I0
tp1957
a(I519
I1
F0.5
g1806
I0
tp1958
a(I557
I1
F0.5
g1808
I0
tp1959
a(I557
I3
F0.5
g1810
I0
tp1960
a(I573
I19
F0.5
g1812
I0
tp1961
a(I577
I9
F0.5
S'high'
p1962
I0
tp1963
a(I592
I40
F0.5
S'high'
p1964
I0
tp1965
a(I599
I8
F0.5
g1814
I0
tp1966
a(I694
I1
F0.5
S'high'
p1967
I0
tp1968
a(I836
I10
F0.5
g1816
I0
tp1969
a(I971
I0
F0.5
S'high'
p1970
I0
tp1971
a(I1012
I11
F0.5
S'high'
p1972
I0
tp1973
a(I1066
I42
F0.5
g1818
I0
tp1974
a(I1066
I50
F0.5
g1820
I0
tp1975
a(I1125
I1
F0.5
S'high'
p1976
I0
tp1977
a(I1325
I34
F0.5
g1830
I0
tp1978
a(I1548
I20
F0.5
g1832
I0
tp1979
a(I1548
I25
F0.5
S'higher'
p1980
I0
tp1981
a(I1624
I3
F0.5
g1836
I0
tp1982
a(I1758
I9
F0.5
g1838
I0
tp1983
a(I2016
I0
F0.5
g1842
I0
tp1984
a(I2136
I0
F0.5
g1844
I0
tp1985
a(I2219
I1
F0.5
g1846
I0
tp1986
a(I2223
I0
F0.5
g1848
I0
tp1987
a(I2232
I6
F0.5
g1850
I0
tp1988
a(I2271
I1
F0.5
g1852
I0
tp1989
a(I2555
I5
F0.5
g1856
I0
tp1990
a(I2555
I9
F-0.875
g1858
I0
tp1991
a(I2555
I9
F0.5
g1860
I0
tp1992
a(I2560
I0
F0.5
g1862
I0
tp1993
a(I2590
I3
F0.5
g1864
I0
tp1994
a(I2590
I11
F0.5
g1866
I0
tp1995
as(S'no'
p1996
S'heating'
p1997
S'issue'
p1998
tp1999
(lp2000
(I352
I36
F0.375
S'heating'
p2001
I0
tp2002
a(I401
I1
F-0.5
S'excessive'
p2003
I0
tp2004
a(I415
I1
F0.375
S'much'
p2005
I0
tp2006
a(I415
I1
I0
S'bigger'
p2007
I0
tp2008
a(I599
I6
F0.375
S'heating'
p2009
I0
tp2010
a(I649
I15
F0.625
S'major'
p2011
I0
tp2012
a(I696
I7
F-0.375
S'same'
p2013
I0
tp2014
a(I820
I0
I0
S'wifi'
p2015
I0
tp2016
a(I836
I1
F-0.5
S'heavy'
p2017
I0
tp2018
a(I836
I1
F0.375
S'heating'
p2019
I0
tp2020
a(I842
I3
I0
S'most'
p2021
I0
tp2022
a(I863
I8
F0.375
S'heating'
p2023
I0
tp2024
a(I863
I8
F0.5
S'touch'
p2025
I0
tp2026
a(I991
I25
I0
S'big'
p2027
I0
tp2028
a(I1066
I31
I0
S'most'
p2029
I0
tp2030
a(I1075
I10
F-0.5
S'annoying'
p2031
I0
tp2032
a(I1111
I0
F0.375
S'heating'
p2033
I0
tp2034
a(I1259
I8
F0.5
S'experienced'
p2035
I0
tp2036
a(I1310
I14
F0.625
S'major'
p2037
I0
tp2038
a(I1325
I7
I0
S'biggest'
p2039
I0
tp2040
a(I1325
I7
F-0.875
S'negative'
p2041
I0
tp2042
a(I1325
I22
F0.375
S'much'
p2043
I0
tp2044
a(I1325
I22
I0
S'biggest'
p2045
I0
tp2046
a(I1493
I11
F0.625
S'major'
p2047
I0
tp2048
a(I1623
I7
F-0.125
S'such'
p2049
I0
tp2050
a(I1691
I3
F0.375
S'heating'
p2051
I0
tp2052
a(I1713
I0
F0.375
S'heating'
p2053
I0
tp2054
a(I1833
I0
F0.375
S'heating'
p2055
I0
tp2056
a(I2068
I2
F-0.5
S'excessive'
p2057
I0
tp2058
a(I2078
I4
F0.375
S'heating'
p2059
I0
tp2060
a(I2445
I1
F-0.625
S'fast'
p2061
I0
tp2062
a(I2586
I7
I0
S'hardware'
p2063
I0
tp2064
a(I99
I1
F0.375
S'heating'
p2065
I2
tp2066
a(I152
I0
I0
S'lag'
p2067
I2
tp2068
a(I352
I36
F0.375
g2001
I2
tp2069
a(I352
I39
F0.375
S'heating'
p2070
I2
tp2071
a(I354
I2
F0.875
S'important'
p2072
I2
tp2073
a(I401
I1
F-0.5
g2003
I2
tp2074
a(I415
I1
F0.375
g2005
I2
tp2075
a(I415
I1
I0
g2007
I2
tp2076
a(I599
I6
F0.375
g2009
I2
tp2077
a(I649
I5
F0.375
S'heating'
p2078
I2
tp2079
a(I649
I15
F0.625
g2011
I2
tp2080
a(I696
I7
F-0.375
g2013
I2
tp2081
a(I791
I0
F0.375
S'heating'
p2082
I2
tp2083
a(I820
I0
I0
g2015
I2
tp2084
a(I836
I1
F-0.5
g2017
I2
tp2085
a(I836
I1
F0.375
g2019
I2
tp2086
a(I842
I3
I0
g2021
I2
tp2087
a(I863
I8
F0.375
g2023
I2
tp2088
a(I863
I8
F0.5
g2025
I2
tp2089
a(I991
I12
F-1.0
S'worst'
p2090
I2
tp2091
a(I991
I25
I0
g2027
I2
tp2092
a(I1066
I31
I0
g2029
I2
tp2093
a(I1075
I10
F-0.5
g2031
I2
tp2094
a(I1083
I4
I0
S't'
p2095
I2
tp2096
a(I1083
I4
F0.375
S'heating'
p2097
I2
tp2098
a(I1111
I0
F0.375
g2033
I2
tp2099
a(I1151
I0
F0.375
S'heating'
p2100
I2
tp2101
a(I1259
I8
F0.5
g2035
I2
tp2102
a(I1299
I3
F0.375
S'heating'
p2103
I2
tp2104
a(I1310
I14
F0.625
g2037
I2
tp2105
a(I1325
I7
I0
g2039
I2
tp2106
a(I1325
I7
F-0.875
g2041
I2
tp2107
a(I1325
I22
F0.375
g2043
I2
tp2108
a(I1325
I22
I0
g2045
I2
tp2109
a(I1477
I6
F0.625
S'major'
p2110
I2
tp2111
a(I1493
I11
F0.625
g2047
I2
tp2112
a(I1579
I8
F0.375
S'heating'
p2113
I2
tp2114
a(I1623
I7
F-0.125
g2049
I2
tp2115
a(I1691
I3
F0.375
g2051
I2
tp2116
a(I1713
I0
F0.375
g2053
I2
tp2117
a(I1833
I0
F0.375
g2055
I2
tp2118
a(I1927
I0
F0.375
S'heating'
p2119
I2
tp2120
a(I2068
I2
F-0.5
g2057
I2
tp2121
a(I2078
I4
F0.375
g2059
I2
tp2122
a(I2445
I1
F-0.625
g2061
I2
tp2123
a(I2586
I7
I0
g2063
I2
tp2124
a(I2620
I6
I0
S'big'
p2125
I2
tp2126
as(S'in'
p2127
S'low'
p2128
S'light'
p2129
tp2130
(lp2131
(I2
I16
F-0.875
S'low'
p2132
I2
tp2133
a(I2
I16
F-0.75
S'little'
p2134
I2
tp2135
a(I2
I16
I0
S'noisy'
p2136
I2
tp2137
a(I41
I2
F-0.875
S'low'
p2138
I2
tp2139
a(I72
I2
F-0.875
S'low'
p2140
I2
tp2141
a(I118
I3
F-0.875
S'low'
p2142
I2
tp2143
a(I287
I4
F0.375
S'ambient'
p2144
I2
tp2145
a(I287
I15
F-0.875
S'low'
p2146
I2
tp2147
a(I438
I3
F-0.875
S'low'
p2148
I2
tp2149
a(I446
I0
F1.0
S'good'
p2150
I2
tp2151
a(I451
I5
F-0.875
S'low'
p2152
I2
tp2153
a(I451
I5
F1.0
S'good'
p2154
I2
tp2155
a(I585
I11
F-0.875
S'low'
p2156
I2
tp2157
a(I585
I11
F0.875
S'great'
p2158
I2
tp2159
a(I1075
I9
F-0.875
S'low'
p2160
I2
tp2161
a(I1371
I0
F1.0
S'good'
p2162
I2
tp2163
a(I1442
I4
F-0.875
S'low'
p2164
I2
tp2165
a(I1477
I7
F-0.875
S'low'
p2166
I2
tp2167
a(I1548
I15
F-0.875
S'low'
p2168
I2
tp2169
a(I1670
I5
F-0.875
S'low'
p2170
I2
tp2171
a(I2158
I0
F0.125
S'enough'
p2172
I2
tp2173
a(I2158
I0
F-0.875
S'low'
p2174
I2
tp2175
a(I2191
I2
F-0.875
S'low'
p2176
I2
tp2177
a(I2315
I6
F-0.875
S'low'
p2178
I2
tp2179
a(I2579
I27
F-0.875
S'low'
p2180
I2
tp2181
a(I2
I16
F-0.875
g2132
I2
tp2182
a(I2
I16
F-0.75
g2134
I2
tp2183
a(I2
I16
I0
g2136
I2
tp2184
a(I41
I2
F-0.875
g2138
I2
tp2185
a(I72
I2
F-0.875
g2140
I2
tp2186
a(I118
I3
F-0.875
g2142
I2
tp2187
a(I287
I4
F0.375
g2144
I2
tp2188
a(I287
I15
F-0.875
g2146
I2
tp2189
a(I438
I3
F-0.875
g2148
I2
tp2190
a(I446
I0
F1.0
g2150
I2
tp2191
a(I451
I5
F-0.875
g2152
I2
tp2192
a(I451
I5
F1.0
g2154
I2
tp2193
a(I547
I10
I0
S'daylight'
p2194
I2
tp2195
a(I547
I10
F-0.875
S'low'
p2196
I2
tp2197
a(I585
I11
F-0.875
g2156
I2
tp2198
a(I585
I11
F0.875
g2158
I2
tp2199
a(I1075
I9
F-0.875
g2160
I2
tp2200
a(I1371
I0
F1.0
g2162
I2
tp2201
a(I1442
I4
F-0.875
g2164
I2
tp2202
a(I1477
I7
F-0.875
g2166
I2
tp2203
a(I1548
I15
F-0.875
g2168
I2
tp2204
a(I1548
I16
F-0.875
S'low'
p2205
I2
tp2206
a(I1548
I16
F-0.875
S'pathetic'
p2207
I2
tp2208
a(I1670
I5
F-0.875
g2170
I2
tp2209
a(I1720
I0
F-0.875
S'low'
p2210
I2
tp2211
a(I1987
I3
F1.0
S'excellent'
p2212
I2
tp2213
a(I1987
I3
F-0.875
S'low'
p2214
I2
tp2215
a(I2067
I3
I0
S'daylight'
p2216
I2
tp2217
a(I2067
I3
F-0.875
S'low'
p2218
I2
tp2219
a(I2158
I0
F0.125
g2172
I2
tp2220
a(I2158
I0
F-0.875
g2174
I2
tp2221
a(I2158
I1
F-0.875
S'low'
p2222
I2
tp2223
a(I2158
I1
F-0.875
S'low'
p2224
I2
tp2225
a(I2191
I2
F-0.875
g2176
I2
tp2226
a(I2315
I6
F-0.875
g2178
I2
tp2227
a(I2579
I27
F-0.875
g2180
I2
tp2228
as(S'wan'
p2229
S'na'
p2230
tp2231
(lp2232
(I1131
I6
I0
S'u'
p2233
I0
tp2234
as(S'customer'
p2235
S'care'
p2236
tp2237
(lp2238
(I1012
I6
I-100
S'flipkar'
p2239
I12
tp2240
a(I2022
I6
F0.625
S'tried'
p2241
I12
tp2242
as(S'need'
p2243
tp2244
(lp2245
(I200
I0
F-0.5
S'slow'
p2246
I9
tp2247
a(I931
I1
I0
S't'
p2248
I9
tp2249
a(I1024
I2
F0.375
S'further'
p2250
I9
tp2251
a(I1066
I21
I0
S't'
p2252
I9
tp2253
a(I1115
I11
I0
S'u'
p2254
I9
tp2255
a(I1214
I3
I0
S'big'
p2256
I9
tp2257
a(I1996
I1
I0
S'more'
p2258
I9
tp2259
a(I2176
I4
F1.0
S'good'
p2260
I9
tp2261
a(I2462
I0
I0
S't'
p2262
I9
tp2263
a(I2493
I18
I0
S't'
p2264
I9
tp2265
a(I2589
I10
F0.25
S'basic'
p2266
I9
tp2267
as(g615
S'little'
p2268
S'bit'
p2269
tp2270
(lp2271
(I310
I0
F-0.75
S'little'
p2272
I0
tp2273
a(I310
I0
F0.5
S'noise'
p2274
I0
tp2275
a(I523
I0
F-0.75
S'little'
p2276
I0
tp2277
a(I652
I2
F-0.75
S'little'
p2278
I0
tp2279
a(I944
I3
F-0.75
S'little'
p2280
I0
tp2281
a(I944
I4
F-0.75
S'little'
p2282
I0
tp2283
a(I944
I4
F0.375
S'heating'
p2284
I0
tp2285
a(I1006
I6
F-0.75
S'little'
p2286
I0
tp2287
a(I1083
I5
F-0.75
S'little'
p2288
I0
tp2289
a(I1136
I2
F-0.75
S'little'
p2290
I0
tp2291
a(I1259
I3
F-0.75
S'little'
p2292
I0
tp2293
a(I1259
I3
F-1.0
S'bad'
p2294
I0
tp2295
a(I1286
I4
F-0.75
S'little'
p2296
I0
tp2297
a(I1450
I11
F-0.75
S'little'
p2298
I0
tp2299
a(I1513
I34
F-0.75
S'little'
p2300
I0
tp2301
a(I1546
I1
F-0.75
S'little'
p2302
I0
tp2303
a(I1546
I1
F-0.75
S'difficult'
p2304
I0
tp2305
a(I1547
I1
F-0.75
S'little'
p2306
I0
tp2307
a(I1679
I0
F-0.75
S'little'
p2308
I0
tp2309
a(I1679
I0
F0.375
S'heating'
p2310
I0
tp2311
a(I1928
I0
F-0.75
S'little'
p2312
I0
tp2313
a(I1988
I0
F-0.75
S'little'
p2314
I0
tp2315
a(I1988
I0
F0.625
S'manageable'
p2316
I0
tp2317
a(I2059
I1
F-0.75
S'little'
p2318
I0
tp2319
a(I2063
I12
F-0.75
S'little'
p2320
I0
tp2321
a(I2277
I0
F-0.75
S'little'
p2322
I0
tp2323
a(I2277
I0
F0.5
S'higher'
p2324
I0
tp2325
a(I2400
I26
F-0.75
S'little'
p2326
I0
tp2327
as(S'pre'
p2328
S'installed'
p2329
S'apps'
p2330
tp2331
(lp2332
(I74
I1
F-0.75
S'little'
p2333
I0
tp2334
a(I536
I1
I0
S'many'
p2335
I0
tp2336
a(I1066
I6
I0
S'most'
p2337
I0
tp2338
a(I1066
I6
F-0.5
S'heavy'
p2339
I0
tp2340
a(I1304
I65
F0.375
S'much'
p2341
I0
tp2342
a(I2050
I25
F-0.625
S'useless'
p2343
I0
tp2344
a(I2387
I0
F0.875
S'great'
p2345
I0
tp2346
a(I2530
I1
I0
S'unnecessary'
p2347
I0
tp2348
a(I22
I3
I0
S'clear'
p2349
I4
tp2350
a(I22
I3
F0.25
S'recent'
p2351
I4
tp2352
a(I74
I1
F-0.75
g2333
I4
tp2353
a(I84
I1
F-0.5
S'heavy'
p2354
I4
tp2355
a(I97
I1
I0
S'many'
p2356
I4
tp2357
a(I134
I15
I0
S'many'
p2358
I4
tp2359
a(I196
I2
F1.0
S'good'
p2360
I4
tp2361
a(I209
I9
I0
S'many'
p2362
I4
tp2363
a(I209
I9
F-0.5
S'unwanted'
p2364
I4
tp2365
a(I213
I7
F1.0
S'good'
p2366
I4
tp2367
a(I243
I1
F-0.375
S'loaded'
p2368
I4
tp2369
a(I243
I1
F-1.0
S'worse'
p2370
I4
tp2371
a(I320
I9
F0.625
S'close'
p2372
I4
tp2373
a(I324
I1
F-0.75
S'sufficient'
p2374
I4
tp2375
a(I353
I1
F0.125
S'mobile'
p2376
I4
tp2377
a(I420
I12
F0.375
S'available'
p2378
I4
tp2379
a(I420
I13
F0.375
S'usage'
p2380
I4
tp2381
a(I420
I13
F0.25
S'fo'
p2382
I4
tp2383
a(I439
I6
F-0.625
S'useless'
p2384
I4
tp2385
a(I466
I14
I0
S'minimal'
p2386
I4
tp2387
a(I504
I0
F-0.625
S'other'
p2388
I4
tp2389
a(I536
I1
I0
g2335
I4
tp2390
a(I573
I4
I0
S'multiple'
p2391
I4
tp2392
a(I573
I4
F-0.75
S'open'
p2393
I4
tp2394
a(I607
I12
F0.875
S'great'
p2395
I4
tp2396
a(I620
I1
F0.25
S'basic'
p2397
I4
tp2398
a(I653
I1
F-0.25
S'occupied'
p2399
I4
tp2400
a(I653
I1
F-0.625
S'other'
p2401
I4
tp2402
a(I673
I28
F-0.625
S'other'
p2403
I4
tp2404
a(I740
I5
I-100
S'nonse'
p2405
I4
tp2406
a(I804
I0
I0
S'built'
p2407
I4
tp2408
a(I823
I5
F-0.625
S'other'
p2409
I4
tp2410
a(I823
I5
F0.75
S'essential'
p2411
I4
tp2412
a(I890
I5
I0
S'more'
p2413
I4
tp2414
a(I890
I5
F0.25
S'basic'
p2415
I4
tp2416
a(I922
I1
I0
S'unnecessary'
p2417
I4
tp2418
a(I954
I7
I0
S'inbuilt'
p2419
I4
tp2420
a(I969
I8
F-0.375
S'stop'
p2421
I4
tp2422
a(I969
I9
F-0.625
S'other'
p2423
I4
tp2424
a(I992
I2
F-0.625
S'other'
p2425
I4
tp2426
a(I1038
I1
F-0.5
S'heavy'
p2427
I4
tp2428
a(I1066
I6
F-0.5
g2339
I4
tp2429
a(I1066
I7
F-0.5
S'extra'
p2430
I4
tp2431
a(I1066
I7
I0
S'inbuilt'
p2432
I4
tp2433
a(I1083
I0
F-0.625
S'other'
p2434
I4
tp2435
a(I1121
I7
I0
S'many'
p2436
I4
tp2437
a(I1131
I10
F1.0
S'good'
p2438
I4
tp2439
a(I1156
I4
F-0.75
S'open'
p2440
I4
tp2441
a(I1174
I29
I0
S'inbuilt'
p2442
I4
tp2443
a(I1247
I18
I0
S'alternative'
p2444
I4
tp2445
a(I1304
I65
F0.375
g2341
I4
tp2446
a(I1312
I8
F-0.375
S'disable'
p2447
I4
tp2448
a(I1322
I11
I0
S'many'
p2449
I4
tp2450
a(I1322
I11
F0.5
S'internal'
p2451
I4
tp2452
a(I1322
I11
F-0.125
S'such'
p2453
I4
tp2454
a(I1322
I11
I0
S'few'
p2455
I4
tp2456
a(I1325
I26
F-0.5
S'unwanted'
p2457
I4
tp2458
a(I1359
I1
F0.875
S'simple'
p2459
I4
tp2460
a(I1420
I2
I0
S'multiple'
p2461
I4
tp2462
a(I1420
I2
F-0.75
S'open'
p2463
I4
tp2464
a(I1464
I16
F-0.5
S'heavy'
p2465
I4
tp2466
a(I1514
I0
F-0.5
S'automatic'
p2467
I4
tp2468
a(I1553
I19
F0.875
S'great'
p2469
I4
tp2470
a(I1557
I15
F-0.5
S'heavy'
p2471
I4
tp2472
a(I1799
I0
F-0.5
S'heavy'
p2473
I4
tp2474
a(I1799
I0
F0.5
S'obvious'
p2475
I4
tp2476
a(I1820
I1
F-0.625
S'other'
p2477
I4
tp2478
a(I1832
I0
I0
S'most'
p2479
I4
tp2480
a(I1858
I1
F0.625
S'fine'
p2481
I4
tp2482
a(I1864
I1
F0.25
S'recent'
p2483
I4
tp2484
a(I1936
I1
F-0.5
S'browsing'
p2485
I4
tp2486
a(I2020
I11
F-0.5
S'less'
p2487
I4
tp2488
a(I2021
I15
I0
S'multiple'
p2489
I4
tp2490
a(I2048
I4
I0
S'lags'
p2491
I4
tp2492
a(I2048
I4
F-0.5
S'heavy'
p2493
I4
tp2494
a(I2048
I7
F0.25
S'required'
p2495
I4
tp2496
a(I2048
I7
F-0.125
S'such'
p2497
I4
tp2498
a(I2050
I25
F-0.625
g2343
I4
tp2499
a(I2067
I6
F1.0
S'good'
p2500
I4
tp2501
a(I2078
I3
F0.375
S'flexible'
p2502
I4
tp2503
a(I2113
I1
F-0.125
S'such'
p2504
I4
tp2505
a(I2192
I8
I0
S'unnecessary'
p2506
I4
tp2507
a(I2192
I9
F0.25
S'recent'
p2508
I4
tp2509
a(I2428
I1
F-0.75
S'sticky'
p2510
I4
tp2511
a(I2530
I1
I0
g2347
I4
tp2512
a(I2562
I4
I0
S'inbuilt'
p2513
I4
tp2514
a(I2579
I35
F-0.625
S'fast'
p2515
I4
tp2516
a(I2603
I0
I0
S'many'
p2517
I4
tp2518
as(S'build'
p2519
S'quality'
p2520
tp2521
(lp2522
(I18
I0
F0.875
S'decent'
p2523
I2
tp2524
a(I38
I6
F1.0
S'excellent'
p2525
I2
tp2526
a(I239
I3
F1.0
S'good'
p2527
I2
tp2528
a(I507
I1
F0.875
S'great'
p2529
I2
tp2530
a(I507
I1
I0
S'build'
p2531
I2
tp2532
a(I526
I16
I0
S'build'
p2533
I2
tp2534
a(I596
I5
F1.0
S'good'
p2535
I2
tp2536
a(I610
I1
F0.75
S'premium'
p2537
I2
tp2538
a(I810
I31
I0
S'build'
p2539
I2
tp2540
a(I810
I31
F-1.0
S'bad'
p2541
I2
tp2542
a(I819
I9
F-0.875
S'low'
p2543
I2
tp2544
a(I819
I9
F-0.875
S'low'
p2545
I2
tp2546
a(I867
I0
F1.0
S'good'
p2547
I2
tp2548
a(I1109
I11
F1.0
S'best'
p2549
I2
tp2550
a(I1180
I3
I0
S'build'
p2551
I2
tp2552
a(I1254
I0
F1.0
S'good'
p2553
I2
tp2554
a(I1262
I0
I0
S'build'
p2555
I2
tp2556
a(I1262
I0
F-0.875
S'poor'
p2557
I2
tp2558
a(I1548
I52
F1.0
S'excellent'
p2559
I2
tp2560
a(I2038
I12
F1.0
S'good'
p2561
I2
tp2562
a(I2113
I6
F0.875
S'decent'
p2563
I2
tp2564
a(I2154
I0
F1.0
S'good'
p2565
I2
tp2566
a(I2192
I24
F0.875
S'amazing'
p2567
I2
tp2568
a(I2312
I0
F0.875
S'solid'
p2569
I2
tp2570
a(I2437
I5
F-0.875
S'poor'
p2571
I2
tp2572
a(I2437
I5
I0
S'build'
p2573
I2
tp2574
a(I2570
I11
F0.375
S'ok'
p2575
I2
tp2576
as(S'1'
p2577
S'5'
p2578
S'days'
p2579
tp2580
(lp2581
(I418
I8
I0
S'more'
p2582
I0
tp2583
a(I1359
I7
F-0.125
S'next'
p2584
I0
tp2585
a(I2363
I0
I0
S'odd'
p2586
I0
tp2587
a(I2469
I4
I0
S'more'
p2588
I0
tp2589
as(S'at'
p2590
S'price'
p2591
S'point'
p2592
tp2593
(lp2594
(I473
I1
F-0.875
S'low'
p2595
I0
tp2596
as(S'well'
p2597
tp2598
(lp2599
(I325
I0
I0
S'many'
p2600
I9
tp2601
a(I1304
I58
F-0.875
S'criminal'
p2602
I9
tp2603
as(S'think'
p2604
tp2605
(lp2606
(I1956
I4
I0
S't'
p2607
I16
tp2608
as(S'thinkpad'
p2609
S'laptops'
p2610
tp2611
(lp2612
(I56
I5
F0.5
S'old'
p2613
I0
tp2614
a(I1605
I10
F0.5
S'old'
p2615
I0
tp2616
a(I2173
I0
F0.5
S'old'
p2617
I0
tp2618
as(S'pros'
p2619
S'and'
p2620
S'cons'
p2621
tp2622
(lp2623
(I104
I0
I0
S'bigger'
p2624
I0
tp2625
a(I104
I0
F-0.778
S'common'
p2626
I0
tp2627
a(I463
I5
F0.125
S'usual'
p2628
I0
tp2629
a(I1005
I3
F-0.778
S'common'
p2630
I0
tp2631
a(I333
I0
F1.0
S'good'
p2632
I2
tp2633
a(I1005
I3
F-0.778
g2630
I2
tp2634
a(I1331
I0
F-0.125
S'overall'
p2635
I2
tp2636
a(I1624
I4
F-0.125
S'overall'
p2637
I2
tp2638
a(I2146
I0
F-0.625
S'other'
p2639
I2
tp2640
a(I2146
I0
F-0.375
S'same'
p2641
I2
tp2642
a(I2547
I0
F1.0
S'good'
p2643
I2
tp2644
a(I2635
I9
I0
S'big'
p2645
I2
tp2646
a(I104
I0
I0
g2624
I8
tp2647
a(I104
I0
F-0.778
g2626
I8
tp2648
a(I336
I0
F-1.0
S'bad'
p2649
I8
tp2650
a(I463
I5
F0.125
g2628
I8
tp2651
a(I519
I25
I0
S'only'
p2652
I8
tp2653
a(I644
I0
I0
S'only'
p2654
I8
tp2655
a(I824
I14
I0
S'serious'
p2656
I8
tp2657
a(I1042
I2
F0.375
S'notable'
p2658
I8
tp2659
a(I1390
I7
I0
S'below'
p2660
I8
tp2661
a(I1454
I0
F0.5
S'reasonable'
p2662
I8
tp2663
a(I1454
I0
F-0.25
S'solvable'
p2664
I8
tp2665
a(I1489
I12
I0
S'only'
p2666
I8
tp2667
a(I1840
I0
F-0.5
S'negligible'
p2668
I8
tp2669
a(I1935
I0
F0.375
S'available'
p2670
I8
tp2671
a(I2191
I5
I0
S't'
p2672
I8
tp2673
as(S'to'
p2674
S'service'
p2675
S'center'
p2676
tp2677
(lp2678
(I620
I11
I0
g1249
I0
tp2679
a(I716
I12
F0.125
g1251
I0
tp2680
a(I716
I12
F-0.625
g1253
I0
tp2681
a(I716
I12
F-0.25
g1255
I0
tp2682
a(I812
I12
I0
S'different'
p2683
I0
tp2684
a(I814
I6
F-0.375
S'authorized'
p2685
I0
tp2686
a(I968
I9
F-0.625
S'nearby'
p2687
I0
tp2688
a(I1122
I16
F-0.5
S'slow'
p2689
I0
tp2690
a(I1122
I16
I0
S'many'
p2691
I0
tp2692
a(I1414
I3
I0
g1257
I0
tp2693
a(I1489
I15
I0
g1261
I0
tp2694
a(I2469
I2
F-0.375
S'same'
p2695
I0
tp2696
a(I569
I7
F0.75
S'proper'
p2697
I5
tp2698
a(I620
I11
I0
g1249
I5
tp2699
a(I716
I12
F0.125
g1251
I5
tp2700
a(I716
I12
F-0.625
g1253
I5
tp2701
a(I716
I12
F-0.25
g1255
I5
tp2702
a(I812
I12
I0
g2683
I5
tp2703
a(I814
I6
F-0.375
g2685
I5
tp2704
a(I968
I9
F-0.625
g2687
I5
tp2705
a(I1122
I16
F-0.5
g2689
I5
tp2706
a(I1122
I16
I0
g2691
I5
tp2707
a(I1195
I12
F0.375
S'available'
p2708
I5
tp2709
a(I1414
I3
I0
g1257
I5
tp2710
a(I1489
I15
I0
g1261
I5
tp2711
a(I2469
I2
F-0.375
g2695
I5
tp2712
as(S'lenovo'
p2713
S'k3'
p2714
S'note'
p2715
tp2716
(lp2717
(I188
I6
F-1.0
g1401
I0
tp2718
a(I545
I0
F0.75
g1273
I0
tp2719
a(I577
I10
F0.125
g1277
I0
tp2720
a(I619
I16
F-0.875
g1409
I0
tp2721
a(I619
I16
F-1.0
g1411
I0
tp2722
a(I754
I68
F1.0
g1419
I0
tp2723
a(I781
I8
I0
g1421
I0
tp2724
a(I845
I7
F-0.375
g1293
I0
tp2725
a(I859
I0
F0.75
g1395
I0
tp2726
a(I1052
I8
F-1.0
g1426
I0
tp2727
a(I1064
I0
F1.0
g1299
I0
tp2728
a(I1171
I18
F0.875
g1309
I0
tp2729
a(I1333
I1
I0
g1433
I0
tp2730
a(I1511
I9
F-0.625
g1440
I0
tp2731
a(I1579
I22
F-0.125
g1334
I0
tp2732
a(I1630
I14
F-0.25
g1442
I0
tp2733
a(I1930
I0
F-0.625
g1342
I0
tp2734
a(I1933
I7
F-0.625
g1446
I0
tp2735
a(I1933
I7
F0.5
g1448
I0
tp2736
a(I2024
I0
F-0.625
g1344
I0
tp2737
a(I2114
I0
F-0.625
g1450
I0
tp2738
a(I2437
I3
F0.125
g1360
I0
tp2739
a(I2439
I0
F1.0
g1454
I0
tp2740
a(I2505
I53
F-0.625
g1364
I0
tp2741
a(I2579
I16
I0
g1456
I0
tp2742
a(I2579
I16
F0.75
g1458
I0
tp2743
a(I346
I3
F0.5
S'unique'
p2744
I0
tp2745
a(I545
I0
F0.75
g1273
I0
tp2746
a(I577
I10
F0.125
g1277
I0
tp2747
a(I711
I0
F0.125
S'mobile'
p2748
I0
tp2749
a(I845
I7
F-0.375
g1293
I0
tp2750
a(I991
I0
F0.625
S'first'
p2751
I0
tp2752
a(I1064
I0
F1.0
g1299
I0
tp2753
a(I1086
I0
F-0.125
g1301
I0
tp2754
a(I1171
I18
F0.875
g1309
I0
tp2755
a(I1489
I15
F0.875
S'awesome'
p2756
I0
tp2757
a(I1489
I15
I0
g1259
I0
tp2758
a(I1579
I22
F-0.125
g1334
I0
tp2759
a(I1630
I14
F-0.25
g1442
I0
tp2760
a(I1930
I0
F-0.625
g1342
I0
tp2761
a(I1933
I7
F-0.625
g1446
I0
tp2762
a(I1976
I3
F-0.25
S'past'
p2763
I0
tp2764
a(I2024
I0
F-0.625
g1344
I0
tp2765
a(I2075
I0
I0
S'big'
p2766
I0
tp2767
a(I2078
I7
F0.25
g1350
I0
tp2768
a(I2360
I3
F1.0
S'better'
p2769
I0
tp2770
a(I2437
I3
F0.125
g1360
I0
tp2771
a(I2439
I0
F1.0
g1454
I0
tp2772
a(I2465
I0
F-0.625
g1362
I0
tp2773
a(I2505
I53
F-0.625
g1364
I0
tp2774
as(S'no'
p2775
S'heating'
p2776
S'problem'
p2777
tp2778
(lp2779
(I415
I1
F0.375
g2005
I1
tp2780
a(I1623
I7
F-0.125
g2049
I1
tp2781
a(I2505
I8
F0.625
S'major'
p2782
I1
tp2783
a(I2519
I7
F-0.25
S'i'
p2784
I1
tp2785
a(I2556
I0
F0.125
S'mobile'
p2786
I1
tp2787
a(I2556
I0
I0
S'operate'
p2788
I1
tp2789
a(I354
I2
I0
S's'
p2790
I6
tp2791
a(I415
I1
F0.375
g2005
I6
tp2792
a(I1464
I5
I0
S'main'
p2793
I6
tp2794
a(I1623
I7
F-0.125
g2049
I6
tp2795
a(I1878
I1
F0.625
S'major'
p2796
I6
tp2797
a(I2221
I0
F-0.875
S'severe'
p2798
I6
tp2799
a(I2491
I10
F0.375
S'much'
p2800
I6
tp2801
a(I2505
I8
F0.625
g2782
I6
tp2802
a(I2519
I7
F-0.25
g2784
I6
tp2803
a(I2556
I0
F0.125
g2786
I6
tp2804
a(I2556
I0
I0
g2788
I6
tp2805
as(S'no'
p2806
S'heating'
p2807
S'issues'
p2808
tp2809
(lp2810
(I401
I1
F-0.5
g2003
I0
tp2811
a(I1075
I10
F-0.5
g2031
I0
tp2812
a(I1623
I5
I0
S'many'
p2813
I0
tp2814
a(I1623
I7
F-0.125
g2049
I0
tp2815
a(I2068
I2
F-0.5
g2057
I0
tp2816
a(I2134
I0
F-0.75
S'minor'
p2817
I0
tp2818
a(I2134
I0
I0
S'occasional'
p2819
I0
tp2820
a(I401
I1
F-0.5
g2003
I0
tp2821
a(I991
I12
F-1.0
g2090
I0
tp2822
a(I1075
I10
F-0.5
g2031
I0
tp2823
a(I1623
I5
I0
g2813
I0
tp2824
a(I1623
I7
F-0.125
g2049
I0
tp2825
a(I2068
I2
F-0.5
g2057
I0
tp2826
a(I2134
I0
F-0.75
g2817
I0
tp2827
a(I2134
I0
I0
g2819
I0
tp2828
a(I238
I2
F1.0
S'good'
p2829
I4
tp2830
a(I593
I4
F-0.375
S'same'
p2831
I4
tp2832
a(I601
I5
F0.625
S'major'
p2833
I4
tp2834
a(I601
I5
F-0.125
S'such'
p2835
I4
tp2836
a(I601
I5
F0.875
S'happy'
p2837
I4
tp2838
a(I615
I14
I0
S'main'
p2839
I4
tp2840
a(I619
I3
I0
S'few'
p2841
I4
tp2842
a(I620
I9
F-0.625
S'lacking'
p2843
I4
tp2844
a(I620
I9
F-0.375
S'same'
p2845
I4
tp2846
a(I620
I14
F-0.636
S'genuine'
p2847
I4
tp2848
a(I620
I14
F-0.375
S'same'
p2849
I4
tp2850
a(I620
I14
I0
S'sure'
p2851
I4
tp2852
a(I620
I17
F-0.375
S'same'
p2853
I4
tp2854
a(I696
I15
I0
S'many'
p2855
I4
tp2856
a(I744
I3
F0.625
S'major'
p2857
I4
tp2858
a(I820
I1
F-0.25
S'hang'
p2859
I4
tp2860
a(I1115
I3
F-0.375
S'same'
p2861
I4
tp2862
a(I1120
I4
F0.625
S'major'
p2863
I4
tp2864
a(I1157
I4
I0
S'many'
p2865
I4
tp2866
a(I1196
I8
F0.25
S'able'
p2867
I4
tp2868
a(I1259
I17
I0
S'more'
p2869
I4
tp2870
a(I1295
I13
I0
S'many'
p2871
I4
tp2872
a(I1312
I4
F-0.125
S'such'
p2873
I4
tp2874
a(I1325
I32
F0.625
S'major'
p2875
I4
tp2876
a(I1360
I0
F0.5
S'similar'
p2877
I4
tp2878
a(I1502
I4
F-0.375
S'same'
p2879
I4
tp2880
a(I1623
I5
I0
g2813
I4
tp2881
a(I1623
I6
F-0.125
S'such'
p2882
I4
tp2883
a(I1890
I2
I0
S'widespread'
p2884
I4
tp2885
a(I2021
I10
I0
S'lagging'
p2886
I4
tp2887
a(I2134
I0
F-0.75
g2817
I4
tp2888
a(I2134
I0
I0
g2819
I4
tp2889
a(I2191
I5
F-0.625
S'other'
p2890
I4
tp2891
a(I2193
I14
I0
S'big'
p2892
I4
tp2893
a(I2443
I3
F-0.75
S'free'
p2894
I4
tp2895
a(I2486
I2
F-0.625
S'last'
p2896
I4
tp2897
a(I2492
I4
I0
S'many'
p2898
I4
tp2899
a(I2519
I1
I0
S'many'
p2900
I4
tp2901
a(I2519
I1
I0
S'more'
p2902
I4
tp2903
as(S'for'
p2904
S'lenovo'
p2905
S'k3'
p2906
tp2907
(lp2908
(I346
I3
F0.5
g2744
I0
tp2909
a(I711
I0
F0.125
g2748
I0
tp2910
a(I1064
I0
F1.0
g1299
I0
tp2911
a(I2360
I3
F1.0
g2769
I0
tp2912
as(S'couple'
p2913
S'of'
p2914
S'days'
p2915
tp2916
(lp2917
(I656
I1
F-0.625
S'last'
p2918
I1
tp2919
a(I656
I1
F-0.25
S'i'
p2920
I1
tp2921
a(I1111
I6
I0
S'sure'
p2922
I1
tp2923
a(I1564
I1
F-0.625
S'last'
p2924
I1
tp2925
as(S'screen'
p2926
S'guard'
p2927
tp2928
(lp2929
(I39
I0
F-0.75
S'free'
p2930
I6
tp2931
a(I296
I5
F-0.75
S'free'
p2932
I6
tp2933
a(I439
I8
F-0.875
S'pathetic'
p2934
I6
tp2935
a(I664
I1
F1.0
S'good'
p2936
I6
tp2937
a(I819
I6
I0
S'screen'
p2938
I6
tp2939
a(I1047
I2
I0
S'screen'
p2940
I6
tp2941
a(I1303
I1
F-0.625
S'new'
p2942
I6
tp2943
a(I1304
I13
I0
S'screen'
p2944
I6
tp2945
a(I1322
I9
I0
S'screen'
p2946
I6
tp2947
a(I1451
I0
F1.0
S'good'
p2948
I6
tp2949
a(I2217
I13
F-0.25
S'i'
p2950
I6
tp2951
a(I2217
I13
I0
S'normal'
p2952
I6
tp2953
a(I2217
I13
I0
S'screen'
p2954
I6
tp2955
as(S'for'
p2956
S'k3'
p2957
S'note'
p2958
tp2959
(lp2960
(I188
I6
F-1.0
g1401
I0
tp2961
a(I506
I0
F0.25
g1393
I0
tp2962
a(I619
I16
F-0.875
g1409
I0
tp2963
a(I619
I16
F-1.0
g1411
I0
tp2964
a(I859
I0
F0.75
g1395
I0
tp2965
a(I1052
I8
F-1.0
g1426
I0
tp2966
as(S'courier'
p2967
S'partner'
p2968
tp2969
(lp2970
(I2007
I0
I0
S'courier'
p2971
I0
tp2972
as(S'hours'
p2973
tp2974
(lp2975
(I79
I9
I0
S'few'
p2976
I14
tp2977
a(I159
I7
F-0.75
S'idle'
p2978
I14
tp2979
a(I159
I7
I0
S'few'
p2980
I14
tp2981
a(I168
I17
I0
S'few'
p2982
I14
tp2983
a(I312
I2
F-0.625
S'last'
p2984
I14
tp2985
a(I312
I2
F-0.5
S'continuous'
p2986
I14
tp2987
a(I377
I7
F0.5
S'daily'
p2988
I14
tp2989
a(I447
I0
F-0.5
S'slow'
p2990
I14
tp2991
a(I474
I1
I0
S'many'
p2992
I14
tp2993
a(I502
I0
I0
S'few'
p2994
I14
tp2995
a(I538
I3
I0
S'few'
p2996
I14
tp2997
a(I557
I2
F-0.5
S'long'
p2998
I14
tp2999
a(I887
I3
F1.0
S'good'
p3000
I14
tp3001
a(I913
I0
I0
S'actual'
p3002
I14
tp3003
a(I991
I20
I0
S'n'
p3004
I14
tp3005
a(I1009
I1
F0.75
S'complete'
p3006
I14
tp3007
a(I1066
I30
F-0.375
S'half'
p3008
I14
tp3009
a(I1115
I4
I0
S'least'
p3010
I14
tp3011
a(I1147
I0
F-0.5
S'long'
p3012
I14
tp3013
a(I1420
I5
I0
S'few'
p3014
I14
tp3015
a(I1513
I36
F-0.5
S'continuous'
p3016
I14
tp3017
a(I1579
I7
F-0.875
S'poor'
p3018
I14
tp3019
a(I1834
I0
F-0.125
S'minimum'
p3020
I14
tp3021
a(I1834
I0
F-0.5
S'continuous'
p3022
I14
tp3023
a(I2257
I1
I0
S'more'
p3024
I14
tp3025
a(I2259
I2
I0
S'more'
p3026
I14
tp3027
a(I2445
I0
F-0.625
S'last'
p3028
I14
tp3029
a(I2475
I10
F-0.5
S'continuous'
p3030
I14
tp3031
a(I2476
I16
F0.875
S'golden'
p3032
I14
tp3033
as(S'good'
p3034
S'sound'
p3035
S'quality'
p3036
tp3037
(lp3038
(I86
I5
F1.0
S'good'
p3039
I0
tp3040
a(I185
I1
F1.0
S'good'
p3041
I0
tp3042
a(I292
I5
F1.0
S'good'
p3043
I0
tp3044
a(I513
I2
F1.0
S'good'
p3045
I0
tp3046
a(I533
I1
F1.0
S'good'
p3047
I0
tp3048
a(I585
I19
F1.0
S'good'
p3049
I0
tp3050
a(I592
I12
F1.0
S'good'
p3051
I0
tp3052
a(I599
I1
F0.75
S'sound'
p3053
I0
tp3054
a(I599
I1
F1.0
S'excellent'
p3055
I0
tp3056
a(I1007
I3
F1.0
S'good'
p3057
I0
tp3058
a(I1109
I24
F1.0
S'good'
p3059
I0
tp3060
a(I1171
I20
F1.0
S'good'
p3061
I0
tp3062
a(I1322
I7
F0.875
S'awesome'
p3063
I0
tp3064
a(I1325
I6
F1.0
S'good'
p3065
I0
tp3066
a(I1325
I6
F1.0
S'good'
p3067
I0
tp3068
a(I1511
I10
F0.75
S'sound'
p3069
I0
tp3070
a(I1548
I32
F1.0
S'good'
p3071
I0
tp3072
a(I1627
I0
F0.75
S'sound'
p3073
I0
tp3074
a(I1627
I0
F1.0
S'good'
p3075
I0
tp3076
a(I1662
I14
F0.75
S'sound'
p3077
I0
tp3078
a(I1662
I14
F1.0
S'good'
p3079
I0
tp3080
a(I1730
I0
F0.75
S'sound'
p3081
I0
tp3082
a(I1730
I0
F1.0
S'good'
p3083
I0
tp3084
a(I1740
I1
F0.75
S'sound'
p3085
I0
tp3086
a(I1807
I1
F1.0
S'good'
p3087
I0
tp3088
a(I1836
I0
F0.75
S'sound'
p3089
I0
tp3090
a(I1836
I0
F1.0
S'good'
p3091
I0
tp3092
a(I1836
I1
F-0.5
S'loud'
p3093
I0
tp3094
a(I1836
I1
F1.0
S'good'
p3095
I0
tp3096
a(I1985
I8
F1.0
S'good'
p3097
I0
tp3098
a(I2061
I1
F0.75
S'sound'
p3099
I0
tp3100
a(I2253
I1
F0.75
S'sound'
p3101
I0
tp3102
a(I2253
I1
F1.0
S'good'
p3103
I0
tp3104
a(I2388
I0
F-0.5
S'call'
p3105
I0
tp3106
a(I2388
I0
F1.0
S'good'
p3107
I0
tp3108
a(I2388
I0
F1.0
S'good'
p3109
I0
tp3110
a(I2390
I0
F1.0
S'good'
p3111
I0
tp3112
a(I2579
I8
F-0.875
S'poor'
p3113
I0
tp3114
a(I2586
I6
F1.0
S'good'
p3115
I0
tp3116
a(I30
I1
F0.75
S'sound'
p3117
I5
tp3118
a(I30
I1
F0.875
S'decent'
p3119
I5
tp3120
a(I86
I5
F1.0
g3039
I5
tp3121
a(I185
I1
F1.0
g3041
I5
tp3122
a(I290
I3
F0.75
S'sound'
p3123
I5
tp3124
a(I292
I5
F1.0
g3043
I5
tp3125
a(I374
I1
I0
S'abysmal'
p3126
I5
tp3127
a(I513
I2
F1.0
g3045
I5
tp3128
a(I533
I1
F1.0
g3047
I5
tp3129
a(I585
I19
F1.0
g3049
I5
tp3130
a(I592
I12
F1.0
g3051
I5
tp3131
a(I599
I1
F0.75
g3053
I5
tp3132
a(I599
I1
F1.0
g3055
I5
tp3133
a(I650
I5
F0.875
S'nice'
p3134
I5
tp3135
a(I650
I9
F0.875
S'nice'
p3136
I5
tp3137
a(I681
I0
F0.75
S'sound'
p3138
I5
tp3139
a(I726
I0
F-1.0
S'bad'
p3140
I5
tp3141
a(I754
I15
F0.75
S'sound'
p3142
I5
tp3143
a(I796
I0
F0.75
S'sound'
p3144
I5
tp3145
a(I796
I0
I0
S'pretty'
p3146
I5
tp3147
a(I1007
I3
F1.0
g3057
I5
tp3148
a(I1073
I13
F0.75
S'sound'
p3149
I5
tp3150
a(I1109
I24
F1.0
g3059
I5
tp3151
a(I1112
I15
F-0.875
S'poor'
p3152
I5
tp3153
a(I1122
I21
F1.0
S'excellent'
p3154
I5
tp3155
a(I1171
I20
F1.0
g3061
I5
tp3156
a(I1322
I7
F0.875
g3063
I5
tp3157
a(I1325
I6
F1.0
g3065
I5
tp3158
a(I1325
I6
F1.0
g3067
I5
tp3159
a(I1456
I6
F0.5
S'satisfy'
p3160
I5
tp3161
a(I1511
I10
F0.75
g3069
I5
tp3162
a(I1548
I32
F1.0
g3071
I5
tp3163
a(I1549
I22
F0.75
S'sound'
p3164
I5
tp3165
a(I1549
I22
F0.875
S'awesome'
p3166
I5
tp3167
a(I1581
I15
F0.875
S'fabulous'
p3168
I5
tp3169
a(I1627
I0
F0.75
g3073
I5
tp3170
a(I1627
I0
F1.0
g3075
I5
tp3171
a(I1662
I14
F0.75
g3077
I5
tp3172
a(I1662
I14
F1.0
g3079
I5
tp3173
a(I1730
I0
F0.75
g3081
I5
tp3174
a(I1730
I0
F1.0
g3083
I5
tp3175
a(I1740
I1
F0.75
g3085
I5
tp3176
a(I1807
I1
F1.0
g3087
I5
tp3177
a(I1836
I0
F0.75
g3089
I5
tp3178
a(I1836
I0
F1.0
g3091
I5
tp3179
a(I1836
I1
F-0.5
g3093
I5
tp3180
a(I1836
I1
F1.0
g3095
I5
tp3181
a(I1879
I16
F0.875
S'awesome'
p3182
I5
tp3183
a(I1882
I1
F-0.875
S'poor'
p3184
I5
tp3185
a(I1911
I1
F-0.625
S'average'
p3186
I5
tp3187
a(I1911
I1
F0.75
S'sound'
p3188
I5
tp3189
a(I1946
I1
F0.75
S'sound'
p3190
I5
tp3191
a(I1985
I8
F1.0
g3097
I5
tp3192
a(I2061
I1
F0.75
g3099
I5
tp3193
a(I2080
I3
F-0.875
S'low'
p3194
I5
tp3195
a(I2253
I1
F0.75
g3101
I5
tp3196
a(I2253
I1
F1.0
g3103
I5
tp3197
a(I2259
I8
F0.5
S'second'
p3198
I5
tp3199
a(I2388
I0
F-0.5
g3105
I5
tp3200
a(I2388
I0
F1.0
g3107
I5
tp3201
a(I2388
I0
F1.0
g3109
I5
tp3202
a(I2390
I0
F1.0
g3111
I5
tp3203
a(I2394
I0
F-1.0
S'bad'
p3204
I5
tp3205
a(I2430
I8
I0
S'cool'
p3206
I5
tp3207
a(I2446
I6
I0
S'par'
p3208
I5
tp3209
a(I2452
I5
F1.0
S'excellent'
p3210
I5
tp3211
a(I2570
I11
F0.375
g2575
I5
tp3212
a(I2579
I8
F-0.875
g3113
I5
tp3213
a(I2586
I6
F1.0
g3115
I5
tp3214
a(I86
I1
F1.0
S'good'
p3215
I0
tp3216
a(I166
I3
F1.0
S'good'
p3217
I0
tp3218
a(I166
I3
F0.125
S'usual'
p3219
I0
tp3220
a(I185
I1
F1.0
g3041
I0
tp3221
a(I206
I10
F1.0
S'good'
p3222
I0
tp3223
a(I206
I12
F1.0
S'good'
p3224
I0
tp3225
a(I206
I23
F1.0
S'good'
p3226
I0
tp3227
a(I234
I4
F1.0
S'good'
p3228
I0
tp3229
a(I239
I3
F1.0
g2527
I0
tp3230
a(I239
I4
F1.0
S'good'
p3231
I0
tp3232
a(I292
I1
F1.0
S'good'
p3233
I0
tp3234
a(I316
I0
F1.0
S'good'
p3235
I0
tp3236
a(I318
I1
F1.0
S'good'
p3237
I0
tp3238
a(I325
I0
F1.0
S'good'
p3239
I0
tp3240
a(I328
I0
F1.0
S'good'
p3241
I0
tp3242
a(I420
I27
F1.0
S'good'
p3243
I0
tp3244
a(I453
I5
F-1.0
S'bad'
p3245
I0
tp3246
a(I499
I0
F1.0
S'good'
p3247
I0
tp3248
a(I507
I1
F0.875
g2529
I0
tp3249
a(I507
I1
I0
g2531
I0
tp3250
a(I508
I4
F-0.625
S'average'
p3251
I0
tp3252
a(I513
I2
F1.0
g3045
I0
tp3253
a(I526
I16
I0
g2533
I0
tp3254
a(I585
I5
F0.5
S'high'
p3255
I0
tp3256
a(I585
I19
F1.0
g3049
I0
tp3257
a(I592
I12
F1.0
g3051
I0
tp3258
a(I596
I5
F1.0
g2535
I0
tp3259
a(I599
I1
F0.75
g3053
I0
tp3260
a(I599
I1
F1.0
g3055
I0
tp3261
a(I657
I2
F1.0
S'good'
p3262
I0
tp3263
a(I667
I1
F1.0
S'good'
p3264
I0
tp3265
a(I673
I13
F1.0
S'good'
p3266
I0
tp3267
a(I711
I3
F1.0
S'good'
p3268
I0
tp3269
a(I711
I4
I0
S'screen'
p3270
I0
tp3271
a(I711
I4
F1.0
S'good'
p3272
I0
tp3273
a(I731
I7
F1.0
S'good'
p3274
I0
tp3275
a(I778
I3
F1.0
S'good'
p3276
I0
tp3277
a(I778
I5
F1.0
S'good'
p3278
I0
tp3279
a(I807
I1
F1.0
S'good'
p3280
I0
tp3281
a(I1007
I3
F1.0
g3057
I0
tp3282
a(I1024
I7
F1.0
S'good'
p3283
I0
tp3284
a(I1083
I0
F1.0
S'excellent'
p3285
I0
tp3286
a(I1083
I2
F1.0
S'good'
p3287
I0
tp3288
a(I1084
I1
F1.0
S'good'
p3289
I0
tp3290
a(I1084
I1
I0
S'clear'
p3291
I0
tp3292
a(I1094
I9
F1.0
S'good'
p3293
I0
tp3294
a(I1131
I7
F1.0
S'good'
p3295
I0
tp3296
a(I1180
I3
I0
g2551
I0
tp3297
a(I1184
I7
I0
S'screen'
p3298
I0
tp3299
a(I1184
I7
F1.0
S'good'
p3300
I0
tp3301
a(I1207
I1
F1.0
S'good'
p3302
I0
tp3303
a(I1214
I5
F-0.5
S'call'
p3304
I0
tp3305
a(I1224
I0
I0
S'audio'
p3306
I0
tp3307
a(I1253
I8
F1.0
S'good'
p3308
I0
tp3309
a(I1274
I1
F1.0
S'good'
p3310
I0
tp3311
a(I1287
I1
F1.0
S'good'
p3312
I0
tp3313
a(I1288
I1
F1.0
S'good'
p3314
I0
tp3315
a(I1304
I30
F1.0
S'good'
p3316
I0
tp3317
a(I1322
I6
F1.0
S'good'
p3318
I0
tp3319
a(I1322
I7
F0.875
g3063
I0
tp3320
a(I1325
I6
F1.0
g3065
I0
tp3321
a(I1325
I49
F1.0
S'good'
p3322
I0
tp3323
a(I1352
I0
F1.0
S'good'
p3324
I0
tp3325
a(I1428
I0
F-0.625
S'double'
p3326
I0
tp3327
a(I1479
I1
F1.0
S'good'
p3328
I0
tp3329
a(I1489
I8
F1.0
S'good'
p3330
I0
tp3331
a(I1511
I10
F0.75
g3069
I0
tp3332
a(I1578
I0
I0
S'normal'
p3333
I0
tp3334
a(I1627
I0
F0.75
g3073
I0
tp3335
a(I1627
I0
F1.0
g3075
I0
tp3336
a(I1628
I0
F1.0
S'good'
p3337
I0
tp3338
a(I1662
I14
F0.75
g3077
I0
tp3339
a(I1662
I14
F1.0
g3079
I0
tp3340
a(I1664
I1
F1.0
S'good'
p3341
I0
tp3342
a(I1730
I0
F0.75
g3081
I0
tp3343
a(I1730
I0
F1.0
g3083
I0
tp3344
a(I1740
I1
F0.75
g3085
I0
tp3345
a(I1768
I1
I0
S'bright'
p3346
I0
tp3347
a(I1768
I2
F1.0
S'good'
p3348
I0
tp3349
a(I1768
I2
F1.0
S'good'
p3350
I0
tp3351
a(I1807
I1
F1.0
g3087
I0
tp3352
a(I1836
I0
F0.75
g3089
I0
tp3353
a(I1836
I0
F1.0
g3091
I0
tp3354
a(I1836
I1
F-0.5
g3093
I0
tp3355
a(I1836
I1
F1.0
g3095
I0
tp3356
a(I1879
I6
F1.0
S'good'
p3357
I0
tp3358
a(I1945
I1
F1.0
S'good'
p3359
I0
tp3360
a(I1985
I8
F1.0
g3097
I0
tp3361
a(I2061
I1
F0.75
g3099
I0
tp3362
a(I2069
I24
F1.0
S'good'
p3363
I0
tp3364
a(I2071
I0
F1.0
S'good'
p3365
I0
tp3366
a(I2088
I1
F1.0
S'good'
p3367
I0
tp3368
a(I2117
I1
F1.0
S'good'
p3369
I0
tp3370
a(I2176
I5
F1.0
S'good'
p3371
I0
tp3372
a(I2253
I1
F0.75
g3101
I0
tp3373
a(I2253
I1
F1.0
g3103
I0
tp3374
a(I2352
I0
F1.0
S'good'
p3375
I0
tp3376
a(I2388
I0
F-0.5
g3105
I0
tp3377
a(I2388
I0
F1.0
g3107
I0
tp3378
a(I2430
I3
F1.0
S'good'
p3379
I0
tp3380
a(I2430
I9
F1.0
S'good'
p3381
I0
tp3382
a(I2503
I1
F1.0
S'good'
p3383
I0
tp3384
a(I2579
I8
F-0.875
g3113
I0
tp3385
a(I2579
I28
F1.0
S'good'
p3386
I0
tp3387
a(I2586
I2
F1.0
S'good'
p3388
I0
tp3389
a(I2591
I1
F1.0
S'good'
p3390
I0
tp3391
a(I2625
I2
F1.0
S'good'
p3392
I0
tp3393
a(I86
I1
F1.0
g3215
I2
tp3394
a(I166
I3
F1.0
g3217
I2
tp3395
a(I166
I3
F0.125
g3219
I2
tp3396
a(I185
I1
F1.0
g3041
I2
tp3397
a(I206
I10
F1.0
g3222
I2
tp3398
a(I206
I12
F1.0
g3224
I2
tp3399
a(I206
I23
F1.0
g3226
I2
tp3400
a(I234
I4
F1.0
g3228
I2
tp3401
a(I239
I3
F1.0
g2527
I2
tp3402
a(I239
I4
F1.0
g3231
I2
tp3403
a(I292
I1
F1.0
g3233
I2
tp3404
a(I316
I0
F1.0
g3235
I2
tp3405
a(I318
I1
F1.0
g3237
I2
tp3406
a(I325
I0
F1.0
g3239
I2
tp3407
a(I328
I0
F1.0
g3241
I2
tp3408
a(I420
I27
F1.0
g3243
I2
tp3409
a(I453
I5
F-1.0
g3245
I2
tp3410
a(I499
I0
F1.0
g3247
I2
tp3411
a(I507
I1
F0.875
g2529
I2
tp3412
a(I507
I1
I0
g2531
I2
tp3413
a(I508
I4
F-0.625
g3251
I2
tp3414
a(I513
I2
F1.0
g3045
I2
tp3415
a(I526
I16
I0
g2533
I2
tp3416
a(I585
I5
F0.5
g3255
I2
tp3417
a(I585
I19
F1.0
g3049
I2
tp3418
a(I592
I12
F1.0
g3051
I2
tp3419
a(I596
I5
F1.0
g2535
I2
tp3420
a(I599
I1
F0.75
g3053
I2
tp3421
a(I599
I1
F1.0
g3055
I2
tp3422
a(I657
I2
F1.0
g3262
I2
tp3423
a(I667
I1
F1.0
g3264
I2
tp3424
a(I673
I13
F1.0
g3266
I2
tp3425
a(I711
I3
F1.0
g3268
I2
tp3426
a(I711
I4
I0
g3270
I2
tp3427
a(I711
I4
F1.0
g3272
I2
tp3428
a(I731
I7
F1.0
g3274
I2
tp3429
a(I778
I3
F1.0
g3276
I2
tp3430
a(I778
I5
F1.0
g3278
I2
tp3431
a(I807
I1
F1.0
g3280
I2
tp3432
a(I1007
I3
F1.0
g3057
I2
tp3433
a(I1024
I7
F1.0
g3283
I2
tp3434
a(I1083
I0
F1.0
g3285
I2
tp3435
a(I1083
I2
F1.0
g3287
I2
tp3436
a(I1084
I1
F1.0
g3289
I2
tp3437
a(I1084
I1
I0
g3291
I2
tp3438
a(I1094
I9
F1.0
g3293
I2
tp3439
a(I1131
I7
F1.0
g3295
I2
tp3440
a(I1180
I3
I0
g2551
I2
tp3441
a(I1184
I7
I0
g3298
I2
tp3442
a(I1184
I7
F1.0
g3300
I2
tp3443
a(I1207
I1
F1.0
g3302
I2
tp3444
a(I1214
I5
F-0.5
g3304
I2
tp3445
a(I1224
I0
I0
g3306
I2
tp3446
a(I1253
I8
F1.0
g3308
I2
tp3447
a(I1274
I1
F1.0
g3310
I2
tp3448
a(I1287
I1
F1.0
g3312
I2
tp3449
a(I1288
I1
F1.0
g3314
I2
tp3450
a(I1304
I30
F1.0
g3316
I2
tp3451
a(I1322
I6
F1.0
g3318
I2
tp3452
a(I1322
I7
F0.875
g3063
I2
tp3453
a(I1325
I6
F1.0
g3065
I2
tp3454
a(I1325
I49
F1.0
g3322
I2
tp3455
a(I1352
I0
F1.0
g3324
I2
tp3456
a(I1428
I0
F-0.625
g3326
I2
tp3457
a(I1479
I1
F1.0
g3328
I2
tp3458
a(I1489
I8
F1.0
g3330
I2
tp3459
a(I1511
I10
F0.75
g3069
I2
tp3460
a(I1578
I0
I0
g3333
I2
tp3461
a(I1627
I0
F0.75
g3073
I2
tp3462
a(I1627
I0
F1.0
g3075
I2
tp3463
a(I1628
I0
F1.0
g3337
I2
tp3464
a(I1662
I14
F0.75
g3077
I2
tp3465
a(I1662
I14
F1.0
g3079
I2
tp3466
a(I1664
I1
F1.0
g3341
I2
tp3467
a(I1730
I0
F0.75
g3081
I2
tp3468
a(I1730
I0
F1.0
g3083
I2
tp3469
a(I1740
I1
F0.75
g3085
I2
tp3470
a(I1768
I1
I0
g3346
I2
tp3471
a(I1768
I2
F1.0
g3348
I2
tp3472
a(I1768
I2
F1.0
g3350
I2
tp3473
a(I1807
I1
F1.0
g3087
I2
tp3474
a(I1836
I0
F0.75
g3089
I2
tp3475
a(I1836
I0
F1.0
g3091
I2
tp3476
a(I1836
I1
F-0.5
g3093
I2
tp3477
a(I1836
I1
F1.0
g3095
I2
tp3478
a(I1879
I6
F1.0
g3357
I2
tp3479
a(I1945
I1
F1.0
g3359
I2
tp3480
a(I1985
I8
F1.0
g3097
I2
tp3481
a(I2061
I1
F0.75
g3099
I2
tp3482
a(I2069
I24
F1.0
g3363
I2
tp3483
a(I2071
I0
F1.0
g3365
I2
tp3484
a(I2088
I1
F1.0
g3367
I2
tp3485
a(I2117
I1
F1.0
g3369
I2
tp3486
a(I2176
I5
F1.0
g3371
I2
tp3487
a(I2253
I1
F0.75
g3101
I2
tp3488
a(I2253
I1
F1.0
g3103
I2
tp3489
a(I2352
I0
F1.0
g3375
I2
tp3490
a(I2388
I0
F-0.5
g3105
I2
tp3491
a(I2388
I0
F1.0
g3107
I2
tp3492
a(I2430
I3
F1.0
g3379
I2
tp3493
a(I2430
I9
F1.0
g3381
I2
tp3494
a(I2503
I1
F1.0
g3383
I2
tp3495
a(I2579
I8
F-0.875
g3113
I2
tp3496
a(I2579
I28
F1.0
g3386
I2
tp3497
a(I2586
I2
F1.0
g3388
I2
tp3498
a(I2591
I1
F1.0
g3390
I2
tp3499
a(I2625
I2
F1.0
g3392
I2
tp3500
a(I86
I5
F1.0
g3039
I15
tp3501
a(I292
I5
F1.0
g3043
I15
tp3502
a(I428
I11
F-0.5
S'slow'
p3503
I15
tp3504
a(I444
I0
F1.0
S'good'
p3505
I15
tp3506
a(I519
I36
F1.0
S'good'
p3507
I15
tp3508
a(I533
I1
F1.0
g3047
I15
tp3509
a(I553
I1
F1.0
S'good'
p3510
I15
tp3511
a(I555
I3
F-0.875
S'small'
p3512
I15
tp3513
a(I650
I5
F0.875
g3134
I15
tp3514
a(I650
I9
F0.875
g3136
I15
tp3515
a(I673
I36
F1.0
S'good'
p3516
I15
tp3517
a(I754
I16
F1.0
S'best'
p3518
I15
tp3519
a(I872
I9
F0.625
S'extraordinary'
p3520
I15
tp3521
a(I896
I9
F-0.5
S'loud'
p3522
I15
tp3523
a(I897
I3
F0.5
S'empty'
p3524
I15
tp3525
a(I954
I3
F0.75
S'wonderful'
p3526
I15
tp3527
a(I1049
I1
F1.0
S'good'
p3528
I15
tp3529
a(I1075
I14
I0
S'dolby'
p3530
I15
tp3531
a(I1075
I14
F0.125
S'digital'
p3532
I15
tp3533
a(I1109
I24
F1.0
g3059
I15
tp3534
a(I1122
I21
F1.0
g3154
I15
tp3535
a(I1171
I20
F1.0
g3061
I15
tp3536
a(I1180
I2
F1.0
S'best'
p3537
I15
tp3538
a(I1274
I12
F-0.875
S'low'
p3539
I15
tp3540
a(I1325
I6
F1.0
g3067
I15
tp3541
a(I1369
I0
F1.0
S'good'
p3542
I15
tp3543
a(I1515
I17
F1.0
S'good'
p3544
I15
tp3545
a(I1548
I32
F1.0
g3071
I15
tp3546
a(I1553
I6
I0
S'dolby'
p3547
I15
tp3548
a(I1557
I2
F1.0
S'good'
p3549
I15
tp3550
a(I1575
I3
F-1.0
S'bad'
p3551
I15
tp3552
a(I1702
I0
F1.0
S'good'
p3553
I15
tp3554
a(I1771
I1
F-0.5
S'loud'
p3555
I15
tp3556
a(I1992
I0
F0.875
S'nice'
p3557
I15
tp3558
a(I2048
I14
F-0.5
S'loud'
p3559
I15
tp3560
a(I2063
I17
F0.875
S'decent'
p3561
I15
tp3562
a(I2063
I17
F1.0
S'good'
p3563
I15
tp3564
a(I2080
I3
F-0.875
g3194
I15
tp3565
a(I2100
I0
F1.0
S'excellent'
p3566
I15
tp3567
a(I2232
I2
I0
S'clear'
p3568
I15
tp3569
a(I2233
I0
F0.5
S'touch'
p3570
I15
tp3571
a(I2323
I4
F1.0
S'good'
p3572
I15
tp3573
a(I2388
I0
F1.0
g3109
I15
tp3574
a(I2390
I0
F1.0
g3111
I15
tp3575
a(I2394
I0
F-1.0
g3204
I15
tp3576
a(I2452
I5
F1.0
g3210
I15
tp3577
a(I2530
I5
F0.875
S'great'
p3578
I15
tp3579
a(I2586
I6
F1.0
g3115
I15
tp3580
as(S'good'
p3581
S'battery'
p3582
S'backup'
p3583
tp3584
(lp3585
(I312
I1
F1.0
S'good'
p3586
I0
tp3587
a(I439
I21
F1.0
S'good'
p3588
I0
tp3589
a(I439
I21
I0
S'more'
p3590
I0
tp3591
a(I588
I4
F1.0
S'good'
p3592
I0
tp3593
a(I615
I1
F1.0
S'good'
p3594
I0
tp3595
a(I638
I1
F1.0
S'good'
p3596
I0
tp3597
a(I824
I6
F1.0
S'good'
p3598
I0
tp3599
a(I887
I0
F1.0
S'good'
p3600
I0
tp3601
a(I907
I1
F1.0
S'good'
p3602
I0
tp3603
a(I953
I11
F1.0
S'good'
p3604
I0
tp3605
a(I1071
I1
F1.0
S'good'
p3606
I0
tp3607
a(I1108
I1
F1.0
S'good'
p3608
I0
tp3609
a(I1112
I1
F0.875
S'decent'
p3610
I0
tp3611
a(I1207
I1
F-0.125
S'front'
p3612
I0
tp3613
a(I1384
I0
F1.0
S'good'
p3614
I0
tp3615
a(I1419
I1
F1.0
S'good'
p3616
I0
tp3617
a(I1461
I0
F1.0
S'good'
p3618
I0
tp3619
a(I1513
I27
F1.0
S'good'
p3620
I0
tp3621
a(I1567
I3
F1.0
S'good'
p3622
I0
tp3623
a(I1711
I4
F1.0
S'good'
p3624
I0
tp3625
a(I2256
I6
F1.0
S'good'
p3626
I0
tp3627
a(I2362
I8
F1.0
S'good'
p3628
I0
tp3629
a(I2422
I18
F1.0
S'good'
p3630
I0
tp3631
a(I2455
I1
F1.0
S'good'
p3632
I0
tp3633
a(I2580
I4
F1.0
S'good'
p3634
I0
tp3635
a(I2581
I11
F1.0
S'good'
p3636
I0
tp3637
as(S'back'
p3638
S'cover'
p3639
tp3640
(lp3641
(I239
I4
F-0.125
S'back'
p3642
I2
tp3643
a(I239
I4
F0.5
S'thin'
p3644
I2
tp3645
a(I274
I6
F0.75
S'sound'
p3646
I2
tp3647
a(I274
I6
I0
S'u'
p3648
I2
tp3649
a(I397
I3
F-0.125
S'back'
p3650
I2
tp3651
a(I418
I20
F-0.125
S'back'
p3652
I2
tp3653
a(I661
I1
F0.125
S'radiant'
p3654
I2
tp3655
a(I661
I1
F0.5
S'shiny'
p3656
I2
tp3657
a(I661
I1
F0.75
S'white'
p3658
I2
tp3659
a(I661
I1
F-0.75
S'pure'
p3660
I2
tp3661
a(I661
I1
F0.75
S'white'
p3662
I2
tp3663
a(I819
I9
F-0.125
S'back'
p3664
I2
tp3665
a(I844
I1
F-0.375
S'same'
p3666
I2
tp3667
a(I1094
I8
F0.75
S'premium'
p3668
I2
tp3669
a(I1196
I16
F-0.125
S'back'
p3670
I2
tp3671
a(I1214
I0
F-0.875
S'strong'
p3672
I2
tp3673
a(I1332
I0
F-0.875
S'cheap'
p3674
I2
tp3675
a(I1549
I32
F-0.125
S'back'
p3676
I2
tp3677
a(I1549
I32
F0.5
S'thin'
p3678
I2
tp3679
a(I1591
I1
F-0.125
S'back'
p3680
I2
tp3681
a(I1592
I4
F-0.75
S'loose'
p3682
I2
tp3683
a(I1711
I5
F-0.125
S'back'
p3684
I2
tp3685
a(I2069
I25
F-0.125
S'back'
p3686
I2
tp3687
a(I2069
I25
F0.75
S'white'
p3688
I2
tp3689
a(I2154
I9
I0
S'pretty'
p3690
I2
tp3691
a(I2293
I1
F-0.75
S'loose'
p3692
I2
tp3693
a(I2503
I4
F0.5
S'thin'
p3694
I2
tp3695
a(I2546
I5
F0.75
S'sound'
p3696
I2
tp3697
a(I2546
I5
I0
S'u'
p3698
I2
tp3699
as(S'subway'
p3700
S'surfer'
p3701
tp3702
(lp3703
(I754
I32
F-0.375
S'same'
p3704
I0
tp3705
a(I2579
I46
F0.625
S'smooth'
p3706
I0
tp3707
as(S'lenova'
p3708
S'k3'
p3709
S'note'
p3710
tp3711
(lp3712
(I206
I40
F-0.625
g1403
I0
tp3713
as(S'speed'
p3714
tp3715
(lp3716
(I110
I1
F1.0
S'good'
p3717
I14
tp3718
a(I282
I10
F0.625
S'super'
p3719
I14
tp3720
a(I588
I16
F1.0
S'good'
p3721
I14
tp3722
a(I597
I3
F0.875
S'awesome'
p3723
I14
tp3724
a(I673
I13
F0.375
S'impressive'
p3725
I14
tp3726
a(I721
I0
F0.875
S'superb'
p3727
I14
tp3728
a(I749
I4
F0.5
S'clarity'
p3729
I14
tp3730
a(I749
I4
I0
S'net'
p3731
I14
tp3732
a(I749
I4
F-0.875
S'poor'
p3733
I14
tp3734
a(I850
I1
F1.0
S'good'
p3735
I14
tp3736
a(I872
I11
F0.875
S'nice'
p3737
I14
tp3738
a(I872
I22
F0.875
S'great'
p3739
I14
tp3740
a(I875
I11
F0.625
S'fine'
p3741
I14
tp3742
a(I1057
I0
F0.75
S'fantastic'
p3743
I14
tp3744
a(I1320
I0
F-1.0
S'worse'
p3745
I14
tp3746
a(I1322
I15
F-0.125
S'huge'
p3747
I14
tp3748
a(I1428
I2
F-0.25
S'hang'
p3749
I14
tp3750
a(I1456
I3
F1.0
S'good'
p3751
I14
tp3752
a(I1489
I4
F1.0
S'good'
p3753
I14
tp3754
a(I1513
I34
F1.0
S'good'
p3755
I14
tp3756
a(I1557
I12
F1.0
S'better'
p3757
I14
tp3758
a(I1714
I1
F1.0
S'good'
p3759
I14
tp3760
a(I1817
I1
F0.375
S'full'
p3761
I14
tp3762
a(I1826
I1
F1.0
S'good'
p3763
I14
tp3764
a(I2068
I0
F1.0
S'good'
p3765
I14
tp3766
a(I2068
I0
F0.625
S'smooth'
p3767
I14
tp3768
a(I2176
I4
F1.0
S'good'
p3769
I14
tp3770
a(I2181
I0
F0.5
S'high'
p3771
I14
tp3772
a(I2227
I0
F0.625
S'super'
p3773
I14
tp3774
a(I2259
I5
F0.875
S'awesome'
p3775
I14
tp3776
a(I2355
I1
F0.875
S'decent'
p3777
I14
tp3778
a(I2360
I6
F0.5
S'high'
p3779
I14
tp3780
a(I2361
I1
F-0.875
S'lowest'
p3781
I14
tp3782
a(I2570
I8
F1.0
S'good'
p3783
I14
tp3784
a(I2579
I37
F0.5
S'second'
p3785
I14
tp3786
a(I2591
I6
F0.375
S'much'
p3787
I14
tp3788
as(S'first'
p3789
S'flash'
p3790
S'sale'
p3791
tp3792
(lp3793
(I354
I0
F0.625
S'first'
p3794
I0
tp3795
a(I354
I0
F-0.5
S'flash'
p3796
I0
tp3797
a(I418
I7
F0.625
S'first'
p3798
I0
tp3799
a(I418
I7
F-0.5
S'flash'
p3800
I0
tp3801
a(I526
I15
F-0.5
S'flash'
p3802
I0
tp3803
a(I606
I1
F0.625
S'first'
p3804
I0
tp3805
a(I606
I1
F-0.5
S'flash'
p3806
I0
tp3807
a(I753
I1
F-0.5
S'flash'
p3808
I0
tp3809
a(I836
I11
F0.625
S'first'
p3810
I0
tp3811
a(I836
I11
F-0.5
S'flash'
p3812
I0
tp3813
a(I836
I11
F0.5
S'second'
p3814
I0
tp3815
a(I836
I11
F-0.5
S'flash'
p3816
I0
tp3817
a(I894
I10
F-0.5
g1164
I0
tp3818
a(I903
I3
F0.625
S'first'
p3819
I0
tp3820
a(I903
I3
F-0.5
S'flash'
p3821
I0
tp3822
a(I903
I12
F0.625
S'first'
p3823
I0
tp3824
a(I903
I12
F-0.5
S'flash'
p3825
I0
tp3826
a(I991
I0
F-0.5
S'flash'
p3827
I0
tp3828
a(I1005
I2
F0.625
S'first'
p3829
I0
tp3830
a(I1005
I2
F-0.5
S'flash'
p3831
I0
tp3832
a(I1065
I0
F0.625
g1166
I0
tp3833
a(I1109
I14
F-0.5
S'flash'
p3834
I0
tp3835
a(I1511
I1
F0.625
S'first'
p3836
I0
tp3837
a(I1511
I1
F-0.5
S'flash'
p3838
I0
tp3839
a(I2003
I0
F0.625
S'first'
p3840
I0
tp3841
a(I2003
I0
F-0.5
S'flash'
p3842
I0
tp3843
a(I2164
I6
F-0.5
S'flash'
p3844
I0
tp3845
a(I2232
I4
F0.625
S'first'
p3846
I0
tp3847
a(I2232
I4
F-0.5
S'flash'
p3848
I0
tp3849
a(I2280
I0
F0.625
S'first'
p3850
I0
tp3851
a(I2280
I0
F-0.5
S'flash'
p3852
I0
tp3853
a(I2350
I0
F0.625
S'first'
p3854
I0
tp3855
a(I2350
I0
F-0.5
S'flash'
p3856
I0
tp3857
a(I2372
I0
F-0.5
S'flash'
p3858
I0
tp3859
a(I2380
I2
F0.625
S'first'
p3860
I0
tp3861
a(I2380
I2
F-0.5
S'flash'
p3862
I0
tp3863
a(I2486
I1
F-0.5
S'flash'
p3864
I0
tp3865
a(I2538
I1
F-0.5
S'flash'
p3866
I0
tp3867
a(I65
I26
F-0.5
S'flash'
p3868
I0
tp3869
a(I79
I5
F-0.5
S'flash'
p3870
I0
tp3871
a(I209
I13
F-0.5
S'flash'
p3872
I0
tp3873
a(I226
I6
F-0.5
S'flash'
p3874
I0
tp3875
a(I354
I0
F0.625
g3794
I0
tp3876
a(I354
I0
F-0.5
g3796
I0
tp3877
a(I418
I7
F0.625
g3798
I0
tp3878
a(I418
I7
F-0.5
g3800
I0
tp3879
a(I526
I15
F-0.5
g3802
I0
tp3880
a(I527
I2
F-0.5
S'flash'
p3881
I0
tp3882
a(I527
I3
F-0.5
S'flash'
p3883
I0
tp3884
a(I527
I3
F-0.375
S'same'
p3885
I0
tp3886
a(I573
I24
F-0.5
S'flash'
p3887
I0
tp3888
a(I606
I1
F0.625
g3804
I0
tp3889
a(I606
I1
F-0.5
g3806
I0
tp3890
a(I753
I1
F-0.5
g3808
I0
tp3891
a(I756
I8
F-0.5
S'flash'
p3892
I0
tp3893
a(I836
I11
F0.625
g3810
I0
tp3894
a(I836
I11
F-0.5
g3812
I0
tp3895
a(I836
I11
F0.5
g3814
I0
tp3896
a(I836
I11
F-0.5
g3816
I0
tp3897
a(I903
I3
F0.625
g3819
I0
tp3898
a(I903
I3
F-0.5
g3821
I0
tp3899
a(I903
I12
F0.625
g3823
I0
tp3900
a(I903
I12
F-0.5
g3825
I0
tp3901
a(I968
I2
F-0.5
S'flash'
p3902
I0
tp3903
a(I991
I0
F-0.5
g3827
I0
tp3904
a(I1005
I2
F0.625
g3829
I0
tp3905
a(I1005
I2
F-0.5
g3831
I0
tp3906
a(I1065
I0
F0.625
g1166
I0
tp3907
a(I1109
I14
F-0.5
g3834
I0
tp3908
a(I1179
I0
F-0.5
S'flash'
p3909
I0
tp3910
a(I1511
I1
F0.625
g3836
I0
tp3911
a(I1511
I1
F-0.5
g3838
I0
tp3912
a(I1866
I0
F-0.5
S'flash'
p3913
I0
tp3914
a(I1874
I3
F-0.5
S'flash'
p3915
I0
tp3916
a(I1883
I0
F-0.5
S'flash'
p3917
I0
tp3918
a(I1893
I2
F-0.5
S'flash'
p3919
I0
tp3920
a(I1985
I10
F-0.5
S'flash'
p3921
I0
tp3922
a(I2003
I0
F0.625
g3840
I0
tp3923
a(I2003
I0
F-0.5
g3842
I0
tp3924
a(I2053
I6
F-0.5
S'flash'
p3925
I0
tp3926
a(I2164
I6
F-0.5
g3844
I0
tp3927
a(I2232
I4
F0.625
g3846
I0
tp3928
a(I2232
I4
F-0.5
g3848
I0
tp3929
a(I2280
I0
F0.625
g3850
I0
tp3930
a(I2280
I0
F-0.5
g3852
I0
tp3931
a(I2350
I0
F0.625
g3854
I0
tp3932
a(I2350
I0
F-0.5
g3856
I0
tp3933
a(I2372
I0
F-0.5
g3858
I0
tp3934
a(I2380
I2
F0.625
g3860
I0
tp3935
a(I2380
I2
F-0.5
g3862
I0
tp3936
a(I2505
I43
F-0.5
S'flash'
p3937
I0
tp3938
a(I2531
I8
F-0.5
S'flash'
p3939
I0
tp3940
a(I2538
I1
F-0.5
g3866
I0
tp3941
a(I65
I26
F-0.5
g3868
I0
tp3942
a(I79
I5
F-0.5
g3870
I0
tp3943
a(I80
I7
F0.625
S'first'
p3944
I0
tp3945
a(I80
I7
F0.5
S'second'
p3946
I0
tp3947
a(I84
I5
F0.875
S'lucky'
p3948
I0
tp3949
a(I209
I13
F-0.5
g3872
I0
tp3950
a(I226
I6
F-0.5
g3874
I0
tp3951
a(I238
I23
F0.75
S'white'
p3952
I0
tp3953
a(I344
I1
F0.625
S'first'
p3954
I0
tp3955
a(I354
I0
F0.625
g3794
I0
tp3956
a(I354
I0
F-0.5
g3796
I0
tp3957
a(I418
I7
F0.625
g3798
I0
tp3958
a(I418
I7
F-0.5
g3800
I0
tp3959
a(I437
I20
F0.625
S'first'
p3960
I0
tp3961
a(I437
I20
F0.875
S'lucky'
p3962
I0
tp3963
a(I526
I15
F-0.5
g3802
I0
tp3964
a(I527
I2
F-0.5
g3881
I0
tp3965
a(I527
I3
F-0.5
g3883
I0
tp3966
a(I527
I3
F-0.375
g3885
I0
tp3967
a(I573
I24
F-0.5
g3887
I0
tp3968
a(I606
I1
F0.625
g3804
I0
tp3969
a(I606
I1
F-0.5
g3806
I0
tp3970
a(I619
I13
F-1.0
S'bad'
p3971
I0
tp3972
a(I649
I24
F-0.875
S'helpless'
p3973
I0
tp3974
a(I696
I9
I0
S'indian'
p3975
I0
tp3976
a(I696
I9
F0.625
S'first'
p3977
I0
tp3978
a(I753
I1
F-0.5
g3808
I0
tp3979
a(I756
I8
F-0.5
g3892
I0
tp3980
a(I836
I11
F0.625
g3810
I0
tp3981
a(I836
I11
F-0.5
g3812
I0
tp3982
a(I836
I11
F0.5
g3814
I0
tp3983
a(I836
I11
F-0.5
g3816
I0
tp3984
a(I846
I4
F0.625
S'first'
p3985
I0
tp3986
a(I887
I7
F0.625
S'first'
p3987
I0
tp3988
a(I903
I3
F0.625
g3819
I0
tp3989
a(I903
I3
F-0.5
g3821
I0
tp3990
a(I903
I12
F0.625
g3823
I0
tp3991
a(I903
I12
F-0.5
g3825
I0
tp3992
a(I968
I2
F-0.5
g3902
I0
tp3993
a(I991
I0
F-0.5
g3827
I0
tp3994
a(I1005
I0
I0
S'u'
p3995
I0
tp3996
a(I1005
I0
F-0.125
S'next'
p3997
I0
tp3998
a(I1005
I2
F0.625
g3829
I0
tp3999
a(I1005
I2
F-0.5
g3831
I0
tp4000
a(I1026
I4
F-0.125
S'next'
p4001
I0
tp4002
a(I1088
I0
F0.625
S'first'
p4003
I0
tp4004
a(I1094
I3
F0.625
S'first'
p4005
I0
tp4006
a(I1109
I14
F-0.5
g3834
I0
tp4007
a(I1179
I0
F-0.5
g3909
I0
tp4008
a(I1325
I28
I0
S'big'
p4009
I0
tp4010
a(I1434
I0
F0.75
S'due'
p4011
I0
tp4012
a(I1511
I1
F0.625
g3836
I0
tp4013
a(I1511
I1
F-0.5
g3838
I0
tp4014
a(I1618
I8
F0.625
S'first'
p4015
I0
tp4016
a(I1729
I2
F0.625
S'first'
p4017
I0
tp4018
a(I1736
I2
F-0.75
S'open'
p4019
I0
tp4020
a(I1760
I0
F0.625
S'first'
p4021
I0
tp4022
a(I1794
I3
F-0.125
S'next'
p4023
I0
tp4024
a(I1866
I0
F-0.5
g3913
I0
tp4025
a(I1874
I3
F-0.5
g3915
I0
tp4026
a(I1883
I0
F-0.5
g3917
I0
tp4027
a(I1893
I2
F-0.5
g3919
I0
tp4028
a(I1985
I10
F-0.5
g3921
I0
tp4029
a(I2003
I0
F0.625
g3840
I0
tp4030
a(I2003
I0
F-0.5
g3842
I0
tp4031
a(I2018
I0
F0.625
S'first'
p4032
I0
tp4033
a(I2053
I6
F-0.5
g3925
I0
tp4034
a(I2111
I0
F0.625
S'first'
p4035
I0
tp4036
a(I2164
I6
F-0.5
g3844
I0
tp4037
a(I2176
I0
F0.625
S'first'
p4038
I0
tp4039
a(I2232
I4
F0.625
g3846
I0
tp4040
a(I2232
I4
F-0.5
g3848
I0
tp4041
a(I2280
I0
F0.625
g3850
I0
tp4042
a(I2280
I0
F-0.5
g3852
I0
tp4043
a(I2350
I0
F0.625
g3854
I0
tp4044
a(I2350
I0
F-0.5
g3856
I0
tp4045
a(I2372
I0
F-0.5
g3858
I0
tp4046
a(I2380
I2
F0.625
g3860
I0
tp4047
a(I2380
I2
F-0.5
g3862
I0
tp4048
a(I2478
I3
F0.25
S'special'
p4049
I0
tp4050
a(I2505
I43
F-0.5
g3937
I0
tp4051
a(I2512
I4
F-0.125
S'next'
p4052
I0
tp4053
a(I2531
I8
F-0.5
g3939
I0
tp4054
a(I2538
I1
F-0.5
g3866
I0
tp4055
as(S'smooth'
p4056
tp4057
(lp4058
(I64
I1
F0.625
S'super'
p4059
I3
tp4060
a(I288
I14
F0.625
S'super'
p4061
I3
tp4062
a(I431
I5
F-0.75
S'warm'
p4063
I3
tp4064
a(I875
I3
F-0.5
S'buttery'
p4065
I3
tp4066
a(I1934
I6
I0
S'butter'
p4067
I3
tp4068
as(S'pen'
p4069
S'drive'
p4070
tp4071
(lp4072
(I1623
I2
I0
S'pen'
p4073
I0
tp4074
a(I1623
I2
I0
S'pen'
p4075
I0
tp4076
as(S'great'
p4077
tp4078
(lp4079
(I48
I0
I0
S'build'
p4080
I5
tp4081
a(I65
I10
F0.75
S'sound'
p4082
I5
tp4083
a(I457
I0
F-0.875
S'hard'
p4084
I5
tp4085
a(I832
I23
F0.5
S'internal'
p4086
I5
tp4087
a(I863
I5
F0.75
S'sound'
p4088
I5
tp4089
a(I2069
I5
I0
S'specs'
p4090
I5
tp4091
a(I2142
I0
F0.875
S'great'
p4092
I5
tp4093
a(I2142
I0
I0
S'audio'
p4094
I5
tp4095
as(S'feel'
p4096
tp4097
(lp4098
(I2
I19
F-0.75
S'free'
p4099
I10
tp4100
a(I33
I3
I0
S't'
p4101
I10
tp4102
a(I754
I6
I0
S'many'
p4103
I10
tp4104
a(I810
I30
F0.625
S'first'
p4105
I10
tp4106
a(I843
I1
F-0.875
S'strong'
p4107
I10
tp4108
a(I1483
I1
F0.5
S'touch'
p4109
I10
tp4110
a(I1581
I22
F-0.125
S'overall'
p4111
I10
tp4112
a(I1630
I9
F-0.875
S'cheap'
p4113
I10
tp4114
a(I1897
I1
F0.875
S'superb'
p4115
I10
tp4116
a(I2045
I4
I0
S'u'
p4117
I10
tp4118
a(I2069
I22
F0.75
S'premium'
p4119
I10
tp4120
a(I2069
I25
F0.5
S'touch'
p4121
I10
tp4122
a(I2069
I25
F1.0
S'good'
p4123
I10
tp4124
a(I2276
I9
I0
S't'
p4125
I10
tp4126
a(I2283
I1
F1.0
S'good'
p4127
I10
tp4128
a(I2346
I0
F0.125
S'mobile'
p4129
I10
tp4130
a(I2346
I0
I0
S'u'
p4131
I10
tp4132
as(S'no'
p4133
S'gorilla'
p4134
S'glass'
p4135
tp4136
(lp4137
(I95
I1
I0
S'gorilla'
p4138
I0
tp4139
a(I435
I1
F0.25
S'hardened'
p4140
I0
tp4141
a(I1207
I1
F0.75
S'easy'
p4142
I0
tp4143
a(I2217
I13
I0
g589
I0
tp4144
a(I95
I1
I0
g4138
I2
tp4145
a(I435
I1
F0.25
g4140
I2
tp4146
a(I585
I9
F0.25
S'helpful'
p4147
I2
tp4148
a(I754
I13
F-0.778
S'common'
p4149
I2
tp4150
a(I1075
I13
I0
S'screen'
p4151
I2
tp4152
a(I1075
I13
I0
S'pretty'
p4153
I2
tp4154
a(I1075
I13
F-0.875
S'tough'
p4155
I2
tp4156
a(I1207
I1
F0.75
g4142
I2
tp4157
a(I1549
I21
I0
g585
I2
tp4158
a(I1581
I14
I0
g587
I2
tp4159
a(I1866
I13
F-0.125
S'such'
p4160
I2
tp4161
a(I1973
I1
I0
S'gorilla'
p4162
I2
tp4163
a(I2137
I0
F-0.125
S'implement'
p4164
I2
tp4165
a(I2217
I13
I0
g589
I2
tp4166
a(I2424
I0
F-0.5
g650
I2
tp4167
a(I1
I1
I0
g620
I10
tp4168
a(I95
I1
I0
g4138
I10
tp4169
a(I318
I1
I0
g622
I10
tp4170
a(I433
I1
I0
g624
I10
tp4171
a(I435
I1
F0.25
g4140
I10
tp4172
a(I451
I28
F1.0
S'good'
p4173
I10
tp4174
a(I545
I0
I0
g626
I10
tp4175
a(I547
I7
I0
g628
I10
tp4176
a(I563
I5
F0.375
S'full'
p4177
I10
tp4178
a(I585
I9
F0.25
g4147
I10
tp4179
a(I615
I7
I0
g630
I10
tp4180
a(I673
I9
I0
g632
I10
tp4181
a(I740
I1
I0
S'tampered'
p4182
I10
tp4183
a(I754
I13
F-0.778
g4149
I10
tp4184
a(I876
I4
I0
g634
I10
tp4185
a(I1047
I1
I0
g636
I10
tp4186
a(I1047
I2
I0
g638
I10
tp4187
a(I1075
I13
I0
g4151
I10
tp4188
a(I1075
I13
I0
g4153
I10
tp4189
a(I1075
I13
F-0.875
g4155
I10
tp4190
a(I1207
I1
F0.75
g4142
I10
tp4191
a(I1287
I4
I0
g640
I10
tp4192
a(I1425
I1
I0
g642
I10
tp4193
a(I1453
I0
I0
g644
I10
tp4194
a(I1549
I21
I0
g585
I10
tp4195
a(I1581
I14
I0
g587
I10
tp4196
a(I1602
I0
F0.5
S'reflective'
p4197
I10
tp4198
a(I1866
I13
F-0.125
g4160
I10
tp4199
a(I1973
I1
I0
g4162
I10
tp4200
a(I2073
I1
I-100
S'gorilaa'
p4201
I10
tp4202
a(I2217
I13
I0
g589
I10
tp4203
a(I2423
I8
F1.0
g648
I10
tp4204
a(I2424
I0
F-0.5
g650
I10
tp4205
a(I2478
I7
I0
g652
I10
tp4206
a(I2579
I24
I0
g654
I10
tp4207
as(S'octa'
p4208
S'core'
p4209
S'processor'
p4210
tp4211
(lp4212
(I412
I0
F0.5
S'powerful'
p4213
I0
tp4214
a(I412
I0
I0
S't'
p4215
I0
tp4216
a(I1338
I0
F1.0
S'good'
p4217
I0
tp4218
a(I2579
I33
F-0.625
S'fast'
p4219
I0
tp4220
a(I2579
I33
F0.625
S'smooth'
p4221
I0
tp4222
a(I65
I38
F0.5
S'true'
p4223
I0
tp4224
a(I1338
I0
F1.0
g4217
I0
tp4225
a(I2139
I4
I-100
S'fastwith'
p4226
I0
tp4227
a(I65
I35
F0.5
S'dual'
p4228
I0
tp4229
a(I412
I0
F0.5
g4213
I0
tp4230
a(I412
I0
I0
g4215
I0
tp4231
a(I546
I3
F0.5
S'powerful'
p4232
I0
tp4233
a(I1258
I0
I0
S'more'
p4234
I0
tp4235
a(I2217
I4
F0.5
S'true'
p4236
I0
tp4237
a(I2579
I33
F-0.625
g4219
I0
tp4238
a(I2579
I33
F0.625
g4221
I0
tp4239
a(I412
I0
F0.5
g4213
I8
tp4240
a(I412
I0
I0
g4215
I8
tp4241
a(I546
I3
F0.5
g4232
I8
tp4242
a(I1204
I0
F1.0
S'good'
p4243
I8
tp4244
a(I1258
I0
I0
g4234
I8
tp4245
a(I1448
I3
F-0.5
S'slower'
p4246
I8
tp4247
a(I2080
I20
F0.5
S'powerful'
p4248
I8
tp4249
a(I2276
I4
F-0.625
S'fast'
p4250
I8
tp4251
a(I2277
I1
F0.5
S'large'
p4252
I8
tp4253
a(I2321
I5
I-100
S'intel'
p4254
I8
tp4255
a(I2329
I1
F0.875
S'brilliant'
p4256
I8
tp4257
a(I2418
I0
F0.875
S'awesome'
p4258
I8
tp4259
a(I2579
I33
F-0.625
g4219
I8
tp4260
a(I2579
I33
F0.625
g4221
I8
tp4261
as(S'update'
p4262
tp4263
(lp4264
(I296
I28
I0
S'big'
p4265
I1
tp4266
a(I592
I3
F-0.625
S'last'
p4267
I1
tp4268
a(I592
I4
F-0.625
S'last'
p4269
I1
tp4270
a(I740
I3
F0.125
S'don'
p4271
I1
tp4272
a(I740
I3
I0
S't'
p4273
I1
tp4274
a(I825
I3
F0.25
S'recent'
p4275
I1
tp4276
a(I1016
I0
I0
S'firmware'
p4277
I1
tp4278
a(I1082
I6
F-0.125
S'next'
p4279
I1
tp4280
a(I1214
I5
I0
S'android'
p4281
I1
tp4282
a(I1491
I17
F0.75
S'complete'
p4283
I1
tp4284
a(I1549
I29
F-0.75
S'free'
p4285
I1
tp4286
a(I1549
I29
F-0.25
S'latest'
p4287
I1
tp4288
a(I1695
I1
F0.25
S'recent'
p4289
I1
tp4290
a(I1985
I1
F0.25
S'recent'
p4291
I1
tp4292
a(I2105
I2
F0.25
S'recent'
p4293
I1
tp4294
a(I2142
I6
F-0.125
S'next'
p4295
I1
tp4296
a(I2192
I32
F-0.875
S'small'
p4297
I1
tp4298
a(I2553
I9
F-0.75
S'unable'
p4299
I1
tp4300
a(I2553
I9
I-100
S'xender'
p4301
I1
tp4302
as(S'3'
p4303
S'battery'
p4304
S'backup'
p4305
tp4306
(lp4307
(I718
I3
F0.875
S'great'
p4308
I0
tp4309
a(I718
I3
I0
S'normal'
p4310
I0
tp4311
a(I1079
I1
F0.875
S'great'
p4312
I0
tp4313
a(I1461
I0
F1.0
g3618
I0
tp4314
a(I2180
I0
F1.0
S'excellent'
p4315
I0
tp4316
as(S'full'
p4317
S'hd'
p4318
S'display'
p4319
tp4320
(lp4321
(I39
I3
I0
S'impressed'
p4322
I0
tp4323
a(I61
I1
F0.375
S'full'
p4324
I0
tp4325
a(I65
I34
F0.375
S'full'
p4326
I0
tp4327
a(I352
I5
F0.875
S'amazing'
p4328
I0
tp4329
a(I418
I24
I0
S'inch'
p4330
I0
tp4331
a(I418
I24
F0.875
S'awesome'
p4332
I0
tp4333
a(I451
I13
F0.5
S'possible'
p4334
I0
tp4335
a(I451
I13
F0.375
S'full'
p4336
I0
tp4337
a(I547
I4
F1.0
S'good'
p4338
I0
tp4339
a(I588
I5
F0.375
S'full'
p4340
I0
tp4341
a(I1082
I3
F0.375
S'full'
p4342
I0
tp4343
a(I1304
I19
F0.375
S'full'
p4344
I0
tp4345
a(I1548
I50
F0.375
S'full'
p4346
I0
tp4347
a(I1549
I14
F0.375
S'full'
p4348
I0
tp4349
a(I1549
I14
F1.0
S'better'
p4350
I0
tp4351
a(I1549
I21
F0.375
S'full'
p4352
I0
tp4353
a(I1722
I0
F0.375
S'full'
p4354
I0
tp4355
a(I1743
I4
I0
S't'
p4356
I0
tp4357
a(I1795
I0
F0.875
S'great'
p4358
I0
tp4359
a(I2102
I3
F0.375
S'full'
p4360
I0
tp4361
a(I2157
I2
F0.375
S'full'
p4362
I0
tp4363
a(I2213
I18
F0.875
S'attractive'
p4364
I0
tp4365
a(I2213
I18
F0.125
S'equivalent'
p4366
I0
tp4367
a(I2217
I5
F0.375
S'full'
p4368
I0
tp4369
a(I2217
I12
F0.375
S'full'
p4370
I0
tp4371
a(I2233
I1
F0.375
S'full'
p4372
I0
tp4373
a(I2233
I1
F1.0
S'good'
p4374
I0
tp4375
a(I2277
I1
F0.375
S'full'
p4376
I0
tp4377
a(I2344
I1
F0.375
S'full'
p4378
I0
tp4379
a(I2370
I0
F0.375
S'full'
p4380
I0
tp4381
a(I2400
I12
F0.375
S'full'
p4382
I0
tp4383
a(I2537
I4
F-0.75
S'little'
p4384
I0
tp4385
a(I39
I3
I0
g4322
I0
tp4386
a(I61
I1
F0.375
g4324
I0
tp4387
a(I65
I34
F0.375
g4326
I0
tp4388
a(I352
I5
F0.875
g4328
I0
tp4389
a(I418
I24
F0.875
g4332
I0
tp4390
a(I451
I13
F0.5
g4334
I0
tp4391
a(I451
I13
F0.375
g4336
I0
tp4392
a(I519
I42
F0.875
S'great'
p4393
I0
tp4394
a(I547
I4
F1.0
g4338
I0
tp4395
a(I588
I5
F0.375
g4340
I0
tp4396
a(I754
I19
F0.75
S'beautiful'
p4397
I0
tp4398
a(I754
I19
F0.5
S'high'
p4399
I0
tp4400
a(I1066
I1
F0.625
S'vibrant'
p4401
I0
tp4402
a(I1066
I1
F0.75
S'beautiful'
p4403
I0
tp4404
a(I1082
I3
F0.375
g4342
I0
tp4405
a(I1304
I19
F0.375
g4344
I0
tp4406
a(I1403
I1
F0.875
S'awesome'
p4407
I0
tp4408
a(I1548
I50
F0.375
g4346
I0
tp4409
a(I1549
I14
F0.375
g4348
I0
tp4410
a(I1549
I14
F1.0
g4350
I0
tp4411
a(I1549
I21
F0.375
g4352
I0
tp4412
a(I1581
I3
F0.375
S'impressive'
p4413
I0
tp4414
a(I1722
I0
F0.375
g4354
I0
tp4415
a(I1795
I0
F0.875
g4358
I0
tp4416
a(I1930
I17
F0.375
S'impressive'
p4417
I0
tp4418
a(I1979
I1
I0
S'inch'
p4419
I0
tp4420
a(I2048
I1
F0.75
S'perfect'
p4421
I0
tp4422
a(I2097
I10
F1.0
S'good'
p4423
I0
tp4424
a(I2102
I3
F0.375
g4360
I0
tp4425
a(I2157
I2
F0.375
g4362
I0
tp4426
a(I2213
I18
F0.125
g4366
I0
tp4427
a(I2217
I5
F0.375
g4368
I0
tp4428
a(I2217
I12
F0.375
g4370
I0
tp4429
a(I2233
I1
F0.375
g4372
I0
tp4430
a(I2233
I1
F1.0
g4374
I0
tp4431
a(I2277
I1
F0.375
g4376
I0
tp4432
a(I2344
I1
F0.375
g4378
I0
tp4433
a(I2370
I0
F0.375
g4380
I0
tp4434
a(I2400
I12
F0.375
g4382
I0
tp4435
a(I2537
I4
F-0.75
g4384
I0
tp4436
a(I39
I3
I0
g4322
I13
tp4437
a(I43
I11
F0.875
S'awesome'
p4438
I13
tp4439
a(I43
I11
F0.875
S'great'
p4440
I13
tp4441
a(I57
I6
F0.875
S'awesome'
p4442
I13
tp4443
a(I61
I1
F0.375
g4324
I13
tp4444
a(I95
I1
F1.0
S'good'
p4445
I13
tp4446
a(I134
I19
F1.0
S'good'
p4447
I13
tp4448
a(I192
I1
F0.5
S'crisp'
p4449
I13
tp4450
a(I224
I3
F1.0
S'good'
p4451
I13
tp4452
a(I238
I13
F1.0
S'good'
p4453
I13
tp4454
a(I255
I0
F1.0
S'good'
p4455
I13
tp4456
a(I277
I0
I0
S't'
p4457
I13
tp4458
a(I277
I0
F1.0
S'good'
p4459
I13
tp4460
a(I284
I1
I0
S'stunning'
p4461
I13
tp4462
a(I285
I7
F0.75
S'beautiful'
p4463
I13
tp4464
a(I285
I7
F0.5
S'stylish'
p4465
I13
tp4466
a(I296
I3
F0.875
S'great'
p4467
I13
tp4468
a(I315
I2
F0.5
S'crisp'
p4469
I13
tp4470
a(I343
I4
F0.875
S'awesome'
p4471
I13
tp4472
a(I345
I8
I0
S'dam'
p4473
I13
tp4474
a(I345
I8
F1.0
S'good'
p4475
I13
tp4476
a(I352
I5
F0.875
g4328
I13
tp4477
a(I418
I24
F0.875
g4332
I13
tp4478
a(I429
I1
F0.875
S'great'
p4479
I13
tp4480
a(I437
I3
F-0.125
S'such'
p4481
I13
tp4482
a(I437
I3
I0
S'audio'
p4483
I13
tp4484
a(I440
I0
F1.0
S'good'
p4485
I13
tp4486
a(I451
I10
F1.0
S'good'
p4487
I13
tp4488
a(I451
I35
F-0.875
S'smaller'
p4489
I13
tp4490
a(I451
I36
I0
S'different'
p4491
I13
tp4492
a(I451
I45
F-0.875
S'cheap'
p4493
I13
tp4494
a(I508
I1
F1.0
S'good'
p4495
I13
tp4496
a(I519
I42
F0.875
g4393
I13
tp4497
a(I547
I4
F1.0
g4338
I13
tp4498
a(I573
I9
F0.5
S'sturdy'
p4499
I13
tp4500
a(I588
I1
F1.0
S'best'
p4501
I13
tp4502
a(I597
I1
I0
S'crystal'
p4503
I13
tp4504
a(I597
I1
I0
S'clear'
p4505
I13
tp4506
a(I668
I1
F0.375
S'ok'
p4507
I13
tp4508
a(I673
I8
F0.875
S'awesome'
p4509
I13
tp4510
a(I722
I0
F1.0
S'good'
p4511
I13
tp4512
a(I731
I3
I0
S'clear'
p4513
I13
tp4514
a(I731
I3
F0.875
S'attractive'
p4515
I13
tp4516
a(I754
I19
F0.75
g4397
I13
tp4517
a(I846
I12
F0.5
S'touch'
p4518
I13
tp4519
a(I851
I0
F1.0
S'good'
p4520
I13
tp4521
a(I878
I2
F0.875
S'superb'
p4522
I13
tp4523
a(I897
I13
I0
S'inch'
p4524
I13
tp4525
a(I1018
I3
F1.0
S'excellent'
p4526
I13
tp4527
a(I1029
I1
F0.875
S'fabulous'
p4528
I13
tp4529
a(I1066
I1
F0.625
g4401
I13
tp4530
a(I1066
I1
F0.75
g4403
I13
tp4531
a(I1123
I0
I0
S'big'
p4532
I13
tp4533
a(I1188
I5
F1.0
S'good'
p4534
I13
tp4535
a(I1189
I10
F0.875
S'fab'
p4536
I13
tp4537
a(I1189
I19
F-0.625
S'quiet'
p4538
I13
tp4539
a(I1189
I19
F1.0
S'good'
p4540
I13
tp4541
a(I1190
I0
F0.75
S'fair'
p4542
I13
tp4543
a(I1201
I0
F0.5
S'large'
p4544
I13
tp4545
a(I1202
I0
F0.875
S'great'
p4546
I13
tp4547
a(I1217
I0
F-0.625
S'sharp'
p4548
I13
tp4549
a(I1253
I14
F0.875
S'amazing'
p4550
I13
tp4551
a(I1284
I4
F1.0
S'good'
p4552
I13
tp4553
a(I1295
I10
F-0.875
S'inferior'
p4554
I13
tp4555
a(I1299
I1
I0
S'clear'
p4556
I13
tp4557
a(I1309
I1
F1.0
S'excellent'
p4558
I13
tp4559
a(I1310
I22
F1.0
S'good'
p4560
I13
tp4561
a(I1310
I22
F1.0
S'good'
p4562
I13
tp4563
a(I1323
I1
F-0.5
S'sluggish'
p4564
I13
tp4565
a(I1328
I1
I0
S'inch'
p4566
I13
tp4567
a(I1328
I1
F1.0
S'good'
p4568
I13
tp4569
a(I1339
I1
F0.5
S'large'
p4570
I13
tp4571
a(I1357
I9
F0.875
S'nice'
p4572
I13
tp4573
a(I1366
I0
F1.0
S'good'
p4574
I13
tp4575
a(I1391
I0
I0
S'big'
p4576
I13
tp4577
a(I1412
I6
I0
S'clear'
p4578
I13
tp4579
a(I1436
I0
F0.75
S'fantastic'
p4580
I13
tp4581
a(I1446
I3
I0
S'big'
p4582
I13
tp4583
a(I1456
I1
F0.875
S'great'
p4584
I13
tp4585
a(I1513
I35
F0.875
S'nice'
p4586
I13
tp4587
a(I1518
I14
F1.0
S'good'
p4588
I13
tp4589
a(I1532
I1
F1.0
S'excellent'
p4590
I13
tp4591
a(I1549
I14
F1.0
g4350
I13
tp4592
a(I1581
I3
F0.375
g4413
I13
tp4593
a(I1581
I17
I0
S'clear'
p4594
I13
tp4595
a(I1593
I0
F1.0
S'good'
p4596
I13
tp4597
a(I1606
I6
F0.875
S'awesome'
p4598
I13
tp4599
a(I1701
I0
F1.0
S'good'
p4600
I13
tp4601
a(I1718
I0
F0.75
S'beautiful'
p4602
I13
tp4603
a(I1746
I11
F0.875
S'brilliant'
p4604
I13
tp4605
a(I1765
I1
I0
S'bright'
p4606
I13
tp4607
a(I1835
I0
F0.875
S'awesome'
p4608
I13
tp4609
a(I1851
I0
F0.5
S'large'
p4610
I13
tp4611
a(I1878
I2
I0
S'hot'
p4612
I13
tp4613
a(I1878
I2
F-0.375
S'vary'
p4614
I13
tp4615
a(I1902
I1
F0.5
S'large'
p4616
I13
tp4617
a(I1916
I1
I0
S'inch'
p4618
I13
tp4619
a(I1930
I5
I0
S'inch'
p4620
I13
tp4621
a(I1930
I17
F0.375
g4417
I13
tp4622
a(I1989
I0
F1.0
S'excellent'
p4623
I13
tp4624
a(I1993
I0
F0.375
S'ok'
p4625
I13
tp4626
a(I2048
I1
F0.75
g4421
I13
tp4627
a(I2058
I1
F1.0
S'excellent'
p4628
I13
tp4629
a(I2073
I1
F1.0
S'good'
p4630
I13
tp4631
a(I2076
I2
I0
S'light'
p4632
I13
tp4633
a(I2078
I2
I0
S'stunning'
p4634
I13
tp4635
a(I2089
I1
F1.0
S'good'
p4636
I13
tp4637
a(I2097
I11
F1.0
S'excellent'
p4638
I13
tp4639
a(I2108
I0
F1.0
S'good'
p4640
I13
tp4641
a(I2157
I0
I0
S'bright'
p4642
I13
tp4643
a(I2182
I0
F1.0
S'good'
p4644
I13
tp4645
a(I2192
I41
F-0.625
S'sharp'
p4646
I13
tp4647
a(I2213
I18
F0.125
g4366
I13
tp4648
a(I2233
I1
F1.0
g4374
I13
tp4649
a(I2234
I0
F0.5
S'stylish'
p4650
I13
tp4651
a(I2234
I0
F1.0
S'good'
p4652
I13
tp4653
a(I2308
I0
F1.0
S'good'
p4654
I13
tp4655
a(I2345
I4
F0.75
S'fantastic'
p4656
I13
tp4657
a(I2380
I3
F1.0
S'best'
p4658
I13
tp4659
a(I2399
I1
I0
S'inch'
p4660
I13
tp4661
a(I2452
I1
F0.5
S'crisp'
p4662
I13
tp4663
a(I2452
I1
F0.875
S'decent'
p4664
I13
tp4665
a(I2530
I6
F0.875
S'awesome'
p4666
I13
tp4667
a(I2537
I4
F-0.75
g4384
I13
tp4668
a(I2616
I3
F0.75
S'whole'
p4669
I13
tp4670
as(S'value'
p4671
S'for'
p4672
S'money'
p4673
tp4674
(lp4675
(I79
I4
F1.0
S'best'
p4676
I4
tp4677
a(I157
I1
F0.625
S'super'
p4678
I4
tp4679
a(I203
I0
F1.0
S'best'
p4680
I4
tp4681
a(I752
I0
F1.0
S'best'
p4682
I4
tp4683
a(I1172
I3
F-1.0
S'bad'
p4684
I4
tp4685
a(I1444
I0
F0.75
S'fantastic'
p4686
I4
tp4687
a(I1444
I4
F1.0
S'best'
p4688
I4
tp4689
a(I1457
I2
F-0.75
S'absolute'
p4690
I4
tp4691
a(I1511
I12
F0.875
S'attractive'
p4692
I4
tp4693
a(I2322
I5
F-0.75
S'absolute'
p4694
I4
tp4695
a(I2538
I0
F1.0
S'good'
p4696
I4
tp4697
a(I79
I4
F1.0
g4676
I7
tp4698
a(I85
I4
I0
S'simultaneous'
p4699
I7
tp4700
a(I85
I17
F0.375
S'peak'
p4701
I7
tp4702
a(I157
I1
F0.625
g4678
I7
tp4703
a(I203
I0
F1.0
g4680
I7
tp4704
a(I205
I0
I0
g1876
I7
tp4705
a(I206
I4
F0.5
g1790
I7
tp4706
a(I238
I19
I0
g1882
I7
tp4707
a(I416
I0
F0.5
g1798
I7
tp4708
a(I428
I7
F0.5
g1800
I7
tp4709
a(I453
I3
F-0.5
S'less'
p4710
I7
tp4711
a(I453
I3
F-0.25
S'permitted'
p4712
I7
tp4713
a(I731
I9
F0.75
g1897
I7
tp4714
a(I752
I0
F1.0
g4682
I7
tp4715
a(I1174
I34
F0.5
g1822
I7
tp4716
a(I1174
I36
F0.5
g1911
I7
tp4717
a(I1177
I1
F0.5
g1824
I7
tp4718
a(I1234
I1
I0
g1914
I7
tp4719
a(I1234
I1
F-0.625
g1916
I7
tp4720
a(I1286
I6
F0.5
g1826
I7
tp4721
a(I1302
I1
F0.5
g1828
I7
tp4722
a(I1347
I0
F0.5
S'high'
p4723
I7
tp4724
a(I1444
I0
F0.75
g4686
I7
tp4725
a(I1444
I4
F1.0
g4688
I7
tp4726
a(I1457
I2
F-0.75
g4690
I7
tp4727
a(I1511
I12
F0.875
g4692
I7
tp4728
a(I1621
I0
F0.5
g1834
I7
tp4729
a(I1624
I1
F0.5
g1923
I7
tp4730
a(I1732
I4
F0.875
S'worthy'
p4731
I7
tp4732
a(I1732
I4
I0
S'durable'
p4733
I7
tp4734
a(I1758
I9
F0.5
g1840
I7
tp4735
a(I1874
I13
F-0.875
S'low'
p4736
I7
tp4737
a(I1874
I13
F-1.0
S'sad'
p4738
I7
tp4739
a(I2322
I5
F-0.75
g4694
I7
tp4740
a(I2448
I0
F0.5
g1854
I7
tp4741
a(I2538
I0
F1.0
g4696
I7
tp4742
a(I2616
I17
F0.5
g1868
I7
tp4743
a(I2635
I3
F0.5
g1870
I7
tp4744
as(S'vibe'
p4745
S'ui'
p4746
tp4747
(lp4748
(I65
I6
F1.0
S'best'
p4749
I0
tp4750
a(I65
I6
F1.0
S'good'
p4751
I0
tp4752
a(I196
I1
F0.875
S'attractive'
p4753
I0
tp4754
a(I196
I1
I0
S'useful'
p4755
I0
tp4756
a(I319
I5
F1.0
S'good'
p4757
I0
tp4758
a(I432
I1
F1.0
S'good'
p4759
I0
tp4760
a(I518
I2
F0.875
S'great'
p4761
I0
tp4762
a(I693
I10
I-100
S'customisable'
p4763
I0
tp4764
a(I718
I2
F-0.125
S'vibe'
p4765
I0
tp4766
a(I887
I5
F-0.25
S'boring'
p4767
I0
tp4768
a(I1274
I6
F1.0
S'good'
p4769
I0
tp4770
a(I1274
I6
F0.375
S'remarkable'
p4771
I0
tp4772
a(I1415
I5
F0.625
S'frustrating'
p4773
I0
tp4774
a(I1548
I37
F0.625
S'smooth'
p4775
I0
tp4776
a(I1549
I24
F0.875
S'awesome'
p4777
I0
tp4778
a(I1591
I3
F1.0
S'good'
p4779
I0
tp4780
a(I2087
I0
I0
S'u'
p4781
I0
tp4782
a(I2112
I4
F0.875
S'great'
p4783
I0
tp4784
as(S'at'
p4785
S'price'
p4786
S'range'
p4787
tp4788
(lp4789
(I1122
I11
F-0.375
S'same'
p4790
I0
tp4791
a(I1174
I7
F-0.375
S'same'
p4792
I0
tp4793
a(I1325
I16
I0
S'more'
p4794
I0
tp4795
as(S'looks'
p4796
tp4797
(lp4798
(I38
I6
F0.75
S'premium'
p4799
I14
tp4800
a(I38
I6
F0.5
S'stylish'
p4801
I14
tp4802
a(I80
I10
F0.875
S'superb'
p4803
I14
tp4804
a(I234
I3
I0
S'mp'
p4805
I14
tp4806
a(I287
I2
F1.0
S'good'
p4807
I14
tp4808
a(I438
I1
F1.0
S'good'
p4809
I14
tp4810
a(I451
I10
F1.0
S'good'
p4811
I14
tp4812
a(I526
I1
F0.75
S'beautiful'
p4813
I14
tp4814
a(I526
I1
F0.75
S'gorgeous'
p4815
I14
tp4816
a(I574
I1
F1.0
S'good'
p4817
I14
tp4818
a(I578
I1
F0.75
S'perfect'
p4819
I14
tp4820
a(I753
I8
F1.0
S'good'
p4821
I14
tp4822
a(I753
I8
F0.375
S'impressive'
p4823
I14
tp4824
a(I875
I1
F0.875
S'great'
p4825
I14
tp4826
a(I875
I1
I0
S'light'
p4827
I14
tp4828
a(I875
I1
F0.5
S'stylish'
p4829
I14
tp4830
a(I887
I5
F1.0
S'better'
p4831
I14
tp4832
a(I887
I5
F0.75
S'beautiful'
p4833
I14
tp4834
a(I995
I4
F0.5
S'stylish'
p4835
I14
tp4836
a(I1094
I5
F0.625
S'sexy'
p4837
I14
tp4838
a(I1112
I12
I0
S'impressed'
p4839
I14
tp4840
a(I1183
I5
F-0.25
S'ram'
p4841
I14
tp4842
a(I1183
I5
F-0.625
S'useless'
p4843
I14
tp4844
a(I1246
I7
F-0.875
S'cheap'
p4845
I14
tp4846
a(I1307
I1
F1.0
S'good'
p4847
I14
tp4848
a(I1510
I0
F0.5
S'trendy'
p4849
I14
tp4850
a(I1579
I12
I0
S'mp'
p4851
I14
tp4852
a(I2076
I2
F0.5
S'stylish'
p4853
I14
tp4854
a(I2076
I2
F0.75
S'beautiful'
p4855
I14
tp4856
a(I2362
I11
F1.0
S'good'
p4857
I14
tp4858
a(I2448
I0
F0.875
S'great'
p4859
I14
tp4860
as(S'pixel'
p4861
S'density'
p4862
tp4863
(lp4864
(I898
I0
F1.0
S'excellent'
p4865
I0
tp4866
a(I2246
I1
F0.5
S'high'
p4867
I0
tp4868
a(I2399
I1
I0
S'pixel'
p4869
I0
tp4870
as(S'with'
p4871
S'dolby'
p4872
S'atmos'
p4873
tp4874
(lp4875
(I65
I48
I-100
S'atmos'
p4876
I0
tp4877
a(I319
I1
I0
S'dolby'
p4878
I0
tp4879
a(I585
I18
I0
S'dolby'
p4880
I0
tp4881
a(I824
I4
F0.875
S'awesome'
p4882
I0
tp4883
a(I1549
I22
I0
S'dolby'
p4884
I0
tp4885
a(I1922
I0
F0.875
S'music'
p4886
I0
tp4887
a(I2061
I1
F1.0
S'good'
p4888
I0
tp4889
a(I2113
I2
F1.0
S'good'
p4890
I0
tp4891
a(I290
I3
F0.75
S'due'
p4892
I0
tp4893
a(I319
I1
I0
g4878
I0
tp4894
a(I438
I5
F1.0
S'good'
p4895
I0
tp4896
a(I585
I18
I0
g4880
I0
tp4897
a(I592
I14
F0.875
S'intellectual'
p4898
I0
tp4899
a(I824
I4
F0.875
g4882
I0
tp4900
a(I883
I0
F1.0
S'good'
p4901
I0
tp4902
a(I1198
I4
F0.875
S'great'
p4903
I0
tp4904
a(I1220
I0
I0
S'incredible'
p4905
I0
tp4906
a(I1549
I22
I0
g4884
I0
tp4907
a(I1922
I0
F0.875
g4886
I0
tp4908
a(I2061
I1
F1.0
g4888
I0
tp4909
a(I2113
I2
F1.0
g4890
I0
tp4910
a(I2161
I1
F0.5
S'enhanced'
p4911
I0
tp4912
a(I2192
I37
F0.625
S'fine'
p4913
I0
tp4914
a(I290
I3
F0.75
g4892
I0
tp4915
a(I469
I0
F0.875
S'decent'
p4916
I0
tp4917
a(I592
I14
F0.875
g4898
I0
tp4918
a(I796
I0
F0.875
S'decent'
p4919
I0
tp4920
a(I1428
I2
F1.0
S'good'
p4921
I0
tp4922
a(I1922
I0
F0.875
g4886
I0
tp4923
as(S'front'
p4924
S'and'
p4925
S'rear'
p4926
tp4927
(lp4928
(I1460
I0
F1.0
g950
I1
tp4929
a(I1549
I23
F1.0
g470
I1
tp4930
a(I1549
I23
F-0.125
g472
I1
tp4931
a(I1581
I22
F0.625
S'fine'
p4932
I1
tp4933
a(I1983
I0
I0
g962
I1
tp4934
a(I1983
I0
F1.0
g964
I1
tp4935
a(I2354
I0
F1.0
g542
I1
tp4936
a(I2354
I0
F1.0
g544
I1
tp4937
a(I287
I8
F0.75
S'sound'
p4938
I7
tp4939
a(I296
I14
F0.875
S'great'
p4940
I7
tp4941
a(I1136
I23
F-0.75
S'yellow'
p4942
I7
tp4943
a(I1549
I23
F1.0
g470
I7
tp4944
a(I1549
I23
F-0.125
g472
I7
tp4945
a(I1581
I22
F0.625
g4932
I7
tp4946
a(I1950
I1
F1.0
g508
I7
tp4947
a(I2170
I1
F1.0
g528
I7
tp4948
a(I2233
I2
I0
g536
I7
tp4949
a(I2354
I0
F1.0
g542
I7
tp4950
a(I2354
I0
F1.0
g544
I7
tp4951
a(I79
I3
F1.0
g992
I14
tp4952
a(I100
I1
F0.75
S'white'
p4953
I14
tp4954
a(I100
I1
F-0.75
S'black'
p4955
I14
tp4956
a(I118
I3
I0
g995
I14
tp4957
a(I953
I13
F1.0
g1055
I14
tp4958
a(I1089
I2
I0
g1062
I14
tp4959
a(I1460
I0
F1.0
g950
I14
tp4960
a(I1867
I1
I0
S'n'
p4961
I14
tp4962
a(I1887
I3
F1.0
S'good'
p4963
I14
tp4964
a(I1930
I6
F-0.75
S'little'
p4965
I14
tp4966
a(I1930
I6
F-0.5
S'ordinary'
p4967
I14
tp4968
a(I1983
I0
I0
g962
I14
tp4969
a(I1983
I0
F1.0
g964
I14
tp4970
a(I2079
I0
I0
g1118
I14
tp4971
a(I2224
I2
I0
S'outside'
p4972
I14
tp4973
as(S'in'
p4974
S'price'
p4975
S'range'
p4976
tp4977
(lp4978
(I820
I4
F1.0
S'best'
p4979
I0
tp4980
a(I1325
I16
I0
g4794
I0
tp4981
a(I1336
I3
F0.25
S'worth'
p4982
I0
tp4983
a(I1412
I6
F1.0
S'best'
p4984
I0
tp4985
a(I1448
I2
F1.0
S'best'
p4986
I0
tp4987
a(I1731
I3
F1.0
S'good'
p4988
I0
tp4989
a(I346
I1
F-0.375
S'same'
p4990
I13
tp4991
a(I820
I4
F1.0
g4979
I13
tp4992
a(I1122
I11
F-0.375
g4790
I13
tp4993
a(I1174
I7
F-0.375
g4792
I13
tp4994
a(I1325
I16
I0
g4794
I13
tp4995
a(I1336
I3
F0.25
g4982
I13
tp4996
a(I1412
I6
F1.0
g4984
I13
tp4997
a(I1448
I2
F1.0
g4986
I13
tp4998
a(I1731
I3
F1.0
g4988
I13
tp4999
as(g2577
S'gb'
p5000
S'ram'
p5001
tp5002
(lp5003
(I206
I49
I0
g73
I0
tp5004
a(I216
I1
F-0.125
g75
I0
tp5005
a(I323
I4
F-0.75
g78
I0
tp5006
a(I590
I4
F0.375
g83
I0
tp5007
a(I590
I4
F-0.5
g85
I0
tp5008
a(I592
I43
F0.375
g16
I0
tp5009
a(I814
I9
F0.875
g28
I0
tp5010
a(I814
I9
I0
g30
I0
tp5011
a(I1006
I18
F-0.875
g98
I0
tp5012
a(I1006
I18
F-0.75
g100
I0
tp5013
a(I1006
I18
F-0.75
g102
I0
tp5014
a(I1136
I1
F-0.125
g107
I0
tp5015
a(I1285
I6
F-0.625
g109
I0
tp5016
a(I1322
I5
F0.5
g111
I0
tp5017
a(I1409
I1
F-0.125
g113
I0
tp5018
a(I1415
I1
I0
g40
I0
tp5019
a(I1415
I1
F0.375
g42
I0
tp5020
a(I1415
I1
F-0.5
g44
I0
tp5021
a(I1479
I1
F0.5
g46
I0
tp5022
a(I1663
I1
F-0.5
g50
I0
tp5023
a(I1670
I5
I0
g121
I0
tp5024
a(I1864
I0
F0.375
g56
I0
tp5025
a(I1919
I2
I0
g126
I0
tp5026
a(I2172
I2
F0.5
g62
I0
tp5027
a(I2192
I33
F0.625
g131
I0
tp5028
a(I65
I55
F0.5
S'internal'
p5029
I1
tp5030
a(I77
I0
I0
g139
I1
tp5031
a(I206
I49
I0
g73
I1
tp5032
a(I216
I1
F-0.125
g75
I1
tp5033
a(I324
I1
F-0.75
S'free'
p5034
I1
tp5035
a(I466
I7
F0.875
S'decent'
p5036
I1
tp5037
a(I814
I9
I0
g30
I1
tp5038
a(I895
I22
F-0.75
S'free'
p5039
I1
tp5040
a(I895
I24
F-0.75
S'free'
p5041
I1
tp5042
a(I1006
I18
F-0.75
g100
I1
tp5043
a(I1136
I1
F-0.125
g107
I1
tp5044
a(I1285
I6
F-0.625
g109
I1
tp5045
a(I1322
I5
F0.5
g111
I1
tp5046
a(I1408
I2
F-0.75
S'free'
p5047
I1
tp5048
a(I1428
I0
F0.5
g144
I1
tp5049
a(I2067
I5
F0.125
S'ample'
p5050
I1
tp5051
a(I2172
I2
F0.5
g62
I1
tp5052
a(I2192
I33
F0.625
g131
I1
tp5053
as(S'full'
p5054
S'hd'
p5055
S'screen'
p5056
tp5057
(lp5058
(I39
I3
F0.75
S'beautiful'
p5059
I0
tp5060
a(I206
I20
F0.375
S'full'
p5061
I0
tp5062
a(I573
I10
F0.375
S'full'
p5063
I0
tp5064
a(I1548
I50
F0.375
g4346
I0
tp5065
a(I1553
I8
F-0.625
S'fast'
p5066
I0
tp5067
a(I1553
I8
F0.375
S'full'
p5068
I0
tp5069
a(I2071
I1
F0.375
S'full'
p5070
I0
tp5071
a(I2505
I1
F0.375
S'full'
p5072
I0
tp5073
a(I65
I34
F0.375
g4326
I0
tp5074
a(I206
I20
F0.375
g5061
I0
tp5075
a(I418
I24
I0
g4330
I0
tp5076
a(I451
I13
F0.5
g4334
I0
tp5077
a(I451
I13
F0.375
g4336
I0
tp5078
a(I451
I27
F0.375
S'full'
p5079
I0
tp5080
a(I573
I10
F0.375
g5063
I0
tp5081
a(I588
I5
F0.375
g4340
I0
tp5082
a(I607
I9
I0
S'inch'
p5083
I0
tp5084
a(I607
I9
F0.375
S'full'
p5085
I0
tp5086
a(I765
I2
F0.375
S'full'
p5087
I0
tp5088
a(I900
I0
F0.375
S'full'
p5089
I0
tp5090
a(I944
I5
F0.375
S'full'
p5091
I0
tp5092
a(I1082
I3
F0.375
g4342
I0
tp5093
a(I1157
I11
I0
S'only'
p5094
I0
tp5095
a(I1259
I12
F1.0
S'good'
p5096
I0
tp5097
a(I1279
I7
F0.375
S'full'
p5098
I0
tp5099
a(I1304
I19
F0.375
g4344
I0
tp5100
a(I1548
I50
F0.375
g4346
I0
tp5101
a(I1549
I14
F0.375
g4348
I0
tp5102
a(I1549
I21
F0.375
g4352
I0
tp5103
a(I1553
I8
F-0.625
g5066
I0
tp5104
a(I1553
I8
F0.375
g5068
I0
tp5105
a(I1713
I0
F0.375
S'full'
p5106
I0
tp5107
a(I1722
I0
F0.375
g4354
I0
tp5108
a(I1743
I4
I0
g4356
I0
tp5109
a(I1795
I0
F0.875
g4358
I0
tp5110
a(I1963
I0
F0.375
S'full'
p5111
I0
tp5112
a(I2071
I1
F0.375
g5070
I0
tp5113
a(I2102
I3
F0.375
g4360
I0
tp5114
a(I2157
I2
F0.375
g4362
I0
tp5115
a(I2213
I18
F0.875
g4364
I0
tp5116
a(I2217
I5
F0.375
g4368
I0
tp5117
a(I2217
I12
F0.375
g4370
I0
tp5118
a(I2233
I1
F0.375
g4372
I0
tp5119
a(I2277
I1
F0.375
g4376
I0
tp5120
a(I2344
I1
F0.375
g4378
I0
tp5121
a(I2370
I0
F0.375
g4380
I0
tp5122
a(I2400
I12
F0.375
g4382
I0
tp5123
a(I2505
I1
F0.375
g5072
I0
tp5124
as(S'good'
p5125
S'battery'
p5126
S'life'
p5127
tp5128
(lp5129
(I532
I1
F1.0
S'good'
p5130
I0
tp5131
a(I601
I6
F1.0
S'good'
p5132
I0
tp5133
a(I747
I16
F1.0
S'good'
p5134
I0
tp5135
a(I747
I16
F1.0
S'good'
p5136
I0
tp5137
a(I809
I1
F1.0
S'good'
p5138
I0
tp5139
a(I852
I0
F-0.25
S'battery'
p5140
I0
tp5141
a(I852
I0
F1.0
S'good'
p5142
I0
tp5143
a(I967
I8
F1.0
S'good'
p5144
I0
tp5145
a(I1141
I0
F1.0
S'good'
p5146
I0
tp5147
a(I1141
I0
I0
S'internet'
p5148
I0
tp5149
a(I1267
I0
F1.0
S'good'
p5150
I0
tp5151
a(I1269
I0
F1.0
S'good'
p5152
I0
tp5153
a(I1490
I3
F-0.375
S'adequate'
p5154
I0
tp5155
a(I1666
I1
F1.0
S'good'
p5156
I0
tp5157
a(I1712
I0
F1.0
S'good'
p5158
I0
tp5159
a(I2032
I0
F1.0
S'good'
p5160
I0
tp5161
a(I2067
I10
F1.0
S'good'
p5162
I0
tp5163
a(I2323
I3
F1.0
S'good'
p5164
I0
tp5165
a(I2389
I3
F1.0
S'good'
p5166
I0
tp5167
a(I2533
I0
F1.0
S'good'
p5168
I0
tp5169
a(I59
I0
F1.0
S'good'
p5170
I1
tp5171
a(I208
I6
F1.0
S'good'
p5172
I1
tp5173
a(I208
I6
F-1.0
S'bad'
p5174
I1
tp5175
a(I234
I5
F1.0
S'good'
p5176
I1
tp5177
a(I256
I0
F1.0
S'good'
p5178
I1
tp5179
a(I466
I16
F1.0
S'good'
p5180
I1
tp5181
a(I532
I1
F1.0
g5130
I1
tp5182
a(I588
I4
F1.0
g3592
I1
tp5183
a(I601
I6
F1.0
g5132
I1
tp5184
a(I638
I1
F1.0
g3596
I1
tp5185
a(I747
I16
F1.0
g5134
I1
tp5186
a(I887
I0
F1.0
g3600
I1
tp5187
a(I953
I11
F1.0
g3604
I1
tp5188
a(I1071
I1
F1.0
g3606
I1
tp5189
a(I1112
I1
F0.875
g3610
I1
tp5190
a(I1141
I0
F1.0
g5146
I1
tp5191
a(I1207
I1
F-0.125
g3612
I1
tp5192
a(I1267
I0
F1.0
g5150
I1
tp5193
a(I1304
I22
F1.0
S'good'
p5194
I1
tp5195
a(I1336
I4
F1.0
S'good'
p5196
I1
tp5197
a(I1357
I9
F1.0
S'good'
p5198
I1
tp5199
a(I1384
I0
F1.0
g3614
I1
tp5200
a(I1456
I1
F1.0
S'good'
p5201
I1
tp5202
a(I1461
I0
F1.0
g3618
I1
tp5203
a(I1489
I13
F1.0
S'good'
p5204
I1
tp5205
a(I1490
I3
F-0.375
g5154
I1
tp5206
a(I1581
I22
F0.625
S'fine'
p5207
I1
tp5208
a(I1608
I0
F1.0
S'good'
p5209
I1
tp5210
a(I1711
I4
F1.0
g3624
I1
tp5211
a(I1991
I0
F1.0
S'good'
p5212
I1
tp5213
a(I2025
I12
F1.0
S'good'
p5214
I1
tp5215
a(I2032
I0
F1.0
g5160
I1
tp5216
a(I2067
I10
F1.0
g5162
I1
tp5217
a(I2069
I32
F1.0
S'good'
p5218
I1
tp5219
a(I2094
I1
F1.0
S'good'
p5220
I1
tp5221
a(I2105
I4
F0.875
S'nice'
p5222
I1
tp5223
a(I2149
I0
F1.0
S'good'
p5224
I1
tp5225
a(I2176
I4
I0
S'light'
p5226
I1
tp5227
a(I2176
I4
F1.0
S'good'
p5228
I1
tp5229
a(I2192
I15
F1.0
S'good'
p5230
I1
tp5231
a(I2323
I3
F1.0
g5164
I1
tp5232
a(I2362
I8
F1.0
g3628
I1
tp5233
a(I2389
I3
F1.0
g5166
I1
tp5234
a(I2396
I4
F1.0
S'good'
p5235
I1
tp5236
a(I2400
I3
F0.625
S'fine'
p5237
I1
tp5238
a(I2455
I1
F1.0
g3632
I1
tp5239
a(I2521
I0
F1.0
S'good'
p5240
I1
tp5241
a(I2521
I0
F-0.5
S'continuous'
p5242
I1
tp5243
a(I2533
I0
F1.0
g5168
I1
tp5244
a(I2547
I1
F1.0
S'good'
p5245
I1
tp5246
a(I238
I7
F-0.5
S'long'
p5247
I3
tp5248
a(I320
I2
F0.875
S'great'
p5249
I3
tp5250
a(I320
I3
F0.375
S'much'
p5251
I3
tp5252
a(I320
I3
F0.5
S'higher'
p5253
I3
tp5254
a(I322
I1
F-0.5
S'heavy'
p5255
I3
tp5256
a(I532
I1
F1.0
g5130
I3
tp5257
a(I601
I6
F1.0
g5132
I3
tp5258
a(I747
I16
F1.0
g5134
I3
tp5259
a(I747
I16
F1.0
g5136
I3
tp5260
a(I809
I1
F1.0
g5138
I3
tp5261
a(I852
I0
F-0.25
g5140
I3
tp5262
a(I852
I0
F1.0
g5142
I3
tp5263
a(I967
I8
F1.0
g5144
I3
tp5264
a(I1141
I0
F1.0
g5146
I3
tp5265
a(I1141
I0
I0
g5148
I3
tp5266
a(I1215
I0
F0.875
S'decent'
p5267
I3
tp5268
a(I1246
I9
F1.0
S'excellent'
p5269
I3
tp5270
a(I1246
I9
F-0.625
S'moderate'
p5271
I3
tp5272
a(I1266
I1
F-0.625
S'average'
p5273
I3
tp5274
a(I1267
I0
F1.0
g5150
I3
tp5275
a(I1269
I0
F1.0
g5152
I3
tp5276
a(I1285
I4
F-0.625
S'average'
p5277
I3
tp5278
a(I1450
I3
F0.875
S'amazing'
p5279
I3
tp5280
a(I1490
I3
F-0.375
g5154
I3
tp5281
a(I1553
I7
F1.0
S'better'
p5282
I3
tp5283
a(I1579
I5
F-0.875
S'poor'
p5284
I3
tp5285
a(I1666
I1
F1.0
g5156
I3
tp5286
a(I1712
I0
F1.0
g5158
I3
tp5287
a(I1933
I11
F-0.875
S'smaller'
p5288
I3
tp5289
a(I1933
I11
F-0.25
S'battery'
p5290
I3
tp5291
a(I2032
I0
F1.0
g5160
I3
tp5292
a(I2067
I10
F1.0
g5162
I3
tp5293
a(I2193
I20
F0.875
S'decent'
p5294
I3
tp5295
a(I2323
I3
F1.0
g5164
I3
tp5296
a(I2389
I3
F1.0
g5166
I3
tp5297
a(I2533
I0
F1.0
g5168
I3
tp5298
as(S'buy'
p5299
S'lenovo'
p5300
S'k3'
p5301
tp5302
(lp5303
(I1064
I0
F1.0
g1299
I0
tp5304
a(I1630
I14
F-0.25
g1442
I0
tp5305
as(S'13'
p5306
S'mp'
p5307
tp5308
(lp5309
(I238
I12
I0
S'rear'
p5310
I0
tp5311
a(I268
I0
F0.75
S'primary'
p5312
I0
tp5313
a(I329
I0
F0.5
S'like'
p5314
I0
tp5315
a(I1083
I1
F0.75
S'primary'
p5316
I0
tp5317
a(I1295
I2
F-0.125
S'front'
p5318
I0
tp5319
a(I1428
I0
F0.625
S'super'
p5320
I0
tp5321
a(I1687
I0
F0.75
S'primary'
p5322
I0
tp5323
a(I1880
I1
F0.125
S'equal'
p5324
I0
tp5325
a(I2193
I10
I0
S'rear'
p5326
I0
tp5327
a(I2586
I3
I0
S'rear'
p5328
I0
tp5329
as(S'social'
p5330
S'networking'
p5331
tp5332
(lp5333
(I206
I12
F-0.25
S'social'
p5334
I0
tp5335
a(I778
I5
F-0.25
S'social'
p5336
I0
tp5337
as(S'light'
p5338
S'in'
p5339
S'weight'
p5340
tp5341
(lp5342
(I152
I0
I0
S'light'
p5343
I0
tp5344
a(I288
I8
I0
S'light'
p5345
I0
tp5346
a(I352
I30
I0
S'light'
p5347
I0
tp5348
a(I592
I29
I0
S'light'
p5349
I0
tp5350
a(I873
I2
F0.75
S'premium'
p5351
I0
tp5352
a(I895
I1
I0
S'light'
p5353
I0
tp5354
a(I941
I2
F0.5
S'like'
p5355
I0
tp5356
a(I941
I2
F1.0
S'good'
p5357
I0
tp5358
a(I1075
I3
F0.625
S'super'
p5359
I0
tp5360
a(I1111
I3
I0
S'light'
p5361
I0
tp5362
a(I1111
I3
I0
S'light'
p5363
I0
tp5364
a(I1253
I5
I0
S'light'
p5365
I0
tp5366
a(I1325
I6
F0.5
S'dual'
p5367
I0
tp5368
a(I1511
I11
F0.875
S'nice'
p5369
I0
tp5370
a(I1930
I3
I0
S'light'
p5371
I0
tp5372
a(I2038
I12
I0
S'light'
p5373
I0
tp5374
a(I2088
I0
I0
S'light'
p5375
I0
tp5376
a(I2400
I3
F1.0
S'good'
p5377
I0
tp5378
a(I2413
I0
I0
S'light'
p5379
I0
tp5380
a(I2423
I2
I0
S'light'
p5381
I0
tp5382
a(I2448
I0
I0
S'light'
p5383
I0
tp5384
a(I48
I0
I0
S'light'
p5385
I0
tp5386
a(I63
I1
I0
S'light'
p5387
I0
tp5388
a(I152
I0
I0
g5343
I0
tp5389
a(I190
I1
I0
S'light'
p5390
I0
tp5391
a(I210
I1
I0
S'light'
p5392
I0
tp5393
a(I210
I2
I0
S'light'
p5394
I0
tp5395
a(I288
I8
I0
g5345
I0
tp5396
a(I352
I30
I0
g5347
I0
tp5397
a(I363
I1
I0
S'light'
p5398
I0
tp5399
a(I438
I0
I0
S'light'
p5400
I0
tp5401
a(I550
I2
I0
S'light'
p5402
I0
tp5403
a(I571
I0
I0
S'light'
p5404
I0
tp5405
a(I585
I0
F0.75
S'easy'
p5406
I0
tp5407
a(I585
I0
F0.75
S'due'
p5408
I0
tp5409
a(I585
I0
I0
S'light'
p5410
I0
tp5411
a(I588
I14
I0
S'light'
p5412
I0
tp5413
a(I592
I29
I0
g5349
I0
tp5414
a(I596
I3
I0
S'light'
p5415
I0
tp5416
a(I596
I3
F1.0
S'good'
p5417
I0
tp5418
a(I720
I0
I0
S'light'
p5419
I0
tp5420
a(I846
I7
I0
S'light'
p5421
I0
tp5422
a(I873
I2
F0.75
g5351
I0
tp5423
a(I895
I1
I0
g5353
I0
tp5424
a(I906
I1
I0
S'light'
p5425
I0
tp5426
a(I941
I2
F0.5
g5355
I0
tp5427
a(I941
I2
F1.0
g5357
I0
tp5428
a(I1029
I3
I0
S'light'
p5429
I0
tp5430
a(I1048
I4
I0
S'light'
p5431
I0
tp5432
a(I1048
I4
F-0.5
S'snappy'
p5433
I0
tp5434
a(I1048
I4
F0.5
S'responsive'
p5435
I0
tp5436
a(I1066
I0
I0
S'light'
p5437
I0
tp5438
a(I1075
I3
F0.625
g5359
I0
tp5439
a(I1111
I2
I0
S'light'
p5440
I0
tp5441
a(I1111
I3
I0
g5361
I0
tp5442
a(I1111
I3
I0
g5363
I0
tp5443
a(I1122
I11
I0
S'light'
p5444
I0
tp5445
a(I1128
I1
I0
S'light'
p5446
I0
tp5447
a(I1128
I2
I0
S'light'
p5448
I0
tp5449
a(I1144
I0
I0
S'light'
p5450
I0
tp5451
a(I1191
I0
I0
S'light'
p5452
I0
tp5453
a(I1212
I2
I0
S'light'
p5454
I0
tp5455
a(I1253
I5
I0
g5365
I0
tp5456
a(I1308
I1
I0
S'light'
p5457
I0
tp5458
a(I1325
I6
F0.5
g5367
I0
tp5459
a(I1365
I5
I0
S'light'
p5460
I0
tp5461
a(I1440
I0
I0
S'light'
p5462
I0
tp5463
a(I1450
I7
I0
S'light'
p5464
I0
tp5465
a(I1509
I0
I0
S'light'
p5466
I0
tp5467
a(I1511
I11
F0.875
g5369
I0
tp5468
a(I1521
I0
I0
S'light'
p5469
I0
tp5470
a(I1545
I1
I0
S'light'
p5471
I0
tp5472
a(I1717
I0
I0
S'light'
p5473
I0
tp5474
a(I1759
I0
F-0.875
S'smart'
p5475
I0
tp5476
a(I1759
I0
I0
S'light'
p5477
I0
tp5478
a(I1798
I0
I0
S'light'
p5479
I0
tp5480
a(I1816
I3
I0
S'light'
p5481
I0
tp5482
a(I1930
I3
I0
g5371
I0
tp5483
a(I1972
I0
I0
S'light'
p5484
I0
tp5485
a(I2010
I8
I0
S'light'
p5486
I0
tp5487
a(I2020
I3
F0.875
S'nice'
p5488
I0
tp5489
a(I2020
I3
I0
S'light'
p5490
I0
tp5491
a(I2038
I12
I0
g5373
I0
tp5492
a(I2088
I0
I0
g5375
I0
tp5493
a(I2154
I0
I0
S'light'
p5494
I0
tp5495
a(I2164
I4
I0
S'light'
p5496
I0
tp5497
a(I2176
I8
I0
S'light'
p5498
I0
tp5499
a(I2178
I0
I0
S'light'
p5500
I0
tp5501
a(I2213
I13
F0.5
S'touch'
p5502
I0
tp5503
a(I2216
I1
I0
S'light'
p5504
I0
tp5505
a(I2229
I0
I0
S'light'
p5506
I0
tp5507
a(I2252
I1
I0
S'light'
p5508
I0
tp5509
a(I2272
I3
I0
S'light'
p5510
I0
tp5511
a(I2306
I3
I0
S'light'
p5512
I0
tp5513
a(I2400
I3
F1.0
g5377
I0
tp5514
a(I2413
I0
I0
g5379
I0
tp5515
a(I2422
I17
I0
S'light'
p5516
I0
tp5517
a(I2423
I1
I0
S'light'
p5518
I0
tp5519
a(I2423
I2
I0
g5381
I0
tp5520
a(I2448
I0
I0
g5383
I0
tp5521
a(I2459
I1
I0
S'light'
p5522
I0
tp5523
a(I2522
I1
I0
S'light'
p5524
I0
tp5525
a(I2534
I0
I0
S'light'
p5526
I0
tp5527
a(I2575
I0
I0
S'light'
p5528
I0
tp5529
a(I48
I0
I0
g5385
I4
tp5530
a(I63
I1
I0
g5387
I4
tp5531
a(I152
I0
I0
g5343
I4
tp5532
a(I190
I1
I0
g5390
I4
tp5533
a(I210
I1
I0
g5392
I4
tp5534
a(I210
I2
I0
g5394
I4
tp5535
a(I210
I3
F1.0
S'good'
p5536
I4
tp5537
a(I241
I0
F1.0
S'good'
p5538
I4
tp5539
a(I288
I8
I0
g5345
I4
tp5540
a(I352
I30
I0
g5347
I4
tp5541
a(I363
I1
I0
g5398
I4
tp5542
a(I438
I0
I0
g5400
I4
tp5543
a(I526
I1
F0.125
S'feather'
p5544
I4
tp5545
a(I550
I2
I0
g5402
I4
tp5546
a(I571
I0
I0
g5404
I4
tp5547
a(I585
I0
F0.75
g5406
I4
tp5548
a(I585
I0
F0.75
g5408
I4
tp5549
a(I585
I0
I0
g5410
I4
tp5550
a(I588
I14
I0
g5412
I4
tp5551
a(I592
I29
I0
g5349
I4
tp5552
a(I596
I3
I0
g5415
I4
tp5553
a(I596
I3
F1.0
g5417
I4
tp5554
a(I720
I0
I0
g5419
I4
tp5555
a(I846
I7
I0
g5421
I4
tp5556
a(I873
I2
F0.75
g5351
I4
tp5557
a(I895
I1
I0
g5353
I4
tp5558
a(I906
I1
I0
g5425
I4
tp5559
a(I941
I2
F1.0
g5357
I4
tp5560
a(I1029
I3
I0
g5429
I4
tp5561
a(I1048
I4
I0
g5431
I4
tp5562
a(I1048
I4
F-0.5
g5433
I4
tp5563
a(I1048
I4
F0.5
g5435
I4
tp5564
a(I1066
I0
I0
g5437
I4
tp5565
a(I1111
I2
I0
g5440
I4
tp5566
a(I1111
I3
I0
g5361
I4
tp5567
a(I1111
I3
I0
g5363
I4
tp5568
a(I1122
I11
I0
g5444
I4
tp5569
a(I1128
I1
I0
g5446
I4
tp5570
a(I1128
I2
I0
g5448
I4
tp5571
a(I1128
I3
F1.0
S'good'
p5572
I4
tp5573
a(I1144
I0
I0
g5450
I4
tp5574
a(I1191
I0
I0
g5452
I4
tp5575
a(I1212
I2
I0
g5454
I4
tp5576
a(I1253
I5
I0
g5365
I4
tp5577
a(I1308
I1
I0
g5457
I4
tp5578
a(I1325
I6
F0.5
g5367
I4
tp5579
a(I1365
I5
I0
g5460
I4
tp5580
a(I1440
I0
I0
g5462
I4
tp5581
a(I1450
I7
I0
g5464
I4
tp5582
a(I1509
I0
I0
g5466
I4
tp5583
a(I1511
I11
F0.875
g5369
I4
tp5584
a(I1521
I0
I0
g5469
I4
tp5585
a(I1545
I1
I0
g5471
I4
tp5586
a(I1584
I0
F0.875
S'awesome'
p5587
I4
tp5588
a(I1584
I0
F0.5
S'slim'
p5589
I4
tp5590
a(I1584
I0
F-0.875
S'low'
p5591
I4
tp5592
a(I1717
I0
I0
g5473
I4
tp5593
a(I1759
I0
F-0.875
g5475
I4
tp5594
a(I1759
I0
I0
g5477
I4
tp5595
a(I1798
I0
I0
g5479
I4
tp5596
a(I1816
I3
I0
g5481
I4
tp5597
a(I1930
I3
I0
g5371
I4
tp5598
a(I1972
I0
I0
g5484
I4
tp5599
a(I2010
I8
I0
g5486
I4
tp5600
a(I2020
I3
F0.875
g5488
I4
tp5601
a(I2020
I3
I0
g5490
I4
tp5602
a(I2020
I4
F0.75
S'due'
p5603
I4
tp5604
a(I2038
I12
I0
g5373
I4
tp5605
a(I2080
I5
F0.875
S'awesome'
p5606
I4
tp5607
a(I2088
I0
I0
g5375
I4
tp5608
a(I2154
I0
I0
g5494
I4
tp5609
a(I2164
I4
I0
g5496
I4
tp5610
a(I2176
I8
I0
g5498
I4
tp5611
a(I2178
I0
I0
g5500
I4
tp5612
a(I2216
I1
I0
g5504
I4
tp5613
a(I2229
I0
I0
g5506
I4
tp5614
a(I2252
I1
I0
g5508
I4
tp5615
a(I2272
I3
I0
g5510
I4
tp5616
a(I2306
I3
I0
g5512
I4
tp5617
a(I2413
I0
I0
g5379
I4
tp5618
a(I2422
I17
I0
g5516
I4
tp5619
a(I2423
I1
I0
g5518
I4
tp5620
a(I2423
I2
I0
g5381
I4
tp5621
a(I2448
I0
I0
g5383
I4
tp5622
a(I2459
I1
I0
g5522
I4
tp5623
a(I2522
I1
I0
g5524
I4
tp5624
a(I2534
I0
I0
g5526
I4
tp5625
a(I2575
I0
I0
g5528
I4
tp5626
a(I2
I16
F-0.875
g2132
I14
tp5627
a(I2
I16
F-0.75
g2134
I14
tp5628
a(I2
I16
I0
g2136
I14
tp5629
a(I41
I2
F-0.875
g2138
I14
tp5630
a(I72
I2
F-0.875
g2140
I14
tp5631
a(I118
I3
F-0.875
g2142
I14
tp5632
a(I144
I1
I0
S'darn'
p5633
I14
tp5634
a(I238
I26
I0
S'ultra'
p5635
I14
tp5636
a(I287
I4
F0.375
g2144
I14
tp5637
a(I287
I15
F-0.875
g2146
I14
tp5638
a(I438
I3
F-0.875
g2148
I14
tp5639
a(I451
I5
F-0.875
g2152
I14
tp5640
a(I451
I5
F1.0
g2154
I14
tp5641
a(I547
I10
I0
g2194
I14
tp5642
a(I547
I10
F-0.875
g2196
I14
tp5643
a(I561
I5
F-0.75
S'artificial'
p5644
I14
tp5645
a(I585
I11
F-0.875
g2156
I14
tp5646
a(I585
I11
F0.875
g2158
I14
tp5647
a(I855
I0
F1.0
S'good'
p5648
I14
tp5649
a(I855
I0
F0.625
S'acceptable'
p5650
I14
tp5651
a(I941
I2
F0.5
g5355
I14
tp5652
a(I1075
I3
F0.625
g5359
I14
tp5653
a(I1075
I9
F-0.875
g2160
I14
tp5654
a(I1336
I3
F-0.5
S'dull'
p5655
I14
tp5656
a(I1442
I4
F-0.875
g2164
I14
tp5657
a(I1477
I7
F-0.875
g2166
I14
tp5658
a(I1548
I15
F-0.875
g2168
I14
tp5659
a(I1548
I16
F-0.875
g2205
I14
tp5660
a(I1548
I16
F-0.875
g2207
I14
tp5661
a(I1670
I5
F-0.875
g2170
I14
tp5662
a(I1720
I0
F-0.875
g2210
I14
tp5663
a(I1847
I0
F0.625
S'super'
p5664
I14
tp5665
a(I1910
I1
F-0.125
S'back'
p5666
I14
tp5667
a(I1987
I3
F1.0
g2212
I14
tp5668
a(I1987
I3
F-0.875
g2214
I14
tp5669
a(I2067
I3
I0
g2216
I14
tp5670
a(I2067
I3
F-0.875
g2218
I14
tp5671
a(I2158
I0
F0.125
g2172
I14
tp5672
a(I2158
I0
F-0.875
g2174
I14
tp5673
a(I2158
I1
F-0.875
g2222
I14
tp5674
a(I2158
I1
F-0.875
g2224
I14
tp5675
a(I2191
I2
F-0.875
g2176
I14
tp5676
a(I2213
I13
F0.5
g5502
I14
tp5677
a(I2240
I0
F-0.125
S'back'
p5678
I14
tp5679
a(I2315
I6
F-0.875
g2178
I14
tp5680
a(I2400
I3
F1.0
g5377
I14
tp5681
a(I2579
I27
F-0.875
g2180
I14
tp5682
as(S'thanks'
p5683
S'to'
p5684
S'flipkart'
p5685
tp5686
(lp5687
(I748
I12
F0.25
S'able'
p5688
I1
tp5689
a(I2078
I0
F0.625
S'first'
p5690
I1
tp5691
as(S'good'
p5692
S'camera'
p5693
S'quality'
p5694
tp5695
(lp5696
(I64
I7
F1.0
S'good'
p5697
I0
tp5698
a(I86
I1
F-0.125
g921
I0
tp5699
a(I86
I1
F1.0
g3215
I0
tp5700
a(I91
I1
F1.0
S'good'
p5701
I0
tp5702
a(I206
I10
F1.0
g3222
I0
tp5703
a(I292
I1
F-0.125
g926
I0
tp5704
a(I292
I1
F1.0
g3233
I0
tp5705
a(I420
I27
F1.0
g3243
I0
tp5706
a(I420
I27
F1.0
S'good'
p5707
I0
tp5708
a(I499
I0
F1.0
g3247
I0
tp5709
a(I577
I16
F1.0
g1029
I0
tp5710
a(I657
I2
F1.0
g3262
I0
tp5711
a(I673
I13
F1.0
g3266
I0
tp5712
a(I711
I3
F1.0
g3268
I0
tp5713
a(I731
I7
F1.0
g3274
I0
tp5714
a(I778
I3
F1.0
g3276
I0
tp5715
a(I807
I1
F1.0
g3280
I0
tp5716
a(I1024
I7
F1.0
g3283
I0
tp5717
a(I1083
I0
F1.0
g3285
I0
tp5718
a(I1083
I2
F-0.75
S'secondary'
p5719
I0
tp5720
a(I1083
I2
F1.0
g3287
I0
tp5721
a(I1094
I9
F0.875
S'superb'
p5722
I0
tp5723
a(I1094
I9
F1.0
g3293
I0
tp5724
a(I1131
I7
F1.0
g3295
I0
tp5725
a(I1214
I5
F-0.5
g3304
I0
tp5726
a(I1253
I8
F1.0
g3308
I0
tp5727
a(I1274
I1
F1.0
g3310
I0
tp5728
a(I1304
I30
F1.0
g3316
I0
tp5729
a(I1322
I6
F1.0
g3318
I0
tp5730
a(I1325
I6
F0.875
S'awesome'
p5731
I0
tp5732
a(I1325
I6
F1.0
g3065
I0
tp5733
a(I1325
I6
F0.5
S'slim'
p5734
I0
tp5735
a(I1405
I1
F1.0
S'good'
p5736
I0
tp5737
a(I1415
I3
F1.0
S'good'
p5738
I0
tp5739
a(I1428
I0
F0.875
S'awesome'
p5740
I0
tp5741
a(I1428
I0
F-0.625
g3326
I0
tp5742
a(I1479
I1
F1.0
g3328
I0
tp5743
a(I1578
I0
F1.0
S'good'
p5744
I0
tp5745
a(I1578
I0
I0
g3333
I0
tp5746
a(I1594
I0
F1.0
S'good'
p5747
I0
tp5748
a(I1623
I0
F1.0
S'good'
p5749
I0
tp5750
a(I1628
I0
F1.0
g3337
I0
tp5751
a(I1680
I2
F1.0
S'good'
p5752
I0
tp5753
a(I1768
I1
F1.0
S'excellent'
p5754
I0
tp5755
a(I1768
I1
I0
g3346
I0
tp5756
a(I1768
I2
F1.0
g3348
I0
tp5757
a(I1768
I2
I0
S'update'
p5758
I0
tp5759
a(I1768
I2
F1.0
g3350
I0
tp5760
a(I1985
I8
F1.0
g3097
I0
tp5761
a(I2038
I12
F1.0
S'good'
p5762
I0
tp5763
a(I2071
I0
F1.0
g3365
I0
tp5764
a(I2088
I1
F1.0
g3367
I0
tp5765
a(I2112
I0
F1.0
S'good'
p5766
I0
tp5767
a(I2176
I5
F1.0
g3371
I0
tp5768
a(I2213
I17
F1.0
S'good'
p5769
I0
tp5770
a(I2430
I9
F1.0
g3381
I0
tp5771
a(I2503
I1
F1.0
g3383
I0
tp5772
a(I2579
I28
F-0.125
g977
I0
tp5773
a(I2579
I28
I0
g979
I0
tp5774
a(I2579
I28
F0.875
g981
I0
tp5775
a(I2579
I28
F1.0
g3386
I0
tp5776
a(I2586
I2
F1.0
g3388
I0
tp5777
a(I2590
I0
F1.0
S'good'
p5778
I0
tp5779
a(I2590
I0
F1.0
S'good'
p5780
I0
tp5781
a(I2625
I2
F1.0
g3392
I0
tp5782
a(I2
I14
I0
g368
I3
tp5783
a(I2
I14
F1.0
g370
I3
tp5784
a(I64
I7
F1.0
g5697
I3
tp5785
a(I86
I1
F-0.125
g921
I3
tp5786
a(I91
I1
F1.0
g5701
I3
tp5787
a(I188
I0
I0
g374
I3
tp5788
a(I238
I12
F1.0
g378
I3
tp5789
a(I238
I12
F-0.625
g380
I3
tp5790
a(I287
I14
F-0.125
g386
I3
tp5791
a(I287
I14
F1.0
g388
I3
tp5792
a(I287
I14
F1.0
g390
I3
tp5793
a(I290
I2
F1.0
S'good'
p5794
I3
tp5795
a(I292
I1
F-0.125
g926
I3
tp5796
a(I310
I0
I0
g392
I3
tp5797
a(I315
I14
F1.0
g394
I3
tp5798
a(I315
I14
I0
g396
I3
tp5799
a(I315
I14
F0.875
g398
I3
tp5800
a(I420
I27
F1.0
g5707
I3
tp5801
a(I451
I3
F-1.0
S'bad'
p5802
I3
tp5803
a(I466
I10
F-0.125
g1018
I3
tp5804
a(I492
I0
F1.0
g410
I3
tp5805
a(I519
I31
F0.875
S'great'
p5806
I3
tp5807
a(I539
I1
F1.0
S'good'
p5808
I3
tp5809
a(I547
I9
I0
g412
I3
tp5810
a(I553
I1
F1.0
S'good'
p5811
I3
tp5812
a(I571
I0
F1.0
g414
I3
tp5813
a(I571
I0
I0
g416
I3
tp5814
a(I571
I0
F1.0
g418
I3
tp5815
a(I577
I16
F1.0
g1029
I3
tp5816
a(I588
I9
F1.0
g1031
I3
tp5817
a(I588
I9
F-0.125
g1033
I3
tp5818
a(I590
I9
F-0.625
S'average'
p5819
I3
tp5820
a(I607
I10
F1.0
g1036
I3
tp5821
a(I607
I10
F-0.125
g1038
I3
tp5822
a(I631
I2
F1.0
S'best'
p5823
I3
tp5824
a(I631
I2
F0.375
S'feels'
p5825
I3
tp5826
a(I695
I7
F1.0
S'good'
p5827
I3
tp5828
a(I747
I22
F1.0
S'good'
p5829
I3
tp5830
a(I754
I22
I0
g426
I3
tp5831
a(I754
I22
F-0.125
g428
I3
tp5832
a(I786
I0
F0.875
S'awesome'
p5833
I3
tp5834
a(I786
I0
F1.0
S'good'
p5835
I3
tp5836
a(I824
I9
F1.0
g1047
I3
tp5837
a(I827
I2
F1.0
S'good'
p5838
I3
tp5839
a(I847
I8
F0.625
S'live'
p5840
I3
tp5841
a(I847
I8
F1.0
S'good'
p5842
I3
tp5843
a(I852
I1
F1.0
S'good'
p5844
I3
tp5845
a(I875
I5
F1.0
S'good'
p5846
I3
tp5847
a(I875
I5
F0.875
S'great'
p5848
I3
tp5849
a(I883
I1
F1.0
S'good'
p5850
I3
tp5851
a(I963
I0
F1.0
S'good'
p5852
I3
tp5853
a(I967
I6
F1.0
S'good'
p5854
I3
tp5855
a(I1074
I0
F0.375
S'ok'
p5856
I3
tp5857
a(I1074
I0
F1.0
S'good'
p5858
I3
tp5859
a(I1083
I2
F-0.75
g5719
I3
tp5860
a(I1094
I9
F0.875
g5722
I3
tp5861
a(I1109
I20
F1.0
S'good'
p5862
I3
tp5863
a(I1109
I22
I0
g446
I3
tp5864
a(I1109
I22
F1.0
g448
I3
tp5865
a(I1112
I1
I0
S'light'
p5866
I3
tp5867
a(I1112
I1
F-0.625
S'sensitive'
p5868
I3
tp5869
a(I1112
I1
F0.5
S'touch'
p5870
I3
tp5871
a(I1112
I1
F0.875
S'nice'
p5872
I3
tp5873
a(I1115
I2
F1.0
S'good'
p5874
I3
tp5875
a(I1189
I16
F1.0
S'good'
p5876
I3
tp5877
a(I1189
I27
F1.0
S'good'
p5878
I3
tp5879
a(I1197
I1
F1.0
S'good'
p5880
I3
tp5881
a(I1206
I0
F1.0
S'good'
p5882
I3
tp5883
a(I1284
I4
F0.625
S'fine'
p5884
I3
tp5885
a(I1289
I2
F0.375
S'capable'
p5886
I3
tp5887
a(I1325
I6
F0.875
g5731
I3
tp5888
a(I1325
I6
F0.5
g5734
I3
tp5889
a(I1327
I5
F1.0
S'good'
p5890
I3
tp5891
a(I1358
I0
F1.0
S'good'
p5892
I3
tp5893
a(I1405
I1
F1.0
g5736
I3
tp5894
a(I1415
I3
F1.0
g5738
I3
tp5895
a(I1420
I7
F1.0
g458
I3
tp5896
a(I1420
I7
I0
g460
I3
tp5897
a(I1428
I0
F0.875
g5740
I3
tp5898
a(I1442
I4
F1.0
S'good'
p5899
I3
tp5900
a(I1460
I0
I0
g462
I3
tp5901
a(I1477
I7
F1.0
S'good'
p5902
I3
tp5903
a(I1481
I5
F1.0
S'good'
p5904
I3
tp5905
a(I1490
I1
F1.0
S'good'
p5906
I3
tp5907
a(I1490
I2
F1.0
S'good'
p5908
I3
tp5909
a(I1490
I2
F-0.625
S'average'
p5910
I3
tp5911
a(I1515
I19
F1.0
S'good'
p5912
I3
tp5913
a(I1540
I1
F0.75
S'primary'
p5914
I3
tp5915
a(I1561
I0
F1.0
S'good'
p5916
I3
tp5917
a(I1571
I1
F1.0
g1084
I3
tp5918
a(I1578
I0
F1.0
g5744
I3
tp5919
a(I1579
I15
F-0.5
S'slow'
p5920
I3
tp5921
a(I1594
I0
F1.0
g5747
I3
tp5922
a(I1617
I3
F-0.125
g478
I3
tp5923
a(I1617
I3
F1.0
g480
I3
tp5924
a(I1617
I3
I0
g482
I3
tp5925
a(I1623
I0
F1.0
g5749
I3
tp5926
a(I1670
I1
F1.0
S'good'
p5927
I3
tp5928
a(I1680
I2
F1.0
g5752
I3
tp5929
a(I1768
I1
F1.0
g5754
I3
tp5930
a(I1768
I2
I0
g5758
I3
tp5931
a(I1770
I0
F1.0
g1092
I3
tp5932
a(I1810
I0
I0
g492
I3
tp5933
a(I1819
I0
F1.0
S'good'
p5934
I3
tp5935
a(I1821
I1
F1.0
S'good'
p5936
I3
tp5937
a(I1841
I1
F1.0
S'good'
p5938
I3
tp5939
a(I1850
I0
F1.0
S'good'
p5940
I3
tp5941
a(I1863
I0
I0
g498
I3
tp5942
a(I1863
I0
F1.0
g500
I3
tp5943
a(I1863
I0
F-0.125
g502
I3
tp5944
a(I1903
I1
F1.0
S'good'
p5945
I3
tp5946
a(I1934
I0
F0.625
S'superior'
p5947
I3
tp5948
a(I1968
I0
F1.0
S'good'
p5949
I3
tp5950
a(I2010
I6
F1.0
g1111
I3
tp5951
a(I2038
I12
F1.0
g5762
I3
tp5952
a(I2053
I5
F1.0
S'good'
p5953
I3
tp5954
a(I2063
I17
F1.0
S'good'
p5955
I3
tp5956
a(I2069
I6
F-0.125
g1114
I3
tp5957
a(I2069
I6
F1.0
g1116
I3
tp5958
a(I2105
I4
F0.375
S'ok'
p5959
I3
tp5960
a(I2112
I0
F1.0
g5766
I3
tp5961
a(I2112
I3
F1.0
g968
I3
tp5962
a(I2176
I9
F1.0
S'good'
p5963
I3
tp5964
a(I2213
I17
F1.0
g5769
I3
tp5965
a(I2216
I3
I0
g532
I3
tp5966
a(I2216
I3
F1.0
g534
I3
tp5967
a(I2217
I12
F1.0
S'good'
p5968
I3
tp5969
a(I2217
I12
F1.0
S'excellent'
p5970
I3
tp5971
a(I2278
I2
I0
S'more'
p5972
I3
tp5973
a(I2278
I2
F1.0
S'good'
p5974
I3
tp5975
a(I2285
I1
F0.75
S'primary'
p5976
I3
tp5977
a(I2285
I1
F1.0
S'good'
p5978
I3
tp5979
a(I2304
I0
F0.75
g538
I3
tp5980
a(I2304
I0
I0
g540
I3
tp5981
a(I2400
I20
F1.0
g548
I3
tp5982
a(I2401
I0
F1.0
S'good'
p5983
I3
tp5984
a(I2438
I3
F1.0
S'good'
p5985
I3
tp5986
a(I2505
I29
F1.0
S'good'
p5987
I3
tp5988
a(I2519
I7
I-100
S'fem'
p5989
I3
tp5990
a(I2519
I7
F0.375
S'available'
p5991
I3
tp5992
a(I2522
I3
F1.0
S'good'
p5993
I3
tp5994
a(I2579
I10
F1.0
S'good'
p5995
I3
tp5996
a(I2579
I28
F-0.125
g977
I3
tp5997
a(I2579
I28
I0
g979
I3
tp5998
a(I2579
I28
F0.875
g981
I3
tp5999
a(I2590
I0
F1.0
g5778
I3
tp6000
a(I2590
I0
F1.0
g5780
I3
tp6001
a(I2596
I4
F-0.125
g558
I3
tp6002
a(I2596
I4
F0.375
g560
I3
tp6003
a(I64
I7
F1.0
g5697
I14
tp6004
a(I84
I3
F0.625
S'commendable'
p6005
I14
tp6006
a(I86
I1
F-0.125
g921
I14
tp6007
a(I86
I1
F1.0
g3215
I14
tp6008
a(I91
I1
F1.0
g5701
I14
tp6009
a(I146
I1
F0.875
S'awesome'
p6010
I14
tp6011
a(I147
I0
F0.875
S'great'
p6012
I14
tp6013
a(I188
I1
F-0.625
S'average'
p6014
I14
tp6015
a(I203
I1
F0.875
S'amazing'
p6016
I14
tp6017
a(I206
I10
F1.0
g3222
I14
tp6018
a(I292
I1
F-0.125
g926
I14
tp6019
a(I292
I1
F1.0
g3233
I14
tp6020
a(I351
I1
F-0.875
S'poor'
p6021
I14
tp6022
a(I351
I1
F0.125
S'mobile'
p6023
I14
tp6024
a(I351
I1
F0.375
S'much'
p6025
I14
tp6026
a(I351
I1
F-1.0
S'bad'
p6027
I14
tp6028
a(I391
I0
F-0.875
S'poor'
p6029
I14
tp6030
a(I420
I27
F1.0
g3243
I14
tp6031
a(I420
I27
F1.0
g5707
I14
tp6032
a(I428
I2
F-0.875
S'poor'
p6033
I14
tp6034
a(I499
I0
F1.0
g3247
I14
tp6035
a(I569
I8
I0
S'light'
p6036
I14
tp6037
a(I577
I15
F0.875
S'decent'
p6038
I14
tp6039
a(I577
I16
F1.0
g1029
I14
tp6040
a(I581
I0
F-0.875
S'poor'
p6041
I14
tp6042
a(I582
I0
F-0.875
S'poor'
p6043
I14
tp6044
a(I657
I2
F1.0
g3262
I14
tp6045
a(I673
I13
F1.0
g3266
I14
tp6046
a(I711
I3
F1.0
g3268
I14
tp6047
a(I731
I7
F1.0
g3274
I14
tp6048
a(I747
I21
F-0.625
S'average'
p6049
I14
tp6050
a(I752
I1
F0.875
S'amazing'
p6051
I14
tp6052
a(I778
I3
F1.0
g3276
I14
tp6053
a(I799
I1
F-1.0
S'bad'
p6054
I14
tp6055
a(I799
I1
I0
S'video'
p6056
I14
tp6057
a(I807
I1
F1.0
g3280
I14
tp6058
a(I815
I5
I0
S'least'
p6059
I14
tp6060
a(I847
I3
F1.0
S'better'
p6061
I14
tp6062
a(I992
I1
F-0.25
S'i'
p6063
I14
tp6064
a(I992
I1
I0
S't'
p6065
I14
tp6066
a(I992
I1
F-1.0
S'bad'
p6067
I14
tp6068
a(I992
I10
F-0.875
S'poor'
p6069
I14
tp6070
a(I1024
I7
F1.0
g3283
I14
tp6071
a(I1035
I3
F-0.5
S'ordinary'
p6072
I14
tp6073
a(I1050
I0
I0
g442
I14
tp6074
a(I1050
I0
F-0.125
g444
I14
tp6075
a(I1083
I0
F1.0
g3285
I14
tp6076
a(I1083
I2
F-0.75
g5719
I14
tp6077
a(I1083
I2
F1.0
g3287
I14
tp6078
a(I1094
I9
F0.875
g5722
I14
tp6079
a(I1094
I9
F1.0
g3293
I14
tp6080
a(I1131
I7
F1.0
g3295
I14
tp6081
a(I1174
I23
F-0.875
S'poor'
p6082
I14
tp6083
a(I1214
I5
F-0.5
g3304
I14
tp6084
a(I1253
I8
F1.0
g3308
I14
tp6085
a(I1274
I1
F1.0
g3310
I14
tp6086
a(I1294
I0
F0.875
S'amazing'
p6087
I14
tp6088
a(I1304
I30
F1.0
g3316
I14
tp6089
a(I1322
I6
F1.0
g3318
I14
tp6090
a(I1325
I6
F0.875
g5731
I14
tp6091
a(I1325
I6
F1.0
g3065
I14
tp6092
a(I1325
I6
F0.5
g5734
I14
tp6093
a(I1365
I7
F0.375
S'ok'
p6094
I14
tp6095
a(I1365
I7
F-0.625
S'average'
p6096
I14
tp6097
a(I1399
I0
F1.0
S'better'
p6098
I14
tp6099
a(I1405
I1
F1.0
g5736
I14
tp6100
a(I1415
I3
F1.0
g5738
I14
tp6101
a(I1428
I0
F0.875
g5740
I14
tp6102
a(I1428
I0
F-0.625
g3326
I14
tp6103
a(I1430
I0
F0.875
S'great'
p6104
I14
tp6105
a(I1444
I5
F0.875
S'amazing'
p6106
I14
tp6107
a(I1479
I1
F1.0
g3328
I14
tp6108
a(I1484
I1
I0
S'clear'
p6109
I14
tp6110
a(I1489
I7
F0.875
S'awesome'
p6111
I14
tp6112
a(I1494
I2
F0.875
S'great'
p6113
I14
tp6114
a(I1502
I3
F0.875
S'great'
p6115
I14
tp6116
a(I1511
I3
F0.25
S'voice'
p6117
I14
tp6118
a(I1511
I3
I0
g464
I14
tp6119
a(I1511
I13
F0.375
S'much'
p6120
I14
tp6121
a(I1523
I0
I0
g468
I14
tp6122
a(I1523
I0
F0.875
S'superb'
p6123
I14
tp6124
a(I1578
I0
F1.0
g5744
I14
tp6125
a(I1578
I0
I0
g3333
I14
tp6126
a(I1594
I0
F1.0
g5747
I14
tp6127
a(I1620
I0
F-0.875
S'poor'
p6128
I14
tp6129
a(I1623
I0
F1.0
g5749
I14
tp6130
a(I1628
I0
F1.0
g3337
I14
tp6131
a(I1680
I2
F1.0
g5752
I14
tp6132
a(I1746
I8
I0
S'camera'
p6133
I14
tp6134
a(I1748
I0
F0.75
S'fantastic'
p6135
I14
tp6136
a(I1768
I1
F1.0
g5754
I14
tp6137
a(I1768
I1
I0
g3346
I14
tp6138
a(I1768
I2
F1.0
g3348
I14
tp6139
a(I1768
I2
I0
g5758
I14
tp6140
a(I1768
I2
F1.0
g3350
I14
tp6141
a(I1810
I1
F-0.625
S'average'
p6142
I14
tp6143
a(I1813
I1
F-0.875
S'low'
p6144
I14
tp6145
a(I1829
I1
F-0.625
S'average'
p6146
I14
tp6147
a(I1837
I0
F-0.625
S'average'
p6148
I14
tp6149
a(I1858
I0
F-0.875
S'poor'
p6150
I14
tp6151
a(I1880
I1
F-0.875
S'pathetic'
p6152
I14
tp6153
a(I1985
I8
F1.0
g3097
I14
tp6154
a(I2038
I12
F1.0
g5762
I14
tp6155
a(I2071
I0
F1.0
g3365
I14
tp6156
a(I2079
I0
I0
g1120
I14
tp6157
a(I2088
I1
F1.0
g3367
I14
tp6158
a(I2112
I0
F1.0
g5766
I14
tp6159
a(I2176
I5
F1.0
g3371
I14
tp6160
a(I2213
I17
F1.0
g5769
I14
tp6161
a(I2246
I1
F0.5
S'high'
p6162
I14
tp6163
a(I2400
I18
F-0.75
S'crappy'
p6164
I14
tp6165
a(I2430
I9
F1.0
g3381
I14
tp6166
a(I2446
I6
I0
g3208
I14
tp6167
a(I2460
I9
F0.75
S'perfect'
p6168
I14
tp6169
a(I2460
I9
F-0.25
S'ram'
p6170
I14
tp6171
a(I2460
I9
F-0.75
S'free'
p6172
I14
tp6173
a(I2460
I9
F-0.25
S'i'
p6174
I14
tp6175
a(I2503
I1
F1.0
g3383
I14
tp6176
a(I2579
I27
F0.625
S'rich'
p6177
I14
tp6178
a(I2579
I28
F-0.125
g977
I14
tp6179
a(I2579
I28
I0
g979
I14
tp6180
a(I2579
I28
F0.875
g981
I14
tp6181
a(I2579
I28
F1.0
g3386
I14
tp6182
a(I2585
I1
F-1.0
S'bad'
p6183
I14
tp6184
a(I2586
I2
F1.0
g3388
I14
tp6185
a(I2590
I0
F1.0
g5778
I14
tp6186
a(I2590
I0
F1.0
g5780
I14
tp6187
a(I2602
I13
F-0.875
S'low'
p6188
I14
tp6189
a(I2620
I19
F-0.5
S'disappointed'
p6190
I14
tp6191
a(I2620
I20
F-0.875
S'poor'
p6192
I14
tp6193
a(I2625
I2
F1.0
g3392
I14
tp6194
a(I2
I14
I0
g368
I0
tp6195
a(I2
I14
F1.0
g370
I0
tp6196
a(I64
I7
F1.0
g5697
I0
tp6197
a(I86
I1
F-0.125
g921
I0
tp6198
a(I91
I1
F1.0
g5701
I0
tp6199
a(I188
I0
I0
g374
I0
tp6200
a(I238
I12
F1.0
g378
I0
tp6201
a(I238
I12
F-0.625
g380
I0
tp6202
a(I287
I14
F-0.125
g386
I0
tp6203
a(I287
I14
F1.0
g388
I0
tp6204
a(I287
I14
F1.0
g390
I0
tp6205
a(I290
I2
F1.0
g5794
I0
tp6206
a(I292
I1
F-0.125
g926
I0
tp6207
a(I310
I0
I0
g392
I0
tp6208
a(I315
I14
F1.0
g394
I0
tp6209
a(I315
I14
I0
g396
I0
tp6210
a(I315
I14
F0.875
g398
I0
tp6211
a(I420
I27
F1.0
g5707
I0
tp6212
a(I451
I3
F-1.0
g5802
I0
tp6213
a(I466
I10
F-0.125
g1018
I0
tp6214
a(I492
I0
F1.0
g410
I0
tp6215
a(I519
I31
F0.875
g5806
I0
tp6216
a(I539
I1
F1.0
g5808
I0
tp6217
a(I547
I9
I0
g412
I0
tp6218
a(I553
I1
F1.0
g5811
I0
tp6219
a(I571
I0
F1.0
g414
I0
tp6220
a(I571
I0
I0
g416
I0
tp6221
a(I571
I0
F1.0
g418
I0
tp6222
a(I577
I16
F1.0
g1029
I0
tp6223
a(I588
I9
F1.0
g1031
I0
tp6224
a(I588
I9
F-0.125
g1033
I0
tp6225
a(I590
I9
F-0.625
g5819
I0
tp6226
a(I607
I10
F1.0
g1036
I0
tp6227
a(I607
I10
F-0.125
g1038
I0
tp6228
a(I631
I2
F1.0
g5823
I0
tp6229
a(I631
I2
F0.375
g5825
I0
tp6230
a(I695
I7
F1.0
g5827
I0
tp6231
a(I747
I22
F1.0
g5829
I0
tp6232
a(I754
I22
I0
g426
I0
tp6233
a(I754
I22
F-0.125
g428
I0
tp6234
a(I786
I0
F0.875
g5833
I0
tp6235
a(I786
I0
F1.0
g5835
I0
tp6236
a(I824
I9
F1.0
g1047
I0
tp6237
a(I827
I2
F1.0
g5838
I0
tp6238
a(I847
I8
F0.625
g5840
I0
tp6239
a(I847
I8
F1.0
g5842
I0
tp6240
a(I852
I1
F1.0
g5844
I0
tp6241
a(I875
I5
F1.0
g5846
I0
tp6242
a(I875
I5
F0.875
g5848
I0
tp6243
a(I883
I1
F1.0
g5850
I0
tp6244
a(I963
I0
F1.0
g5852
I0
tp6245
a(I967
I6
F1.0
g5854
I0
tp6246
a(I1074
I0
F0.375
g5856
I0
tp6247
a(I1074
I0
F1.0
g5858
I0
tp6248
a(I1083
I2
F-0.75
g5719
I0
tp6249
a(I1094
I9
F0.875
g5722
I0
tp6250
a(I1109
I20
F1.0
g5862
I0
tp6251
a(I1109
I22
I0
g446
I0
tp6252
a(I1109
I22
F1.0
g448
I0
tp6253
a(I1112
I1
I0
g5866
I0
tp6254
a(I1112
I1
F-0.625
g5868
I0
tp6255
a(I1112
I1
F0.5
g5870
I0
tp6256
a(I1112
I1
F0.875
g5872
I0
tp6257
a(I1115
I2
F1.0
g5874
I0
tp6258
a(I1189
I16
F1.0
g5876
I0
tp6259
a(I1189
I27
F1.0
g5878
I0
tp6260
a(I1197
I1
F1.0
g5880
I0
tp6261
a(I1206
I0
F1.0
g5882
I0
tp6262
a(I1284
I4
F0.625
g5884
I0
tp6263
a(I1289
I2
F0.375
g5886
I0
tp6264
a(I1325
I6
F0.875
g5731
I0
tp6265
a(I1325
I6
F0.5
g5734
I0
tp6266
a(I1327
I5
F1.0
g5890
I0
tp6267
a(I1358
I0
F1.0
g5892
I0
tp6268
a(I1405
I1
F1.0
g5736
I0
tp6269
a(I1415
I3
F1.0
g5738
I0
tp6270
a(I1420
I7
F1.0
g458
I0
tp6271
a(I1420
I7
I0
g460
I0
tp6272
a(I1428
I0
F0.875
g5740
I0
tp6273
a(I1442
I4
F1.0
g5899
I0
tp6274
a(I1460
I0
I0
g462
I0
tp6275
a(I1477
I7
F1.0
g5902
I0
tp6276
a(I1481
I5
F1.0
g5904
I0
tp6277
a(I1490
I1
F1.0
g5906
I0
tp6278
a(I1490
I2
F1.0
g5908
I0
tp6279
a(I1490
I2
F-0.625
g5910
I0
tp6280
a(I1515
I19
F1.0
g5912
I0
tp6281
a(I1540
I1
F0.75
g5914
I0
tp6282
a(I1561
I0
F1.0
g5916
I0
tp6283
a(I1571
I1
F1.0
g1084
I0
tp6284
a(I1578
I0
F1.0
g5744
I0
tp6285
a(I1579
I15
F-0.5
g5920
I0
tp6286
a(I1594
I0
F1.0
g5747
I0
tp6287
a(I1617
I3
F-0.125
g478
I0
tp6288
a(I1617
I3
F1.0
g480
I0
tp6289
a(I1617
I3
I0
g482
I0
tp6290
a(I1623
I0
F1.0
g5749
I0
tp6291
a(I1670
I1
F1.0
g5927
I0
tp6292
a(I1680
I2
F1.0
g5752
I0
tp6293
a(I1768
I1
F1.0
g5754
I0
tp6294
a(I1768
I2
I0
g5758
I0
tp6295
a(I1770
I0
F1.0
g1092
I0
tp6296
a(I1810
I0
I0
g492
I0
tp6297
a(I1819
I0
F1.0
g5934
I0
tp6298
a(I1821
I1
F1.0
g5936
I0
tp6299
a(I1841
I1
F1.0
g5938
I0
tp6300
a(I1850
I0
F1.0
g5940
I0
tp6301
a(I1863
I0
I0
g498
I0
tp6302
a(I1863
I0
F1.0
g500
I0
tp6303
a(I1863
I0
F-0.125
g502
I0
tp6304
a(I1903
I1
F1.0
g5945
I0
tp6305
a(I1934
I0
F0.625
g5947
I0
tp6306
a(I1968
I0
F1.0
g5949
I0
tp6307
a(I2010
I6
F1.0
g1111
I0
tp6308
a(I2038
I12
F1.0
g5762
I0
tp6309
a(I2053
I5
F1.0
g5953
I0
tp6310
a(I2063
I17
F1.0
g5955
I0
tp6311
a(I2069
I6
F-0.125
g1114
I0
tp6312
a(I2069
I6
F1.0
g1116
I0
tp6313
a(I2105
I4
F0.375
g5959
I0
tp6314
a(I2112
I0
F1.0
g5766
I0
tp6315
a(I2112
I3
F1.0
g968
I0
tp6316
a(I2176
I9
F1.0
g5963
I0
tp6317
a(I2213
I17
F1.0
g5769
I0
tp6318
a(I2216
I3
I0
g532
I0
tp6319
a(I2216
I3
F1.0
g534
I0
tp6320
a(I2217
I12
F1.0
g5968
I0
tp6321
a(I2217
I12
F1.0
g5970
I0
tp6322
a(I2278
I2
I0
g5972
I0
tp6323
a(I2278
I2
F1.0
g5974
I0
tp6324
a(I2285
I1
F0.75
g5976
I0
tp6325
a(I2285
I1
F1.0
g5978
I0
tp6326
a(I2304
I0
F0.75
g538
I0
tp6327
a(I2304
I0
I0
g540
I0
tp6328
a(I2400
I20
F1.0
g548
I0
tp6329
a(I2401
I0
F1.0
g5983
I0
tp6330
a(I2438
I3
F1.0
g5985
I0
tp6331
a(I2505
I29
F1.0
g5987
I0
tp6332
a(I2519
I7
F0.375
g5991
I0
tp6333
a(I2522
I3
F1.0
g5993
I0
tp6334
a(I2579
I10
F1.0
g5995
I0
tp6335
a(I2579
I28
F-0.125
g977
I0
tp6336
a(I2579
I28
I0
g979
I0
tp6337
a(I2579
I28
F0.875
g981
I0
tp6338
a(I2590
I0
F1.0
g5778
I0
tp6339
a(I2590
I0
F1.0
g5780
I0
tp6340
a(I2596
I4
F-0.125
g558
I0
tp6341
a(I2596
I4
F0.375
g560
I0
tp6342
as(g2578
S'inch'
p6343
S'screen'
p6344
tp6345
(lp6346
(I39
I3
F0.75
g5059
I0
tp6347
a(I344
I9
I0
S'inch'
p6348
I0
tp6349
a(I507
I4
F-0.375
S'same'
p6350
I0
tp6351
a(I526
I5
I0
S'inch'
p6352
I0
tp6353
a(I900
I1
I0
S'inch'
p6354
I0
tp6355
a(I1336
I7
I0
S'inch'
p6356
I0
tp6357
a(I1925
I1
I0
S'inch'
p6358
I0
tp6359
a(I547
I4
F0.375
S'full'
p6360
I0
tp6361
a(I718
I1
I0
S'big'
p6362
I0
tp6363
a(I718
I1
F0.75
S'ideal'
p6364
I0
tp6365
a(I547
I4
F0.375
g6360
I0
tp6366
a(I718
I1
I0
g6362
I0
tp6367
a(I718
I1
F0.75
g6364
I0
tp6368
as(S'device'
p6369
tp6370
(lp6371
(I2
I13
F0.125
S'mobile'
p6372
I11
tp6373
a(I38
I5
F-0.5
S'lightweight'
p6374
I11
tp6375
a(I38
I5
F0.75
S'easy'
p6376
I11
tp6377
a(I40
I5
F0.25
S'future'
p6378
I11
tp6379
a(I51
I0
I0
S'more'
p6380
I11
tp6381
a(I72
I2
F1.0
S'good'
p6382
I11
tp6383
a(I145
I13
F0.75
S'honest'
p6384
I11
tp6385
a(I206
I28
I-100
S'avereage'
p6386
I11
tp6387
a(I222
I3
F-1.0
S'bad'
p6388
I11
tp6389
a(I222
I3
F0.875
S'great'
p6390
I11
tp6391
a(I224
I0
F0.75
S'beautiful'
p6392
I11
tp6393
a(I226
I5
F-0.625
S'other'
p6394
I11
tp6395
a(I226
I7
F0.625
S'first'
p6396
I11
tp6397
a(I226
I7
I0
S'normal'
p6398
I11
tp6399
a(I234
I1
F0.75
S'due'
p6400
I11
tp6401
a(I314
I11
F0.875
S'great'
p6402
I11
tp6403
a(I316
I15
F1.0
S'good'
p6404
I11
tp6405
a(I316
I15
F0.75
S'perfect'
p6406
I11
tp6407
a(I321
I2
F0.75
S'primary'
p6408
I11
tp6409
a(I452
I2
F0.75
S'luxurious'
p6410
I11
tp6411
a(I452
I2
F-0.875
S'cheap'
p6412
I11
tp6413
a(I452
I5
F1.0
S'good'
p6414
I11
tp6415
a(I452
I14
F0.875
S'great'
p6416
I11
tp6417
a(I518
I0
F0.25
S'usable'
p6418
I11
tp6419
a(I518
I0
F-0.875
S'low'
p6420
I11
tp6421
a(I519
I37
F0.875
S'great'
p6422
I11
tp6423
a(I526
I9
F-0.625
S'other'
p6424
I11
tp6425
a(I573
I14
F0.5
S'expensive'
p6426
I11
tp6427
a(I573
I15
I0
S'chinese'
p6428
I11
tp6429
a(I573
I22
I0
S'inch'
p6430
I11
tp6431
a(I577
I18
F1.0
S'best'
p6432
I11
tp6433
a(I596
I0
F0.75
S'wonderful'
p6434
I11
tp6435
a(I615
I9
F0.5
S'higher'
p6436
I11
tp6437
a(I615
I9
F-0.625
S'other'
p6438
I11
tp6439
a(I620
I14
F0.25
S'particular'
p6440
I11
tp6441
a(I693
I17
F-0.625
S'harmful'
p6442
I11
tp6443
a(I753
I4
F0.875
S'great'
p6444
I11
tp6445
a(I778
I10
F1.0
S'good'
p6446
I11
tp6447
a(I991
I4
F0.375
S'heated'
p6448
I11
tp6449
a(I991
I7
F-0.625
S'new'
p6450
I11
tp6451
a(I998
I1
F-0.625
S'other'
p6452
I11
tp6453
a(I1006
I14
I-100
S'managable'
p6454
I11
tp6455
a(I1066
I2
F0.625
S'smooth'
p6456
I11
tp6457
a(I1066
I2
I0
S'lag'
p6458
I11
tp6459
a(I1066
I2
F-0.75
S'free'
p6460
I11
tp6461
a(I1066
I7
F-0.625
S'other'
p6462
I11
tp6463
a(I1066
I56
F0.875
S'great'
p6464
I11
tp6465
a(I1212
I1
F0.125
S'enough'
p6466
I11
tp6467
a(I1304
I54
F-0.5
S'slow'
p6468
I11
tp6469
a(I1304
I58
I0
S'least'
p6470
I11
tp6471
a(I1334
I2
F-0.625
S'other'
p6472
I11
tp6473
a(I1335
I0
F-0.625
S'other'
p6474
I11
tp6475
a(I1434
I4
F-0.25
S'latest'
p6476
I11
tp6477
a(I1442
I0
F-0.5
S'weak'
p6478
I11
tp6479
a(I1442
I4
F1.0
S'good'
p6480
I11
tp6481
a(I1448
I5
F0.875
S'amazing'
p6482
I11
tp6483
a(I1491
I10
I0
S'budgeted'
p6484
I11
tp6485
a(I1495
I1
F0.625
S'rich'
p6486
I11
tp6487
a(I1579
I7
F1.0
S'good'
p6488
I11
tp6489
a(I1581
I2
F-0.125
S'overall'
p6490
I11
tp6491
a(I1630
I14
F-0.625
S'new'
p6492
I11
tp6493
a(I1630
I14
F-0.625
S'new'
p6494
I11
tp6495
a(I1630
I14
F-0.375
S'same'
p6496
I11
tp6497
a(I1934
I6
I0
S'light'
p6498
I11
tp6499
a(I2020
I4
I0
S'u'
p6500
I11
tp6501
a(I2087
I1
F-0.125
S'overall'
p6502
I11
tp6503
a(I2087
I1
F0.875
S'great'
p6504
I11
tp6505
a(I2096
I1
I0
S'electronic'
p6506
I11
tp6507
a(I2142
I7
F0.875
S'amazing'
p6508
I11
tp6509
a(I2192
I38
I0
S'most'
p6510
I11
tp6511
a(I2192
I50
F0.5
S'high'
p6512
I11
tp6513
a(I2193
I5
F0.875
S'great'
p6514
I11
tp6515
a(I2214
I3
F-0.75
S'defective'
p6516
I11
tp6517
a(I2519
I4
I0
S'hot'
p6518
I11
tp6519
as(S'killer'
p6520
S'note'
p6521
tp6522
(lp6523
(I354
I0
F-0.625
S'excited'
p6524
I0
tp6525
a(I607
I17
I-100
S'reall'
p6526
I0
tp6527
a(I836
I7
F-0.375
g1487
I0
tp6528
a(I1653
I0
F-0.375
g1444
I0
tp6529
a(I1792
I0
F-0.375
g1506
I0
tp6530
a(I2018
I0
F0.875
S'lucky'
p6531
I0
tp6532
as(S'heavy'
p6533
tp6534
(lp6535
(I76
I0
F0.5
S'weight'
p6536
I2
tp6537
a(I863
I2
F0.75
S'due'
p6538
I2
tp6539
a(I1956
I3
F0.375
S'much'
p6540
I2
tp6541
a(I1956
I3
F0.875
S'great'
p6542
I2
tp6543
as(S'awesome'
p6544
tp6545
(lp6546
(I879
I0
F0.875
S'lucky'
p6547
I6
tp6548
as(S'review'
p6549
tp6550
(lp6551
(I12
I0
I0
S'actual'
p6552
I8
tp6553
a(I168
I10
F0.5
S'true'
p6554
I8
tp6555
a(I168
I16
I0
S'many'
p6556
I8
tp6557
a(I168
I16
F-0.875
S'positive'
p6558
I8
tp6559
a(I204
I1
F0.375
S'depth'
p6560
I8
tp6561
a(I272
I12
F-0.636
S'genuine'
p6562
I8
tp6563
a(I422
I6
F0.5
S'large'
p6564
I8
tp6565
a(I422
I7
F-0.625
S'new'
p6566
I8
tp6567
a(I550
I4
F-0.25
S'i'
p6568
I8
tp6569
a(I694
I8
F0.25
S'helpful'
p6570
I8
tp6571
a(I895
I27
I0
S'more'
p6572
I8
tp6573
a(I1174
I23
F-0.875
S'negative'
p6574
I8
tp6575
a(I1325
I21
F-0.125
S'next'
p6576
I8
tp6577
a(I1336
I0
F0.625
S'first'
p6578
I8
tp6579
a(I1760
I1
F0.75
S'complete'
p6580
I8
tp6581
a(I2193
I25
F0.375
S'depth'
p6582
I8
tp6583
a(I2362
I3
F0.375
S'early'
p6584
I8
tp6585
a(I2363
I0
I0
S'above'
p6586
I8
tp6587
a(I2453
I2
F0.5
S'detailed'
p6588
I8
tp6589
a(I2505
I15
F-0.625
S'last'
p6590
I8
tp6591
a(I2538
I2
F-0.636
S'genuine'
p6592
I8
tp6593
a(I2546
I12
F0.5
S'true'
p6594
I8
tp6595
a(I2579
I15
F0.5
S'true'
p6596
I8
tp6597
a(I2624
I6
I0
S't'
p6598
I8
tp6599
a(I2624
I6
F-0.125
S'such'
p6600
I8
tp6601
a(I2624
I6
F-0.875
S'negative'
p6602
I8
tp6603
a(I2624
I6
F-0.625
S'real'
p6604
I8
tp6605
as(S'days'
p6606
S'of'
p6607
S'usage'
p6608
tp6609
(lp6610
(I754
I69
I0
S'normal'
p6611
I0
tp6612
a(I967
I8
F-0.5
S'regular'
p6613
I0
tp6614
a(I968
I7
F0.125
S'mobile'
p6615
I0
tp6616
a(I1197
I8
I0
S'few'
p6617
I0
tp6618
a(I1197
I8
F0.375
S'usage'
p6619
I0
tp6620
a(I2021
I25
F0.5
S'effective'
p6621
I0
tp6622
a(I2580
I2
I0
S'normal'
p6623
I0
tp6624
a(I2580
I2
F0.375
S'usage'
p6625
I0
tp6626
a(I32
I10
F-0.5
S'heavy'
p6627
I8
tp6628
a(I33
I3
F-0.5
S'regular'
p6629
I8
tp6630
a(I168
I2
F-0.625
S'other'
p6631
I8
tp6632
a(I168
I2
I0
S'normal'
p6633
I8
tp6634
a(I201
I0
F0.375
S'satisfied'
p6635
I8
tp6636
a(I201
I0
I0
S'initial'
p6637
I8
tp6638
a(I302
I0
F-0.625
S'average'
p6639
I8
tp6640
a(I367
I6
F0.5
S'similar'
p6641
I8
tp6642
a(I377
I6
F0.5
S'high'
p6643
I8
tp6644
a(I377
I6
F-0.25
S'i'
p6645
I8
tp6646
a(I415
I2
I0
S'normal'
p6647
I8
tp6648
a(I419
I5
F-0.25
S'medium'
p6649
I8
tp6650
a(I420
I9
F-0.75
S'little'
p6651
I8
tp6652
a(I420
I9
I0
S'different'
p6653
I8
tp6654
a(I420
I9
I0
S'normal'
p6655
I8
tp6656
a(I420
I9
F0.875
S'superb'
p6657
I8
tp6658
a(I420
I15
F0.5
S'high'
p6659
I8
tp6660
a(I466
I4
F-0.375
S'vary'
p6661
I8
tp6662
a(I476
I2
F1.0
S'good'
p6663
I8
tp6664
a(I494
I0
F-0.5
S'less'
p6665
I8
tp6666
a(I511
I1
F-0.5
S'heavy'
p6667
I8
tp6668
a(I547
I16
F-0.625
S'average'
p6669
I8
tp6670
a(I547
I18
F-0.5
S'heavy'
p6671
I8
tp6672
a(I590
I1
I0
S'net'
p6673
I8
tp6674
a(I590
I14
I-100
S'continous'
p6675
I8
tp6676
a(I620
I1
I0
S'more'
p6677
I8
tp6678
a(I620
I1
F0.125
S'usual'
p6679
I8
tp6680
a(I620
I7
F-0.5
S'heavy'
p6681
I8
tp6682
a(I696
I3
F1.0
S'mild'
p6683
I8
tp6684
a(I754
I69
I0
g6611
I8
tp6685
a(I795
I2
F-0.778
S'common'
p6686
I8
tp6687
a(I824
I7
F-0.625
S'moderate'
p6688
I8
tp6689
a(I837
I1
I0
S'specific'
p6690
I8
tp6691
a(I846
I1
I0
S'minimal'
p6692
I8
tp6693
a(I863
I7
F-0.75
S'little'
p6694
I8
tp6695
a(I863
I7
F-0.5
S'continuous'
p6696
I8
tp6697
a(I954
I7
I0
S'more'
p6698
I8
tp6699
a(I954
I7
F-0.25
S'ram'
p6700
I8
tp6701
a(I967
I8
F-0.5
g6613
I8
tp6702
a(I968
I7
F0.125
g6615
I8
tp6703
a(I1007
I12
I0
S'minimal'
p6704
I8
tp6705
a(I1007
I12
I0
S'net'
p6706
I8
tp6707
a(I1044
I2
F-0.5
S'heavy'
p6708
I8
tp6709
a(I1075
I5
F-0.5
S'heavy'
p6710
I8
tp6711
a(I1075
I5
F0.875
S'decent'
p6712
I8
tp6713
a(I1277
I4
I0
S'mb'
p6714
I8
tp6715
a(I1277
I4
F-0.75
S'free'
p6716
I8
tp6717
a(I1277
I6
F0.5
S'practical'
p6718
I8
tp6719
a(I1322
I22
F-0.625
S'moderate'
p6720
I8
tp6721
a(I1325
I14
F0.5
S'empty'
p6722
I8
tp6723
a(I1330
I0
F-0.5
S'heavy'
p6724
I8
tp6725
a(I1357
I3
I0
S'normal'
p6726
I8
tp6727
a(I1444
I0
F-0.125
S'general'
p6728
I8
tp6729
a(I1450
I11
F-0.5
S'long'
p6730
I8
tp6731
a(I1457
I3
I0
S'normal'
p6732
I8
tp6733
a(I1477
I3
F-0.125
S'minimum'
p6734
I8
tp6735
a(I1489
I11
F-0.625
S'average'
p6736
I8
tp6737
a(I1511
I6
F-0.25
S'mixed'
p6738
I8
tp6739
a(I1511
I6
I0
S'u'
p6740
I8
tp6741
a(I1513
I36
F-0.5
S'heavy'
p6742
I8
tp6743
a(I1579
I7
I0
S'normal'
p6744
I8
tp6745
a(I1592
I7
I0
S'normal'
p6746
I8
tp6747
a(I1592
I7
F-0.625
S'last'
p6748
I8
tp6749
a(I1623
I6
F-0.25
S'i'
p6750
I8
tp6751
a(I1696
I1
F0.625
S'fine'
p6752
I8
tp6753
a(I1737
I2
F0.375
S'extended'
p6754
I8
tp6755
a(I1779
I1
F0.375
S'usage'
p6756
I8
tp6757
a(I1779
I1
I0
S'net'
p6758
I8
tp6759
a(I1840
I8
F0.375
S'full'
p6760
I8
tp6761
a(I1933
I8
F-0.625
S'moderate'
p6762
I8
tp6763
a(I1953
I1
I0
S'normal'
p6764
I8
tp6765
a(I1955
I1
I0
S'normal'
p6766
I8
tp6767
a(I1988
I0
F-0.5
S'regular'
p6768
I8
tp6769
a(I2021
I25
F0.5
g6621
I8
tp6770
a(I2088
I4
F-0.25
S'i'
p6771
I8
tp6772
a(I2096
I7
I0
S'normal'
p6773
I8
tp6774
a(I2162
I0
F-0.625
S'moderate'
p6775
I8
tp6776
a(I2193
I23
F-0.25
S'medium'
p6777
I8
tp6778
a(I2213
I23
I0
S'normal'
p6779
I8
tp6780
a(I2213
I23
I0
S'net'
p6781
I8
tp6782
a(I2277
I2
I0
S'normal'
p6783
I8
tp6784
a(I2382
I1
F-0.5
S'heavy'
p6785
I8
tp6786
a(I2385
I0
F0.5
S'daily'
p6787
I8
tp6788
a(I2400
I13
F-0.5
S'heavy'
p6789
I8
tp6790
a(I2455
I1
F-0.625
S'average'
p6791
I8
tp6792
a(I2455
I1
I0
S'more'
p6793
I8
tp6794
a(I2555
I8
F0.5
S'maximum'
p6795
I8
tp6796
a(I2591
I6
I0
S'normal'
p6797
I8
tp6798
a(I2591
I6
F0.625
S'fine'
p6799
I8
tp6800
a(I2633
I11
F0.375
S'full'
p6801
I8
tp6802
a(I2635
I2
F0.375
S'full'
p6803
I8
tp6804
as.