(dp0
(S'much'
p1
S'heating'
p2
S'compare'
p3
tp4
(lp5
(I37
I5
F0.375
S'much'
p6
I0
tp7
a(I146
I5
F0.375
S'much'
p8
I0
tp9
a(I150
I5
F0.375
S'much'
p10
I0
tp11
a(I1103
I5
F0.375
S'much'
p12
I0
tp13
a(I1112
I0
F0.375
S'much'
p14
I0
tp15
a(I1253
I5
F0.375
S'much'
p16
I0
tp17
as(S'worth'
p18
S'for'
p19
S'money'
p20
tp21
(lp22
(I657
I0
F0.25
S'worth'
p23
I0
tp24
a(I1242
I3
F0.25
S'worth'
p25
I0
tp26
a(I1242
I3
I0
S'u'
p27
I0
tp28
a(I1265
I7
F0.25
S'worth'
p29
I0
tp30
a(I1265
I7
F-0.5
S'original'
p31
I0
tp32
as(S'2'
p33
S'gb'
p34
S'ram'
p35
tp36
(lp37
(I219
I1
F0.25
S'usable'
p38
I4
tp39
a(I338
I6
I0
S'u'
p40
I4
tp41
a(I368
I1
F1.0
S'good'
p42
I4
tp43
a(I380
I0
F1.0
S'good'
p44
I4
tp45
a(I396
I1
F0.5
S'internal'
p46
I4
tp47
a(I427
I0
F0.875
S'awesome'
p48
I4
tp49
a(I478
I16
I0
S'lag'
p50
I4
tp51
a(I478
I16
F-0.75
S'free'
p52
I4
tp53
a(I592
I3
F0.625
S'vibrant'
p54
I4
tp55
a(I763
I10
F0.875
S'attractive'
p56
I4
tp57
a(I765
I0
F0.5
S'weight'
p58
I4
tp59
a(I765
I0
F0.5
S'thin'
p60
I4
tp61
a(I778
I0
F-0.75
S'sufficient'
p62
I4
tp63
a(I778
I0
I0
S'more'
p64
I4
tp65
a(I784
I4
I0
S'run'
p66
I4
tp67
a(I786
I23
I0
S'gb'
p68
I4
tp69
a(I786
I23
F1.0
S'good'
p70
I4
tp71
a(I786
I23
F-0.75
S'free'
p72
I4
tp73
a(I786
I24
I0
S'gb'
p74
I4
tp75
a(I826
I18
I0
S'humongous'
p76
I4
tp77
a(I855
I0
F0.375
S'available'
p78
I4
tp79
a(I870
I11
I0
S'gb'
p80
I4
tp81
a(I873
I0
I0
S'gb'
p82
I4
tp83
a(I873
I0
F0.75
S'perfect'
p84
I4
tp85
a(I1080
I5
F0.5
S'added'
p86
I4
tp87
a(I1095
I1
F-0.75
S'free'
p88
I4
tp89
a(I1095
I1
F1.0
S'good'
p90
I4
tp91
a(I1105
I1
F0.625
S'fine'
p92
I4
tp93
a(I1139
I11
F0.5
S'internal'
p94
I4
tp95
a(I1266
I1
I0
S'gb'
p96
I4
tp97
a(I1266
I1
F0.5
S'internal'
p98
I4
tp99
a(I1323
I6
F1.0
S'good'
p100
I4
tp101
a(I1324
I3
I0
S'gb'
p102
I4
tp103
a(I1527
I1
F-0.625
S'fast'
p104
I4
tp105
a(I219
I1
F0.25
g38
I7
tp106
a(I338
I6
I0
g40
I7
tp107
a(I367
I1
F0.5
S'internal'
p108
I7
tp109
a(I427
I0
F0.875
g48
I7
tp110
a(I470
I1
F-0.75
S'free'
p111
I7
tp112
a(I592
I3
F0.625
g54
I7
tp113
a(I596
I8
F-0.75
S'free'
p114
I7
tp115
a(I763
I10
F0.875
g56
I7
tp116
a(I765
I0
F0.5
g58
I7
tp117
a(I960
I1
F-0.625
S'other'
p118
I7
tp119
a(I1139
I11
F0.5
g94
I7
tp120
a(I1266
I1
I0
g96
I7
tp121
a(I1266
I1
F0.5
g98
I7
tp122
as(S'troubleshooting'
p123
S'steps'
p124
tp125
(lp126
(I94
I4
F0.5
S'technical'
p127
I2
tp128
a(I938
I4
I0
S'few'
p129
I2
tp130
as(S'ram'
p131
S'16'
p132
S'gb'
p133
tp134
(lp135
(I219
I1
F0.25
g38
I1
tp136
a(I396
I1
F0.5
g46
I1
tp137
a(I478
I16
I0
g50
I1
tp138
a(I478
I16
F-0.75
g52
I1
tp139
a(I763
I10
F0.875
g56
I1
tp140
a(I826
I18
I0
g76
I1
tp141
a(I870
I11
I0
g80
I1
tp142
a(I1080
I5
F0.5
g86
I1
tp143
a(I1105
I1
F0.625
g92
I1
tp144
a(I1139
I11
F0.5
g94
I1
tp145
a(I1266
I1
I0
g96
I1
tp146
a(I1266
I1
F0.5
g98
I1
tp147
a(I1527
I1
F-0.625
g104
I1
tp148
a(I219
I1
F0.25
g38
I9
tp149
a(I338
I6
I0
g40
I9
tp150
a(I338
I53
F-0.75
S'free'
p151
I9
tp152
a(I368
I1
F1.0
g42
I9
tp153
a(I380
I0
F1.0
g44
I9
tp154
a(I396
I1
F0.5
g46
I9
tp155
a(I427
I0
F0.875
g48
I9
tp156
a(I445
I1
F0.5
S'internal'
p157
I9
tp158
a(I478
I16
I0
g50
I9
tp159
a(I478
I16
F-0.75
g52
I9
tp160
a(I592
I3
F0.625
g54
I9
tp161
a(I763
I10
F0.875
g56
I9
tp162
a(I765
I0
F0.5
g58
I9
tp163
a(I765
I0
F0.5
g60
I9
tp164
a(I778
I0
F-0.75
g62
I9
tp165
a(I778
I0
I0
g64
I9
tp166
a(I784
I4
I0
g66
I9
tp167
a(I786
I23
I0
g68
I9
tp168
a(I786
I23
F1.0
g70
I9
tp169
a(I786
I23
F-0.75
g72
I9
tp170
a(I786
I24
I0
g74
I9
tp171
a(I826
I18
I0
g76
I9
tp172
a(I855
I0
F0.375
g78
I9
tp173
a(I870
I11
I0
g80
I9
tp174
a(I873
I0
I0
g82
I9
tp175
a(I873
I0
F0.75
g84
I9
tp176
a(I1080
I5
F0.5
g86
I9
tp177
a(I1095
I1
F-0.75
g88
I9
tp178
a(I1095
I1
F1.0
g90
I9
tp179
a(I1105
I1
F0.625
g92
I9
tp180
a(I1138
I4
I0
S'so'
p181
I9
tp182
a(I1138
I4
F0.875
S'nice'
p183
I9
tp184
a(I1139
I11
F0.5
g94
I9
tp185
a(I1266
I1
I0
g96
I9
tp186
a(I1266
I1
F0.5
g98
I9
tp187
a(I1323
I6
F1.0
g100
I9
tp188
a(I1324
I3
I0
g102
I9
tp189
a(I1400
I3
F0.375
S'available'
p190
I9
tp191
a(I1400
I3
F-0.75
S'free'
p192
I9
tp193
a(I1527
I1
F-0.625
g104
I9
tp194
a(I74
I0
F0.5
S'internal'
p195
I3
tp196
a(I219
I1
F0.25
g38
I3
tp197
a(I367
I1
F0.5
g108
I3
tp198
a(I428
I0
F0.875
S'great'
p199
I3
tp200
a(I763
I10
F0.875
g56
I3
tp201
a(I786
I8
I0
S'more'
p202
I3
tp203
a(I1139
I11
F0.5
g94
I3
tp204
a(I1240
I0
F1.0
S'good'
p205
I3
tp206
a(I1266
I1
I0
g96
I3
tp207
a(I1266
I1
F0.5
g98
I3
tp208
a(I1509
I0
F0.5
S'internal'
p209
I3
tp210
as(S'good'
p211
S'front'
p212
S'camera'
p213
tp214
(lp215
(I13
I14
F1.0
S'good'
p216
I0
tp217
a(I13
I14
F-0.125
S'back'
p218
I0
tp219
a(I15
I3
F-0.125
S'front'
p220
I0
tp221
a(I36
I1
F1.0
S'good'
p222
I0
tp223
a(I36
I1
I0
S'rear'
p224
I0
tp225
a(I36
I1
F0.875
S'nice'
p226
I0
tp227
a(I89
I32
F-0.625
S'average'
p228
I0
tp229
a(I89
I32
F-0.125
S'front'
p230
I0
tp231
a(I89
I32
F1.0
S'good'
p232
I0
tp233
a(I89
I32
F-1.0
S'bad'
p234
I0
tp235
a(I89
I32
F-1.0
S'bad'
p236
I0
tp237
a(I145
I1
F1.0
S'good'
p238
I0
tp239
a(I145
I1
I0
S'rear'
p240
I0
tp241
a(I145
I1
F0.875
S'nice'
p242
I0
tp243
a(I149
I1
F1.0
S'good'
p244
I0
tp245
a(I149
I1
I0
S'rear'
p246
I0
tp247
a(I149
I1
F0.875
S'nice'
p248
I0
tp249
a(I274
I1
F1.0
S'good'
p250
I0
tp251
a(I322
I1
F1.0
S'good'
p252
I0
tp253
a(I322
I1
F-0.125
S'front'
p254
I0
tp255
a(I325
I8
F1.0
S'good'
p256
I0
tp257
a(I338
I43
F1.0
S'good'
p258
I0
tp259
a(I338
I43
F0.875
S'great'
p260
I0
tp261
a(I358
I11
F1.0
S'good'
p262
I0
tp263
a(I358
I11
F-0.125
S'front'
p264
I0
tp265
a(I358
I11
I0
S'rear'
p266
I0
tp267
a(I369
I1
I0
S'above'
p268
I0
tp269
a(I369
I1
F-0.625
S'average'
p270
I0
tp271
a(I447
I0
F1.0
S'good'
p272
I0
tp273
a(I658
I1
F1.0
S'good'
p274
I0
tp275
a(I658
I1
I0
S'rear'
p276
I0
tp277
a(I769
I7
F1.0
S'good'
p278
I0
tp279
a(I784
I0
F1.0
S'good'
p280
I0
tp281
a(I786
I22
F1.0
S'good'
p282
I0
tp283
a(I789
I2
F1.0
S'good'
p284
I0
tp285
a(I813
I1
F1.0
S'good'
p286
I0
tp287
a(I839
I1
F1.0
S'good'
p288
I0
tp289
a(I853
I0
F1.0
S'good'
p290
I0
tp291
a(I870
I4
I0
S'rear'
p292
I0
tp293
a(I870
I4
F-0.125
S'front'
p294
I0
tp295
a(I870
I4
F1.0
S'good'
p296
I0
tp297
a(I981
I6
F1.0
S'good'
p298
I0
tp299
a(I1102
I1
F1.0
S'good'
p300
I0
tp301
a(I1102
I1
I0
S'rear'
p302
I0
tp303
a(I1102
I1
F0.875
S'nice'
p304
I0
tp305
a(I1111
I1
F1.0
S'good'
p306
I0
tp307
a(I1111
I1
I0
S'rear'
p308
I0
tp309
a(I1111
I1
F0.875
S'nice'
p310
I0
tp311
a(I1252
I1
F1.0
S'good'
p312
I0
tp313
a(I1252
I1
I0
S'rear'
p314
I0
tp315
a(I1252
I1
F0.875
S'nice'
p316
I0
tp317
a(I1265
I2
F0.875
S'great'
p318
I0
tp319
a(I1362
I4
F0.375
S'impressive'
p320
I0
tp321
a(I1505
I13
F-0.125
S'front'
p322
I0
tp323
a(I7
I2
F-0.75
S'secondary'
p324
I3
tp325
a(I7
I2
F1.0
S'good'
p326
I3
tp327
a(I13
I14
F1.0
g216
I3
tp328
a(I13
I14
F-0.125
g218
I3
tp329
a(I15
I2
I0
S'rear'
p330
I3
tp331
a(I15
I2
F0.875
S'superb'
p332
I3
tp333
a(I15
I2
I0
S'sure'
p334
I3
tp335
a(I15
I3
F-0.125
g220
I3
tp336
a(I18
I5
F1.0
S'good'
p337
I3
tp338
a(I27
I2
F-0.75
S'secondary'
p339
I3
tp340
a(I27
I2
F1.0
S'good'
p341
I3
tp342
a(I36
I1
I0
g224
I3
tp343
a(I36
I1
F0.875
g226
I3
tp344
a(I89
I32
F-0.625
g228
I3
tp345
a(I89
I32
F-0.125
g230
I3
tp346
a(I89
I32
F1.0
g232
I3
tp347
a(I89
I32
F-1.0
g234
I3
tp348
a(I89
I32
F-1.0
g236
I3
tp349
a(I102
I1
F1.0
S'good'
p350
I3
tp351
a(I145
I1
I0
g240
I3
tp352
a(I145
I1
F0.875
g242
I3
tp353
a(I149
I1
I0
g246
I3
tp354
a(I149
I1
F0.875
g248
I3
tp355
a(I274
I1
F1.0
g250
I3
tp356
a(I322
I1
F1.0
g252
I3
tp357
a(I322
I1
F-0.125
g254
I3
tp358
a(I325
I7
F1.0
S'good'
p359
I3
tp360
a(I325
I8
F1.0
g256
I3
tp361
a(I333
I18
F1.0
S'good'
p362
I3
tp363
a(I338
I1
F1.0
S'good'
p364
I3
tp365
a(I338
I1
F1.0
S'good'
p366
I3
tp367
a(I338
I41
F1.0
S'good'
p368
I3
tp369
a(I338
I43
F1.0
g258
I3
tp370
a(I338
I43
F0.875
g260
I3
tp371
a(I338
I76
F1.0
S'good'
p372
I3
tp373
a(I340
I28
F0.75
S'primary'
p374
I3
tp375
a(I340
I28
F-1.0
S'bad'
p376
I3
tp377
a(I340
I28
F1.0
S'good'
p378
I3
tp379
a(I358
I11
F1.0
g262
I3
tp380
a(I358
I11
F-0.125
g264
I3
tp381
a(I358
I11
I0
g266
I3
tp382
a(I359
I2
F0.875
S'decent'
p383
I3
tp384
a(I369
I1
I0
g268
I3
tp385
a(I369
I1
F-0.625
g270
I3
tp386
a(I447
I0
F1.0
g272
I3
tp387
a(I481
I2
I0
S'rear'
p388
I3
tp389
a(I481
I2
F1.0
S'good'
p390
I3
tp391
a(I509
I11
F1.0
S'good'
p392
I3
tp393
a(I513
I0
F1.0
S'good'
p394
I3
tp395
a(I526
I19
F1.0
S'good'
p396
I3
tp397
a(I529
I1
F0.875
S'awesome'
p398
I3
tp399
a(I543
I5
F-1.0
S'bad'
p400
I3
tp401
a(I560
I7
F1.0
S'good'
p402
I3
tp403
a(I590
I1
F1.0
S'good'
p404
I3
tp405
a(I619
I1
F1.0
S'good'
p406
I3
tp407
a(I640
I9
I0
S'many'
p408
I3
tp409
a(I651
I1
F1.0
S'good'
p410
I3
tp411
a(I658
I1
I0
g276
I3
tp412
a(I663
I2
F1.0
S'good'
p413
I3
tp414
a(I672
I5
F1.0
S'good'
p415
I3
tp416
a(I689
I23
F1.0
S'good'
p417
I3
tp418
a(I698
I2
F1.0
S'good'
p419
I3
tp420
a(I705
I1
I0
S'impressed'
p421
I3
tp422
a(I724
I24
F1.0
S'good'
p423
I3
tp424
a(I763
I0
F0.5
S'satisfactory'
p425
I3
tp426
a(I763
I0
F1.0
S'good'
p427
I3
tp428
a(I768
I17
I0
S'main'
p429
I3
tp430
a(I768
I17
F1.0
S'good'
p431
I3
tp432
a(I769
I7
F1.0
g278
I3
tp433
a(I784
I0
F1.0
g280
I3
tp434
a(I786
I21
F0.875
S'awesome'
p435
I3
tp436
a(I786
I22
F1.0
g282
I3
tp437
a(I789
I1
F1.0
S'good'
p438
I3
tp439
a(I839
I1
F1.0
g288
I3
tp440
a(I839
I2
F1.0
S'good'
p441
I3
tp442
a(I850
I0
F1.0
S'good'
p443
I3
tp444
a(I853
I0
F1.0
g290
I3
tp445
a(I870
I4
I0
g292
I3
tp446
a(I870
I4
F-0.125
g294
I3
tp447
a(I870
I4
F1.0
g296
I3
tp448
a(I870
I4
I-100
S'skype'
p449
I3
tp450
a(I919
I0
F1.0
S'good'
p451
I3
tp452
a(I925
I0
F0.75
S'primary'
p453
I3
tp454
a(I925
I0
F1.0
S'good'
p455
I3
tp456
a(I1099
I0
F1.0
S'good'
p457
I3
tp458
a(I1102
I1
I0
g302
I3
tp459
a(I1102
I1
F0.875
g304
I3
tp460
a(I1111
I1
I0
g308
I3
tp461
a(I1111
I1
F0.875
g310
I3
tp462
a(I1138
I0
F1.0
S'good'
p463
I3
tp464
a(I1139
I1
F1.0
S'good'
p465
I3
tp466
a(I1140
I2
F1.0
S'good'
p467
I3
tp468
a(I1146
I0
F1.0
S'good'
p469
I3
tp470
a(I1155
I0
F1.0
S'good'
p471
I3
tp472
a(I1162
I6
F1.0
S'good'
p473
I3
tp474
a(I1203
I0
F1.0
S'good'
p475
I3
tp476
a(I1207
I0
I0
S'rear'
p477
I3
tp478
a(I1207
I0
F1.0
S'good'
p479
I3
tp480
a(I1215
I2
F1.0
S'good'
p481
I3
tp482
a(I1215
I6
F1.0
S'good'
p483
I3
tp484
a(I1215
I8
F1.0
S'good'
p485
I3
tp486
a(I1217
I7
F1.0
S'good'
p487
I3
tp488
a(I1223
I2
F1.0
S'good'
p489
I3
tp490
a(I1239
I3
F1.0
S'good'
p491
I3
tp492
a(I1252
I1
I0
g314
I3
tp493
a(I1252
I1
F0.875
g316
I3
tp494
a(I1265
I2
F0.875
g318
I3
tp495
a(I1266
I2
F1.0
S'good'
p496
I3
tp497
a(I1267
I2
F1.0
S'good'
p498
I3
tp499
a(I1296
I3
F1.0
S'good'
p500
I3
tp501
a(I1304
I4
F1.0
S'good'
p502
I3
tp503
a(I1344
I3
F1.0
S'good'
p504
I3
tp505
a(I1351
I0
F1.0
S'good'
p506
I3
tp507
a(I1362
I4
F0.375
g320
I3
tp508
a(I1365
I1
F0.875
S'decent'
p509
I3
tp510
a(I1365
I1
F1.0
S'good'
p511
I3
tp512
a(I1382
I4
F1.0
S'excellent'
p513
I3
tp514
a(I1400
I2
F0.375
S'much'
p515
I3
tp516
a(I1438
I8
F1.0
S'good'
p517
I3
tp518
a(I1439
I5
F1.0
S'excellent'
p519
I3
tp520
a(I1446
I0
F1.0
S'good'
p521
I3
tp522
a(I1451
I10
I0
S'lags'
p523
I3
tp524
a(I1451
I10
F0.75
S'perfect'
p525
I3
tp526
a(I1473
I3
F1.0
S'good'
p527
I3
tp528
a(I1505
I5
F0.625
S'super'
p529
I3
tp530
a(I1505
I5
F1.0
S'good'
p531
I3
tp532
a(I1505
I13
F-0.125
g322
I3
tp533
a(I1528
I1
F1.0
S'good'
p534
I3
tp535
a(I13
I14
F1.0
g216
I6
tp536
a(I13
I14
F-0.125
g218
I6
tp537
a(I15
I3
F-0.125
g220
I6
tp538
a(I16
I0
F-0.125
S'front'
p539
I6
tp540
a(I36
I1
F1.0
g222
I6
tp541
a(I36
I1
I0
g224
I6
tp542
a(I36
I1
F0.875
g226
I6
tp543
a(I48
I0
F-0.125
S'front'
p544
I6
tp545
a(I89
I32
F-0.625
g228
I6
tp546
a(I89
I32
F-0.125
g230
I6
tp547
a(I89
I32
F1.0
g232
I6
tp548
a(I89
I32
F-1.0
g234
I6
tp549
a(I89
I32
F-1.0
g236
I6
tp550
a(I122
I1
F0.5
S'touch'
p551
I6
tp552
a(I145
I1
F1.0
g238
I6
tp553
a(I145
I1
I0
g240
I6
tp554
a(I145
I1
F0.875
g242
I6
tp555
a(I149
I1
F1.0
g244
I6
tp556
a(I149
I1
I0
g246
I6
tp557
a(I149
I1
F0.875
g248
I6
tp558
a(I274
I1
F1.0
g250
I6
tp559
a(I322
I1
F1.0
g252
I6
tp560
a(I322
I1
F-0.125
g254
I6
tp561
a(I325
I8
F1.0
g256
I6
tp562
a(I338
I43
F1.0
g258
I6
tp563
a(I338
I43
F0.875
g260
I6
tp564
a(I358
I11
F1.0
g262
I6
tp565
a(I358
I11
F-0.125
g264
I6
tp566
a(I358
I11
I0
g266
I6
tp567
a(I369
I1
I0
g268
I6
tp568
a(I369
I1
F-0.625
g270
I6
tp569
a(I430
I3
I0
S'cool'
p570
I6
tp571
a(I447
I0
F1.0
g272
I6
tp572
a(I455
I8
F0.875
S'nice'
p573
I6
tp574
a(I481
I3
F-0.625
S'average'
p575
I6
tp576
a(I504
I0
F-0.125
S'front'
p577
I6
tp578
a(I568
I14
F-1.0
S'bad'
p579
I6
tp580
a(I568
I14
F-1.0
S'worse'
p581
I6
tp582
a(I640
I2
F-0.125
S'front'
p583
I6
tp584
a(I658
I1
F1.0
g274
I6
tp585
a(I658
I1
I0
g276
I6
tp586
a(I769
I7
F1.0
g278
I6
tp587
a(I784
I0
F1.0
g280
I6
tp588
a(I786
I22
F1.0
g282
I6
tp589
a(I789
I2
F1.0
g284
I6
tp590
a(I813
I1
F1.0
g286
I6
tp591
a(I839
I1
F1.0
g288
I6
tp592
a(I853
I0
F1.0
g290
I6
tp593
a(I870
I4
I0
g292
I6
tp594
a(I870
I4
F-0.125
g294
I6
tp595
a(I870
I4
F1.0
g296
I6
tp596
a(I898
I0
I0
S'rear'
p597
I6
tp598
a(I981
I6
F1.0
g298
I6
tp599
a(I996
I0
I0
S'rear'
p600
I6
tp601
a(I996
I0
F-1.0
S'bad'
p602
I6
tp603
a(I1093
I0
F-0.125
S'front'
p604
I6
tp605
a(I1093
I0
F0.875
S'decent'
p606
I6
tp607
a(I1102
I1
F1.0
g300
I6
tp608
a(I1102
I1
I0
g302
I6
tp609
a(I1102
I1
F0.875
g304
I6
tp610
a(I1111
I1
F1.0
g306
I6
tp611
a(I1111
I1
I0
g308
I6
tp612
a(I1111
I1
F0.875
g310
I6
tp613
a(I1133
I4
I0
S'rear'
p614
I6
tp615
a(I1133
I4
F-0.125
S'front'
p616
I6
tp617
a(I1151
I2
F0.875
S'awesome'
p618
I6
tp619
a(I1151
I2
F0.75
S'primary'
p620
I6
tp621
a(I1252
I1
F1.0
g312
I6
tp622
a(I1252
I1
I0
g314
I6
tp623
a(I1252
I1
F0.875
g316
I6
tp624
a(I1265
I2
F0.875
g318
I6
tp625
a(I1317
I1
F-0.25
S'ram'
p626
I6
tp627
a(I1317
I1
F0.875
S'great'
p628
I6
tp629
a(I1362
I4
F0.375
g320
I6
tp630
a(I1435
I1
F-1.0
S'bad'
p631
I6
tp632
a(I1435
I1
F0.375
S'ok'
p633
I6
tp634
a(I1435
I1
F-0.125
S'back'
p635
I6
tp636
a(I1435
I1
F-1.0
S'bad'
p637
I6
tp638
a(I1489
I0
F-0.125
S'front'
p639
I6
tp640
a(I1489
I0
F0.875
S'nice'
p641
I6
tp642
a(I1505
I13
F-0.125
g322
I6
tp643
a(I7
I2
F-0.75
g324
I0
tp644
a(I7
I2
F1.0
g326
I0
tp645
a(I13
I14
F1.0
g216
I0
tp646
a(I13
I14
F-0.125
g218
I0
tp647
a(I15
I2
I0
g330
I0
tp648
a(I15
I2
F0.875
g332
I0
tp649
a(I15
I2
I0
g334
I0
tp650
a(I15
I3
F-0.125
g220
I0
tp651
a(I18
I5
F1.0
g337
I0
tp652
a(I27
I2
F-0.75
g339
I0
tp653
a(I27
I2
F1.0
g341
I0
tp654
a(I36
I1
I0
g224
I0
tp655
a(I36
I1
F0.875
g226
I0
tp656
a(I89
I32
F-0.625
g228
I0
tp657
a(I89
I32
F-0.125
g230
I0
tp658
a(I89
I32
F1.0
g232
I0
tp659
a(I89
I32
F-1.0
g234
I0
tp660
a(I89
I32
F-1.0
g236
I0
tp661
a(I102
I1
F1.0
g350
I0
tp662
a(I145
I1
I0
g240
I0
tp663
a(I145
I1
F0.875
g242
I0
tp664
a(I149
I1
I0
g246
I0
tp665
a(I149
I1
F0.875
g248
I0
tp666
a(I274
I1
F1.0
g250
I0
tp667
a(I322
I1
F1.0
g252
I0
tp668
a(I322
I1
F-0.125
g254
I0
tp669
a(I325
I7
F1.0
g359
I0
tp670
a(I325
I8
F1.0
g256
I0
tp671
a(I333
I18
F1.0
g362
I0
tp672
a(I338
I1
F1.0
g364
I0
tp673
a(I338
I1
F1.0
g366
I0
tp674
a(I338
I41
F1.0
g368
I0
tp675
a(I338
I43
F1.0
g258
I0
tp676
a(I338
I43
F0.875
g260
I0
tp677
a(I338
I76
F1.0
g372
I0
tp678
a(I340
I28
F0.75
g374
I0
tp679
a(I340
I28
F-1.0
g376
I0
tp680
a(I340
I28
F1.0
g378
I0
tp681
a(I358
I11
F1.0
g262
I0
tp682
a(I358
I11
F-0.125
g264
I0
tp683
a(I358
I11
I0
g266
I0
tp684
a(I359
I2
F0.875
g383
I0
tp685
a(I369
I1
I0
g268
I0
tp686
a(I369
I1
F-0.625
g270
I0
tp687
a(I447
I0
F1.0
g272
I0
tp688
a(I481
I2
I0
g388
I0
tp689
a(I481
I2
F1.0
g390
I0
tp690
a(I509
I11
F1.0
g392
I0
tp691
a(I513
I0
F1.0
g394
I0
tp692
a(I526
I19
F1.0
g396
I0
tp693
a(I529
I1
F0.875
g398
I0
tp694
a(I543
I5
F-1.0
g400
I0
tp695
a(I560
I7
F1.0
g402
I0
tp696
a(I590
I1
F1.0
g404
I0
tp697
a(I619
I1
F1.0
g406
I0
tp698
a(I640
I9
I0
g408
I0
tp699
a(I651
I1
F1.0
g410
I0
tp700
a(I658
I1
I0
g276
I0
tp701
a(I663
I2
F1.0
g413
I0
tp702
a(I672
I5
F1.0
g415
I0
tp703
a(I689
I23
F1.0
g417
I0
tp704
a(I698
I2
F1.0
g419
I0
tp705
a(I705
I1
I0
g421
I0
tp706
a(I724
I24
F1.0
g423
I0
tp707
a(I763
I0
F0.5
g425
I0
tp708
a(I763
I0
F1.0
g427
I0
tp709
a(I768
I17
I0
g429
I0
tp710
a(I768
I17
F1.0
g431
I0
tp711
a(I769
I7
F1.0
g278
I0
tp712
a(I784
I0
F1.0
g280
I0
tp713
a(I786
I21
F0.875
g435
I0
tp714
a(I786
I22
F1.0
g282
I0
tp715
a(I789
I1
F1.0
g438
I0
tp716
a(I839
I1
F1.0
g288
I0
tp717
a(I839
I2
F1.0
g441
I0
tp718
a(I850
I0
F1.0
g443
I0
tp719
a(I853
I0
F1.0
g290
I0
tp720
a(I870
I4
I0
g292
I0
tp721
a(I870
I4
F-0.125
g294
I0
tp722
a(I870
I4
F1.0
g296
I0
tp723
a(I919
I0
F1.0
g451
I0
tp724
a(I925
I0
F0.75
g453
I0
tp725
a(I925
I0
F1.0
g455
I0
tp726
a(I1099
I0
F1.0
g457
I0
tp727
a(I1102
I1
I0
g302
I0
tp728
a(I1102
I1
F0.875
g304
I0
tp729
a(I1111
I1
I0
g308
I0
tp730
a(I1111
I1
F0.875
g310
I0
tp731
a(I1138
I0
F1.0
g463
I0
tp732
a(I1139
I1
F1.0
g465
I0
tp733
a(I1140
I2
F1.0
g467
I0
tp734
a(I1146
I0
F1.0
g469
I0
tp735
a(I1155
I0
F1.0
g471
I0
tp736
a(I1162
I6
F1.0
g473
I0
tp737
a(I1203
I0
F1.0
g475
I0
tp738
a(I1207
I0
I0
g477
I0
tp739
a(I1207
I0
F1.0
g479
I0
tp740
a(I1215
I2
F1.0
g481
I0
tp741
a(I1215
I6
F1.0
g483
I0
tp742
a(I1215
I8
F1.0
g485
I0
tp743
a(I1217
I7
F1.0
g487
I0
tp744
a(I1223
I2
F1.0
g489
I0
tp745
a(I1239
I3
F1.0
g491
I0
tp746
a(I1252
I1
I0
g314
I0
tp747
a(I1252
I1
F0.875
g316
I0
tp748
a(I1265
I2
F0.875
g318
I0
tp749
a(I1266
I2
F1.0
g496
I0
tp750
a(I1267
I2
F1.0
g498
I0
tp751
a(I1296
I3
F1.0
g500
I0
tp752
a(I1304
I4
F1.0
g502
I0
tp753
a(I1344
I3
F1.0
g504
I0
tp754
a(I1351
I0
F1.0
g506
I0
tp755
a(I1362
I4
F0.375
g320
I0
tp756
a(I1365
I1
F0.875
g509
I0
tp757
a(I1365
I1
F1.0
g511
I0
tp758
a(I1382
I4
F1.0
g513
I0
tp759
a(I1400
I2
F0.375
g515
I0
tp760
a(I1438
I8
F1.0
g517
I0
tp761
a(I1439
I5
F1.0
g519
I0
tp762
a(I1446
I0
F1.0
g521
I0
tp763
a(I1451
I10
I0
g523
I0
tp764
a(I1451
I10
F0.75
g525
I0
tp765
a(I1473
I3
F1.0
g527
I0
tp766
a(I1505
I5
F0.625
g529
I0
tp767
a(I1505
I5
F1.0
g531
I0
tp768
a(I1505
I13
F-0.125
g322
I0
tp769
a(I1528
I1
F1.0
g534
I0
tp770
a(I13
I17
F1.0
S'excellent'
p771
I14
tp772
a(I36
I1
F1.0
g222
I14
tp773
a(I145
I1
F1.0
g238
I14
tp774
a(I149
I1
F1.0
g244
I14
tp775
a(I430
I3
I0
g570
I14
tp776
a(I568
I14
F-1.0
g581
I14
tp777
a(I658
I1
F1.0
g274
I14
tp778
a(I789
I2
F1.0
g284
I14
tp779
a(I813
I1
F1.0
g286
I14
tp780
a(I898
I0
I0
g597
I14
tp781
a(I981
I6
F1.0
g298
I14
tp782
a(I996
I0
F-1.0
g602
I14
tp783
a(I1102
I1
F1.0
g300
I14
tp784
a(I1111
I1
F1.0
g306
I14
tp785
a(I1252
I1
F1.0
g312
I14
tp786
as(S'month'
p787
tp788
(lp789
(I14
I10
F-0.375
S'half'
p790
I16
tp791
a(I322
I0
I0
S'few'
p792
I16
tp793
a(I333
I5
I0
S'more'
p794
I16
tp795
a(I336
I2
F-0.25
S'i'
p796
I16
tp797
a(I462
I0
F-0.625
S'last'
p798
I16
tp799
a(I538
I3
F0.625
S'first'
p800
I16
tp801
a(I551
I14
I0
S'few'
p802
I16
tp803
a(I563
I0
F-0.25
S'past'
p804
I16
tp805
a(I661
I0
F0.125
S'mobile'
p806
I16
tp807
a(I1090
I9
I0
S'few'
p808
I16
tp809
a(I1440
I1
F-0.25
S'past'
p810
I16
tp811
a(I1485
I0
F-0.375
S'same'
p812
I16
tp813
a(I1503
I1
F-0.625
S'last'
p814
I16
tp815
a(I1503
I1
I0
S'update'
p816
I16
tp817
as(S'nice'
p818
S'mobile'
p819
tp820
(lp821
(I406
I1
F0.875
S'nice'
p822
I3
tp823
a(I424
I1
F0.875
S'nice'
p824
I3
tp825
a(I424
I1
F0.75
S'intelligent'
p826
I3
tp827
a(I521
I4
F0.875
S'nice'
p828
I3
tp829
a(I521
I4
F-0.625
S'fast'
p830
I3
tp831
a(I698
I1
F0.875
S'nice'
p832
I3
tp833
a(I871
I6
F0.875
S'nice'
p834
I3
tp835
a(I1143
I0
F0.875
S'nice'
p836
I3
tp837
a(I1193
I2
F1.0
S'good'
p838
I3
tp839
a(I1214
I1
F0.875
S'nice'
p840
I3
tp841
a(I1217
I3
F0.875
S'nice'
p842
I3
tp843
a(I1242
I0
F0.125
S'mobile'
p844
I3
tp845
a(I1242
I0
F-0.625
S'real'
p846
I3
tp847
a(I1279
I4
F0.875
S'nice'
p848
I3
tp849
a(I1303
I0
F0.875
S'nice'
p850
I3
tp851
a(I1319
I4
F1.0
S'good'
p852
I3
tp853
a(I1396
I11
F0.875
S'nice'
p854
I3
tp855
a(I1504
I2
F0.875
S'nice'
p856
I3
tp857
as(S'to'
p858
S'sd'
p859
S'card'
p860
tp861
(lp862
(I89
I6
I0
S'sd'
p863
I0
tp864
a(I89
I18
F0.875
S'great'
p865
I0
tp866
a(I223
I1
F0.75
S'essential'
p867
I0
tp868
a(I89
I6
I0
g863
I0
tp869
a(I89
I7
I0
S'sd'
p870
I0
tp871
a(I89
I18
F0.875
g865
I0
tp872
a(I155
I5
F0.375
S'form'
p873
I0
tp874
a(I156
I16
I0
S'un'
p875
I0
tp876
a(I223
I1
F0.75
g867
I0
tp877
a(I325
I11
F0.125
S'card'
p878
I0
tp879
a(I391
I0
I0
S'sd'
p880
I0
tp881
a(I392
I6
I0
S'sd'
p882
I0
tp883
a(I619
I21
F0.625
S'fine'
p884
I0
tp885
a(I14
I27
F0.125
S'mobile'
p886
I8
tp887
a(I89
I6
I0
g863
I8
tp888
a(I89
I7
I0
g870
I8
tp889
a(I89
I18
F0.875
g865
I8
tp890
a(I155
I5
F0.375
g873
I8
tp891
a(I156
I16
I0
g875
I8
tp892
a(I223
I1
F0.75
g867
I8
tp893
a(I391
I0
I0
g880
I8
tp894
a(I392
I1
F-0.25
S'i'
p895
I8
tp896
a(I392
I1
F0.875
S'right'
p897
I8
tp898
a(I392
I6
I0
g882
I8
tp899
a(I467
I10
F0.25
S'able'
p900
I8
tp901
a(I519
I4
F-0.375
S'same'
p902
I8
tp903
a(I619
I3
F0.125
S'memory'
p904
I8
tp905
a(I619
I21
F0.625
g884
I8
tp906
a(I645
I0
I0
S'u'
p907
I8
tp908
a(I1405
I8
I0
S'warranty'
p909
I8
tp910
a(I1506
I0
F0.625
S'graphic'
p911
I8
tp912
as(S'no'
p913
S'notification'
p914
S'light'
p915
tp916
(lp917
(I676
I15
I0
S'light'
p918
I1
tp919
a(I5
I1
F0.5
S'slim'
p920
I14
tp921
a(I25
I1
F0.5
S'slim'
p922
I14
tp923
a(I61
I8
F0.625
S'super'
p924
I14
tp925
a(I300
I0
F-0.125
S'back'
p926
I14
tp927
a(I325
I7
F1.0
S'best'
p928
I14
tp929
a(I325
I7
F-0.875
S'low'
p930
I14
tp931
a(I341
I18
F0.875
S'great'
p932
I14
tp933
a(I341
I19
F1.0
S'good'
p934
I14
tp935
a(I526
I20
F-0.875
S'low'
p936
I14
tp937
a(I546
I2
F1.0
S'good'
p938
I14
tp939
a(I619
I17
F1.0
S'good'
p940
I14
tp941
a(I619
I17
F-0.875
S'low'
p942
I14
tp943
a(I768
I18
F0.125
S'indoor'
p944
I14
tp945
a(I768
I18
F-0.875
S'low'
p946
I14
tp947
a(I786
I2
F-0.875
S'low'
p948
I14
tp949
a(I851
I0
F-0.875
S'low'
p950
I14
tp951
a(I851
I0
F0.875
S'superb'
p952
I14
tp953
a(I851
I0
F-0.875
S'low'
p954
I14
tp955
a(I851
I0
F1.0
S'good'
p956
I14
tp957
a(I1101
I3
F0.625
S'super'
p958
I14
tp959
a(I1170
I4
F0.5
S'stylish'
p960
I14
tp961
a(I1322
I5
F0.5
S'slim'
p962
I14
tp963
as(S'experience'
p964
tp965
(lp966
(I13
I9
F1.0
S'good'
p967
I12
tp968
a(I14
I32
F-1.0
S'bad'
p969
I12
tp970
a(I17
I1
F1.0
S'good'
p971
I12
tp972
a(I59
I1
F-1.0
S'worst'
p973
I12
tp974
a(I338
I75
F0.875
S'decent'
p975
I12
tp976
a(I339
I0
F1.0
S'better'
p977
I12
tp978
a(I339
I0
F0.75
S'primary'
p979
I12
tp980
a(I340
I1
F0.5
S'very'
p981
I12
tp982
a(I340
I1
F0.875
S'nice'
p983
I12
tp984
a(I518
I21
I-100
S'distateful'
p985
I12
tp986
a(I551
I2
F-1.0
S'worst'
p987
I12
tp988
a(I559
I1
F-0.875
S'pathetic'
p989
I12
tp990
a(I627
I0
F-1.0
S'bad'
p991
I12
tp992
a(I766
I5
I0
S't'
p993
I12
tp994
a(I957
I3
F0.5
S'personal'
p995
I12
tp996
a(I957
I3
F-0.625
S'last'
p997
I12
tp998
a(I957
I15
I0
S'sure'
p999
I12
tp1000
a(I957
I15
F-1.0
S'bad'
p1001
I12
tp1002
a(I958
I52
F0.625
S'first'
p1003
I12
tp1004
a(I958
I52
F-1.0
S'bad'
p1005
I12
tp1006
a(I960
I0
F0.875
S'awesome'
p1007
I12
tp1008
a(I967
I0
F-0.75
S'disappointing'
p1009
I12
tp1010
a(I981
I8
F1.0
S'good'
p1011
I12
tp1012
a(I1016
I5
F1.0
S'good'
p1013
I12
tp1014
a(I1016
I5
F0.625
S'musical'
p1015
I12
tp1016
a(I1113
I0
F-0.875
S'bitter'
p1017
I12
tp1018
a(I1310
I3
F1.0
S'good'
p1019
I12
tp1020
a(I1372
I1
F0.875
S'great'
p1021
I12
tp1022
a(I1438
I3
F0.875
S'awesome'
p1023
I12
tp1024
a(I1483
I0
F0.875
S'great'
p1025
I12
tp1026
a(I1483
I0
F-0.25
S'shopping'
p1027
I12
tp1028
a(I1484
I0
F0.875
S'nice'
p1029
I12
tp1030
as(S'very'
p1031
S'good'
p1032
S'product'
p1033
tp1034
(lp1035
(I525
I4
F-1.0
S'bad'
p1036
I0
tp1037
a(I525
I4
F0.875
S'nice'
p1038
I0
tp1039
a(I551
I13
F1.0
S'good'
p1040
I0
tp1041
a(I1101
I2
F1.0
S'good'
p1042
I0
tp1043
a(I1110
I0
F1.0
S'good'
p1044
I0
tp1045
a(I1112
I9
F1.0
S'good'
p1046
I0
tp1047
a(I1121
I5
F1.0
S'good'
p1048
I0
tp1049
a(I1133
I0
F1.0
S'good'
p1050
I0
tp1051
a(I1133
I0
F-0.875
S'cheap'
p1052
I0
tp1053
a(I1170
I3
F1.0
S'good'
p1054
I0
tp1055
a(I1191
I2
F1.0
S'good'
p1056
I0
tp1057
a(I1193
I2
F0.875
S'nice'
p1058
I0
tp1059
a(I1197
I0
F1.0
S'good'
p1060
I0
tp1061
a(I1197
I0
F0.625
S'smooth'
p1062
I0
tp1063
a(I1216
I0
F1.0
S'good'
p1064
I0
tp1065
a(I1238
I1
F1.0
S'good'
p1066
I0
tp1067
a(I1238
I1
F0.875
S'nice'
p1068
I0
tp1069
a(I1238
I1
F0.875
S'great'
p1070
I0
tp1071
a(I1286
I2
F1.0
S'good'
p1072
I0
tp1073
a(I1286
I2
F0.875
S'nice'
p1074
I0
tp1075
a(I1312
I1
F1.0
S'good'
p1076
I0
tp1077
a(I1375
I0
F-0.125
S'overall'
p1078
I0
tp1079
a(I1377
I0
F1.0
S'good'
p1080
I0
tp1081
a(I1377
I0
F-0.75
S'little'
p1082
I0
tp1083
a(I1386
I0
F1.0
S'good'
p1084
I0
tp1085
a(I1422
I19
F1.0
S'good'
p1086
I0
tp1087
a(I1443
I1
F1.0
S'good'
p1088
I0
tp1089
a(I1515
I16
F1.0
S'good'
p1090
I0
tp1091
a(I1515
I16
F1.0
S'good'
p1092
I0
tp1093
a(I95
I1
F1.0
S'good'
p1094
I5
tp1095
a(I95
I1
F1.0
S'good'
p1096
I5
tp1097
a(I338
I0
F1.0
S'good'
p1098
I5
tp1099
a(I443
I0
F-0.625
S'new'
p1100
I5
tp1101
a(I525
I4
F-1.0
g1036
I5
tp1102
a(I525
I4
F0.875
g1038
I5
tp1103
a(I543
I7
F1.0
S'good'
p1104
I5
tp1105
a(I551
I13
F1.0
g1040
I5
tp1106
a(I558
I0
F0.5
S'technical'
p1107
I5
tp1108
a(I560
I1
F1.0
S'good'
p1109
I5
tp1110
a(I597
I0
F0.875
S'awesome'
p1111
I5
tp1112
a(I661
I4
F1.0
S'good'
p1113
I5
tp1114
a(I847
I14
F1.0
S'good'
p1115
I5
tp1116
a(I958
I47
F1.0
S'good'
p1117
I5
tp1118
a(I982
I1
F1.0
S'good'
p1119
I5
tp1120
a(I1101
I2
F1.0
g1042
I5
tp1121
a(I1110
I0
F1.0
g1044
I5
tp1122
a(I1112
I9
F1.0
g1046
I5
tp1123
a(I1121
I5
F1.0
g1048
I5
tp1124
a(I1124
I0
F1.0
S'good'
p1125
I5
tp1126
a(I1131
I7
F1.0
S'good'
p1127
I5
tp1128
a(I1133
I0
F1.0
g1050
I5
tp1129
a(I1133
I0
F-0.875
g1052
I5
tp1130
a(I1139
I6
F1.0
S'good'
p1131
I5
tp1132
a(I1139
I10
F0.375
S'impressive'
p1133
I5
tp1134
a(I1145
I1
F1.0
S'good'
p1135
I5
tp1136
a(I1145
I1
F1.0
S'good'
p1137
I5
tp1138
a(I1150
I0
F1.0
S'good'
p1139
I5
tp1140
a(I1153
I0
F1.0
S'good'
p1141
I5
tp1142
a(I1153
I0
F1.0
S'good'
p1143
I5
tp1144
a(I1154
I0
F1.0
S'good'
p1145
I5
tp1146
a(I1162
I5
F1.0
S'good'
p1147
I5
tp1148
a(I1170
I3
F1.0
g1054
I5
tp1149
a(I1188
I0
F1.0
S'good'
p1150
I5
tp1151
a(I1188
I4
F1.0
S'good'
p1152
I5
tp1153
a(I1191
I2
F1.0
g1056
I5
tp1154
a(I1193
I2
F0.875
g1058
I5
tp1155
a(I1197
I0
F1.0
g1060
I5
tp1156
a(I1197
I0
F0.625
g1062
I5
tp1157
a(I1216
I0
F1.0
g1064
I5
tp1158
a(I1222
I0
F0.875
S'amazing'
p1159
I5
tp1160
a(I1229
I2
F1.0
S'good'
p1161
I5
tp1162
a(I1238
I1
F1.0
g1066
I5
tp1163
a(I1238
I1
F0.875
g1068
I5
tp1164
a(I1238
I1
F0.875
g1070
I5
tp1165
a(I1238
I4
F1.0
S'good'
p1166
I5
tp1167
a(I1242
I1
F1.0
S'good'
p1168
I5
tp1169
a(I1260
I0
F1.0
S'good'
p1170
I5
tp1171
a(I1286
I2
F1.0
g1072
I5
tp1172
a(I1286
I2
F0.875
g1074
I5
tp1173
a(I1296
I1
F1.0
S'good'
p1174
I5
tp1175
a(I1310
I8
F1.0
S'good'
p1176
I5
tp1177
a(I1310
I8
F0.875
S'nice'
p1178
I5
tp1179
a(I1312
I1
F1.0
g1076
I5
tp1180
a(I1323
I0
F1.0
S'good'
p1181
I5
tp1182
a(I1339
I0
F1.0
S'good'
p1183
I5
tp1184
a(I1340
I10
F1.0
S'good'
p1185
I5
tp1186
a(I1346
I3
F1.0
S'good'
p1187
I5
tp1188
a(I1368
I0
F1.0
S'good'
p1189
I5
tp1190
a(I1373
I0
F1.0
S'good'
p1191
I5
tp1192
a(I1375
I0
F-0.125
g1078
I5
tp1193
a(I1377
I0
F1.0
g1080
I5
tp1194
a(I1377
I0
F-0.75
g1082
I5
tp1195
a(I1378
I0
F1.0
S'good'
p1196
I5
tp1197
a(I1386
I0
F1.0
g1084
I5
tp1198
a(I1391
I5
F1.0
S'good'
p1199
I5
tp1200
a(I1404
I0
F1.0
S'good'
p1201
I5
tp1202
a(I1415
I3
F-0.125
S'overall'
p1203
I5
tp1204
a(I1415
I3
F1.0
S'good'
p1205
I5
tp1206
a(I1422
I19
F1.0
g1086
I5
tp1207
a(I1443
I1
F1.0
g1088
I5
tp1208
a(I1447
I2
F1.0
S'good'
p1209
I5
tp1210
a(I1447
I5
F1.0
S'good'
p1211
I5
tp1212
a(I1459
I8
F1.0
S'good'
p1213
I5
tp1214
a(I1473
I3
F1.0
S'good'
p1215
I5
tp1216
a(I1478
I6
F1.0
S'good'
p1217
I5
tp1218
a(I1478
I11
F0.625
S'first'
p1219
I5
tp1220
a(I1505
I9
F1.0
S'good'
p1221
I5
tp1222
a(I1515
I16
F1.0
g1090
I5
tp1223
a(I1515
I16
F1.0
g1092
I5
tp1224
as(S'best'
p1225
S'in'
p1226
S'class'
p1227
tp1228
(lp1229
(I325
I5
F1.0
S'best'
p1230
I0
tp1231
a(I536
I57
F1.0
S'best'
p1232
I0
tp1233
a(I825
I9
F1.0
S'best'
p1234
I0
tp1235
a(I912
I0
F1.0
S'best'
p1236
I0
tp1237
a(I1474
I2
F0.125
S'mobile'
p1238
I0
tp1239
a(I1474
I2
F1.0
S'best'
p1240
I0
tp1241
a(I1474
I2
F0.25
S'worth'
p1242
I0
tp1243
as(S'performance'
p1244
tp1245
(lp1246
(I13
I11
F0.5
S'optimum'
p1247
I13
tp1248
a(I85
I5
F1.0
S'good'
p1249
I13
tp1250
a(I89
I35
F1.0
S'good'
p1251
I13
tp1252
a(I89
I35
F1.0
S'better'
p1253
I13
tp1254
a(I116
I9
F0.625
S'smooth'
p1255
I13
tp1256
a(I205
I7
F1.0
S'excellent'
p1257
I13
tp1258
a(I205
I9
F1.0
S'good'
p1259
I13
tp1260
a(I302
I41
F-0.875
S'hard'
p1261
I13
tp1262
a(I323
I3
F1.0
S'good'
p1263
I13
tp1264
a(I358
I12
F0.375
S'ok'
p1265
I13
tp1266
a(I420
I0
F1.0
S'good'
p1267
I13
tp1268
a(I476
I12
F0.125
S'mobile'
p1269
I13
tp1270
a(I525
I4
F1.0
S'good'
p1271
I13
tp1272
a(I537
I16
F-0.875
S'poor'
p1273
I13
tp1274
a(I546
I9
F0.75
S'outstanding'
p1275
I13
tp1276
a(I551
I12
F1.0
S'good'
p1277
I13
tp1278
a(I558
I4
F-0.875
S'poor'
p1279
I13
tp1280
a(I558
I11
F1.0
S'excellent'
p1281
I13
tp1282
a(I559
I20
F-0.25
S'grate'
p1283
I13
tp1284
a(I578
I0
F1.0
S'good'
p1285
I13
tp1286
a(I600
I3
F0.25
S'fluid'
p1287
I13
tp1288
a(I617
I1
F1.0
S'better'
p1289
I13
tp1290
a(I617
I2
F0.875
S'great'
p1291
I13
tp1292
a(I624
I3
F-0.125
S'overall'
p1293
I13
tp1294
a(I645
I10
F0.25
S'fluid'
p1295
I13
tp1296
a(I687
I1
F0.75
S'marvelous'
p1297
I13
tp1298
a(I688
I13
F1.0
S'good'
p1299
I13
tp1300
a(I715
I0
F1.0
S'good'
p1301
I13
tp1302
a(I765
I4
I0
S'lags'
p1303
I13
tp1304
a(I765
I4
F0.875
S'awesome'
p1305
I13
tp1306
a(I786
I0
F0.625
S'extraordinary'
p1307
I13
tp1308
a(I786
I6
F1.0
S'good'
p1309
I13
tp1310
a(I786
I6
F1.0
S'best'
p1311
I13
tp1312
a(I871
I3
F0.375
S'impressive'
p1313
I13
tp1314
a(I871
I3
F0.5
S'high'
p1315
I13
tp1316
a(I874
I0
F1.0
S'good'
p1317
I13
tp1318
a(I913
I1
F0.875
S'awesome'
p1319
I13
tp1320
a(I916
I0
F0.75
S'wonderful'
p1321
I13
tp1322
a(I931
I7
F1.0
S'good'
p1323
I13
tp1324
a(I981
I2
F1.0
S'good'
p1325
I13
tp1326
a(I995
I0
F1.0
S'good'
p1327
I13
tp1328
a(I998
I11
F-1.0
S'bad'
p1329
I13
tp1330
a(I1086
I0
F0.875
S'happy'
p1331
I13
tp1332
a(I1153
I0
F1.0
S'good'
p1333
I13
tp1334
a(I1161
I0
F1.0
S'excellent'
p1335
I13
tp1336
a(I1182
I0
F1.0
S'good'
p1337
I13
tp1338
a(I1191
I1
F0.875
S'decent'
p1339
I13
tp1340
a(I1216
I1
F1.0
S'good'
p1341
I13
tp1342
a(I1217
I9
F1.0
S'good'
p1343
I13
tp1344
a(I1223
I2
F1.0
S'good'
p1345
I13
tp1346
a(I1280
I4
F0.875
S'great'
p1347
I13
tp1348
a(I1286
I5
F0.625
S'super'
p1349
I13
tp1350
a(I1316
I0
F0.875
S'nice'
p1351
I13
tp1352
a(I1319
I1
F-0.625
S'average'
p1353
I13
tp1354
a(I1322
I1
F0.5
S'high'
p1355
I13
tp1356
a(I1355
I0
F0.875
S'nice'
p1357
I13
tp1358
a(I1376
I1
F0.875
S'great'
p1359
I13
tp1360
a(I1389
I7
F0.625
S'super'
p1361
I13
tp1362
a(I1394
I13
F-0.125
S'overall'
p1363
I13
tp1364
a(I1431
I2
F0.875
S'great'
p1365
I13
tp1366
a(I1444
I3
F0.875
S'great'
p1367
I13
tp1368
a(I1472
I6
F0.875
S'happy'
p1369
I13
tp1370
a(I1475
I3
F1.0
S'good'
p1371
I13
tp1372
a(I1482
I4
F1.0
S'better'
p1373
I13
tp1374
a(I1533
I0
F1.0
S'best'
p1375
I13
tp1376
as(S'times'
p1377
tp1378
(lp1379
(I121
I3
F-0.5
S'several'
p1380
I11
tp1381
a(I523
I2
I0
S'many'
p1382
I11
tp1383
a(I688
I5
I0
S'more'
p1384
I11
tp1385
a(I689
I11
F0.5
S'costlier'
p1386
I11
tp1387
a(I957
I13
F0.5
S'everyday'
p1388
I11
tp1389
a(I1090
I4
I0
S'more'
p1390
I11
tp1391
a(I1463
I3
I0
S'many'
p1392
I11
tp1393
as(S'memory'
p1394
S'card'
p1395
tp1396
(lp1397
(I14
I26
F0.125
S'mobile'
p1398
I4
tp1399
a(I14
I27
F0.125
g886
I4
tp1400
a(I467
I10
F0.25
g900
I4
tp1401
a(I478
I16
F0.5
S'internal'
p1402
I4
tp1403
a(I564
I0
F-0.25
S'external'
p1404
I4
tp1405
a(I619
I3
F0.125
g904
I4
tp1406
a(I619
I20
F0.5
S'internal'
p1407
I4
tp1408
as(S'no'
p1409
S'heating'
p1410
S'issue'
p1411
tp1412
(lp1413
(I372
I1
F0.375
S'heating'
p1414
I0
tp1415
a(I422
I20
F0.375
S'heating'
p1416
I0
tp1417
a(I689
I20
F0.375
S'heating'
p1418
I0
tp1419
a(I785
I1
F0.375
S'impressive'
p1420
I0
tp1421
a(I916
I0
F0.375
S'heating'
p1422
I0
tp1423
a(I957
I8
F0.375
S'heating'
p1424
I0
tp1425
a(I983
I1
F1.0
S'good'
p1426
I0
tp1427
a(I14
I22
F-0.5
S'heavy'
p1428
I2
tp1429
a(I47
I0
F0.375
S'heating'
p1430
I2
tp1431
a(I88
I6
F0.5
S'high'
p1432
I2
tp1433
a(I88
I6
F0.375
S'heating'
p1434
I2
tp1435
a(I156
I23
F-0.5
S'excessive'
p1436
I2
tp1437
a(I171
I1
F-0.125
S'huge'
p1438
I2
tp1439
a(I352
I0
F-0.875
S'hard'
p1440
I2
tp1441
a(I372
I1
F0.375
g1414
I2
tp1442
a(I422
I20
F0.375
g1416
I2
tp1443
a(I503
I0
F0.375
S'heating'
p1444
I2
tp1445
a(I689
I20
F0.375
g1418
I2
tp1446
a(I785
I1
F0.375
g1420
I2
tp1447
a(I916
I0
F0.375
g1422
I2
tp1448
a(I957
I8
F0.375
g1424
I2
tp1449
a(I983
I1
F1.0
g1426
I2
tp1450
a(I992
I5
F-0.5
S'heavy'
p1451
I2
tp1452
a(I992
I5
F0.375
S'heating'
p1453
I2
tp1454
a(I992
I6
F0.375
S'much'
p1455
I2
tp1456
a(I1346
I8
F0.375
S'heating'
p1457
I2
tp1458
as(S'at'
p1459
S'price'
p1460
S'range'
p1461
tp1462
(lp1463
(I14
I5
F0.375
S'much'
p1464
I0
tp1465
a(I689
I1
F0.75
S'consider'
p1466
I0
tp1467
a(I1430
I0
F-0.375
S'same'
p1468
I0
tp1469
as(S'till'
p1470
tp1471
(lp1472
(I483
I4
I0
S't'
p1473
I18
tp1474
a(I796
I14
I0
S'lags'
p1475
I18
tp1476
a(I802
I15
F0.125
S'mobile'
p1477
I18
tp1478
a(I1333
I0
F1.0
S'good'
p1479
I18
tp1480
as(S'for'
p1481
S'a6000'
p1482
S'plus'
p1483
tp1484
(lp1485
(I31
I26
F-0.75
S'faulty'
p1486
I0
tp1487
a(I85
I8
F0.5
S'older'
p1488
I0
tp1489
a(I302
I3
F1.0
S'better'
p1490
I0
tp1491
a(I939
I42
I0
S'clear'
p1492
I0
tp1493
a(I939
I42
I0
S's'
p1494
I0
tp1495
a(I939
I75
I0
S'clear'
p1496
I0
tp1497
a(I939
I75
I0
S's'
p1498
I0
tp1499
a(I1022
I3
F0.125
S'mobile'
p1500
I0
tp1501
a(I1134
I0
F1.0
S'better'
p1502
I0
tp1503
a(I1502
I24
F-0.25
S'i'
p1504
I0
tp1505
a(I31
I26
F-0.75
g1486
I0
tp1506
a(I85
I8
F0.5
g1488
I0
tp1507
a(I89
I0
F0.125
S'mobile'
p1508
I0
tp1509
a(I302
I3
F1.0
g1490
I0
tp1510
a(I627
I2
F-0.25
S'i'
p1511
I0
tp1512
a(I792
I2
F1.0
S'best'
p1513
I0
tp1514
a(I939
I42
I0
g1492
I0
tp1515
a(I939
I42
I0
g1494
I0
tp1516
a(I939
I75
I0
g1496
I0
tp1517
a(I939
I75
I0
g1498
I0
tp1518
a(I1022
I3
F0.125
g1500
I0
tp1519
a(I1134
I0
F1.0
g1502
I0
tp1520
a(I1502
I24
F-0.25
g1504
I0
tp1521
a(I1528
I0
F0.625
S'fine'
p1522
I0
tp1523
a(I160
I4
I0
S'audio'
p1524
I2
tp1525
a(I939
I42
I0
g1494
I2
tp1526
a(I939
I75
I0
g1498
I2
tp1527
a(I1528
I0
F0.625
g1522
I2
tp1528
a(I31
I26
F-0.75
g1486
I0
tp1529
a(I85
I8
F0.5
g1488
I0
tp1530
a(I89
I0
F0.125
g1508
I0
tp1531
a(I101
I1
F0.875
S'decent'
p1532
I0
tp1533
a(I281
I6
F-0.875
S'cheap'
p1534
I0
tp1535
a(I302
I3
F1.0
g1490
I0
tp1536
a(I302
I6
F-0.625
S'flat'
p1537
I0
tp1538
a(I418
I3
F0.875
S'awesome'
p1539
I0
tp1540
a(I530
I1
F1.0
S'good'
p1541
I0
tp1542
a(I562
I0
F1.0
S'good'
p1543
I0
tp1544
a(I627
I2
F-0.25
g1511
I0
tp1545
a(I645
I7
F0.5
S'old'
p1546
I0
tp1547
a(I645
I7
F0.125
S'mobile'
p1548
I0
tp1549
a(I792
I2
F1.0
g1513
I0
tp1550
a(I939
I42
I0
g1492
I0
tp1551
a(I939
I75
I0
g1496
I0
tp1552
a(I1022
I3
F0.125
g1500
I0
tp1553
a(I1133
I6
F0.875
S'happy'
p1554
I0
tp1555
a(I1134
I0
F1.0
g1502
I0
tp1556
a(I1502
I24
F-0.25
g1504
I0
tp1557
as(S'gorilla'
p1558
S'glass'
p1559
tp1560
(lp1561
(I8
I1
I0
S's'
p1562
I2
tp1563
a(I28
I1
I0
S's'
p1564
I2
tp1565
a(I337
I3
I0
S'nt'
p1566
I2
tp1567
a(I770
I3
F1.0
S'good'
p1568
I2
tp1569
a(I770
I3
I0
S'tempered'
p1570
I2
tp1571
a(I778
I7
I0
S'tempered'
p1572
I2
tp1573
a(I1018
I1
I0
S'tempered'
p1574
I2
tp1575
as(S'gb'
p1576
S'internal'
p1577
S'memory'
p1578
tp1579
(lp1580
(I341
I4
F0.875
S'awesome'
p1581
I0
tp1582
a(I367
I1
F0.5
g108
I0
tp1583
a(I367
I1
F0.625
S'accessible'
p1584
I0
tp1585
a(I387
I0
F0.5
S'internal'
p1586
I0
tp1587
a(I445
I1
F0.5
g157
I0
tp1588
a(I478
I16
I0
S'humongous'
p1589
I0
tp1590
a(I478
I16
F0.5
g1402
I0
tp1591
a(I825
I6
F0.5
S'internal'
p1592
I0
tp1593
a(I870
I11
I0
S'gb'
p1594
I0
tp1595
a(I870
I11
F0.5
S'internal'
p1596
I0
tp1597
a(I931
I1
F0.5
S'internal'
p1598
I0
tp1599
a(I1105
I1
F0.5
S'internal'
p1600
I0
tp1601
a(I1139
I11
F0.5
g94
I0
tp1602
a(I1298
I1
F0.5
S'internal'
p1603
I0
tp1604
a(I1453
I4
F0.5
S'internal'
p1605
I0
tp1606
a(I1453
I4
I0
S'many'
p1607
I0
tp1608
a(I1509
I0
F0.5
g209
I0
tp1609
a(I1527
I1
F0.5
S'internal'
p1610
I0
tp1611
a(I188
I5
F0.5
S'internal'
p1612
I3
tp1613
a(I341
I4
F0.875
g1581
I3
tp1614
a(I367
I1
F0.625
g1584
I3
tp1615
a(I387
I0
F0.5
g1586
I3
tp1616
a(I478
I16
I0
g1589
I3
tp1617
a(I478
I16
F0.5
g1402
I3
tp1618
a(I619
I20
F0.5
g1407
I3
tp1619
a(I684
I2
F0.5
S'large'
p1620
I3
tp1621
a(I684
I2
F0.5
S'internal'
p1622
I3
tp1623
a(I684
I2
F0.5
S'largest'
p1624
I3
tp1625
a(I825
I6
F0.5
g1592
I3
tp1626
a(I870
I11
I0
g1594
I3
tp1627
a(I870
I11
F0.5
g1596
I3
tp1628
a(I931
I1
F0.5
g1598
I3
tp1629
a(I1105
I1
F0.5
g1600
I3
tp1630
a(I1298
I1
F0.5
g1603
I3
tp1631
a(I1453
I4
F0.5
g1605
I3
tp1632
a(I1453
I4
I0
g1607
I3
tp1633
a(I1505
I14
F0.875
S'nice'
p1634
I3
tp1635
a(I1505
I14
F0.5
S'internal'
p1636
I3
tp1637
a(I1527
I1
F0.5
g1610
I3
tp1638
a(I14
I26
F0.125
g1398
I10
tp1639
a(I188
I5
F0.5
g1612
I10
tp1640
a(I219
I1
I-100
S'intenal'
p1641
I10
tp1642
a(I341
I4
F0.875
g1581
I10
tp1643
a(I367
I1
F0.625
g1584
I10
tp1644
a(I387
I0
F0.5
g1586
I10
tp1645
a(I478
I16
F0.5
g1402
I10
tp1646
a(I564
I0
F-0.25
g1404
I10
tp1647
a(I619
I20
F0.5
g1407
I10
tp1648
a(I684
I2
F0.5
g1620
I10
tp1649
a(I684
I2
F0.5
g1622
I10
tp1650
a(I684
I2
F0.5
g1624
I10
tp1651
a(I707
I11
F-0.25
S'external'
p1652
I10
tp1653
a(I768
I6
F0.5
S'expandable'
p1654
I10
tp1655
a(I825
I6
F0.5
g1592
I10
tp1656
a(I870
I11
I0
g1594
I10
tp1657
a(I870
I11
F0.5
g1596
I10
tp1658
a(I931
I1
F0.5
g1598
I10
tp1659
a(I1105
I1
F0.5
g1600
I10
tp1660
a(I1298
I1
F0.5
g1603
I10
tp1661
a(I1341
I0
F0.125
S'enough'
p1662
I10
tp1663
a(I1405
I7
F-0.875
S'low'
p1664
I10
tp1665
a(I1453
I4
F0.5
g1605
I10
tp1666
a(I1453
I4
I0
g1607
I10
tp1667
a(I1505
I14
F0.875
g1634
I10
tp1668
a(I1505
I14
F0.5
g1636
I10
tp1669
a(I1527
I1
F0.5
g1610
I10
tp1670
a(I478
I16
I0
g1589
I10
tp1671
as(S'good'
p1672
S'at'
p1673
S'price'
p1674
tp1675
(lp1676
(I387
I0
F1.0
S'good'
p1677
I0
tp1678
a(I568
I0
F-0.5
S'less'
p1679
I0
tp1680
a(I688
I6
F1.0
S'good'
p1681
I0
tp1682
a(I1138
I3
F1.0
S'good'
p1683
I0
tp1684
a(I1296
I2
F-0.875
S'low'
p1685
I0
tp1686
a(I1308
I2
F-0.875
S'low'
p1687
I0
tp1688
a(I1308
I2
I0
S'least'
p1689
I0
tp1690
a(I1308
I2
F0.5
S'weight'
p1691
I0
tp1692
a(I1342
I10
F1.0
S'best'
p1693
I0
tp1694
a(I1352
I3
F1.0
S'good'
p1695
I0
tp1696
a(I1352
I3
F1.0
S'best'
p1697
I0
tp1698
a(I1352
I3
I0
S'affordable'
p1699
I0
tp1700
a(I1373
I2
F1.0
S'good'
p1701
I0
tp1702
a(I1395
I9
I0
S's'
p1703
I0
tp1704
a(I1504
I1
F1.0
S'good'
p1705
I0
tp1706
as(S'build'
p1707
S'quality'
p1708
tp1709
(lp1710
(I311
I0
F-0.875
S'poor'
p1711
I2
tp1712
a(I311
I0
F-0.625
S'sensitive'
p1713
I2
tp1714
a(I340
I18
I0
S'build'
p1715
I2
tp1716
a(I340
I18
F0.875
S'great'
p1717
I2
tp1718
a(I415
I0
I0
S'build'
p1719
I2
tp1720
a(I415
I0
F0.875
S'great'
p1721
I2
tp1722
a(I816
I1
F-0.875
S'poor'
p1723
I2
tp1724
a(I834
I0
I0
S'build'
p1725
I2
tp1726
a(I870
I8
I0
S'build'
p1727
I2
tp1728
a(I870
I8
F0.875
S'decent'
p1729
I2
tp1730
a(I870
I8
I0
S'u'
p1731
I2
tp1732
a(I904
I0
F-0.875
S'poor'
p1733
I2
tp1734
a(I904
I0
F-0.625
S'sensitive'
p1735
I2
tp1736
a(I1393
I1
I0
S'build'
p1737
I2
tp1738
a(I1422
I9
F1.0
S'good'
p1739
I2
tp1740
as(S'viewing'
p1741
S'angle'
p1742
tp1743
(lp1744
(I4
I5
F-0.625
S'wide'
p1745
I0
tp1746
a(I24
I5
F-0.625
S'wide'
p1747
I0
tp1748
a(I161
I0
F1.0
S'good'
p1749
I0
tp1750
a(I870
I0
F0.875
S'awesome'
p1751
I0
tp1752
as(S'flip'
p1753
S'kart'
p1754
tp1755
(lp1756
(I546
I6
F-0.375
S'same'
p1757
I1
tp1758
a(I646
I0
F-0.5
S'flip'
p1759
I1
tp1760
a(I646
I5
F-0.5
S'flip'
p1761
I1
tp1762
a(I646
I7
F-0.5
S'flip'
p1763
I1
tp1764
a(I1176
I1
F-0.5
S'flip'
p1765
I1
tp1766
a(I1257
I1
F-0.5
S'flip'
p1767
I1
tp1768
a(I1368
I0
F-0.5
S'flip'
p1769
I1
tp1770
a(I1395
I10
F-0.5
S'flip'
p1771
I1
tp1772
a(I1474
I1
F-0.5
S'flip'
p1773
I1
tp1774
a(I1527
I4
F0.375
S'much'
p1775
I1
tp1776
a(I1527
I4
F0.875
S'happy'
p1777
I1
tp1778
a(I1527
I4
F-0.5
S'flip'
p1779
I1
tp1780
as(S'high'
p1781
tp1782
(lp1783
(I777
I4
F0.25
S'able'
p1784
I9
tp1785
a(I777
I4
F-0.5
S'heavy'
p1786
I9
tp1787
a(I786
I21
F0.375
S'much'
p1788
I9
tp1789
as(S'light'
p1790
S'weight'
p1791
tp1792
(lp1793
(I5
I1
F0.5
g920
I0
tp1794
a(I5
I2
I0
S'light'
p1795
I0
tp1796
a(I25
I1
F0.5
g922
I0
tp1797
a(I25
I2
I0
S'light'
p1798
I0
tp1799
a(I79
I0
I0
S'light'
p1800
I0
tp1801
a(I89
I16
I0
S'light'
p1802
I0
tp1803
a(I206
I8
I0
S'light'
p1804
I0
tp1805
a(I216
I1
I0
S'light'
p1806
I0
tp1807
a(I268
I1
I0
S'light'
p1808
I0
tp1809
a(I304
I0
I0
S'light'
p1810
I0
tp1811
a(I304
I0
F-0.75
S'single'
p1812
I0
tp1813
a(I325
I0
I0
S'light'
p1814
I0
tp1815
a(I325
I0
F0.5
S'slim'
p1816
I0
tp1817
a(I333
I20
I0
S'light'
p1818
I0
tp1819
a(I333
I20
F0.5
S'slim'
p1820
I0
tp1821
a(I362
I1
I0
S'light'
p1822
I0
tp1823
a(I478
I3
I0
S'light'
p1824
I0
tp1825
a(I486
I1
I0
S'light'
p1826
I0
tp1827
a(I498
I0
I0
S'light'
p1828
I0
tp1829
a(I502
I19
I0
S'light'
p1830
I0
tp1831
a(I559
I20
F1.0
S'excellent'
p1832
I0
tp1833
a(I559
I20
F0.125
S'mobile'
p1834
I0
tp1835
a(I559
I20
I0
S'light'
p1836
I0
tp1837
a(I596
I7
I0
S'light'
p1838
I0
tp1839
a(I620
I4
I0
S'light'
p1840
I0
tp1841
a(I676
I12
I0
S'light'
p1842
I0
tp1843
a(I687
I2
I0
S'light'
p1844
I0
tp1845
a(I687
I2
I0
S'handy'
p1846
I0
tp1847
a(I707
I2
I0
S'light'
p1848
I0
tp1849
a(I765
I16
I0
S'light'
p1850
I0
tp1851
a(I809
I2
I0
S'light'
p1852
I0
tp1853
a(I831
I0
I0
S'light'
p1854
I0
tp1855
a(I837
I1
I0
S'light'
p1856
I0
tp1857
a(I847
I12
I0
S'light'
p1858
I0
tp1859
a(I847
I12
I0
S'u'
p1860
I0
tp1861
a(I894
I0
F-0.75
S'single'
p1862
I0
tp1863
a(I921
I0
I0
S'light'
p1864
I0
tp1865
a(I923
I1
I0
S'light'
p1866
I0
tp1867
a(I1006
I0
I0
S'light'
p1868
I0
tp1869
a(I1051
I3
I0
S'light'
p1870
I0
tp1871
a(I1097
I0
I0
S'light'
p1872
I0
tp1873
a(I1105
I0
I0
S'light'
p1874
I0
tp1875
a(I1117
I0
I0
S'light'
p1876
I0
tp1877
a(I1117
I0
F0.125
S'mobile'
p1878
I0
tp1879
a(I1117
I0
F0.75
S'easy'
p1880
I0
tp1881
a(I1122
I0
I0
S'light'
p1882
I0
tp1883
a(I1149
I1
I0
S'light'
p1884
I0
tp1885
a(I1159
I2
I0
S'light'
p1886
I0
tp1887
a(I1170
I4
F0.5
g960
I0
tp1888
a(I1347
I0
I0
S'light'
p1889
I0
tp1890
a(I1369
I5
I0
S'light'
p1891
I0
tp1892
a(I1396
I11
I0
S'light'
p1893
I0
tp1894
a(I1440
I5
I0
S'light'
p1895
I0
tp1896
a(I1451
I7
I0
S'light'
p1897
I0
tp1898
a(I1488
I0
I0
S'light'
p1899
I0
tp1900
a(I1511
I0
I0
S'light'
p1901
I0
tp1902
a(I5
I2
I0
g1795
I4
tp1903
a(I25
I2
I0
g1798
I4
tp1904
a(I79
I0
I0
g1800
I4
tp1905
a(I89
I16
I0
g1802
I4
tp1906
a(I206
I8
I0
g1804
I4
tp1907
a(I216
I1
I0
g1806
I4
tp1908
a(I268
I1
I0
g1808
I4
tp1909
a(I304
I0
I0
g1810
I4
tp1910
a(I304
I0
F-0.75
g1812
I4
tp1911
a(I325
I0
I0
g1814
I4
tp1912
a(I325
I0
F0.5
g1816
I4
tp1913
a(I333
I20
I0
g1818
I4
tp1914
a(I333
I20
F0.5
g1820
I4
tp1915
a(I362
I1
I0
g1822
I4
tp1916
a(I478
I3
I0
g1824
I4
tp1917
a(I486
I1
I0
g1826
I4
tp1918
a(I498
I0
I0
g1828
I4
tp1919
a(I502
I19
I0
g1830
I4
tp1920
a(I559
I20
F1.0
g1832
I4
tp1921
a(I559
I20
F0.125
g1834
I4
tp1922
a(I559
I20
I0
g1836
I4
tp1923
a(I596
I7
I0
g1838
I4
tp1924
a(I620
I4
I0
g1840
I4
tp1925
a(I675
I0
F-0.5
S'less'
p1926
I4
tp1927
a(I676
I12
I0
g1842
I4
tp1928
a(I687
I2
I0
g1844
I4
tp1929
a(I687
I2
I0
g1846
I4
tp1930
a(I707
I2
I0
g1848
I4
tp1931
a(I765
I16
I0
g1850
I4
tp1932
a(I809
I2
I0
g1852
I4
tp1933
a(I831
I0
I0
g1854
I4
tp1934
a(I837
I1
I0
g1856
I4
tp1935
a(I847
I12
I0
g1858
I4
tp1936
a(I847
I12
I0
g1860
I4
tp1937
a(I894
I0
F-0.75
g1862
I4
tp1938
a(I921
I0
I0
g1864
I4
tp1939
a(I923
I1
I0
g1866
I4
tp1940
a(I1006
I0
I0
g1868
I4
tp1941
a(I1051
I3
I0
g1870
I4
tp1942
a(I1097
I0
I0
g1872
I4
tp1943
a(I1105
I0
I0
g1874
I4
tp1944
a(I1117
I0
I0
g1876
I4
tp1945
a(I1117
I0
F0.125
g1878
I4
tp1946
a(I1117
I0
F0.75
g1880
I4
tp1947
a(I1122
I0
I0
g1882
I4
tp1948
a(I1149
I1
I0
g1884
I4
tp1949
a(I1159
I2
I0
g1886
I4
tp1950
a(I1169
I3
I0
S'comfortable'
p1951
I4
tp1952
a(I1169
I3
I0
S'lite'
p1953
I4
tp1954
a(I1347
I0
I0
g1889
I4
tp1955
a(I1369
I5
I0
g1891
I4
tp1956
a(I1394
I9
F-0.875
S'low'
p1957
I4
tp1958
a(I1396
I11
I0
g1893
I4
tp1959
a(I1440
I5
I0
g1895
I4
tp1960
a(I1451
I7
I0
g1897
I4
tp1961
a(I1488
I0
I0
g1899
I4
tp1962
a(I1511
I0
I0
g1901
I4
tp1963
as(S'on'
p1964
S'sd'
p1965
S'card'
p1966
tp1967
(lp1968
(I89
I18
F0.875
g865
I0
tp1969
a(I155
I5
F0.375
g873
I0
tp1970
a(I325
I11
F0.125
g878
I0
tp1971
a(I619
I21
F0.625
g884
I0
tp1972
as(S'android'
p1973
tp1974
(lp1975
(I13
I5
I0
S'capacitive'
p1976
I3
tp1977
a(I17
I12
F1.0
S'good'
p1978
I3
tp1979
a(I155
I5
F0.5
S'older'
p1980
I3
tp1981
a(I197
I1
F1.0
S'better'
p1982
I3
tp1983
a(I324
I1
F1.0
S'better'
p1984
I3
tp1985
a(I549
I0
F0.125
S'frequent'
p1986
I3
tp1987
a(I916
I2
F1.0
S'good'
p1988
I3
tp1989
a(I960
I0
F0.5
S'second'
p1990
I3
tp1991
as(S'replacement'
p1992
tp1993
(lp1994
(I14
I23
F-0.25
S'i'
p1995
I14
tp1996
a(I185
I3
F-0.75
S'unused'
p1997
I14
tp1998
a(I320
I6
F0.5
S'eligible'
p1999
I14
tp2000
a(I939
I22
F-0.25
S'i'
p2001
I14
tp2002
a(I939
I55
F-0.25
S'i'
p2003
I14
tp2004
a(I955
I1
F-0.125
S'such'
p2005
I14
tp2006
a(I1445
I0
F-0.625
S'new'
p2007
I14
tp2008
as(S'to'
p2009
S'service'
p2010
S'center'
p2011
tp2012
(lp2013
(I14
I24
F-0.25
S'i'
p2014
I0
tp2015
a(I422
I26
F-0.75
S'difficult'
p2016
I0
tp2017
a(I422
I26
F0.125
S'mobile'
p2018
I0
tp2019
a(I551
I6
F-1.0
S'bad'
p2020
I0
tp2021
a(I957
I10
I0
S'many'
p2022
I0
tp2023
a(I14
I24
F-0.25
g2014
I5
tp2024
a(I422
I26
F-0.75
g2016
I5
tp2025
a(I422
I26
F0.125
g2018
I5
tp2026
a(I551
I6
F-1.0
g2020
I5
tp2027
a(I684
I7
F1.0
S'good'
p2028
I5
tp2029
a(I957
I10
I0
g2022
I5
tp2030
a(I958
I8
F-1.0
S'worst'
p2031
I5
tp2032
as(S'no'
p2033
S'heating'
p2034
S'problem'
p2035
tp2036
(lp2037
(I95
I1
F0.625
S'major'
p2038
I1
tp2039
a(I348
I12
F-0.25
S'i'
p2040
I1
tp2041
a(I358
I9
I0
S'hrs'
p2042
I1
tp2043
a(I358
I9
F0.125
S'mobile'
p2044
I1
tp2045
a(I43
I1
F0.625
S'major'
p2046
I6
tp2047
a(I60
I0
F0.625
S'major'
p2048
I6
tp2049
a(I95
I1
F0.625
g2038
I6
tp2050
a(I121
I2
F-0.5
S'slow'
p2051
I6
tp2052
a(I338
I16
F0.625
S'major'
p2053
I6
tp2054
a(I348
I12
F-0.25
g2040
I6
tp2055
a(I358
I9
I0
g2042
I6
tp2056
a(I358
I9
F0.125
g2044
I6
tp2057
a(I420
I2
I0
S't'
p2058
I6
tp2059
a(I511
I1
F0.375
S'much'
p2060
I6
tp2061
a(I544
I1
F-0.5
S'automatic'
p2062
I6
tp2063
a(I558
I10
I0
S'main'
p2064
I6
tp2065
a(I689
I32
F-0.625
S'new'
p2066
I6
tp2067
a(I744
I1
F0.625
S'major'
p2068
I6
tp2069
a(I1305
I3
F0.125
S'mobile'
p2070
I6
tp2071
as(S'nice'
p2072
S'product'
p2073
tp2074
(lp2075
(I208
I0
F0.875
S'nice'
p2076
I1
tp2077
a(I525
I4
F-1.0
g1036
I1
tp2078
a(I525
I4
F0.875
g1038
I1
tp2079
a(I537
I1
F0.875
S'nice'
p2080
I1
tp2081
a(I786
I38
F0.875
S'nice'
p2082
I1
tp2083
a(I871
I6
F0.875
S'happy'
p2084
I1
tp2085
a(I871
I6
F1.0
S'excellent'
p2086
I1
tp2087
a(I1104
I12
F0.875
S'nice'
p2088
I1
tp2089
a(I1165
I0
F0.875
S'nice'
p2090
I1
tp2091
a(I1165
I0
I0
S'light'
p2092
I1
tp2093
a(I1181
I0
F1.0
S'excellent'
p2094
I1
tp2095
a(I1193
I2
F0.875
g1058
I1
tp2096
a(I1229
I4
F0.75
S'perfect'
p2097
I1
tp2098
a(I1238
I1
F1.0
g1066
I1
tp2099
a(I1238
I1
F0.875
g1068
I1
tp2100
a(I1238
I1
F0.875
g1070
I1
tp2101
a(I1254
I13
F0.875
S'nice'
p2102
I1
tp2103
a(I1272
I0
F0.875
S'nice'
p2104
I1
tp2105
a(I1286
I2
F1.0
g1072
I1
tp2106
a(I1286
I2
F0.875
g1074
I1
tp2107
a(I1289
I5
F0.875
S'nice'
p2108
I1
tp2109
a(I1292
I0
F0.875
S'nice'
p2110
I1
tp2111
a(I1310
I8
F1.0
g1176
I1
tp2112
a(I1310
I8
F0.875
g1178
I1
tp2113
a(I1310
I9
F0.875
S'nice'
p2114
I1
tp2115
a(I1313
I0
F0.875
S'nice'
p2116
I1
tp2117
a(I1350
I0
F0.875
S'nice'
p2118
I1
tp2119
a(I1362
I0
F0.875
S'nice'
p2120
I1
tp2121
a(I1362
I0
I0
S'light'
p2122
I1
tp2123
a(I1383
I2
F0.875
S'nice'
p2124
I1
tp2125
a(I1391
I5
F1.0
g1199
I1
tp2126
a(I1459
I8
F1.0
g1213
I1
tp2127
a(I1505
I14
I0
S'delicate'
p2128
I1
tp2129
a(I1505
I14
I0
S'handy'
p2130
I1
tp2131
as(S'no'
p2132
S'heating'
p2133
S'issues'
p2134
tp2135
(lp2136
(I616
I1
F-0.625
S'last'
p2137
I0
tp2138
a(I983
I1
F1.0
g1426
I0
tp2139
a(I1042
I8
I0
S'lags'
p2140
I0
tp2141
a(I338
I66
F-0.75
S'little'
p2142
I0
tp2143
a(I616
I1
F-0.625
g2137
I0
tp2144
a(I983
I1
F1.0
g1426
I0
tp2145
a(I1042
I8
I0
g2140
I0
tp2146
a(I156
I24
F0.5
S'similar'
p2147
I4
tp2148
a(I172
I4
F-0.75
S'secondary'
p2149
I4
tp2150
a(I213
I7
I0
S'many'
p2151
I4
tp2152
a(I302
I36
F-0.375
S'same'
p2153
I4
tp2154
a(I338
I66
F-0.75
g2142
I4
tp2155
a(I591
I1
F-0.125
S'overall'
p2156
I4
tp2157
a(I616
I1
F-0.625
g2137
I4
tp2158
a(I707
I9
I0
S'lagging'
p2159
I4
tp2160
a(I766
I4
F0.625
S'major'
p2161
I4
tp2162
a(I953
I2
I0
S't'
p2163
I4
tp2164
a(I1042
I8
I0
g2140
I4
tp2165
as(S'a'
p2166
S'good'
p2167
S'product'
p2168
tp2169
(lp2170
(I95
I1
F1.0
g1094
I2
tp2171
a(I95
I1
F1.0
g1096
I2
tp2172
a(I338
I0
F1.0
g1098
I2
tp2173
a(I443
I0
F-0.625
g1100
I2
tp2174
a(I525
I4
F-1.0
g1036
I2
tp2175
a(I525
I4
F0.875
g1038
I2
tp2176
a(I543
I7
F1.0
g1104
I2
tp2177
a(I551
I13
F1.0
g1040
I2
tp2178
a(I558
I0
F0.5
g1107
I2
tp2179
a(I597
I0
F0.875
g1111
I2
tp2180
a(I661
I4
F1.0
g1113
I2
tp2181
a(I847
I14
F1.0
g1115
I2
tp2182
a(I958
I47
F1.0
g1117
I2
tp2183
a(I982
I1
F1.0
g1119
I2
tp2184
a(I1101
I2
F1.0
g1042
I2
tp2185
a(I1112
I9
F1.0
g1046
I2
tp2186
a(I1121
I5
F1.0
g1048
I2
tp2187
a(I1131
I7
F1.0
g1127
I2
tp2188
a(I1133
I0
F1.0
g1050
I2
tp2189
a(I1133
I0
F-0.875
g1052
I2
tp2190
a(I1139
I6
F1.0
g1131
I2
tp2191
a(I1139
I10
F0.375
g1133
I2
tp2192
a(I1145
I1
F1.0
g1135
I2
tp2193
a(I1145
I1
F1.0
g1137
I2
tp2194
a(I1150
I0
F1.0
g1139
I2
tp2195
a(I1153
I0
F1.0
g1141
I2
tp2196
a(I1153
I0
F1.0
g1143
I2
tp2197
a(I1154
I0
F1.0
g1145
I2
tp2198
a(I1162
I5
F1.0
g1147
I2
tp2199
a(I1193
I2
F0.875
g1058
I2
tp2200
a(I1216
I0
F1.0
g1064
I2
tp2201
a(I1222
I0
F0.875
g1159
I2
tp2202
a(I1229
I2
F1.0
g1161
I2
tp2203
a(I1238
I1
F1.0
g1066
I2
tp2204
a(I1238
I1
F0.875
g1068
I2
tp2205
a(I1238
I1
F0.875
g1070
I2
tp2206
a(I1238
I2
I-100
S'perchage'
p2207
I2
tp2208
a(I1260
I0
F1.0
g1170
I2
tp2209
a(I1286
I2
F1.0
g1072
I2
tp2210
a(I1286
I2
F0.875
g1074
I2
tp2211
a(I1296
I1
F1.0
g1174
I2
tp2212
a(I1310
I8
F1.0
g1176
I2
tp2213
a(I1310
I8
F0.875
g1178
I2
tp2214
a(I1312
I1
F1.0
g1076
I2
tp2215
a(I1339
I0
F1.0
g1183
I2
tp2216
a(I1346
I3
F1.0
g1187
I2
tp2217
a(I1368
I0
F1.0
g1189
I2
tp2218
a(I1373
I0
F1.0
g1191
I2
tp2219
a(I1375
I0
F-0.125
g1078
I2
tp2220
a(I1377
I0
F1.0
g1080
I2
tp2221
a(I1377
I0
F-0.75
g1082
I2
tp2222
a(I1386
I0
F1.0
g1084
I2
tp2223
a(I1391
I5
F1.0
g1199
I2
tp2224
a(I1404
I0
F1.0
g1201
I2
tp2225
a(I1415
I3
F-0.125
g1203
I2
tp2226
a(I1415
I3
F1.0
g1205
I2
tp2227
a(I1422
I19
F1.0
g1086
I2
tp2228
a(I1443
I1
F1.0
g1088
I2
tp2229
a(I1447
I2
F1.0
g1209
I2
tp2230
a(I1447
I5
F1.0
g1211
I2
tp2231
a(I1459
I8
F1.0
g1213
I2
tp2232
a(I1473
I3
F1.0
g1215
I2
tp2233
a(I1478
I6
F1.0
g1217
I2
tp2234
a(I1478
I11
F0.625
g1219
I2
tp2235
a(I1505
I9
F1.0
g1221
I2
tp2236
a(I1515
I16
F1.0
g1090
I2
tp2237
a(I1515
I16
F1.0
g1092
I2
tp2238
as(S'fine'
p2239
tp2240
(lp2241
(I430
I3
F0.625
S'super'
p2242
I15
tp2243
a(I1135
I0
F1.0
S'good'
p2244
I15
tp2245
a(I1508
I6
F-0.625
S'other'
p2246
I15
tp2247
a(I1508
I6
F0.375
S'working'
p2248
I15
tp2249
as(S'screen'
p2250
S'guard'
p2251
tp2252
(lp2253
(I326
I0
I0
S'screen'
p2254
I6
tp2255
a(I361
I1
I0
S'screen'
p2256
I6
tp2257
a(I361
I1
F0.375
S'available'
p2258
I6
tp2259
a(I453
I0
F-0.625
S'new'
p2260
I6
tp2261
a(I453
I0
I0
S'screen'
p2262
I6
tp2263
a(I486
I1
F-0.75
S'free'
p2264
I6
tp2265
a(I582
I6
I0
S'screen'
p2266
I6
tp2267
a(I728
I1
F-0.75
S'free'
p2268
I6
tp2269
a(I833
I1
I0
S'screen'
p2270
I6
tp2271
a(I847
I21
I0
S'screen'
p2272
I6
tp2273
a(I961
I2
F-0.75
S'free'
p2274
I6
tp2275
as(g2166
S'6000'
p2276
S'plus'
p2277
tp2278
(lp2279
(I939
I42
I0
g1494
I0
tp2280
a(I939
I75
I0
g1498
I0
tp2281
a(I1134
I0
I-100
S'a6000'
p2282
I0
tp2283
a(I1528
I0
F0.625
g1522
I0
tp2284
a(I939
I42
I0
g1494
I0
tp2285
a(I939
I75
I0
g1498
I0
tp2286
a(I1528
I0
F0.625
g1522
I0
tp2287
as(S'hours'
p2288
tp2289
(lp2290
(I121
I11
I0
S'few'
p2291
I14
tp2292
a(I121
I11
F-0.75
S'idle'
p2293
I14
tp2294
a(I134
I1
I0
S'u'
p2295
I14
tp2296
a(I163
I3
F-0.25
S'i'
p2297
I14
tp2298
a(I172
I0
F-0.625
S'last'
p2299
I14
tp2300
a(I172
I0
I0
S'more'
p2301
I14
tp2302
a(I302
I34
F-0.625
S'last'
p2303
I14
tp2304
a(I390
I8
I0
S'many'
p2305
I14
tp2306
a(I518
I7
I0
S'more'
p2307
I14
tp2308
a(I538
I5
I0
S'own'
p2309
I14
tp2310
a(I570
I1
I0
S'few'
p2311
I14
tp2312
a(I582
I9
I0
S'few'
p2313
I14
tp2314
a(I659
I5
F-0.125
S'huge'
p2315
I14
tp2316
a(I683
I3
F0.5
S'ready'
p2317
I14
tp2318
a(I779
I5
F-0.625
S'moderate'
p2319
I14
tp2320
a(I910
I6
F-0.625
S'moderate'
p2321
I14
tp2322
a(I937
I15
I0
S'few'
p2323
I14
tp2324
a(I958
I41
I0
S'u'
p2325
I14
tp2326
a(I958
I41
I0
S'u'
p2327
I14
tp2328
a(I986
I14
I0
S'more'
p2329
I14
tp2330
a(I1094
I0
F0.375
S'full'
p2331
I14
tp2332
a(I1395
I1
I0
S'continue'
p2333
I14
tp2334
as(S'good'
p2335
S'battery'
p2336
S'backup'
p2337
tp2338
(lp2339
(I36
I5
F1.0
S'good'
p2340
I0
tp2341
a(I145
I5
F1.0
S'good'
p2342
I0
tp2343
a(I149
I5
F1.0
S'good'
p2344
I0
tp2345
a(I302
I30
F1.0
S'good'
p2346
I0
tp2347
a(I358
I4
F1.0
S'good'
p2348
I0
tp2349
a(I406
I2
F1.0
S'good'
p2350
I0
tp2351
a(I536
I41
F1.0
S'good'
p2352
I0
tp2353
a(I592
I4
F1.0
S'good'
p2354
I0
tp2355
a(I596
I7
F0.875
S'nice'
p2356
I0
tp2357
a(I658
I5
F1.0
S'good'
p2358
I0
tp2359
a(I672
I2
F1.0
S'good'
p2360
I0
tp2361
a(I672
I2
F1.0
S'good'
p2362
I0
tp2363
a(I676
I9
F1.0
S'good'
p2364
I0
tp2365
a(I676
I9
F-0.5
S'long'
p2366
I0
tp2367
a(I680
I0
F1.0
S'good'
p2368
I0
tp2369
a(I749
I6
F1.0
S'good'
p2370
I0
tp2371
a(I763
I5
F1.0
S'good'
p2372
I0
tp2373
a(I763
I5
F0.875
S'formidable'
p2374
I0
tp2375
a(I765
I17
F1.0
S'good'
p2376
I0
tp2377
a(I832
I0
F1.0
S'good'
p2378
I0
tp2379
a(I849
I0
F1.0
S'good'
p2380
I0
tp2381
a(I872
I1
F1.0
S'good'
p2382
I0
tp2383
a(I1102
I5
F1.0
S'good'
p2384
I0
tp2385
a(I1111
I2
F1.0
S'good'
p2386
I0
tp2387
a(I1127
I0
F1.0
S'good'
p2388
I0
tp2389
a(I1162
I3
F1.0
S'good'
p2390
I0
tp2391
a(I1252
I5
F1.0
S'good'
p2392
I0
tp2393
a(I1276
I2
F1.0
S'good'
p2394
I0
tp2395
a(I1295
I0
F1.0
S'good'
p2396
I0
tp2397
a(I1362
I4
F1.0
S'good'
p2398
I0
tp2399
a(I1363
I1
F1.0
S'good'
p2400
I0
tp2401
a(I1382
I4
F1.0
S'good'
p2402
I0
tp2403
a(I1450
I0
F1.0
S'excellent'
p2404
I0
tp2405
a(I1450
I0
F0.25
S'worth'
p2406
I0
tp2407
a(I1450
I0
F0.375
S'full'
p2408
I0
tp2409
a(I1514
I1
F1.0
S'good'
p2410
I0
tp2411
as(S'back'
p2412
S'cover'
p2413
tp2414
(lp2415
(I13
I38
F-0.125
S'back'
p2416
I2
tp2417
a(I175
I1
F-0.125
S'back'
p2418
I2
tp2419
a(I302
I23
I0
S'local'
p2420
I2
tp2421
a(I362
I1
F-0.25
S'matt'
p2422
I2
tp2423
a(I362
I1
F0.625
S'finish'
p2424
I2
tp2425
a(I362
I1
F1.0
S'good'
p2426
I2
tp2427
a(I660
I10
F-0.125
S'back'
p2428
I2
tp2429
a(I833
I4
F-0.125
S'back'
p2430
I2
tp2431
a(I891
I0
F-0.125
S'back'
p2432
I2
tp2433
a(I891
I0
F1.0
S'good'
p2434
I2
tp2435
a(I1454
I10
F-0.125
S'back'
p2436
I2
tp2437
a(I1454
I10
F-0.375
S'tactile'
p2438
I2
tp2439
a(I1454
I10
F-0.25
S'i'
p2440
I2
tp2441
a(I1497
I0
F-0.125
S'back'
p2442
I2
tp2443
as(S'lenovo'
p2444
S'a6000'
p2445
tp2446
(lp2447
(I31
I26
F-0.75
g1486
I0
tp2448
a(I85
I8
F0.5
g1488
I0
tp2449
a(I89
I0
F0.125
g1508
I0
tp2450
a(I101
I1
F0.875
g1532
I0
tp2451
a(I281
I6
F-0.875
g1534
I0
tp2452
a(I302
I3
F1.0
g1490
I0
tp2453
a(I418
I3
F0.875
g1539
I0
tp2454
a(I562
I0
F1.0
g1543
I0
tp2455
a(I627
I2
F-0.25
g1511
I0
tp2456
a(I792
I2
F1.0
g1513
I0
tp2457
a(I939
I13
F-0.25
S'i'
p2458
I0
tp2459
a(I939
I46
F-0.25
S'i'
p2460
I0
tp2461
a(I1133
I6
F0.875
g1554
I0
tp2462
a(I1362
I14
F0.125
S'mobile'
p2463
I0
tp2464
a(I1422
I19
I0
S'more'
p2465
I0
tp2466
a(I1449
I0
F1.0
S'good'
p2467
I0
tp2468
a(I1453
I4
I-100
S'onwer'
p2469
I0
tp2470
a(I1502
I24
F-0.25
g1504
I0
tp2471
a(I1505
I13
F1.0
S'good'
p2472
I0
tp2473
a(I14
I0
F0.375
S'much'
p2474
I1
tp2475
a(I14
I6
F-0.875
S'cheap'
p2476
I1
tp2477
a(I14
I11
F-0.875
S'smart'
p2478
I1
tp2479
a(I41
I0
F-0.5
S'disappointed'
p2480
I1
tp2481
a(I61
I11
F-0.75
S'difficult'
p2482
I1
tp2483
a(I302
I13
F-0.625
S'absent'
p2484
I1
tp2485
a(I323
I0
I0
S'2nd'
p2486
I1
tp2487
a(I338
I45
F0.5
S'similar'
p2488
I1
tp2489
a(I434
I11
I0
S'many'
p2490
I1
tp2491
a(I521
I2
F-0.25
S'i'
p2492
I1
tp2493
a(I525
I4
F0.75
S'dear'
p2494
I1
tp2495
a(I526
I23
I0
S'wish'
p2496
I1
tp2497
a(I538
I2
F-0.875
S'poor'
p2498
I1
tp2499
a(I595
I1
F-1.0
S'bad'
p2500
I1
tp2501
a(I733
I4
I0
S'update'
p2502
I1
tp2503
a(I742
I0
F-0.5
S'disappointed'
p2504
I1
tp2505
a(I786
I2
I-100
S'prity'
p2506
I1
tp2507
a(I786
I2
F1.0
S'good'
p2508
I1
tp2509
a(I939
I13
F-0.25
g2458
I1
tp2510
a(I939
I46
F-0.25
g2460
I1
tp2511
a(I986
I2
F0.125
S'mobile'
p2512
I1
tp2513
a(I1084
I0
I0
S's'
p2514
I1
tp2515
a(I1229
I4
F0.875
S'nice'
p2516
I1
tp2517
a(I1272
I1
F-0.75
S'little'
p2518
I1
tp2519
a(I1342
I1
F-0.25
S'i'
p2520
I1
tp2521
a(I1362
I14
F0.125
g2463
I1
tp2522
a(I1382
I0
F-0.25
S'i'
p2523
I1
tp2524
a(I1422
I19
I0
g2465
I1
tp2525
a(I1449
I0
F1.0
g2467
I1
tp2526
a(I1467
I0
I0
S'n'
p2527
I1
tp2528
a(I1502
I13
F-0.25
S'i'
p2529
I1
tp2530
a(I1505
I13
F1.0
g2472
I1
tp2531
as(S'bought'
p2532
tp2533
(lp2534
(I467
I1
I0
S'few'
p2535
I14
tp2536
a(I958
I44
F1.0
S'excellent'
p2537
I14
tp2538
as(S'dolby'
p2539
S'digital'
p2540
tp2541
(lp2542
(I171
I3
F0.125
S'digital'
p2543
I0
tp2544
a(I218
I1
F0.125
S'digital'
p2545
I0
tp2546
a(I681
I1
F0.125
S'digital'
p2547
I0
tp2548
a(I965
I1
I0
S'dolby'
p2549
I0
tp2550
a(I13
I30
F-0.625
S'real'
p2551
I0
tp2552
a(I115
I2
F1.0
S'better'
p2553
I0
tp2554
a(I171
I3
F0.125
g2543
I0
tp2555
a(I218
I1
F0.125
g2545
I0
tp2556
a(I301
I3
I0
S'audio'
p2557
I0
tp2558
a(I348
I1
F0.75
S'sound'
p2559
I0
tp2560
a(I371
I1
I0
S'clear'
p2561
I0
tp2562
a(I681
I1
F0.125
g2547
I0
tp2563
a(I786
I9
F0.375
S'impressive'
p2564
I0
tp2565
a(I809
I4
F0.25
S'worth'
p2566
I0
tp2567
a(I1016
I5
F0.75
S'give'
p2568
I0
tp2569
a(I1317
I1
F0.875
S'great'
p2570
I0
tp2571
a(I1502
I12
F0.875
S'awesome'
p2572
I0
tp2573
as(S'good'
p2574
S'for'
p2575
S'price'
p2576
tp2577
(lp2578
(I447
I0
F1.0
S'good'
p2579
I0
tp2580
a(I536
I9
F1.0
S'best'
p2581
I0
tp2582
a(I536
I9
F0.875
S'awesome'
p2583
I0
tp2584
a(I925
I1
F1.0
S'best'
p2585
I0
tp2586
a(I1182
I3
F-0.125
S'overall'
p2587
I0
tp2588
a(I1224
I0
F1.0
S'good'
p2589
I0
tp2590
a(I1279
I3
F1.0
S'best'
p2591
I0
tp2592
a(I1342
I10
F1.0
g1693
I0
tp2593
a(I1352
I3
F1.0
g1695
I0
tp2594
a(I1352
I3
F1.0
g1697
I0
tp2595
a(I1352
I3
I0
g1699
I0
tp2596
as(S'speed'
p2597
tp2598
(lp2599
(I359
I2
F0.875
S'great'
p2600
I14
tp2601
a(I536
I25
F1.0
S'good'
p2602
I14
tp2603
a(I563
I6
F1.0
S'good'
p2604
I14
tp2605
a(I563
I6
F1.0
S'best'
p2606
I14
tp2607
a(I672
I0
F1.0
S'good'
p2608
I14
tp2609
a(I687
I2
F0.5
S'high'
p2610
I14
tp2611
a(I823
I0
F1.0
S'excellent'
p2612
I14
tp2613
a(I841
I1
F1.0
S'good'
p2614
I14
tp2615
a(I863
I0
F-0.875
S'low'
p2616
I14
tp2617
a(I926
I0
F0.125
S'mobile'
p2618
I14
tp2619
a(I1047
I1
F-0.5
S'slow'
p2620
I14
tp2621
a(I1112
I8
F1.0
S'good'
p2622
I14
tp2623
a(I1194
I0
F1.0
S'good'
p2624
I14
tp2625
a(I1197
I2
F0.875
S'decent'
p2626
I14
tp2627
a(I1272
I2
F1.0
S'good'
p2628
I14
tp2629
a(I1320
I2
F0.5
S'high'
p2630
I14
tp2631
a(I1435
I3
F1.0
S'good'
p2632
I14
tp2633
a(I1440
I6
F1.0
S'good'
p2634
I14
tp2635
a(I1453
I0
F0.625
S'super'
p2636
I14
tp2637
a(I1454
I6
F1.0
S'good'
p2638
I14
tp2639
a(I1505
I4
F0.875
S'awesome'
p2640
I14
tp2641
as(S'decent'
p2642
tp2643
(lp2644
(I641
I3
F1.0
S'good'
p2645
I4
tp2646
as(S'smooth'
p2647
tp2648
(lp2649
(I587
I0
F0.5
S'touch'
p2650
I3
tp2651
a(I619
I7
I0
S'ultra'
p2652
I3
tp2653
a(I619
I7
F0.5
S'touch'
p2654
I3
tp2655
a(I825
I6
F1.0
S'excellent'
p2656
I3
tp2657
a(I825
I6
F0.125
S'mobile'
p2658
I3
tp2659
a(I825
I6
F0.5
S'touch'
p2660
I3
tp2661
a(I1147
I6
F0.5
S'touch'
p2662
I3
tp2663
a(I1310
I1
F0.75
S'fantastic'
p2664
I3
tp2665
as(S'good'
p2666
S'battery'
p2667
S'life'
p2668
tp2669
(lp2670
(I689
I26
F1.0
S'good'
p2671
I0
tp2672
a(I713
I6
F1.0
S'good'
p2673
I0
tp2674
a(I802
I7
F1.0
S'good'
p2675
I0
tp2676
a(I821
I1
F1.0
S'good'
p2677
I0
tp2678
a(I1050
I1
F0.75
S'wonderful'
p2679
I0
tp2680
a(I1112
I10
F1.0
S'good'
p2681
I0
tp2682
a(I1145
I0
F1.0
S'good'
p2683
I0
tp2684
a(I1155
I0
F1.0
S'good'
p2685
I0
tp2686
a(I1192
I2
F1.0
S'good'
p2687
I0
tp2688
a(I1242
I4
F1.0
S'good'
p2689
I0
tp2690
a(I1259
I1
F1.0
S'good'
p2691
I0
tp2692
a(I1279
I6
F1.0
S'good'
p2693
I0
tp2694
a(I1280
I4
F1.0
S'good'
p2695
I0
tp2696
a(I1319
I4
F-0.25
S'battery'
p2697
I0
tp2698
a(I1319
I4
F1.0
S'good'
p2699
I0
tp2700
a(I1345
I2
F1.0
S'good'
p2701
I0
tp2702
a(I1350
I1
F1.0
S'good'
p2703
I0
tp2704
a(I1376
I1
F1.0
S'good'
p2705
I0
tp2706
a(I1391
I3
F1.0
S'good'
p2707
I0
tp2708
a(I1435
I0
F1.0
S'good'
p2709
I0
tp2710
a(I16
I2
F1.0
S'good'
p2711
I1
tp2712
a(I36
I5
F1.0
g2340
I1
tp2713
a(I145
I5
F1.0
g2342
I1
tp2714
a(I149
I5
F1.0
g2344
I1
tp2715
a(I302
I30
F1.0
g2346
I1
tp2716
a(I536
I41
F1.0
g2352
I1
tp2717
a(I658
I5
F1.0
g2358
I1
tp2718
a(I672
I2
F1.0
g2360
I1
tp2719
a(I672
I2
F1.0
g2362
I1
tp2720
a(I680
I0
F1.0
g2368
I1
tp2721
a(I763
I5
F1.0
g2372
I1
tp2722
a(I763
I5
F0.875
g2374
I1
tp2723
a(I765
I17
F1.0
g2376
I1
tp2724
a(I832
I0
F1.0
g2378
I1
tp2725
a(I885
I0
F1.0
S'good'
p2726
I1
tp2727
a(I958
I23
F1.0
S'good'
p2728
I1
tp2729
a(I1050
I1
F0.75
g2679
I1
tp2730
a(I1102
I5
F1.0
g2384
I1
tp2731
a(I1111
I2
F1.0
g2386
I1
tp2732
a(I1112
I10
F1.0
g2681
I1
tp2733
a(I1145
I0
F1.0
g2683
I1
tp2734
a(I1155
I0
F1.0
g2685
I1
tp2735
a(I1168
I0
F1.0
S'excellent'
p2736
I1
tp2737
a(I1192
I2
F1.0
g2687
I1
tp2738
a(I1194
I0
F-0.75
S'little'
p2739
I1
tp2740
a(I1194
I0
F0.375
S'ok'
p2741
I1
tp2742
a(I1196
I0
F1.0
S'good'
p2743
I1
tp2744
a(I1215
I8
F1.0
S'good'
p2745
I1
tp2746
a(I1239
I5
F1.0
S'good'
p2747
I1
tp2748
a(I1242
I4
F1.0
g2689
I1
tp2749
a(I1251
I0
F1.0
S'good'
p2750
I1
tp2751
a(I1251
I0
F0.25
S'able'
p2752
I1
tp2753
a(I1252
I5
F1.0
g2392
I1
tp2754
a(I1259
I1
F1.0
g2691
I1
tp2755
a(I1276
I2
F1.0
g2394
I1
tp2756
a(I1280
I4
F1.0
g2695
I1
tp2757
a(I1295
I0
F1.0
g2396
I1
tp2758
a(I1318
I4
F0.875
S'nice'
p2759
I1
tp2760
a(I1350
I1
F1.0
g2703
I1
tp2761
a(I1353
I1
F-0.625
S'lasting'
p2762
I1
tp2763
a(I1363
I1
F1.0
g2400
I1
tp2764
a(I1367
I2
F-0.75
S'little'
p2765
I1
tp2766
a(I1367
I2
F-0.875
S'unhappy'
p2767
I1
tp2768
a(I1367
I2
F1.0
S'good'
p2769
I1
tp2770
a(I1376
I1
F1.0
g2705
I1
tp2771
a(I1382
I4
F1.0
g2402
I1
tp2772
a(I1391
I3
F1.0
g2707
I1
tp2773
a(I1406
I2
F1.0
S'good'
p2774
I1
tp2775
a(I1435
I0
F1.0
g2709
I1
tp2776
a(I1450
I0
F1.0
g2404
I1
tp2777
a(I1527
I1
F1.0
S'good'
p2778
I1
tp2779
a(I1527
I1
F1.0
S'good'
p2780
I1
tp2781
a(I305
I0
I0
S'bright'
p2782
I3
tp2783
a(I338
I61
F-1.0
S'bad'
p2784
I3
tp2785
a(I341
I14
F0.875
S'awesome'
p2786
I3
tp2787
a(I348
I14
F0.875
S'decent'
p2788
I3
tp2789
a(I422
I24
F-0.875
S'pathetic'
p2790
I3
tp2791
a(I510
I0
I0
S'ups'
p2792
I3
tp2793
a(I510
I0
F-1.0
S'worst'
p2794
I3
tp2795
a(I689
I26
F1.0
g2671
I3
tp2796
a(I713
I6
F1.0
g2673
I3
tp2797
a(I773
I12
F0.875
S'decent'
p2798
I3
tp2799
a(I802
I7
F1.0
g2675
I3
tp2800
a(I821
I1
F1.0
g2677
I3
tp2801
a(I895
I0
I0
S'bright'
p2802
I3
tp2803
a(I1050
I1
F0.75
g2679
I3
tp2804
a(I1112
I10
F1.0
g2681
I3
tp2805
a(I1113
I4
F-0.875
S'pathetic'
p2806
I3
tp2807
a(I1145
I0
F1.0
g2683
I3
tp2808
a(I1155
I0
F1.0
g2685
I3
tp2809
a(I1192
I2
F1.0
g2687
I3
tp2810
a(I1242
I4
F1.0
g2689
I3
tp2811
a(I1259
I1
F1.0
g2691
I3
tp2812
a(I1279
I6
F1.0
g2693
I3
tp2813
a(I1280
I4
F1.0
g2695
I3
tp2814
a(I1306
I1
F0.875
S'decent'
p2815
I3
tp2816
a(I1319
I4
F-0.25
g2697
I3
tp2817
a(I1319
I4
F1.0
g2699
I3
tp2818
a(I1345
I2
F1.0
g2701
I3
tp2819
a(I1350
I1
F1.0
g2703
I3
tp2820
a(I1376
I1
F1.0
g2705
I3
tp2821
a(I1391
I3
F1.0
g2707
I3
tp2822
a(I1401
I0
F-0.25
S'battery'
p2823
I3
tp2824
a(I1435
I0
F1.0
g2709
I3
tp2825
a(I305
I0
I0
g2782
I8
tp2826
a(I338
I61
F-1.0
g2784
I8
tp2827
a(I341
I14
F0.875
g2786
I8
tp2828
a(I348
I14
F0.875
g2788
I8
tp2829
a(I689
I26
F1.0
g2671
I8
tp2830
a(I713
I6
F1.0
g2673
I8
tp2831
a(I773
I12
F0.875
g2798
I8
tp2832
a(I802
I7
F1.0
g2675
I8
tp2833
a(I821
I1
F1.0
g2677
I8
tp2834
a(I895
I0
I0
g2802
I8
tp2835
a(I1107
I0
F1.0
S'good'
p2836
I8
tp2837
a(I1107
I0
I-100
S'bettary'
p2838
I8
tp2839
a(I1181
I15
F-0.875
S'low'
p2840
I8
tp2841
a(I1210
I2
I-100
S'cooolll'
p2842
I8
tp2843
a(I1279
I6
F1.0
g2693
I8
tp2844
a(I1289
I1
F1.0
S'good'
p2845
I8
tp2846
a(I1319
I4
F-0.25
g2697
I8
tp2847
a(I1319
I4
F1.0
g2699
I8
tp2848
a(I1345
I2
F1.0
g2701
I8
tp2849
a(I1351
I0
F1.0
S'good'
p2850
I8
tp2851
a(I1401
I0
F-0.25
g2823
I8
tp2852
as(S'camera'
p2853
S'nice'
p2854
S'flash'
p2855
tp2856
(lp2857
(I36
I1
I0
g224
I0
tp2858
a(I36
I1
F0.875
g226
I0
tp2859
a(I145
I1
I0
g240
I0
tp2860
a(I145
I1
F0.875
g242
I0
tp2861
a(I149
I1
I0
g246
I0
tp2862
a(I149
I1
F0.875
g248
I0
tp2863
a(I1102
I1
I0
g302
I0
tp2864
a(I1102
I1
F0.875
g304
I0
tp2865
a(I1111
I1
I0
g308
I0
tp2866
a(I1111
I1
F0.875
g310
I0
tp2867
a(I1252
I1
I0
g314
I0
tp2868
a(I1252
I1
F0.875
g316
I0
tp2869
as(S'user'
p2870
tp2871
(lp2872
(I13
I22
F0.875
S'great'
p2873
I9
tp2874
a(I16
I2
F-0.625
S'moderate'
p2875
I9
tp2876
a(I16
I2
F-0.625
S'moderate'
p2877
I9
tp2878
a(I60
I19
I0
S'internet'
p2879
I9
tp2880
a(I85
I4
F-0.25
S'unaware'
p2881
I9
tp2882
a(I104
I1
F0.375
S'available'
p2883
I9
tp2884
a(I163
I3
F-0.625
S'average'
p2885
I9
tp2886
a(I303
I7
F-0.778
S'common'
p2887
I9
tp2888
a(I338
I5
F0.125
S'provide'
p2889
I9
tp2890
a(I338
I5
F1.0
S'good'
p2891
I9
tp2892
a(I338
I64
F-0.75
S'casual'
p2893
I9
tp2894
a(I414
I0
I0
S'net'
p2895
I9
tp2896
a(I773
I12
F-0.5
S'heavy'
p2897
I9
tp2898
a(I773
I12
F-0.625
S'last'
p2899
I9
tp2900
a(I893
I0
F-0.778
S'common'
p2901
I9
tp2902
a(I1319
I3
F-0.5
S'heavy'
p2903
I9
tp2904
a(I1470
I0
I0
S'normal'
p2905
I9
tp2906
as(S'manufacturing'
p2907
S'defects'
p2908
tp2909
(lp2910
(I32
I6
I0
S'few'
p2911
I0
tp2912
as(S'great'
p2913
tp2914
(lp2915
(I514
I0
F0.75
S'sound'
p2916
I5
tp2917
a(I1142
I0
F-0.25
S'i'
p2918
I5
tp2919
a(I1227
I0
F0.125
S'mobile'
p2920
I5
tp2921
a(I1502
I22
F0.125
S'mobile'
p2922
I5
tp2923
as(S'display'
p2924
tp2925
(lp2926
(I4
I5
F1.0
S'good'
p2927
I13
tp2928
a(I24
I5
F1.0
S'good'
p2929
I13
tp2930
a(I37
I1
F0.875
S'amazing'
p2931
I13
tp2932
a(I146
I1
F0.875
S'amazing'
p2933
I13
tp2934
a(I150
I1
F0.875
S'amazing'
p2935
I13
tp2936
a(I185
I1
F0.5
S'touch'
p2937
I13
tp2938
a(I267
I1
F0.625
S'smooth'
p2939
I13
tp2940
a(I267
I1
F0.625
S'vibrant'
p2941
I13
tp2942
a(I338
I1
F-0.625
S'sharp'
p2943
I13
tp2944
a(I338
I1
I0
S'bright'
p2945
I13
tp2946
a(I359
I2
F0.875
S'happier'
p2947
I13
tp2948
a(I419
I0
F-0.625
S'sharp'
p2949
I13
tp2950
a(I455
I13
F0.875
S'great'
p2951
I13
tp2952
a(I478
I7
F1.0
S'good'
p2953
I13
tp2954
a(I492
I0
F1.0
S'excellent'
p2955
I13
tp2956
a(I546
I3
F-0.875
S'poor'
p2957
I13
tp2958
a(I559
I1
I0
S'screen'
p2959
I13
tp2960
a(I582
I18
F0.75
S'fantastic'
p2961
I13
tp2962
a(I592
I3
I0
S'pretty'
p2963
I13
tp2964
a(I592
I3
F-0.625
S'sharp'
p2965
I13
tp2966
a(I617
I3
F0.875
S'awesome'
p2967
I13
tp2968
a(I619
I13
F0.875
S'brilliant'
p2969
I13
tp2970
a(I659
I1
F0.875
S'amazing'
p2971
I13
tp2972
a(I724
I22
F1.0
S'good'
p2973
I13
tp2974
a(I735
I2
F0.125
S'colorful'
p2975
I13
tp2976
a(I735
I2
I0
S'bright'
p2977
I13
tp2978
a(I763
I0
I0
S'more'
p2979
I13
tp2980
a(I786
I12
F0.875
S'solid'
p2981
I13
tp2982
a(I796
I3
F0.875
S'amazing'
p2983
I13
tp2984
a(I802
I6
F1.0
S'good'
p2985
I13
tp2986
a(I802
I6
I0
S'dolby'
p2987
I13
tp2988
a(I821
I6
F0.75
S'fantastic'
p2989
I13
tp2990
a(I838
I1
F1.0
S'good'
p2991
I13
tp2992
a(I870
I0
F0.625
S'vibrant'
p2993
I13
tp2994
a(I886
I0
F0.875
S'nice'
p2995
I13
tp2996
a(I891
I1
F1.0
S'good'
p2997
I13
tp2998
a(I913
I10
F0.625
S'vibrant'
p2999
I13
tp3000
a(I918
I0
F1.0
S'excellent'
p3001
I13
tp3002
a(I928
I0
I0
S'bright'
p3003
I13
tp3004
a(I928
I0
I0
S'clear'
p3005
I13
tp3006
a(I939
I24
F-0.75
S'faulty'
p3007
I13
tp3008
a(I939
I57
F-0.75
S'faulty'
p3009
I13
tp3010
a(I962
I0
F1.0
S'good'
p3011
I13
tp3012
a(I994
I2
I0
S'screen'
p3013
I13
tp3014
a(I994
I2
F-1.0
S'bad'
p3015
I13
tp3016
a(I1013
I0
F1.0
S'excellent'
p3017
I13
tp3018
a(I1032
I1
F-1.0
S'worst'
p3019
I13
tp3020
a(I1051
I2
F1.0
S'good'
p3021
I13
tp3022
a(I1086
I2
F-0.875
S'poor'
p3023
I13
tp3024
a(I1103
I1
F0.875
S'amazing'
p3025
I13
tp3026
a(I1112
I17
I0
S'camera'
p3027
I13
tp3028
a(I1137
I1
F1.0
S'good'
p3029
I13
tp3030
a(I1137
I1
F0.875
S'nice'
p3031
I13
tp3032
a(I1139
I2
F1.0
S'good'
p3033
I13
tp3034
a(I1156
I0
F1.0
S'good'
p3035
I13
tp3036
a(I1165
I0
I-100
S'sbapdragon'
p3037
I13
tp3038
a(I1165
I0
F0.875
S'great'
p3039
I13
tp3040
a(I1170
I2
F1.0
S'good'
p3041
I13
tp3042
a(I1194
I0
F0.875
S'nice'
p3043
I13
tp3044
a(I1202
I1
F1.0
S'good'
p3045
I13
tp3046
a(I1242
I4
F0.875
S'decent'
p3047
I13
tp3048
a(I1253
I1
F0.875
S'amazing'
p3049
I13
tp3050
a(I1259
I1
F1.0
S'good'
p3051
I13
tp3052
a(I1283
I2
F1.0
S'good'
p3053
I13
tp3054
a(I1307
I0
F1.0
S'good'
p3055
I13
tp3056
a(I1307
I0
F0.875
S'nice'
p3057
I13
tp3058
a(I1315
I0
F0.875
S'amazing'
p3059
I13
tp3060
a(I1362
I0
F0.875
S'great'
p3061
I13
tp3062
a(I1396
I9
F1.0
S'good'
p3063
I13
tp3064
a(I1466
I9
F0.875
S'nice'
p3065
I13
tp3066
a(I1466
I9
F-0.125
S'front'
p3067
I13
tp3068
as(S'awesome'
p3069
tp3070
(lp3071
(I159
I0
I0
S'light'
p3072
I6
tp3073
a(I194
I4
F0.875
S'great'
p3074
I6
tp3075
a(I708
I0
F-0.5
S'loud'
p3076
I6
tp3077
a(I1355
I0
F0.125
S'mobile'
p3078
I6
tp3079
a(I1396
I10
I-100
S'tottaly'
p3080
I6
tp3081
as(S'ring'
p3082
S'tone'
p3083
tp3084
(lp3085
(I521
I9
F1.0
S'mild'
p3086
I2
tp3087
a(I521
I9
F0.5
S'intact'
p3088
I2
tp3089
as(S'rear'
p3090
S'camera'
p3091
tp3092
(lp3093
(I15
I2
I0
g330
I6
tp3094
a(I15
I2
F0.875
g332
I6
tp3095
a(I15
I2
I0
g334
I6
tp3096
a(I15
I5
I0
S'rear'
p3097
I6
tp3098
a(I36
I1
I0
g224
I6
tp3099
a(I36
I1
F0.875
g226
I6
tp3100
a(I47
I4
I0
S'rear'
p3101
I6
tp3102
a(I145
I1
I0
g240
I6
tp3103
a(I145
I1
F0.875
g242
I6
tp3104
a(I149
I1
I0
g246
I6
tp3105
a(I149
I1
F0.875
g248
I6
tp3106
a(I220
I1
I0
S't'
p3107
I6
tp3108
a(I275
I1
I0
S'rear'
p3109
I6
tp3110
a(I275
I1
F-1.0
S'bad'
p3111
I6
tp3112
a(I283
I1
I0
S'rear'
p3113
I6
tp3114
a(I325
I7
F1.0
g359
I6
tp3115
a(I358
I11
F1.0
g262
I6
tp3116
a(I358
I11
F-0.125
g264
I6
tp3117
a(I358
I11
I0
g266
I6
tp3118
a(I369
I1
I0
g268
I6
tp3119
a(I369
I1
F-0.625
g270
I6
tp3120
a(I481
I2
I0
g388
I6
tp3121
a(I481
I2
F1.0
g390
I6
tp3122
a(I503
I4
I0
S'rear'
p3123
I6
tp3124
a(I509
I11
F1.0
g392
I6
tp3125
a(I509
I11
I0
S'font'
p3126
I6
tp3127
a(I658
I1
I0
g276
I6
tp3128
a(I689
I38
I0
S'rear'
p3129
I6
tp3130
a(I689
I38
F-0.875
S'poor'
p3131
I6
tp3132
a(I705
I1
F1.0
S'good'
p3133
I6
tp3134
a(I705
I1
I0
g421
I6
tp3135
a(I724
I24
F1.0
g423
I6
tp3136
a(I789
I1
F1.0
g438
I6
tp3137
a(I870
I4
I0
g292
I6
tp3138
a(I870
I4
F-0.125
g294
I6
tp3139
a(I870
I4
F1.0
g296
I6
tp3140
a(I996
I0
I0
g600
I6
tp3141
a(I1057
I0
I0
S'mp'
p3142
I6
tp3143
a(I1102
I1
I0
g302
I6
tp3144
a(I1102
I1
F0.875
g304
I6
tp3145
a(I1111
I1
I0
g308
I6
tp3146
a(I1111
I1
F0.875
g310
I6
tp3147
a(I1133
I4
I0
g614
I6
tp3148
a(I1133
I4
F-0.125
g616
I6
tp3149
a(I1207
I0
I0
g477
I6
tp3150
a(I1207
I0
F1.0
g479
I6
tp3151
a(I1252
I1
I0
g314
I6
tp3152
a(I1252
I1
F0.875
g316
I6
tp3153
a(I1499
I0
I0
S'rear'
p3154
I6
tp3155
a(I1499
I0
I0
S'clear'
p3156
I6
tp3157
a(I1505
I8
I0
S'rear'
p3158
I6
tp3159
as(S'sound'
p3160
S'quality'
p3161
S'earphone'
p3162
tp3163
(lp3164
(I36
I3
F1.0
S'excellent'
p3165
I0
tp3166
a(I145
I3
F1.0
S'excellent'
p3167
I0
tp3168
a(I149
I3
F1.0
S'excellent'
p3169
I0
tp3170
a(I205
I13
F0.75
S'sound'
p3171
I0
tp3172
a(I333
I9
F1.0
S'good'
p3173
I0
tp3174
a(I333
I9
F0.875
S'awesome'
p3175
I0
tp3176
a(I650
I1
F0.75
S'sound'
p3177
I0
tp3178
a(I650
I1
F1.0
S'good'
p3179
I0
tp3180
a(I658
I3
F1.0
S'excellent'
p3181
I0
tp3182
a(I793
I8
F1.0
S'better'
p3183
I0
tp3184
a(I793
I8
F1.0
S'better'
p3185
I0
tp3186
a(I1102
I3
F1.0
S'excellent'
p3187
I0
tp3188
a(I1252
I3
F1.0
S'excellent'
p3189
I0
tp3190
a(I36
I3
F1.0
g3165
I5
tp3191
a(I89
I52
F0.75
S'sound'
p3192
I5
tp3193
a(I89
I52
I-100
S'o.'
p3194
I5
tp3195
a(I145
I3
F1.0
g3167
I5
tp3196
a(I149
I3
F1.0
g3169
I5
tp3197
a(I171
I4
F0.75
S'sound'
p3198
I5
tp3199
a(I171
I4
F1.0
S'good'
p3200
I5
tp3201
a(I193
I1
I0
S'clear'
p3202
I5
tp3203
a(I205
I13
F0.75
g3171
I5
tp3204
a(I333
I9
F1.0
g3173
I5
tp3205
a(I333
I9
F0.875
g3175
I5
tp3206
a(I338
I3
F0.875
S'great'
p3207
I5
tp3208
a(I338
I3
F0.75
S'sound'
p3209
I5
tp3210
a(I348
I1
F0.75
S'sound'
p3211
I5
tp3212
a(I348
I1
F0.875
S'fabulous'
p3213
I5
tp3214
a(I491
I0
F1.0
S'good'
p3215
I5
tp3216
a(I536
I50
F0.75
S'sound'
p3217
I5
tp3218
a(I536
I50
F0.875
S'awesome'
p3219
I5
tp3220
a(I650
I1
F0.75
g3177
I5
tp3221
a(I650
I1
F1.0
g3179
I5
tp3222
a(I658
I3
F1.0
g3181
I5
tp3223
a(I697
I2
F0.75
S'sound'
p3224
I5
tp3225
a(I714
I0
F0.75
S'sound'
p3226
I5
tp3227
a(I765
I7
F1.0
S'good'
p3228
I5
tp3229
a(I805
I0
F0.75
S'sound'
p3230
I5
tp3231
a(I843
I1
F0.75
S'sound'
p3232
I5
tp3233
a(I843
I1
F1.0
S'good'
p3234
I5
tp3235
a(I866
I0
F0.75
S'sound'
p3236
I5
tp3237
a(I866
I0
F0.875
S'awesome'
p3238
I5
tp3239
a(I888
I0
F0.75
S'sound'
p3240
I5
tp3241
a(I916
I0
F0.75
S'sound'
p3242
I5
tp3243
a(I1016
I5
I0
S'crystal'
p3244
I5
tp3245
a(I1021
I4
F0.75
S'sound'
p3246
I5
tp3247
a(I1102
I3
F1.0
g3187
I5
tp3248
a(I1190
I0
F-0.5
S'lightweight'
p3249
I5
tp3250
a(I1190
I0
F0.75
S'sound'
p3251
I5
tp3252
a(I1224
I0
F1.0
S'good'
p3253
I5
tp3254
a(I1252
I3
F1.0
g3189
I5
tp3255
a(I1318
I4
F1.0
S'good'
p3256
I5
tp3257
a(I1318
I4
F0.75
S'sound'
p3258
I5
tp3259
a(I1394
I0
F1.0
S'good'
p3260
I5
tp3261
a(I1436
I2
F0.75
S'sound'
p3262
I5
tp3263
a(I1436
I2
F1.0
S'best'
p3264
I5
tp3265
a(I1474
I0
F-0.625
S'average'
p3266
I5
tp3267
a(I1502
I12
F1.0
S'good'
p3268
I5
tp3269
a(I1502
I12
F-0.75
S'little'
p3270
I5
tp3271
a(I1508
I12
F1.0
S'good'
p3272
I5
tp3273
a(I17
I1
F0.875
S'nice'
p3274
I15
tp3275
a(I36
I3
F1.0
g3165
I15
tp3276
a(I145
I3
F1.0
g3167
I15
tp3277
a(I149
I3
F1.0
g3169
I15
tp3278
a(I176
I10
I0
S'clear'
p3279
I15
tp3280
a(I277
I1
F1.0
S'excellent'
p3281
I15
tp3282
a(I285
I2
F0.375
S'audible'
p3283
I15
tp3284
a(I338
I1
F1.0
S'good'
p3285
I15
tp3286
a(I338
I32
F0.5
S'crisp'
p3287
I15
tp3288
a(I408
I1
F0.875
S'great'
p3289
I15
tp3290
a(I410
I1
F-0.625
S'moderate'
p3291
I15
tp3292
a(I443
I0
F1.0
S'good'
p3293
I15
tp3294
a(I443
I0
I0
S'clear'
p3295
I15
tp3296
a(I443
I0
F-0.25
S'i'
p3297
I15
tp3298
a(I443
I1
I0
S'clear'
p3299
I15
tp3300
a(I446
I0
I0
S'crispy'
p3301
I15
tp3302
a(I446
I0
I0
S'clear'
p3303
I15
tp3304
a(I446
I0
F-0.5
S'separate'
p3305
I15
tp3306
a(I546
I4
I0
S'clear'
p3307
I15
tp3308
a(I620
I2
F1.0
S'good'
p3309
I15
tp3310
a(I640
I44
F-0.25
S'i'
p3311
I15
tp3312
a(I650
I1
F1.0
g3179
I15
tp3313
a(I658
I3
F1.0
g3181
I15
tp3314
a(I671
I7
F0.875
S'amazing'
p3315
I15
tp3316
a(I705
I0
F1.0
S'good'
p3317
I15
tp3318
a(I782
I4
F0.5
S'crisp'
p3319
I15
tp3320
a(I786
I26
F0.875
S'awesome'
p3321
I15
tp3322
a(I802
I6
F0.125
S'digital'
p3323
I15
tp3324
a(I1042
I1
F1.0
S'better'
p3325
I15
tp3326
a(I1102
I3
F1.0
g3187
I15
tp3327
a(I1165
I0
F0.875
S'great'
p3328
I15
tp3329
a(I1252
I3
F1.0
g3189
I15
tp3330
a(I1345
I1
F1.0
S'good'
p3331
I15
tp3332
a(I1346
I9
F1.0
S'good'
p3333
I15
tp3334
a(I1362
I0
F0.875
S'great'
p3335
I15
tp3336
a(I1394
I0
F1.0
g3260
I15
tp3337
a(I1394
I11
F0.875
S'decent'
p3338
I15
tp3339
a(I1402
I1
F1.0
S'good'
p3340
I15
tp3341
a(I1502
I12
F1.0
g3268
I15
tp3342
a(I1508
I12
F1.0
g3272
I15
tp3343
as(S'value'
p3344
S'for'
p3345
S'money'
p3346
tp3347
(lp3348
(I766
I0
F1.0
S'good'
p3349
I4
tp3350
a(I1177
I0
F0.5
S'true'
p3351
I4
tp3352
a(I1229
I2
F1.0
S'good'
p3353
I4
tp3354
a(I1305
I0
F1.0
S'best'
p3355
I4
tp3356
a(I1306
I2
F0.5
S'true'
p3357
I4
tp3358
a(I1382
I1
F1.0
S'best'
p3359
I4
tp3360
a(I1394
I2
F-0.125
S'overall'
p3361
I4
tp3362
a(I1394
I2
F0.75
S'complete'
p3363
I4
tp3364
a(I1438
I5
F0.875
S'great'
p3365
I4
tp3366
a(I73
I0
F0.875
S'great'
p3367
I7
tp3368
a(I359
I2
F1.0
S'good'
p3369
I7
tp3370
a(I359
I2
F0.875
S'decent'
p3371
I7
tp3372
a(I406
I0
F1.0
S'good'
p3373
I7
tp3374
a(I896
I0
F0.875
S'great'
p3375
I7
tp3376
a(I1139
I4
F0.75
S'complete'
p3377
I7
tp3378
a(I1177
I0
F0.5
g3351
I7
tp3379
a(I1229
I2
F1.0
g3353
I7
tp3380
a(I1304
I2
F1.0
S'good'
p3381
I7
tp3382
a(I1304
I2
F-0.375
S'same'
p3383
I7
tp3384
a(I1305
I0
F1.0
g3355
I7
tp3385
a(I1306
I2
F0.5
g3357
I7
tp3386
a(I1369
I2
F1.0
S'better'
p3387
I7
tp3388
a(I1382
I1
F1.0
g3359
I7
tp3389
a(I1394
I2
F-0.125
g3361
I7
tp3390
a(I1394
I2
F0.75
g3363
I7
tp3391
a(I1397
I3
F1.0
S'best'
p3392
I7
tp3393
a(I1438
I5
F0.875
g3365
I7
tp3394
a(I1526
I8
I0
S's'
p3395
I7
tp3396
as(S'vibe'
p3397
S'ui'
p3398
tp3399
(lp3400
(I324
I1
I0
S'own'
p3401
I0
tp3402
a(I640
I34
F0.625
S'smooth'
p3403
I0
tp3404
a(I640
I34
I0
S'user'
p3405
I0
tp3406
a(I749
I7
F0.875
S'nice'
p3407
I0
tp3408
a(I1050
I1
I-100
S'doesnot'
p3409
I0
tp3410
as(S'support'
p3411
tp3412
(lp3413
(I95
I0
I0
S'many'
p3414
I12
tp3415
a(I112
I0
I0
S'http'
p3416
I12
tp3417
a(I320
I2
F0.5
S'technical'
p3418
I12
tp3419
a(I671
I11
F0.375
S'much'
p3420
I12
tp3421
a(I671
I11
I-100
S'responble'
p3422
I12
tp3423
a(I671
I13
F-1.0
S'bad'
p3424
I12
tp3425
a(I937
I5
F-0.875
S'poor'
p3426
I12
tp3427
a(I992
I9
I0
S'tech'
p3428
I12
tp3429
a(I992
I9
F-0.25
S'hurry'
p3430
I12
tp3431
a(I1323
I6
F0.875
S'awesome'
p3432
I12
tp3433
a(I1372
I0
F-0.75
S'little'
p3434
I12
tp3435
a(I1372
I0
F-0.5
S'disappointed'
p3436
I12
tp3437
a(I1454
I0
F0.125
S'usual'
p3438
I12
tp3439
a(I1454
I0
F1.0
S'excellent'
p3440
I12
tp3441
a(I1454
I3
F1.0
S'good'
p3442
I12
tp3443
as(S'excellent'
p3444
S'sound'
p3445
S'quality'
p3446
tp3447
(lp3448
(I36
I3
F1.0
g3165
I0
tp3449
a(I145
I3
F1.0
g3167
I0
tp3450
a(I149
I3
F1.0
g3169
I0
tp3451
a(I658
I3
F1.0
g3181
I0
tp3452
a(I888
I0
F0.75
g3240
I0
tp3453
a(I1102
I3
F1.0
g3187
I0
tp3454
a(I1190
I0
F-0.5
g3249
I0
tp3455
a(I1190
I0
F0.75
g3251
I0
tp3456
a(I1252
I3
F1.0
g3189
I0
tp3457
as(S'months'
p3458
tp3459
(lp3460
(I432
I3
F-0.125
S'next'
p3461
I7
tp3462
a(I537
I16
F-0.75
S'dead'
p3463
I7
tp3464
a(I541
I5
F0.5
S'old'
p3465
I7
tp3466
a(I551
I10
I0
S'screen'
p3467
I7
tp3468
a(I1090
I3
F1.0
S'good'
p3469
I7
tp3470
a(I1178
I0
F-0.625
S'last'
p3471
I7
tp3472
a(I1344
I8
I0
S'few'
p3473
I7
tp3474
a(I1422
I12
F-0.625
S'last'
p3475
I7
tp3476
a(I1459
I13
I0
S'more'
p3477
I7
tp3478
a(I1515
I3
F-0.25
S'past'
p3479
I7
tp3480
a(I1528
I0
F-0.625
S'last'
p3481
I7
tp3482
as(S'touch'
p3483
S'screen'
p3484
tp3485
(lp3486
(I37
I3
F1.0
S'good'
p3487
I2
tp3488
a(I146
I3
F1.0
S'good'
p3489
I2
tp3490
a(I150
I3
F1.0
S'good'
p3491
I2
tp3492
a(I168
I2
F0.5
S'touch'
p3493
I2
tp3494
a(I168
I2
F-1.0
S'bad'
p3495
I2
tp3496
a(I213
I6
F0.5
S'touch'
p3497
I2
tp3498
a(I213
I6
F-0.25
S'i'
p3499
I2
tp3500
a(I301
I5
F0.625
S'smooth'
p3501
I2
tp3502
a(I302
I23
F0.5
S'touch'
p3503
I2
tp3504
a(I320
I1
F0.5
S'touch'
p3505
I2
tp3506
a(I320
I3
F0.5
S'touch'
p3507
I2
tp3508
a(I320
I10
F0.5
S'touch'
p3509
I2
tp3510
a(I321
I7
F0.5
S'touch'
p3511
I2
tp3512
a(I332
I3
F0.5
S'touch'
p3513
I2
tp3514
a(I502
I19
F0.5
S'touch'
p3515
I2
tp3516
a(I502
I19
F-0.875
S'poor'
p3517
I2
tp3518
a(I521
I1
F0.5
S'touch'
p3519
I2
tp3520
a(I521
I12
F0.5
S'touch'
p3521
I2
tp3522
a(I559
I0
F0.5
S'touch'
p3523
I2
tp3524
a(I937
I18
I0
S'screen'
p3525
I2
tp3526
a(I937
I21
F0.5
S'touch'
p3527
I2
tp3528
a(I943
I6
F0.5
S'touch'
p3529
I2
tp3530
a(I1103
I3
F1.0
S'good'
p3531
I2
tp3532
a(I1253
I3
F1.0
S'good'
p3533
I2
tp3534
a(I1284
I1
F0.5
S'touch'
p3535
I2
tp3536
a(I1284
I1
I0
S'big'
p3537
I2
tp3538
a(I1406
I0
F0.5
S'touch'
p3539
I2
tp3540
as(S'lollipop'
p3541
S'update'
p3542
tp3543
(lp3544
(I47
I1
F0.875
S'awesome'
p3545
I0
tp3546
a(I198
I1
I0
S'update'
p3547
I0
tp3548
a(I333
I16
I0
S'lollipop'
p3549
I0
tp3550
a(I375
I1
I0
S'update'
p3551
I0
tp3552
a(I503
I1
F0.875
S'awesome'
p3553
I0
tp3554
a(I640
I36
I0
S'lollipop'
p3555
I0
tp3556
a(I769
I5
I0
S'lollipop'
p3557
I0
tp3558
a(I1181
I13
I0
S'android'
p3559
I0
tp3560
a(I1397
I1
I0
S'android'
p3561
I0
tp3562
a(I1508
I16
I0
S'lollipop'
p3563
I0
tp3564
a(I47
I1
F0.875
g3545
I1
tp3565
a(I70
I0
I0
S'u'
p3566
I1
tp3567
a(I333
I16
I0
g3549
I1
tp3568
a(I364
I1
F1.0
S'good'
p3569
I1
tp3570
a(I503
I1
F0.875
g3553
I1
tp3571
a(I640
I36
I0
g3555
I1
tp3572
a(I769
I5
I0
g3557
I1
tp3573
a(I1066
I0
I0
S'sept'
p3574
I1
tp3575
a(I1131
I6
I0
S't'
p3576
I1
tp3577
a(I1131
I11
F0.125
S'don'
p3578
I1
tp3579
a(I1131
I11
I0
S't'
p3580
I1
tp3581
a(I1451
I6
F-0.125
S'os'
p3582
I1
tp3583
a(I1508
I16
I0
g3563
I1
tp3584
a(I198
I1
I0
g3547
I3
tp3585
a(I375
I1
I0
g3551
I3
tp3586
a(I404
I0
F0.375
S'available'
p3587
I3
tp3588
a(I923
I0
F0.5
S'upgrade'
p3589
I3
tp3590
a(I1181
I13
I0
g3559
I3
tp3591
a(I1395
I5
I0
S'android'
p3592
I3
tp3593
a(I1397
I1
I0
g3561
I3
tp3594
a(I1453
I0
I-100
S'upgradeable'
p3595
I3
tp3596
as(S'viewing'
p3597
S'angles'
p3598
tp3599
(lp3600
(I160
I3
F-0.625
S'wide'
p3601
I0
tp3602
a(I160
I3
F-0.25
S'degree'
p3603
I0
tp3604
a(I160
I3
F0.875
S'great'
p3605
I0
tp3606
a(I161
I0
F1.0
g1749
I0
tp3607
a(I1517
I3
F-0.625
S'wide'
p3608
I0
tp3609
a(I1517
I3
F-0.25
S'degree'
p3610
I0
tp3611
a(I1517
I3
F0.875
S'great'
p3612
I0
tp3613
as(S'quality'
p3614
S'earphone'
p3615
S'speaker'
p3616
tp3617
(lp3618
(I333
I9
F1.0
g3173
I0
tp3619
a(I333
I9
F0.875
g3175
I0
tp3620
a(I650
I1
F0.75
g3177
I0
tp3621
a(I650
I1
F1.0
S'good'
p3622
I0
tp3623
as(S'front'
p3624
S'and'
p3625
S'rear'
p3626
tp3627
(lp3628
(I36
I1
F1.0
g222
I1
tp3629
a(I145
I1
F1.0
g238
I1
tp3630
a(I149
I1
F1.0
g244
I1
tp3631
a(I658
I1
F1.0
g274
I1
tp3632
a(I1057
I0
I0
g3142
I1
tp3633
a(I1102
I1
F1.0
g300
I1
tp3634
a(I1111
I1
F1.0
g306
I1
tp3635
a(I1252
I1
F1.0
g312
I1
tp3636
a(I509
I11
I0
g3126
I7
tp3637
a(I705
I1
F1.0
g3133
I7
tp3638
a(I1057
I0
I0
g3142
I7
tp3639
as(S'in'
p3640
S'price'
p3641
S'range'
p3642
tp3643
(lp3644
(I14
I5
F0.375
g1464
I0
tp3645
a(I487
I0
F1.0
S'best'
p3646
I0
tp3647
a(I487
I0
I0
S's'
p3648
I0
tp3649
a(I689
I1
F0.75
g1466
I0
tp3650
a(I964
I0
F1.0
S'best'
p3651
I0
tp3652
a(I1430
I0
F-0.375
g1468
I0
tp3653
a(I14
I5
F0.375
g1464
I13
tp3654
a(I487
I0
F1.0
g3646
I13
tp3655
a(I487
I0
I0
g3648
I13
tp3656
a(I689
I1
F0.75
g1466
I13
tp3657
a(I964
I0
F1.0
g3651
I13
tp3658
a(I1165
I2
F1.0
S'best'
p3659
I13
tp3660
a(I1362
I6
F1.0
S'best'
p3661
I13
tp3662
a(I1430
I0
F-0.375
g1468
I13
tp3663
as(g33
S'days'
p3664
tp3665
(lp3666
(I324
I2
F0.125
S'mobile'
p3667
I2
tp3668
a(I529
I5
F0.25
S'recent'
p3669
I2
tp3670
a(I529
I5
I0
S'more'
p3671
I2
tp3672
a(I916
I3
I0
S'apr'
p3673
I2
tp3674
a(I992
I0
F0.5
S'old'
p3675
I2
tp3676
as(S'heating'
p3677
S'and'
p3678
S'battery'
p3679
tp3680
(lp3681
(I14
I22
F-0.5
g1428
I0
tp3682
a(I32
I0
F-0.75
S'idle'
p3683
I0
tp3684
a(I121
I2
I0
S'quick'
p3685
I0
tp3686
a(I527
I0
F-0.875
S'poor'
p3687
I0
tp3688
a(I551
I0
F-0.5
S'sudden'
p3689
I0
tp3690
a(I596
I6
F0.875
S'awesome'
p3691
I0
tp3692
a(I596
I6
F-0.875
S'low'
p3693
I0
tp3694
a(I941
I3
F-0.75
S'idle'
p3695
I0
tp3696
as(S'games'
p3697
tp3698
(lp3699
(I6
I1
I0
S'most'
p3700
I5
tp3701
a(I6
I1
F0.5
S'high'
p3702
I5
tp3703
a(I26
I1
I0
S'most'
p3704
I5
tp3705
a(I26
I1
F0.5
S'high'
p3706
I5
tp3707
a(I89
I42
I0
S'internet'
p3708
I5
tp3709
a(I89
I51
I0
S'big'
p3710
I5
tp3711
a(I104
I2
F0.875
S'great'
p3712
I5
tp3713
a(I271
I1
F-0.75
S'little'
p3714
I5
tp3715
a(I333
I13
F0.375
S'much'
p3716
I5
tp3717
a(I338
I25
F0.5
S'intensive'
p3718
I5
tp3719
a(I338
I25
F-0.125
S'such'
p3720
I5
tp3721
a(I338
I26
F-0.5
S'heavy'
p3722
I5
tp3723
a(I338
I26
F-0.125
S'such'
p3724
I5
tp3725
a(I338
I27
I0
S'above'
p3726
I5
tp3727
a(I338
I27
F0.25
S'basic'
p3728
I5
tp3729
a(I340
I6
F-0.5
S'heavy'
p3730
I5
tp3731
a(I400
I0
F1.0
S'good'
p3732
I5
tp3733
a(I400
I0
F-0.5
S'heavy'
p3734
I5
tp3735
a(I400
I1
I0
S'few'
p3736
I5
tp3737
a(I536
I42
I0
S'hrs'
p3738
I5
tp3739
a(I640
I15
F0.125
S'temple'
p3740
I5
tp3741
a(I670
I0
F-0.5
S'heavy'
p3742
I5
tp3743
a(I670
I1
I0
S'specific'
p3744
I5
tp3745
a(I676
I9
F-0.625
S'last'
p3746
I5
tp3747
a(I676
I10
F-0.5
S'heavy'
p3748
I5
tp3749
a(I817
I1
I0
S'many'
p3750
I5
tp3751
a(I817
I1
F-0.125
S'such'
p3752
I5
tp3753
a(I842
I1
F0.5
S'large'
p3754
I5
tp3755
a(I1181
I10
I0
S'fr'
p3756
I5
tp3757
a(I1391
I4
I0
S'u'
p3758
I5
tp3759
a(I1401
I0
F0.875
S'nice'
p3760
I5
tp3761
a(I1405
I6
I0
S'many'
p3762
I5
tp3763
a(I1459
I15
F-0.5
S'heavy'
p3764
I5
tp3765
as(S'think'
p3766
tp3767
(lp3768
(I958
I34
I0
S'u'
p3769
I16
tp3770
as(S'cons'
p3771
tp3772
(lp3773
(I780
I2
I0
S'most'
p3774
I8
tp3775
a(I1346
I6
I0
S'only'
p3776
I8
tp3777
as(S'very'
p3778
S'good'
p3779
S'mobile'
p3780
tp3781
(lp3782
(I313
I1
F0.5
S'slim'
p3783
I0
tp3784
a(I671
I7
F1.0
S'good'
p3785
I0
tp3786
a(I671
I7
I0
S'many'
p3787
I0
tp3788
a(I687
I0
F1.0
S'good'
p3789
I0
tp3790
a(I981
I5
F1.0
S'good'
p3791
I0
tp3792
a(I1131
I1
F1.0
S'good'
p3793
I0
tp3794
a(I1163
I0
F1.0
S'good'
p3795
I0
tp3796
a(I1189
I0
F1.0
S'good'
p3797
I0
tp3798
a(I1193
I2
F1.0
g838
I0
tp3799
a(I1217
I6
F1.0
S'good'
p3800
I0
tp3801
a(I1319
I4
F1.0
g852
I0
tp3802
a(I1323
I6
F1.0
S'good'
p3803
I0
tp3804
a(I1436
I0
F1.0
S'good'
p3805
I0
tp3806
a(I1439
I3
F1.0
S'excellent'
p3807
I0
tp3808
a(I1451
I10
F1.0
S'good'
p3809
I0
tp3810
a(I1504
I0
F1.0
S'good'
p3811
I0
tp3812
a(I1515
I0
F1.0
S'good'
p3813
I0
tp3814
a(I95
I2
F1.0
S'good'
p3815
I1
tp3816
a(I175
I6
F1.0
S'good'
p3817
I1
tp3818
a(I313
I1
F0.5
g3783
I1
tp3819
a(I348
I21
F1.0
S'good'
p3820
I1
tp3821
a(I671
I7
F1.0
g3785
I1
tp3822
a(I671
I7
I0
g3787
I1
tp3823
a(I687
I0
F1.0
g3789
I1
tp3824
a(I981
I5
F1.0
g3791
I1
tp3825
a(I1131
I1
F1.0
g3793
I1
tp3826
a(I1133
I3
F1.0
S'good'
p3827
I1
tp3828
a(I1139
I11
F1.0
S'best'
p3829
I1
tp3830
a(I1141
I0
F1.0
S'good'
p3831
I1
tp3832
a(I1163
I0
F1.0
g3795
I1
tp3833
a(I1165
I3
F1.0
S'good'
p3834
I1
tp3835
a(I1189
I0
F1.0
g3797
I1
tp3836
a(I1193
I2
F1.0
g838
I1
tp3837
a(I1213
I0
F1.0
S'good'
p3838
I1
tp3839
a(I1217
I6
F1.0
g3800
I1
tp3840
a(I1218
I0
F1.0
S'good'
p3841
I1
tp3842
a(I1319
I4
F1.0
g852
I1
tp3843
a(I1323
I6
F1.0
g3803
I1
tp3844
a(I1341
I0
F1.0
S'best'
p3845
I1
tp3846
a(I1341
I0
F1.0
S'good'
p3847
I1
tp3848
a(I1342
I0
F1.0
S'good'
p3849
I1
tp3850
a(I1357
I0
F1.0
S'good'
p3851
I1
tp3852
a(I1362
I7
F1.0
S'good'
p3853
I1
tp3854
a(I1432
I0
F1.0
S'good'
p3855
I1
tp3856
a(I1433
I0
F1.0
S'good'
p3857
I1
tp3858
a(I1436
I0
F1.0
g3805
I1
tp3859
a(I1439
I3
F1.0
g3807
I1
tp3860
a(I1450
I0
F1.0
S'good'
p3861
I1
tp3862
a(I1451
I10
F1.0
g3809
I1
tp3863
a(I1453
I5
F1.0
S'good'
p3864
I1
tp3865
a(I1504
I0
F1.0
g3811
I1
tp3866
a(I1515
I0
F1.0
g3813
I1
tp3867
as(S'thanks'
p3868
S'to'
p3869
S'flipkart'
p3870
tp3871
(lp3872
(I847
I4
F0.625
S'first'
p3873
I1
tp3874
a(I1190
I0
F1.0
S'excellent'
p3875
I1
tp3876
a(I1393
I0
F-0.125
S'such'
p3877
I1
tp3878
a(I270
I1
I0
S'lags'
p3879
I7
tp3880
a(I378
I0
F-0.625
S'last'
p3881
I7
tp3882
a(I847
I4
F0.625
g3873
I7
tp3883
a(I1190
I0
F1.0
g3875
I7
tp3884
a(I1238
I3
F0.875
S'nice'
p3885
I7
tp3886
a(I1508
I7
F0.25
S'special'
p3887
I7
tp3888
as(S'processor'
p3889
tp3890
(lp3891
(I214
I2
F-0.625
S'harmful'
p3892
I8
tp3893
a(I766
I6
F0.25
S'related'
p3894
I8
tp3895
a(I1284
I1
F0.875
S'brilliant'
p3896
I8
tp3897
a(I1365
I1
F0.5
S'internal'
p3898
I8
tp3899
a(I1478
I15
F1.0
S'excellent'
p3900
I8
tp3901
as(S'good'
p3902
S'camera'
p3903
S'quality'
p3904
tp3905
(lp3906
(I174
I0
F-0.875
S'poor'
p3907
I0
tp3908
a(I205
I12
F1.0
S'good'
p3909
I0
tp3910
a(I359
I2
F0.875
g383
I0
tp3911
a(I359
I2
F1.0
S'good'
p3912
I0
tp3913
a(I529
I1
F0.875
g398
I0
tp3914
a(I529
I1
F1.0
S'good'
p3915
I0
tp3916
a(I535
I0
F1.0
S'good'
p3917
I0
tp3918
a(I560
I3
F1.0
S'good'
p3919
I0
tp3920
a(I640
I7
F1.0
S'good'
p3921
I0
tp3922
a(I672
I5
F1.0
g415
I0
tp3923
a(I774
I5
F1.0
S'good'
p3924
I0
tp3925
a(I786
I21
F0.875
g435
I0
tp3926
a(I786
I22
F1.0
g282
I0
tp3927
a(I786
I22
F1.0
S'good'
p3928
I0
tp3929
a(I913
I10
F1.0
S'good'
p3930
I0
tp3931
a(I916
I0
F0.75
g3242
I0
tp3932
a(I919
I0
F1.0
g451
I0
tp3933
a(I1044
I1
F-1.0
S'bad'
p3934
I0
tp3935
a(I1099
I0
F1.0
g457
I0
tp3936
a(I1138
I0
F1.0
g463
I0
tp3937
a(I1162
I6
F1.0
g473
I0
tp3938
a(I1241
I2
F1.0
S'good'
p3939
I0
tp3940
a(I1318
I4
F1.0
g3256
I0
tp3941
a(I1318
I4
F0.75
g3258
I0
tp3942
a(I1340
I11
F1.0
S'good'
p3943
I0
tp3944
a(I1344
I3
F1.0
g504
I0
tp3945
a(I1382
I4
F1.0
g513
I0
tp3946
a(I1422
I5
F1.0
S'good'
p3947
I0
tp3948
a(I1504
I1
F1.0
S'good'
p3949
I0
tp3950
a(I1514
I0
F1.0
S'good'
p3951
I0
tp3952
a(I171
I4
F0.75
g3198
I0
tp3953
a(I171
I4
F1.0
g3200
I0
tp3954
a(I174
I0
F-0.875
g3907
I0
tp3955
a(I205
I12
F1.0
g3909
I0
tp3956
a(I205
I13
F0.75
g3171
I0
tp3957
a(I285
I1
F1.0
S'good'
p3958
I0
tp3959
a(I302
I20
F1.0
S'good'
p3960
I0
tp3961
a(I302
I26
F1.0
S'good'
p3962
I0
tp3963
a(I333
I9
F1.0
g3173
I0
tp3964
a(I333
I9
F0.875
g3175
I0
tp3965
a(I359
I2
F1.0
g3912
I0
tp3966
a(I359
I3
F1.0
S'good'
p3967
I0
tp3968
a(I361
I1
F1.0
S'good'
p3969
I0
tp3970
a(I478
I2
F1.0
S'good'
p3971
I0
tp3972
a(I491
I0
F1.0
g3215
I0
tp3973
a(I529
I1
F1.0
g3915
I0
tp3974
a(I535
I0
F1.0
g3917
I0
tp3975
a(I560
I3
F1.0
g3919
I0
tp3976
a(I568
I0
I-100
S'compro'
p3977
I0
tp3978
a(I640
I7
F1.0
g3921
I0
tp3979
a(I640
I26
F1.0
S'good'
p3980
I0
tp3981
a(I650
I1
F0.75
g3177
I0
tp3982
a(I730
I1
F1.0
S'good'
p3983
I0
tp3984
a(I763
I2
F1.0
S'good'
p3985
I0
tp3986
a(I765
I7
F1.0
g3228
I0
tp3987
a(I774
I5
F1.0
g3924
I0
tp3988
a(I786
I22
F1.0
g3928
I0
tp3989
a(I843
I1
F0.75
g3232
I0
tp3990
a(I843
I1
F1.0
g3234
I0
tp3991
a(I870
I8
I0
g1727
I0
tp3992
a(I870
I8
F0.875
g1729
I0
tp3993
a(I870
I8
I0
g1731
I0
tp3994
a(I909
I1
F1.0
S'good'
p3995
I0
tp3996
a(I913
I10
F1.0
g3930
I0
tp3997
a(I916
I0
F0.75
g3242
I0
tp3998
a(I981
I2
F1.0
S'good'
p3999
I0
tp4000
a(I1016
I5
I0
g3244
I0
tp4001
a(I1021
I4
F0.75
g3246
I0
tp4002
a(I1044
I1
F-1.0
g3934
I0
tp4003
a(I1070
I1
F-0.5
S'extra'
p4004
I0
tp4005
a(I1070
I1
F1.0
S'good'
p4006
I0
tp4007
a(I1128
I2
I0
S'screen'
p4008
I0
tp4009
a(I1128
I2
F1.0
S'good'
p4010
I0
tp4011
a(I1155
I1
I0
S'screen'
p4012
I0
tp4013
a(I1155
I1
F1.0
S'good'
p4014
I0
tp4015
a(I1173
I3
F1.0
S'good'
p4016
I0
tp4017
a(I1224
I0
F1.0
g3253
I0
tp4018
a(I1228
I0
F1.0
S'good'
p4019
I0
tp4020
a(I1241
I2
F1.0
g3939
I0
tp4021
a(I1258
I1
F1.0
S'good'
p4022
I0
tp4023
a(I1286
I3
F1.0
S'good'
p4024
I0
tp4025
a(I1318
I4
F1.0
g3256
I0
tp4026
a(I1318
I4
F0.75
g3258
I0
tp4027
a(I1329
I1
F1.0
S'good'
p4028
I0
tp4029
a(I1340
I1
F1.0
S'good'
p4030
I0
tp4031
a(I1340
I11
F1.0
g3943
I0
tp4032
a(I1393
I1
I0
g1737
I0
tp4033
a(I1422
I5
F1.0
g3947
I0
tp4034
a(I1474
I0
F-0.625
g3266
I0
tp4035
a(I1502
I12
F-0.75
g3270
I0
tp4036
a(I1504
I1
F1.0
g3949
I0
tp4037
a(I1514
I0
F1.0
g3951
I0
tp4038
a(I13
I19
F-0.125
S'back'
p4039
I14
tp4040
a(I174
I0
F-0.875
g3907
I14
tp4041
a(I204
I0
F-1.0
S'bad'
p4042
I14
tp4043
a(I205
I12
F1.0
g3909
I14
tp4044
a(I283
I1
I0
g3113
I14
tp4045
a(I283
I1
F1.0
S'better'
p4046
I14
tp4047
a(I327
I1
F0.125
S'mobile'
p4048
I14
tp4049
a(I327
I1
F-1.0
S'bad'
p4050
I14
tp4051
a(I333
I8
F-1.0
S'bad'
p4052
I14
tp4053
a(I333
I8
F1.0
S'best'
p4054
I14
tp4055
a(I359
I2
F0.875
g383
I14
tp4056
a(I359
I2
F1.0
g3912
I14
tp4057
a(I474
I1
I0
S'normal'
p4058
I14
tp4059
a(I529
I1
F0.875
g398
I14
tp4060
a(I529
I1
F1.0
g3915
I14
tp4061
a(I535
I0
F1.0
g3917
I14
tp4062
a(I546
I1
F-0.875
S'poor'
p4063
I14
tp4064
a(I546
I1
F-1.0
S'worst'
p4065
I14
tp4066
a(I560
I3
F1.0
g3919
I14
tp4067
a(I570
I8
F-1.0
S'bad'
p4068
I14
tp4069
a(I640
I7
F1.0
g3921
I14
tp4070
a(I672
I5
F1.0
g415
I14
tp4071
a(I687
I4
F0.875
S'amazing'
p4072
I14
tp4073
a(I697
I2
F0.875
S'awesome'
p4074
I14
tp4075
a(I697
I2
F0.75
g3224
I14
tp4076
a(I774
I5
F1.0
g3924
I14
tp4077
a(I786
I21
F0.875
g435
I14
tp4078
a(I786
I22
F1.0
g282
I14
tp4079
a(I786
I22
F1.0
g3928
I14
tp4080
a(I863
I0
F1.0
S'better'
p4081
I14
tp4082
a(I913
I10
F1.0
g3930
I14
tp4083
a(I916
I0
F0.75
g3242
I14
tp4084
a(I919
I0
F1.0
g451
I14
tp4085
a(I968
I0
F-1.0
S'bad'
p4086
I14
tp4087
a(I968
I0
F-1.0
S'bad'
p4088
I14
tp4089
a(I968
I0
F-1.0
S'bad'
p4090
I14
tp4091
a(I968
I0
F-0.875
S'poor'
p4092
I14
tp4093
a(I980
I1
F-0.625
S'average'
p4094
I14
tp4095
a(I990
I1
F-0.625
S'new'
p4096
I14
tp4097
a(I1044
I1
F-1.0
g3934
I14
tp4098
a(I1099
I0
F1.0
g457
I14
tp4099
a(I1138
I0
F1.0
g463
I14
tp4100
a(I1162
I6
F1.0
g473
I14
tp4101
a(I1182
I1
F0.5
S'high'
p4102
I14
tp4103
a(I1241
I2
F1.0
g3939
I14
tp4104
a(I1317
I1
F-0.25
g626
I14
tp4105
a(I1317
I1
F0.875
g628
I14
tp4106
a(I1318
I4
F1.0
g3256
I14
tp4107
a(I1318
I4
F0.75
g3258
I14
tp4108
a(I1321
I0
F-0.125
S'front'
p4109
I14
tp4110
a(I1340
I11
F1.0
g3943
I14
tp4111
a(I1344
I3
F1.0
g504
I14
tp4112
a(I1382
I4
F1.0
g513
I14
tp4113
a(I1395
I0
F0.125
S'mobile'
p4114
I14
tp4115
a(I1395
I0
F-1.0
S'bad'
p4116
I14
tp4117
a(I1422
I5
F1.0
g3947
I14
tp4118
a(I1504
I1
F1.0
g3949
I14
tp4119
a(I1514
I0
F1.0
g3951
I14
tp4120
a(I1516
I5
I0
S'normal'
p4121
I14
tp4122
as(S'device'
p4123
tp4124
(lp4125
(I60
I7
F0.125
S'mobile'
p4126
I11
tp4127
a(I69
I12
F0.375
S'much'
p4128
I11
tp4129
a(I114
I3
F-0.75
S'secondary'
p4130
I11
tp4131
a(I115
I2
F-0.875
S'low'
p4132
I11
tp4133
a(I121
I0
F-0.75
S'secondary'
p4134
I11
tp4135
a(I194
I0
F0.875
S'great'
p4136
I11
tp4137
a(I340
I11
F1.0
S'excellent'
p4138
I11
tp4139
a(I688
I5
F0.875
S'nice'
p4140
I11
tp4141
a(I689
I11
F-0.125
S'next'
p4142
I11
tp4143
a(I763
I9
F-0.5
S'slow'
p4144
I11
tp4145
a(I773
I1
F-0.75
S'sufficient'
p4146
I11
tp4147
a(I774
I3
F0.875
S'great'
p4148
I11
tp4149
a(I774
I6
F-0.125
S'overall'
p4150
I11
tp4151
a(I774
I6
F1.0
S'good'
p4152
I11
tp4153
a(I936
I2
I0
S'oct'
p4154
I11
tp4155
a(I936
I8
I0
S'reconsider'
p4156
I11
tp4157
a(I939
I18
F0.875
S'great'
p4158
I11
tp4159
a(I939
I18
F-0.25
S'i'
p4160
I11
tp4161
a(I939
I18
F1.0
S'better'
p4162
I11
tp4163
a(I939
I51
F0.875
S'great'
p4164
I11
tp4165
a(I939
I51
F-0.25
S'i'
p4166
I11
tp4167
a(I939
I51
F1.0
S'better'
p4168
I11
tp4169
a(I957
I7
F-1.0
S'bad'
p4170
I11
tp4171
a(I1105
I0
F1.0
S'good'
p4172
I11
tp4173
a(I1229
I3
F1.0
S'good'
p4174
I11
tp4175
a(I1342
I10
F0.625
S'fine'
p4176
I11
tp4177
a(I1342
I10
F1.0
S'good'
p4178
I11
tp4179
a(I1422
I13
F-0.5
S'slow'
p4180
I11
tp4181
a(I1422
I14
F-0.375
S'same'
p4182
I11
tp4183
a(I1502
I13
F-0.625
S'other'
p4184
I11
tp4185
a(I1502
I13
F0.5
S'unique'
p4186
I11
tp4187
as(S'in'
p4188
S'low'
p4189
S'range'
p4190
tp4191
(lp4192
(I90
I4
I0
S's'
p4193
I0
tp4194
a(I521
I2
F-0.875
S'low'
p4195
I0
tp4196
a(I1340
I5
F-0.875
S'low'
p4197
I0
tp4198
a(I1342
I1
F-0.875
S'low'
p4199
I0
tp4200
a(I1382
I0
F-0.875
S'low'
p4201
I0
tp4202
a(I1451
I8
F-0.875
S'low'
p4203
I0
tp4204
as(S'review'
p4205
tp4206
(lp4207
(I19
I3
F-0.125
S'mine'
p4208
I8
tp4209
a(I168
I3
F-0.25
S'i'
p4210
I8
tp4211
a(I389
I0
I0
S'useful'
p4212
I8
tp4213
a(I418
I4
F-0.875
S'positive'
p4214
I8
tp4215
a(I420
I3
F-0.875
S'negative'
p4216
I8
tp4217
a(I478
I12
F-0.636
S'genuine'
p4218
I8
tp4219
a(I688
I0
F-0.25
S'i'
p4220
I8
tp4221
a(I688
I0
I0
S't'
p4222
I8
tp4223
a(I703
I0
F0.25
S'helpful'
p4224
I8
tp4225
a(I749
I9
F0.625
S'first'
p4226
I8
tp4227
a(I785
I1
I0
S'most'
p4228
I8
tp4229
a(I892
I5
F0.375
S'full'
p4230
I8
tp4231
a(I958
I20
I-100
S'which'
p4232
I8
tp4233
a(I971
I3
F-0.75
S'unable'
p4234
I8
tp4235
a(I971
I3
F0.625
S'valuable'
p4236
I8
tp4237
a(I1020
I0
I0
S'many'
p4238
I8
tp4239
a(I1135
I1
I0
S'actual'
p4240
I8
tp4241
a(I1263
I1
F-0.125
S'next'
p4242
I8
tp4243
a(I1502
I8
F0.375
S'full'
p4244
I8
tp4245
as(S'apps'
p4246
tp4247
(lp4248
(I124
I1
I0
S'unnecessary'
p4249
I4
tp4250
a(I189
I4
F1.0
S'good'
p4251
I4
tp4252
a(I339
I5
I0
S'net'
p4253
I4
tp4254
a(I339
I5
F0.375
S'full'
p4255
I4
tp4256
a(I471
I0
I0
S'many'
p4257
I4
tp4258
a(I500
I1
I0
S'few'
p4259
I4
tp4260
a(I582
I5
I0
S'most'
p4261
I4
tp4262
a(I619
I20
I0
S'most'
p4263
I4
tp4264
a(I619
I23
F0.625
S'certain'
p4265
I4
tp4266
a(I662
I2
F-0.75
S'open'
p4267
I4
tp4268
a(I662
I2
I0
S'multiple'
p4269
I4
tp4270
a(I669
I0
F0.375
S'satisfied'
p4271
I4
tp4272
a(I688
I11
I0
S'most'
p4273
I4
tp4274
a(I778
I0
I0
S'multiple'
p4275
I4
tp4276
a(I847
I13
F0.25
S'worth'
p4277
I4
tp4278
a(I1396
I6
I0
S'build'
p4279
I4
tp4280
a(I1396
I6
I0
S'many'
p4281
I4
tp4282
a(I1396
I6
I0
S'useful'
p4283
I4
tp4284
a(I1400
I3
I0
S'many'
p4285
I4
tp4286
a(I1400
I4
F-0.25
S'previous'
p4287
I4
tp4288
a(I1400
I4
I0
S'normal'
p4289
I4
tp4290
a(I1508
I8
I0
S'more'
p4291
I4
tp4292
as(S'days'
p4293
S'of'
p4294
S'usage'
p4295
tp4296
(lp4297
(I414
I2
F-0.625
S'moderate'
p4298
I0
tp4299
a(I414
I2
F-0.5
S'less'
p4300
I0
tp4301
a(I462
I1
I0
S'few'
p4302
I0
tp4303
a(I911
I6
F-0.125
S'overall'
p4304
I0
tp4305
a(I911
I6
F0.625
S'first'
p4306
I0
tp4307
a(I911
I6
F0.875
S'happy'
p4308
I0
tp4309
a(I13
I37
F-0.5
S'heavy'
p4310
I8
tp4311
a(I13
I42
F-0.625
S'moderate'
p4312
I8
tp4313
a(I13
I42
F-0.625
S'last'
p4314
I8
tp4315
a(I39
I4
I0
S'actual'
p4316
I8
tp4317
a(I39
I5
I0
S'hot'
p4318
I8
tp4319
a(I39
I5
F-0.875
S'small'
p4320
I8
tp4321
a(I90
I2
I0
S'only'
p4322
I8
tp4323
a(I116
I13
F-0.625
S'moderate'
p4324
I8
tp4325
a(I116
I13
F-0.5
S'heavy'
p4326
I8
tp4327
a(I279
I1
F-0.625
S'average'
p4328
I8
tp4329
a(I323
I8
F-0.5
S'heavy'
p4330
I8
tp4331
a(I332
I7
F-0.625
S'moderate'
p4332
I8
tp4333
a(I333
I11
I0
S'normal'
p4334
I8
tp4335
a(I333
I13
I0
S'normal'
p4336
I8
tp4337
a(I338
I62
I0
S'normal'
p4338
I8
tp4339
a(I338
I64
F-0.125
S'overall'
p4340
I8
tp4341
a(I338
I72
F0.125
S'mobile'
p4342
I8
tp4343
a(I339
I3
F0.125
S'mobile'
p4344
I8
tp4345
a(I392
I10
F-0.5
S'heavy'
p4346
I8
tp4347
a(I392
I10
F-0.25
S'i'
p4348
I8
tp4349
a(I392
I10
F-0.5
S'heavy'
p4350
I8
tp4351
a(I414
I1
F-0.5
S'heavy'
p4352
I8
tp4353
a(I414
I2
F-0.625
g4298
I8
tp4354
a(I414
I2
F-0.5
g4300
I8
tp4355
a(I455
I6
F-0.5
S'heavy'
p4356
I8
tp4357
a(I515
I0
I0
S'normal'
p4358
I8
tp4359
a(I536
I58
I0
S'minimal'
p4360
I8
tp4361
a(I756
I1
I0
S'normal'
p4362
I8
tp4363
a(I768
I15
F-0.5
S'heavy'
p4364
I8
tp4365
a(I779
I5
F-0.5
S'heavy'
p4366
I8
tp4367
a(I786
I6
F0.375
S'ok'
p4368
I8
tp4369
a(I786
I6
F-0.625
S'moderate'
p4370
I8
tp4371
a(I786
I6
I0
S'comfortable'
p4372
I8
tp4373
a(I796
I1
F-0.5
S'heavy'
p4374
I8
tp4375
a(I910
I6
F0.5
S'high'
p4376
I8
tp4377
a(I911
I6
F0.875
g4308
I8
tp4378
a(I1094
I0
F-0.625
S'moderate'
p4379
I8
tp4380
a(I1222
I1
F-0.625
S'moderate'
p4381
I8
tp4382
as(S'to'
p4383
S'service'
p4384
S'centre'
p4385
tp4386
(lp4387
(I938
I6
F-0.25
S'i'
p4388
I0
tp4389
a(I986
I8
F-0.75
S'single'
p4390
I0
tp4391
a(I558
I3
F-0.375
S'same'
p4392
I2
tp4393
a(I938
I6
F-0.25
g4388
I2
tp4394
a(I986
I8
F-0.75
g4390
I2
tp4395
a(I986
I13
F1.0
S'good'
p4396
I2
tp4397
as.