(dp0
(S'service'
p1
S'centre'
p2
tp3
(lp4
(I312
I7
F-0.75
S'unable'
p5
I2
tp6
a(I632
I1
F-0.125
S'minimum'
p7
I2
tp8
a(I1860
I5
F-0.875
S'pathetic'
p9
I2
tp10
a(I1875
I18
F0.5
S'treat'
p11
I2
tp12
as(S'2'
p13
S'gb'
p14
S'ram'
p15
tp16
(lp17
(I110
I9
F-0.75
S'free'
p18
I4
tp19
a(I161
I0
F0.125
S'enough'
p20
I4
tp21
a(I457
I9
F-0.75
S'free'
p22
I4
tp23
a(I457
I9
I0
S'total'
p24
I4
tp25
a(I572
I9
F0.875
S'nice'
p26
I4
tp27
a(I651
I1
F-0.75
S'sufficient'
p28
I4
tp29
a(I729
I0
F0.25
S'usable'
p30
I4
tp31
a(I744
I37
F-0.75
S'free'
p32
I4
tp33
a(I833
I7
F1.0
S'good'
p34
I4
tp35
a(I856
I20
I0
S'gb'
p36
I4
tp37
a(I871
I0
F0.125
S'enough'
p38
I4
tp39
a(I1075
I0
F0.375
S'available'
p40
I4
tp41
a(I1545
I7
I0
S'lollipop'
p42
I4
tp43
a(I1780
I5
F0.875
S'decent'
p44
I4
tp45
a(I1780
I5
I0
S'many'
p46
I4
tp47
a(I1804
I0
F0.375
S'ok'
p48
I4
tp49
a(I1804
I0
F-0.75
S'free'
p50
I4
tp51
a(I1804
I0
F0.375
S'available'
p52
I4
tp53
a(I1929
I3
I0
S'more'
p54
I4
tp55
a(I24
I30
F-0.75
S'free'
p56
I9
tp57
a(I110
I9
F-0.75
g18
I9
tp58
a(I161
I0
F0.125
g20
I9
tp59
a(I457
I9
F-0.75
g22
I9
tp60
a(I457
I9
I0
g24
I9
tp61
a(I572
I9
F0.875
g26
I9
tp62
a(I651
I1
F-0.75
g28
I9
tp63
a(I706
I6
I-100
S'handalle'
p64
I9
tp65
a(I729
I0
F0.25
g30
I9
tp66
a(I744
I37
F-0.75
g32
I9
tp67
a(I833
I7
F1.0
g34
I9
tp68
a(I856
I20
I0
g36
I9
tp69
a(I871
I0
F0.125
g38
I9
tp70
a(I879
I7
F-0.75
S'free'
p71
I9
tp72
a(I933
I1
F0.5
S'efficient'
p73
I9
tp74
a(I933
I1
F0.375
S'available'
p75
I9
tp76
a(I1075
I0
F0.375
g40
I9
tp77
a(I1134
I8
F0.375
S'available'
p78
I9
tp79
a(I1545
I7
I0
g42
I9
tp80
a(I1547
I9
F-0.75
S'free'
p81
I9
tp82
a(I1780
I5
F0.875
g44
I9
tp83
a(I1780
I5
I0
g46
I9
tp84
a(I1804
I0
F0.375
g48
I9
tp85
a(I1804
I0
F-0.75
g50
I9
tp86
a(I1804
I0
F0.375
g52
I9
tp87
a(I1899
I1
F0.5
S'utilizable'
p88
I9
tp89
a(I1929
I3
I0
g54
I9
tp90
as(S'high'
p91
S'end'
p92
S'games'
p93
tp94
(lp95
(I371
I23
F0.5
S'high'
p96
I0
tp97
a(I371
I23
F0.625
S'graphic'
p98
I0
tp99
a(I385
I2
F0.5
S'high'
p100
I0
tp101
a(I583
I0
F0.5
S'high'
p102
I0
tp103
a(I759
I4
F0.5
S'high'
p104
I0
tp105
a(I850
I0
F0.5
S'high'
p106
I0
tp107
a(I1587
I2
F0.5
S'high'
p108
I0
tp109
a(I1923
I4
F0.5
S'high'
p110
I0
tp111
a(I1925
I1
F0.5
S'high'
p112
I0
tp113
a(I1928
I1
F0.5
S'high'
p114
I0
tp115
a(I2092
I0
F0.75
S'fantastic'
p116
I0
tp117
a(I2092
I0
F0.5
S'high'
p118
I0
tp119
a(I2097
I4
F0.5
S'high'
p120
I0
tp121
a(I2097
I4
I0
S'more'
p122
I0
tp123
a(I5
I15
F0.5
S'higher'
p124
I0
tp125
a(I24
I15
F0.5
S'higher'
p126
I0
tp127
a(I24
I15
I0
S'many'
p128
I0
tp129
a(I24
I15
F0.5
S'high'
p130
I0
tp131
a(I24
I15
F0.5
S'high'
p132
I0
tp133
a(I37
I1
F0.5
S'high'
p134
I0
tp135
a(I133
I2
F0.5
S'high'
p136
I0
tp137
a(I371
I23
F0.5
g96
I0
tp138
a(I371
I23
F0.625
g98
I0
tp139
a(I385
I2
F0.5
g100
I0
tp140
a(I478
I7
F0.5
S'high'
p141
I0
tp142
a(I583
I0
F0.5
g102
I0
tp143
a(I757
I23
F0.5
S'high'
p144
I0
tp145
a(I759
I4
F0.5
g104
I0
tp146
a(I850
I0
F0.5
g106
I0
tp147
a(I952
I2
F0.5
S'high'
p148
I0
tp149
a(I1013
I0
F0.5
S'high'
p150
I0
tp151
a(I1519
I13
F0.5
S'high'
p152
I0
tp153
a(I1587
I2
F0.5
g108
I0
tp154
a(I1712
I5
F0.5
S'high'
p155
I0
tp156
a(I1792
I2
F0.5
S'high'
p157
I0
tp158
a(I1923
I4
F0.5
g110
I0
tp159
a(I1925
I1
F0.5
g112
I0
tp160
a(I1928
I1
F0.5
g114
I0
tp161
a(I2092
I0
F0.75
g116
I0
tp162
a(I2092
I0
F0.5
g118
I0
tp163
a(I2097
I4
F0.5
g120
I0
tp164
a(I54
I30
F0.125
S'mobile'
p165
I5
tp166
a(I116
I6
F-0.25
S'social'
p167
I5
tp168
a(I133
I16
F0.625
S'smooth'
p169
I5
tp170
a(I188
I26
F-0.5
S'heavy'
p171
I5
tp172
a(I199
I1
F0.625
S'smooth'
p173
I5
tp174
a(I435
I1
F0.5
S'played'
p175
I5
tp176
a(I502
I10
F-0.5
S'heavy'
p177
I5
tp178
a(I502
I11
I0
S'light'
p179
I5
tp180
a(I524
I8
F-0.5
S'heavy'
p181
I5
tp182
a(I527
I1
F-0.5
S'browsing'
p183
I5
tp184
a(I535
I21
F-0.625
S'new'
p185
I5
tp186
a(I545
I17
F-0.5
S'heavy'
p187
I5
tp188
a(I603
I0
I0
S'big'
p189
I5
tp190
a(I663
I0
F-0.25
S'i'
p191
I5
tp192
a(I665
I0
F-0.5
S'heavy'
p193
I5
tp194
a(I723
I3
I0
S'few'
p195
I5
tp196
a(I781
I1
F0.625
S'playable'
p197
I5
tp198
a(I879
I1
F-0.5
S'heavy'
p199
I5
tp200
a(I920
I21
F1.0
S'excellent'
p201
I5
tp202
a(I925
I5
I-100
S'playg'
p203
I5
tp204
a(I925
I15
F-0.5
S'heavy'
p205
I5
tp206
a(I1015
I9
F0.75
S'easy'
p207
I5
tp208
a(I1026
I3
F0.625
S'tried'
p209
I5
tp210
a(I1060
I8
F-0.5
S'heavy'
p211
I5
tp212
a(I1064
I3
F-0.5
S'heavy'
p213
I5
tp214
a(I1075
I8
I0
S'more'
p215
I5
tp216
a(I1106
I0
F1.0
S'good'
p217
I5
tp218
a(I1106
I0
F1.0
S'good'
p219
I5
tp220
a(I1109
I2
F-0.5
S'heavy'
p221
I5
tp222
a(I1156
I3
F0.625
S'smooth'
p223
I5
tp224
a(I1165
I2
I0
S'installed'
p225
I5
tp226
a(I1184
I0
F1.0
S'good'
p227
I5
tp228
a(I1316
I7
F-0.25
S'i'
p229
I5
tp230
a(I1396
I2
I0
S'n'
p231
I5
tp232
a(I1519
I7
F0.75
S'due'
p233
I5
tp234
a(I1547
I20
I0
S'sure'
p235
I5
tp236
a(I1580
I25
I0
S'specific'
p237
I5
tp238
a(I1630
I1
I0
S'few'
p239
I5
tp240
a(I1660
I4
F1.0
S'good'
p241
I5
tp242
a(I1744
I7
I0
S'big'
p243
I5
tp244
a(I1880
I1
F0.625
S'smooth'
p245
I5
tp246
a(I1929
I4
F0.375
S'available'
p247
I5
tp248
a(I1972
I0
F-0.5
S'heavy'
p249
I5
tp250
a(I1983
I31
I0
S'big'
p251
I5
tp252
a(I2078
I0
F-0.5
S'heavy'
p253
I5
tp254
a(I2090
I4
F0.5
S'high'
p255
I5
tp256
a(I2090
I4
F0.625
S'graphic'
p257
I5
tp258
a(I2090
I4
F0.5
S'high'
p259
I5
tp260
a(I2097
I4
I0
g122
I5
tp261
as(S'no'
p262
S'gorilla'
p263
S'glass'
p264
tp265
(lp266
(I692
I8
I0
S'sure'
p267
I0
tp268
a(I692
I8
F-0.875
S'tough'
p269
I0
tp270
a(I1020
I1
F-0.75
S'slippery'
p271
I0
tp272
a(I1422
I0
F0.5
S'careful'
p273
I0
tp274
a(I1875
I21
F0.75
S'primary'
p275
I0
tp276
a(I24
I26
F0.125
S'equivalent'
p277
I2
tp278
a(I24
I26
F-0.875
S'lower'
p279
I2
tp280
a(I621
I4
F0.75
S'perfect'
p281
I2
tp282
a(I692
I8
I0
g267
I2
tp283
a(I692
I8
F-0.875
g269
I2
tp284
a(I716
I2
F0.25
S'special'
p285
I2
tp286
a(I716
I2
F0.375
S'toughened'
p287
I2
tp288
a(I1020
I1
F-0.75
g271
I2
tp289
a(I1092
I5
I0
S'protective'
p290
I2
tp291
a(I1422
I0
F0.5
g273
I2
tp292
a(I1875
I21
F0.75
g275
I2
tp293
as(S'camera'
p294
S'quality'
p295
S'good'
p296
tp297
(lp298
(I124
I1
F1.0
S'good'
p299
I0
tp300
a(I241
I33
F1.0
S'good'
p301
I0
tp302
a(I315
I5
F1.0
S'good'
p303
I0
tp304
a(I315
I6
F1.0
S'good'
p305
I0
tp306
a(I447
I12
F1.0
S'good'
p307
I0
tp308
a(I533
I0
F1.0
S'good'
p309
I0
tp310
a(I650
I1
F1.0
S'good'
p311
I0
tp312
a(I650
I1
F-0.125
S'front'
p313
I0
tp314
a(I650
I1
I0
S'main'
p315
I0
tp316
a(I705
I14
F1.0
S'good'
p317
I0
tp318
a(I725
I4
F1.0
S'good'
p319
I0
tp320
a(I744
I73
F-0.875
S'low'
p321
I0
tp322
a(I744
I73
F-0.875
S'low'
p323
I0
tp324
a(I797
I0
F-0.125
S'overall'
p325
I0
tp326
a(I797
I0
F1.0
S'good'
p327
I0
tp328
a(I797
I0
I0
S'camera'
p329
I0
tp330
a(I797
I0
F-0.875
S'low'
p331
I0
tp332
a(I797
I0
F0.5
S'accepted'
p333
I0
tp334
a(I848
I3
F1.0
S'good'
p335
I0
tp336
a(I878
I13
F1.0
S'good'
p337
I0
tp338
a(I878
I13
F-0.125
S'front'
p339
I0
tp340
a(I1008
I30
F1.0
S'good'
p341
I0
tp342
a(I1033
I0
F1.0
S'good'
p343
I0
tp344
a(I1304
I0
F1.0
S'good'
p345
I0
tp346
a(I1304
I0
F1.0
S'better'
p347
I0
tp348
a(I1429
I1
F1.0
S'good'
p349
I0
tp350
a(I1545
I12
F1.0
S'good'
p351
I0
tp352
a(I1545
I12
F-0.875
S'low'
p353
I0
tp354
a(I1615
I5
F1.0
S'good'
p355
I0
tp356
a(I1615
I5
F0.75
S'sound'
p357
I0
tp358
a(I1658
I8
F1.0
S'good'
p359
I0
tp360
a(I1739
I5
F0.625
S'fine'
p361
I0
tp362
a(I1744
I4
F1.0
S'good'
p363
I0
tp364
a(I1780
I7
F1.0
S'good'
p365
I0
tp366
a(I1810
I9
F1.0
S'good'
p367
I0
tp368
a(I1880
I3
F1.0
S'good'
p369
I0
tp370
a(I1880
I3
I0
S'rear'
p371
I0
tp372
a(I1880
I3
F1.0
S'good'
p373
I0
tp374
a(I1880
I3
F1.0
S'good'
p375
I0
tp376
a(I1882
I7
F-0.5
S'less'
p377
I0
tp378
a(I1882
I7
F1.0
S'good'
p379
I0
tp380
a(I1884
I1
F1.0
S'good'
p381
I0
tp382
a(I1904
I7
F-0.125
S'back'
p383
I0
tp384
a(I1904
I7
F1.0
S'good'
p385
I0
tp386
a(I1905
I6
F1.0
S'good'
p387
I0
tp388
a(I1913
I2
F1.0
S'good'
p389
I0
tp390
a(I1965
I15
F0.75
S'sound'
p391
I0
tp392
a(I1965
I15
F1.0
S'good'
p393
I0
tp394
a(I1965
I15
F0.5
S'slim'
p395
I0
tp396
a(I1965
I15
F0.875
S'nice'
p397
I0
tp398
a(I1965
I15
F-0.125
S'front'
p399
I0
tp400
a(I1965
I15
F0.875
S'nice'
p401
I0
tp402
a(I2070
I6
F1.0
S'better'
p403
I0
tp404
a(I2097
I2
F0.875
S'amazing'
p405
I0
tp406
a(I2097
I2
I0
S'n'
p407
I0
tp408
as(S'1'
p409
S'great'
p410
S'display'
p411
tp412
(lp413
(I1921
I4
F0.875
S'great'
p414
I0
tp415
as(S'good'
p416
S'front'
p417
S'camera'
p418
tp419
(lp420
(I85
I1
F1.0
S'good'
p421
I0
tp422
a(I85
I1
F1.0
S'better'
p423
I0
tp424
a(I186
I10
F1.0
S'good'
p425
I0
tp426
a(I253
I0
F-0.125
S'front'
p427
I0
tp428
a(I253
I0
F1.0
S'good'
p429
I0
tp430
a(I315
I6
I0
S'rear'
p431
I0
tp432
a(I368
I5
F1.0
S'best'
p433
I0
tp434
a(I368
I5
F1.0
S'good'
p435
I0
tp436
a(I385
I1
F0.5
S'weight'
p437
I0
tp438
a(I481
I12
F0.875
S'nice'
p439
I0
tp440
a(I510
I3
F-0.125
S'front'
p441
I0
tp442
a(I519
I5
F1.0
S'good'
p443
I0
tp444
a(I521
I29
F-0.125
S'front'
p445
I0
tp446
a(I521
I29
F1.0
S'good'
p447
I0
tp448
a(I533
I0
F1.0
g309
I0
tp449
a(I584
I0
F-0.75
S'secondary'
p450
I0
tp451
a(I584
I0
F1.0
S'good'
p452
I0
tp453
a(I650
I1
F-0.125
g313
I0
tp454
a(I650
I1
I0
g315
I0
tp455
a(I739
I0
F1.0
S'good'
p456
I0
tp457
a(I744
I73
F-0.625
S'real'
p458
I0
tp459
a(I745
I5
F1.0
S'good'
p460
I0
tp461
a(I861
I8
F0.375
S'impressive'
p462
I0
tp463
a(I878
I13
F-0.125
g339
I0
tp464
a(I914
I0
F1.0
S'good'
p465
I0
tp466
a(I955
I1
F-0.125
S'front'
p467
I0
tp468
a(I977
I0
F1.0
S'good'
p469
I0
tp470
a(I991
I0
F1.0
S'good'
p471
I0
tp472
a(I1064
I6
F-0.125
S'front'
p473
I0
tp474
a(I1064
I6
F1.0
S'good'
p475
I0
tp476
a(I1114
I0
I0
S'rear'
p477
I0
tp478
a(I1114
I0
F-0.125
S'front'
p479
I0
tp480
a(I1114
I0
F1.0
S'good'
p481
I0
tp482
a(I1128
I0
F1.0
S'good'
p483
I0
tp484
a(I1128
I0
F-0.125
S'front'
p485
I0
tp486
a(I1387
I0
F1.0
S'good'
p487
I0
tp488
a(I1555
I0
F1.0
S'good'
p489
I0
tp490
a(I1555
I1
I0
S'rear'
p491
I0
tp492
a(I1555
I1
I0
S'pic'
p493
I0
tp494
a(I1580
I19
F-0.625
S'average'
p495
I0
tp496
a(I1580
I19
F-0.125
S'front'
p497
I0
tp498
a(I1580
I19
F1.0
S'good'
p499
I0
tp500
a(I1614
I9
F1.0
S'good'
p501
I0
tp502
a(I1619
I0
F-0.125
S'front'
p503
I0
tp504
a(I1768
I8
F1.0
S'good'
p505
I0
tp506
a(I1768
I8
F-0.125
S'front'
p507
I0
tp508
a(I1768
I8
I0
S'rear'
p509
I0
tp510
a(I1787
I0
F-0.125
S'front'
p511
I0
tp512
a(I1787
I0
I0
S'rear'
p513
I0
tp514
a(I1787
I0
F1.0
S'good'
p515
I0
tp516
a(I1880
I3
F1.0
g369
I0
tp517
a(I1880
I3
I0
g371
I0
tp518
a(I1880
I3
F1.0
g373
I0
tp519
a(I1882
I9
F-1.0
S'bad'
p520
I0
tp521
a(I1882
I9
F-1.0
S'bad'
p522
I0
tp523
a(I1882
I9
F1.0
S'good'
p524
I0
tp525
a(I1948
I0
F-0.125
S'front'
p526
I0
tp527
a(I1948
I0
F-0.75
S'imaginary'
p528
I0
tp529
a(I1965
I15
F0.875
g397
I0
tp530
a(I1965
I15
F-0.125
g399
I0
tp531
a(I1965
I15
F0.875
g401
I0
tp532
a(I2046
I0
F1.0
S'good'
p533
I0
tp534
a(I24
I33
F1.0
S'good'
p535
I3
tp536
a(I24
I36
I0
S'rear'
p537
I3
tp538
a(I24
I36
F1.0
S'good'
p539
I3
tp540
a(I85
I1
F1.0
g421
I3
tp541
a(I85
I1
F1.0
g423
I3
tp542
a(I101
I0
I0
S'rear'
p543
I3
tp544
a(I186
I10
F1.0
g425
I3
tp545
a(I191
I1
F1.0
S'good'
p546
I3
tp547
a(I219
I0
F1.0
S'good'
p548
I3
tp549
a(I221
I9
F-0.625
S'other'
p550
I3
tp551
a(I253
I0
F-0.125
g427
I3
tp552
a(I253
I0
F1.0
g429
I3
tp553
a(I254
I0
F1.0
S'good'
p554
I3
tp555
a(I353
I0
F1.0
S'good'
p556
I3
tp557
a(I368
I5
F1.0
g435
I3
tp558
a(I369
I2
F1.0
S'better'
p559
I3
tp560
a(I376
I1
F1.0
S'good'
p561
I3
tp562
a(I442
I43
F0.5
S'second'
p563
I3
tp564
a(I442
I43
F1.0
S'good'
p565
I3
tp566
a(I456
I17
F1.0
S'good'
p567
I3
tp568
a(I481
I1
F1.0
S'better'
p569
I3
tp570
a(I481
I12
F0.875
g439
I3
tp571
a(I502
I9
F0.375
S'ok'
p572
I3
tp573
a(I506
I11
F1.0
S'good'
p574
I3
tp575
a(I510
I3
F-0.125
g441
I3
tp576
a(I521
I29
F-0.125
g445
I3
tp577
a(I521
I29
F1.0
g447
I3
tp578
a(I533
I0
F1.0
g309
I3
tp579
a(I570
I38
F0.75
S'primary'
p580
I3
tp581
a(I570
I38
F1.0
S'good'
p582
I3
tp583
a(I570
I38
I0
S't'
p584
I3
tp585
a(I570
I38
F1.0
S'good'
p586
I3
tp587
a(I584
I0
F1.0
g452
I3
tp588
a(I595
I1
F1.0
S'good'
p589
I3
tp590
a(I650
I1
F-0.125
g313
I3
tp591
a(I650
I1
I0
g315
I3
tp592
a(I671
I1
F1.0
S'good'
p593
I3
tp594
a(I700
I0
F1.0
S'good'
p595
I3
tp596
a(I705
I12
F1.0
S'good'
p597
I3
tp598
a(I710
I0
F1.0
S'good'
p599
I3
tp600
a(I739
I0
F1.0
g456
I3
tp601
a(I743
I0
I0
S'mentioned'
p602
I3
tp603
a(I743
I0
F0.75
S'primary'
p604
I3
tp605
a(I743
I6
F1.0
S'good'
p606
I3
tp607
a(I745
I5
F1.0
g460
I3
tp608
a(I745
I14
F1.0
S'good'
p609
I3
tp610
a(I830
I0
F1.0
S'good'
p611
I3
tp612
a(I849
I0
F0.625
S'fine'
p613
I3
tp614
a(I878
I13
F-0.125
g339
I3
tp615
a(I899
I1
F1.0
S'good'
p616
I3
tp617
a(I920
I12
F-1.0
S'bad'
p618
I3
tp619
a(I938
I1
F1.0
S'good'
p620
I3
tp621
a(I955
I1
F-0.125
g467
I3
tp622
a(I986
I7
F1.0
S'good'
p623
I3
tp624
a(I987
I4
F1.0
S'good'
p625
I3
tp626
a(I987
I4
F0.875
S'decent'
p627
I3
tp628
a(I1006
I4
F1.0
S'good'
p629
I3
tp630
a(I1008
I7
F1.0
S'good'
p631
I3
tp632
a(I1014
I39
F0.875
S'decent'
p633
I3
tp634
a(I1064
I6
F-0.125
g473
I3
tp635
a(I1064
I6
F1.0
g475
I3
tp636
a(I1067
I0
I0
S'rear'
p637
I3
tp638
a(I1067
I0
F1.0
S'good'
p639
I3
tp640
a(I1090
I2
F1.0
S'good'
p641
I3
tp642
a(I1104
I1
F1.0
S'good'
p643
I3
tp644
a(I1114
I0
I0
g477
I3
tp645
a(I1114
I0
F-0.125
g479
I3
tp646
a(I1114
I0
F1.0
g481
I3
tp647
a(I1128
I0
F1.0
g483
I3
tp648
a(I1128
I0
F-0.125
g485
I3
tp649
a(I1131
I27
F1.0
S'good'
p650
I3
tp651
a(I1292
I6
F1.0
S'good'
p652
I3
tp653
a(I1307
I4
F1.0
S'good'
p654
I3
tp655
a(I1307
I5
F-0.5
S'disappointed'
p656
I3
tp657
a(I1307
I5
F1.0
S'good'
p658
I3
tp659
a(I1312
I1
F1.0
S'good'
p660
I3
tp661
a(I1323
I1
F1.0
S'good'
p662
I3
tp663
a(I1429
I0
F1.0
S'good'
p664
I3
tp665
a(I1545
I12
F1.0
g351
I3
tp666
a(I1555
I0
F1.0
g489
I3
tp667
a(I1555
I1
I0
g491
I3
tp668
a(I1555
I1
I0
g493
I3
tp669
a(I1580
I19
F-0.625
g495
I3
tp670
a(I1580
I19
F-0.125
g497
I3
tp671
a(I1580
I19
F1.0
g499
I3
tp672
a(I1586
I1
F1.0
S'good'
p673
I3
tp674
a(I1586
I1
F1.0
S'good'
p675
I3
tp676
a(I1587
I5
F1.0
S'good'
p677
I3
tp678
a(I1593
I2
F0.875
S'nice'
p679
I3
tp680
a(I1603
I0
F-0.625
S'average'
p681
I3
tp682
a(I1603
I0
F1.0
S'good'
p683
I3
tp684
a(I1614
I9
F1.0
g501
I3
tp685
a(I1619
I0
F-0.125
g503
I3
tp686
a(I1680
I17
F1.0
S'good'
p687
I3
tp688
a(I1733
I0
F-0.625
S'average'
p689
I3
tp690
a(I1739
I5
F0.625
g361
I3
tp691
a(I1752
I1
F1.0
S'good'
p692
I3
tp693
a(I1752
I6
F1.0
S'good'
p694
I3
tp695
a(I1756
I1
F0.625
S'extraordinary'
p696
I3
tp697
a(I1756
I1
F1.0
S'good'
p698
I3
tp699
a(I1765
I2
F1.0
S'good'
p700
I3
tp701
a(I1767
I1
F1.0
S'good'
p702
I3
tp703
a(I1768
I8
F1.0
g505
I3
tp704
a(I1768
I8
F-0.125
g507
I3
tp705
a(I1768
I8
I0
g509
I3
tp706
a(I1778
I0
F1.0
S'good'
p707
I3
tp708
a(I1787
I0
F-0.125
g511
I3
tp709
a(I1787
I0
I0
g513
I3
tp710
a(I1787
I0
F1.0
g515
I3
tp711
a(I1793
I1
F1.0
S'good'
p712
I3
tp713
a(I1802
I38
F1.0
S'better'
p714
I3
tp715
a(I1805
I16
I0
S'main'
p716
I3
tp717
a(I1810
I15
F1.0
S'good'
p718
I3
tp719
a(I1810
I15
F-0.625
S'new'
p720
I3
tp721
a(I1872
I7
F0.875
S'great'
p722
I3
tp723
a(I1880
I3
F1.0
g369
I3
tp724
a(I1880
I3
I0
g371
I3
tp725
a(I1880
I3
F1.0
g373
I3
tp726
a(I1882
I7
F-0.5
g377
I3
tp727
a(I1882
I9
F-1.0
g520
I3
tp728
a(I1882
I9
F1.0
g524
I3
tp729
a(I1885
I7
F1.0
S'good'
p730
I3
tp731
a(I1894
I11
F1.0
S'good'
p732
I3
tp733
a(I1904
I7
F-0.125
g383
I3
tp734
a(I1904
I7
F1.0
g385
I3
tp735
a(I1912
I1
F1.0
S'good'
p736
I3
tp737
a(I1926
I3
F0.875
S'great'
p738
I3
tp739
a(I1948
I0
F-0.125
g526
I3
tp740
a(I1948
I0
F-0.75
g528
I3
tp741
a(I1958
I7
F1.0
S'good'
p742
I3
tp743
a(I1965
I0
F1.0
S'good'
p744
I3
tp745
a(I1965
I15
F0.875
g397
I3
tp746
a(I1965
I15
F-0.125
g399
I3
tp747
a(I1965
I15
F0.875
g401
I3
tp748
a(I1983
I3
F1.0
S'good'
p749
I3
tp750
a(I2043
I1
F1.0
S'good'
p751
I3
tp752
a(I2076
I2
F1.0
S'good'
p753
I3
tp754
a(I2093
I0
F1.0
S'good'
p755
I3
tp756
a(I2093
I0
F1.0
S'best'
p757
I3
tp758
a(I2097
I2
I0
g407
I3
tp759
a(I6
I15
F-0.125
S'front'
p760
I6
tp761
a(I54
I29
F0.5
S'similar'
p762
I6
tp763
a(I66
I0
I0
S'rear'
p764
I6
tp765
a(I66
I0
F0.875
S'great'
p766
I6
tp767
a(I66
I0
F-0.125
S'front'
p768
I6
tp769
a(I66
I0
F1.0
S'excellent'
p770
I6
tp771
a(I85
I1
F1.0
g421
I6
tp772
a(I85
I1
F1.0
g423
I6
tp773
a(I107
I1
F-0.125
S'front'
p774
I6
tp775
a(I107
I1
F-0.625
S'horrible'
p776
I6
tp777
a(I183
I1
F-1.0
S'bad'
p778
I6
tp779
a(I186
I5
F0.5
S'visible'
p780
I6
tp781
a(I186
I10
F1.0
g425
I6
tp782
a(I214
I0
F-0.125
S'front'
p783
I6
tp784
a(I214
I0
F1.0
S'best'
p785
I6
tp786
a(I221
I5
F-0.125
S'front'
p787
I6
tp788
a(I253
I0
F-0.125
g427
I6
tp789
a(I253
I0
F1.0
g429
I6
tp790
a(I261
I1
F-0.125
S'front'
p791
I6
tp792
a(I301
I1
F-0.125
S'front'
p793
I6
tp794
a(I301
I1
F0.75
S'primary'
p795
I6
tp796
a(I315
I6
I0
g431
I6
tp797
a(I323
I0
F0.875
S'superb'
p798
I6
tp799
a(I368
I5
F1.0
g433
I6
tp800
a(I368
I5
F1.0
g435
I6
tp801
a(I385
I1
F0.5
g437
I6
tp802
a(I442
I0
F-0.875
S'poor'
p803
I6
tp804
a(I442
I56
F0.5
S'similar'
p805
I6
tp806
a(I447
I14
F-1.0
S'worst'
p807
I6
tp808
a(I458
I4
I0
S'main'
p809
I6
tp810
a(I481
I2
F1.0
S'better'
p811
I6
tp812
a(I481
I2
I0
S'rear'
p813
I6
tp814
a(I501
I0
I0
S'rear'
p815
I6
tp816
a(I501
I0
F0.875
S'great'
p817
I6
tp818
a(I501
I0
F-0.125
S'front'
p819
I6
tp820
a(I501
I0
F1.0
S'excellent'
p821
I6
tp822
a(I510
I3
F-0.125
g441
I6
tp823
a(I519
I5
F1.0
g443
I6
tp824
a(I521
I29
F-0.125
g445
I6
tp825
a(I521
I29
F1.0
g447
I6
tp826
a(I533
I0
F1.0
g309
I6
tp827
a(I540
I1
F-0.5
S'facing'
p828
I6
tp829
a(I540
I1
F-0.875
S'pathetic'
p830
I6
tp831
a(I558
I0
F-0.125
S'front'
p832
I6
tp833
a(I572
I9
F0.875
S'nice'
p834
I6
tp835
a(I584
I0
F-0.75
g450
I6
tp836
a(I584
I0
F1.0
g452
I6
tp837
a(I611
I16
F-1.0
S'bad'
p838
I6
tp839
a(I650
I1
F-0.125
g313
I6
tp840
a(I650
I1
I0
g315
I6
tp841
a(I718
I7
F-0.125
S'front'
p842
I6
tp843
a(I739
I0
F1.0
g456
I6
tp844
a(I744
I73
F-0.625
g458
I6
tp845
a(I745
I5
F1.0
g460
I6
tp846
a(I834
I19
I0
S'more'
p847
I6
tp848
a(I834
I19
F0.875
S'awesome'
p849
I6
tp850
a(I856
I23
F-0.125
S'front'
p851
I6
tp852
a(I856
I23
F0.875
S'awesome'
p853
I6
tp854
a(I861
I8
F0.375
g462
I6
tp855
a(I878
I13
F-0.125
g339
I6
tp856
a(I914
I0
F1.0
g465
I6
tp857
a(I925
I22
F0.125
S'indoor'
p858
I6
tp859
a(I925
I22
F-0.375
S'same'
p860
I6
tp861
a(I955
I1
F-0.125
g467
I6
tp862
a(I977
I0
F1.0
g469
I6
tp863
a(I985
I7
F-0.125
S'front'
p864
I6
tp865
a(I991
I0
F1.0
g471
I6
tp866
a(I1016
I6
F0.875
S'nice'
p867
I6
tp868
a(I1043
I0
F-1.0
S'bad'
p869
I6
tp870
a(I1064
I6
F-0.125
g473
I6
tp871
a(I1064
I6
F1.0
g475
I6
tp872
a(I1078
I0
F-0.125
S'front'
p873
I6
tp874
a(I1084
I0
F1.0
S'better'
p875
I6
tp876
a(I1084
I0
F-0.125
S'front'
p877
I6
tp878
a(I1084
I0
F-0.625
S'average'
p879
I6
tp880
a(I1114
I0
I0
g477
I6
tp881
a(I1114
I0
F-0.125
g479
I6
tp882
a(I1114
I0
F1.0
g481
I6
tp883
a(I1128
I0
F1.0
g483
I6
tp884
a(I1128
I0
F-0.125
g485
I6
tp885
a(I1133
I3
F0.875
S'great'
p886
I6
tp887
a(I1214
I2
I0
S'rear'
p888
I6
tp889
a(I1280
I4
F-0.125
S'front'
p890
I6
tp891
a(I1280
I4
F0.875
S'nice'
p892
I6
tp893
a(I1324
I19
F1.0
S'excellent'
p894
I6
tp895
a(I1324
I19
I0
S'rear'
p896
I6
tp897
a(I1345
I1
I0
S'rear'
p898
I6
tp899
a(I1365
I0
F-1.0
S'bad'
p900
I6
tp901
a(I1379
I15
F-0.125
S'front'
p902
I6
tp903
a(I1380
I0
F-0.125
S'front'
p904
I6
tp905
a(I1387
I0
F1.0
g487
I6
tp906
a(I1390
I27
F-1.0
S'bad'
p907
I6
tp908
a(I1499
I1
I0
S'rear'
p909
I6
tp910
a(I1519
I21
F-0.125
S'back'
p911
I6
tp912
a(I1519
I21
F-0.625
S'average'
p913
I6
tp914
a(I1545
I5
F-0.125
S'front'
p915
I6
tp916
a(I1555
I0
F1.0
g489
I6
tp917
a(I1555
I1
I0
g491
I6
tp918
a(I1555
I1
I0
g493
I6
tp919
a(I1580
I19
F-0.625
g495
I6
tp920
a(I1580
I19
F-0.125
g497
I6
tp921
a(I1580
I19
F1.0
g499
I6
tp922
a(I1613
I4
F0.125
S'mobile'
p923
I6
tp924
a(I1614
I9
F1.0
g501
I6
tp925
a(I1619
I0
F-0.125
g503
I6
tp926
a(I1726
I5
F1.0
S'excellent'
p927
I6
tp928
a(I1732
I8
F0.625
S'fine'
p929
I6
tp930
a(I1744
I5
F0.875
S'awesome'
p931
I6
tp932
a(I1768
I8
F1.0
g505
I6
tp933
a(I1768
I8
F-0.125
g507
I6
tp934
a(I1768
I8
I0
g509
I6
tp935
a(I1787
I0
F-0.125
g511
I6
tp936
a(I1787
I0
I0
g513
I6
tp937
a(I1787
I0
F1.0
g515
I6
tp938
a(I1802
I15
F-0.125
S'front'
p939
I6
tp940
a(I1880
I3
F1.0
g369
I6
tp941
a(I1880
I3
I0
g371
I6
tp942
a(I1880
I3
F1.0
g373
I6
tp943
a(I1882
I9
F-1.0
g520
I6
tp944
a(I1882
I9
F-1.0
g522
I6
tp945
a(I1882
I9
F1.0
g524
I6
tp946
a(I1885
I5
F-0.125
S'front'
p947
I6
tp948
a(I1885
I5
F-0.875
S'poor'
p949
I6
tp950
a(I1896
I1
F-1.0
S'bad'
p951
I6
tp952
a(I1922
I1
F-0.125
S'front'
p953
I6
tp954
a(I1927
I13
F0.875
S'decent'
p955
I6
tp956
a(I1927
I13
F-0.125
S'front'
p957
I6
tp958
a(I1927
I13
I0
S'rear'
p959
I6
tp960
a(I1945
I3
F-0.125
S'front'
p961
I6
tp962
a(I1945
I3
I0
S'rear'
p963
I6
tp964
a(I1945
I3
F0.875
S'great'
p965
I6
tp966
a(I1948
I0
F-0.125
g526
I6
tp967
a(I1948
I0
F-0.75
g528
I6
tp968
a(I1965
I15
F0.875
g397
I6
tp969
a(I1965
I15
F-0.125
g399
I6
tp970
a(I1965
I15
F0.875
g401
I6
tp971
a(I2046
I0
F1.0
g533
I6
tp972
a(I2078
I7
F-0.625
S'average'
p973
I6
tp974
a(I2078
I7
F-0.125
S'front'
p975
I6
tp976
a(I2090
I2
I0
S'rear'
p977
I6
tp978
a(I2097
I4
F-0.125
S'front'
p979
I6
tp980
a(I2097
I4
F-0.125
S'back'
p981
I6
tp982
a(I24
I33
F1.0
g535
I0
tp983
a(I24
I36
I0
g537
I0
tp984
a(I24
I36
F1.0
g539
I0
tp985
a(I85
I1
F1.0
g421
I0
tp986
a(I85
I1
F1.0
g423
I0
tp987
a(I101
I0
I0
g543
I0
tp988
a(I186
I10
F1.0
g425
I0
tp989
a(I191
I1
F1.0
g546
I0
tp990
a(I219
I0
F1.0
g548
I0
tp991
a(I221
I9
F-0.625
g550
I0
tp992
a(I253
I0
F-0.125
g427
I0
tp993
a(I253
I0
F1.0
g429
I0
tp994
a(I254
I0
F1.0
g554
I0
tp995
a(I353
I0
F1.0
g556
I0
tp996
a(I368
I5
F1.0
g435
I0
tp997
a(I369
I2
F1.0
g559
I0
tp998
a(I376
I1
F1.0
g561
I0
tp999
a(I442
I43
F0.5
g563
I0
tp1000
a(I442
I43
F1.0
g565
I0
tp1001
a(I456
I17
F1.0
g567
I0
tp1002
a(I481
I1
F1.0
g569
I0
tp1003
a(I481
I12
F0.875
g439
I0
tp1004
a(I502
I9
F0.375
g572
I0
tp1005
a(I506
I11
F1.0
g574
I0
tp1006
a(I510
I3
F-0.125
g441
I0
tp1007
a(I521
I29
F-0.125
g445
I0
tp1008
a(I521
I29
F1.0
g447
I0
tp1009
a(I533
I0
F1.0
g309
I0
tp1010
a(I570
I38
F0.75
g580
I0
tp1011
a(I570
I38
F1.0
g582
I0
tp1012
a(I570
I38
I0
g584
I0
tp1013
a(I570
I38
F1.0
g586
I0
tp1014
a(I584
I0
F1.0
g452
I0
tp1015
a(I595
I1
F1.0
g589
I0
tp1016
a(I650
I1
F-0.125
g313
I0
tp1017
a(I650
I1
I0
g315
I0
tp1018
a(I671
I1
F1.0
g593
I0
tp1019
a(I700
I0
F1.0
g595
I0
tp1020
a(I705
I12
F1.0
g597
I0
tp1021
a(I710
I0
F1.0
g599
I0
tp1022
a(I739
I0
F1.0
g456
I0
tp1023
a(I743
I0
I0
g602
I0
tp1024
a(I743
I0
F0.75
g604
I0
tp1025
a(I743
I6
F1.0
g606
I0
tp1026
a(I745
I5
F1.0
g460
I0
tp1027
a(I745
I14
F1.0
g609
I0
tp1028
a(I830
I0
F1.0
g611
I0
tp1029
a(I849
I0
F0.625
g613
I0
tp1030
a(I878
I13
F-0.125
g339
I0
tp1031
a(I899
I1
F1.0
g616
I0
tp1032
a(I920
I12
F-1.0
g618
I0
tp1033
a(I938
I1
F1.0
g620
I0
tp1034
a(I955
I1
F-0.125
g467
I0
tp1035
a(I986
I7
F1.0
g623
I0
tp1036
a(I987
I4
F1.0
g625
I0
tp1037
a(I987
I4
F0.875
g627
I0
tp1038
a(I1006
I4
F1.0
g629
I0
tp1039
a(I1008
I7
F1.0
g631
I0
tp1040
a(I1014
I39
F0.875
g633
I0
tp1041
a(I1064
I6
F-0.125
g473
I0
tp1042
a(I1064
I6
F1.0
g475
I0
tp1043
a(I1067
I0
I0
g637
I0
tp1044
a(I1067
I0
F1.0
g639
I0
tp1045
a(I1090
I2
F1.0
g641
I0
tp1046
a(I1104
I1
F1.0
g643
I0
tp1047
a(I1114
I0
I0
g477
I0
tp1048
a(I1114
I0
F-0.125
g479
I0
tp1049
a(I1114
I0
F1.0
g481
I0
tp1050
a(I1128
I0
F1.0
g483
I0
tp1051
a(I1128
I0
F-0.125
g485
I0
tp1052
a(I1131
I27
F1.0
g650
I0
tp1053
a(I1292
I6
F1.0
g652
I0
tp1054
a(I1307
I4
F1.0
g654
I0
tp1055
a(I1307
I5
F-0.5
g656
I0
tp1056
a(I1307
I5
F1.0
g658
I0
tp1057
a(I1312
I1
F1.0
g660
I0
tp1058
a(I1323
I1
F1.0
g662
I0
tp1059
a(I1429
I0
F1.0
g664
I0
tp1060
a(I1545
I12
F1.0
g351
I0
tp1061
a(I1555
I0
F1.0
g489
I0
tp1062
a(I1555
I1
I0
g491
I0
tp1063
a(I1555
I1
I0
g493
I0
tp1064
a(I1580
I19
F-0.625
g495
I0
tp1065
a(I1580
I19
F-0.125
g497
I0
tp1066
a(I1580
I19
F1.0
g499
I0
tp1067
a(I1586
I1
F1.0
g673
I0
tp1068
a(I1586
I1
F1.0
g675
I0
tp1069
a(I1587
I5
F1.0
g677
I0
tp1070
a(I1593
I2
F0.875
g679
I0
tp1071
a(I1603
I0
F-0.625
g681
I0
tp1072
a(I1603
I0
F1.0
g683
I0
tp1073
a(I1614
I9
F1.0
g501
I0
tp1074
a(I1619
I0
F-0.125
g503
I0
tp1075
a(I1680
I17
F1.0
g687
I0
tp1076
a(I1733
I0
F-0.625
g689
I0
tp1077
a(I1739
I5
F0.625
g361
I0
tp1078
a(I1752
I1
F1.0
g692
I0
tp1079
a(I1752
I6
F1.0
g694
I0
tp1080
a(I1756
I1
F0.625
g696
I0
tp1081
a(I1756
I1
F1.0
g698
I0
tp1082
a(I1765
I2
F1.0
g700
I0
tp1083
a(I1767
I1
F1.0
g702
I0
tp1084
a(I1768
I8
F1.0
g505
I0
tp1085
a(I1768
I8
F-0.125
g507
I0
tp1086
a(I1768
I8
I0
g509
I0
tp1087
a(I1778
I0
F1.0
g707
I0
tp1088
a(I1787
I0
F-0.125
g511
I0
tp1089
a(I1787
I0
I0
g513
I0
tp1090
a(I1787
I0
F1.0
g515
I0
tp1091
a(I1793
I1
F1.0
g712
I0
tp1092
a(I1802
I38
F1.0
g714
I0
tp1093
a(I1805
I16
I0
g716
I0
tp1094
a(I1810
I15
F1.0
g718
I0
tp1095
a(I1810
I15
F-0.625
g720
I0
tp1096
a(I1872
I7
F0.875
g722
I0
tp1097
a(I1880
I3
F1.0
g369
I0
tp1098
a(I1880
I3
I0
g371
I0
tp1099
a(I1880
I3
F1.0
g373
I0
tp1100
a(I1882
I7
F-0.5
g377
I0
tp1101
a(I1882
I9
F-1.0
g520
I0
tp1102
a(I1882
I9
F1.0
g524
I0
tp1103
a(I1885
I7
F1.0
g730
I0
tp1104
a(I1894
I11
F1.0
g732
I0
tp1105
a(I1904
I7
F-0.125
g383
I0
tp1106
a(I1904
I7
F1.0
g385
I0
tp1107
a(I1912
I1
F1.0
g736
I0
tp1108
a(I1926
I3
F0.875
g738
I0
tp1109
a(I1948
I0
F-0.125
g526
I0
tp1110
a(I1948
I0
F-0.75
g528
I0
tp1111
a(I1958
I7
F1.0
g742
I0
tp1112
a(I1965
I0
F1.0
g744
I0
tp1113
a(I1965
I15
F0.875
g397
I0
tp1114
a(I1965
I15
F-0.125
g399
I0
tp1115
a(I1965
I15
F0.875
g401
I0
tp1116
a(I1983
I3
F1.0
g749
I0
tp1117
a(I2043
I1
F1.0
g751
I0
tp1118
a(I2076
I2
F1.0
g753
I0
tp1119
a(I2093
I0
F1.0
g755
I0
tp1120
a(I2093
I0
F1.0
g757
I0
tp1121
a(I2097
I2
I0
g407
I0
tp1122
a(I315
I6
I0
g431
I14
tp1123
a(I323
I0
F0.875
g798
I14
tp1124
a(I368
I5
F1.0
g433
I14
tp1125
a(I385
I1
F0.5
g437
I14
tp1126
a(I519
I5
F1.0
g443
I14
tp1127
a(I584
I0
F-0.75
g450
I14
tp1128
a(I611
I16
F-1.0
g838
I14
tp1129
a(I744
I73
F-0.625
g458
I14
tp1130
a(I750
I1
F0.5
S'stylish'
p1131
I14
tp1132
a(I750
I1
F0.5
S'thin'
p1133
I14
tp1134
a(I861
I8
F0.375
g462
I14
tp1135
a(I914
I0
F1.0
g465
I14
tp1136
a(I925
I22
F0.125
g858
I14
tp1137
a(I925
I22
F-0.375
g860
I14
tp1138
a(I977
I0
F1.0
g469
I14
tp1139
a(I991
I0
F1.0
g471
I14
tp1140
a(I1345
I1
I0
g898
I14
tp1141
a(I1387
I0
F1.0
g487
I14
tp1142
a(I1390
I27
F-1.0
g907
I14
tp1143
a(I1407
I0
F-0.125
S'back'
p1144
I14
tp1145
a(I1519
I21
F-0.625
g913
I14
tp1146
a(I1613
I4
F0.125
g923
I14
tp1147
a(I1882
I9
F-1.0
g522
I14
tp1148
a(I2046
I0
F1.0
g533
I14
tp1149
as(S'month'
p1150
tp1151
(lp1152
(I161
I2
F-0.625
S'last'
p1153
I16
tp1154
a(I445
I1
F-0.375
S'stop'
p1155
I16
tp1156
a(I449
I2
F0.625
S'fine'
p1157
I16
tp1158
a(I449
I4
F0.5
S'old'
p1159
I16
tp1160
a(I574
I15
F-0.375
S'half'
p1161
I16
tp1162
a(I675
I2
I0
S'initial'
p1163
I16
tp1164
a(I675
I2
F0.625
S'first'
p1165
I16
tp1166
a(I723
I5
F-0.375
S'half'
p1167
I16
tp1168
a(I766
I0
F-0.625
S'last'
p1169
I16
tp1170
a(I1193
I1
F0.625
S'first'
p1171
I16
tp1172
a(I1193
I1
F1.0
S'good'
p1173
I16
tp1174
a(I1694
I2
I0
S'more'
p1175
I16
tp1176
a(I1698
I0
F0.875
S'happy'
p1177
I16
tp1178
a(I1701
I0
F-0.5
S'less'
p1179
I16
tp1180
a(I1779
I24
I0
S'more'
p1181
I16
tp1182
a(I1779
I24
F0.125
S'mobile'
p1183
I16
tp1184
a(I1824
I6
I0
S's'
p1185
I16
tp1186
a(I1923
I0
F1.0
S'good'
p1187
I16
tp1188
a(I1926
I6
F-0.625
S'last'
p1189
I16
tp1190
a(I1929
I24
F0.75
S'complete'
p1191
I16
tp1192
a(I2078
I6
F-0.125
S'overall'
p1193
I16
tp1194
a(I2099
I0
I-100
S'whithin'
p1195
I16
tp1196
as(S'playing'
p1197
S'games'
p1198
tp1199
(lp1200
(I527
I1
F-0.5
g183
I1
tp1201
a(I545
I17
F-0.5
g187
I1
tp1202
a(I879
I1
F-0.5
g199
I1
tp1203
a(I1026
I3
F0.625
g209
I1
tp1204
a(I1064
I3
F-0.5
g213
I1
tp1205
a(I1316
I7
F-0.25
g229
I1
tp1206
a(I1396
I2
I0
g231
I1
tp1207
a(I1660
I4
F1.0
g241
I1
tp1208
a(I1744
I7
I0
g243
I1
tp1209
a(I2090
I4
F0.5
g255
I1
tp1210
a(I2090
I4
F0.625
g257
I1
tp1211
a(I2090
I4
F0.5
g259
I1
tp1212
as(S'average'
p1213
tp1214
(lp1215
(I133
I9
F1.0
S'good'
p1216
I12
tp1217
a(I214
I0
I0
S'kinda'
p1218
I12
tp1219
a(I233
I0
I0
S'below'
p1220
I12
tp1221
a(I233
I0
F-1.0
S'bad'
p1222
I12
tp1223
a(I305
I14
I0
S'below'
p1224
I12
tp1225
a(I390
I0
I0
S'more'
p1226
I12
tp1227
a(I570
I39
I0
S'above'
p1228
I12
tp1229
a(I570
I39
I0
S's'
p1230
I12
tp1231
a(I834
I31
I0
S'above'
p1232
I12
tp1233
a(I1480
I1
I0
S'below'
p1234
I12
tp1235
a(I1519
I21
I0
S'above'
p1236
I12
tp1237
as(S'look'
p1238
S'and'
p1239
S'feel'
p1240
tp1241
(lp1242
(I1015
I3
F0.375
S'sleek'
p1243
I0
tp1244
a(I1496
I2
F0.625
S'rich'
p1245
I0
tp1246
a(I1801
I0
F0.625
S'fine'
p1247
I0
tp1248
a(I2032
I1
F1.0
S'good'
p1249
I0
tp1250
a(I118
I1
F-0.125
S'overall'
p1251
I10
tp1252
a(I295
I1
F1.0
S'better'
p1253
I10
tp1254
a(I379
I2
F0.875
S'great'
p1255
I10
tp1256
a(I447
I40
I0
S't'
p1257
I10
tp1258
a(I856
I22
I0
S'u'
p1259
I10
tp1260
a(I856
I22
I0
S'u'
p1261
I10
tp1262
a(I1496
I2
F0.625
g1245
I10
tp1263
a(I1539
I0
F-0.875
S'cheap'
p1264
I10
tp1265
a(I1545
I17
F-0.75
S'free'
p1266
I10
tp1267
a(I1768
I5
I0
S'u'
p1268
I10
tp1269
a(I2032
I1
F1.0
g1249
I10
tp1270
as(S'sd'
p1271
S'card'
p1272
tp1273
(lp1274
(I36
I0
F0.125
S'movable'
p1275
I0
tp1276
a(I186
I15
I0
S'sd'
p1277
I0
tp1278
a(I833
I19
I0
S'sd'
p1279
I0
tp1280
a(I955
I2
F-0.25
S'micro'
p1281
I0
tp1282
a(I955
I2
I0
S'sd'
p1283
I0
tp1284
a(I1131
I38
I0
S'download'
p1285
I0
tp1286
a(I1635
I3
I0
S'many'
p1287
I0
tp1288
a(I1739
I10
I0
S'sd'
p1289
I0
tp1290
a(I1744
I8
F-0.25
S'external'
p1291
I0
tp1292
a(I36
I0
F0.125
g1275
I8
tp1293
a(I186
I15
I0
g1277
I8
tp1294
a(I186
I16
F-0.25
S'external'
p1295
I8
tp1296
a(I477
I14
F-0.25
S'external'
p1297
I8
tp1298
a(I759
I6
F-0.25
S'external'
p1299
I8
tp1300
a(I833
I19
I0
g1279
I8
tp1301
a(I879
I3
F-0.625
S'inevitable'
p1302
I8
tp1303
a(I955
I2
F-0.25
g1281
I8
tp1304
a(I955
I2
I0
g1283
I8
tp1305
a(I1131
I38
I0
g1285
I8
tp1306
a(I1200
I3
I-100
S'succesful'
p1307
I8
tp1308
a(I1635
I3
I0
g1287
I8
tp1309
a(I1719
I0
F0.125
S'memory'
p1310
I8
tp1311
a(I1739
I10
I0
g1289
I8
tp1312
as(S'lenovo'
p1313
S'a7000'
p1314
S'mobile'
p1315
tp1316
(lp1317
(I178
I6
F-0.25
S'i'
p1318
I0
tp1319
a(I178
I6
F-1.0
S'worst'
p1320
I0
tp1321
a(I447
I43
F0.125
S'mobile'
p1322
I0
tp1323
a(I572
I1
F0.125
S'mobile'
p1324
I0
tp1325
a(I744
I59
F0.125
S'mobile'
p1326
I0
tp1327
a(I1195
I6
F0.75
S'white'
p1328
I0
tp1329
a(I1210
I8
F0.125
S'mobile'
p1330
I0
tp1331
a(I1657
I6
F1.0
S'good'
p1332
I0
tp1333
a(I1779
I24
F1.0
S'good'
p1334
I0
tp1335
a(I1872
I12
F0.125
S'mobile'
p1336
I0
tp1337
as(S'experience'
p1338
tp1339
(lp1340
(I24
I27
F0.875
S'amazing'
p1341
I12
tp1342
a(I24
I28
F0.875
S'nice'
p1343
I12
tp1344
a(I30
I16
F-0.5
S'priding'
p1345
I12
tp1346
a(I54
I2
I0
S'different'
p1347
I12
tp1348
a(I66
I8
F-1.0
S'bad'
p1349
I12
tp1350
a(I66
I8
F-1.0
S'bad'
p1351
I12
tp1352
a(I66
I10
F-0.875
S'pathetic'
p1353
I12
tp1354
a(I117
I4
F0.875
S'great'
p1355
I12
tp1356
a(I139
I0
F1.0
S'best'
p1357
I12
tp1358
a(I139
I0
I-100
S'musik'
p1359
I12
tp1360
a(I201
I2
F0.875
S'great'
p1361
I12
tp1362
a(I270
I1
F0.875
S'superb'
p1363
I12
tp1364
a(I363
I2
F0.875
S'great'
p1365
I12
tp1366
a(I379
I10
F-0.125
S'overall'
p1367
I12
tp1368
a(I379
I17
F0.75
S'pleasant'
p1369
I12
tp1370
a(I504
I0
F0.75
S'fair'
p1371
I12
tp1372
a(I586
I4
F-0.125
S'cant'
p1373
I12
tp1374
a(I604
I2
F-1.0
S'worst'
p1375
I12
tp1376
a(I604
I2
I0
S'touchscreen'
p1377
I12
tp1378
a(I621
I2
I0
S'total'
p1379
I12
tp1380
a(I621
I2
F0.875
S'nice'
p1381
I12
tp1382
a(I672
I0
F1.0
S'good'
p1383
I12
tp1384
a(I674
I4
F0.875
S'awesome'
p1385
I12
tp1386
a(I676
I5
F0.5
S'personal'
p1387
I12
tp1388
a(I745
I8
F1.0
S'good'
p1389
I12
tp1390
a(I772
I10
F-1.0
S'bad'
p1391
I12
tp1392
a(I942
I1
F-1.0
S'bad'
p1393
I12
tp1394
a(I1131
I33
F-0.125
S'overall'
p1395
I12
tp1396
a(I1131
I33
F1.0
S'good'
p1397
I12
tp1398
a(I1144
I1
F0.875
S'amazing'
p1399
I12
tp1400
a(I1222
I1
F0.5
S'practical'
p1401
I12
tp1402
a(I1229
I1
F-1.0
S'bad'
p1403
I12
tp1404
a(I1229
I1
F0.125
S'mobile'
p1405
I12
tp1406
a(I1229
I4
F-1.0
S'worst'
p1407
I12
tp1408
a(I1336
I34
F0.875
S'great'
p1409
I12
tp1410
a(I1594
I1
F0.875
S'happy'
p1411
I12
tp1412
a(I1594
I1
F-0.125
S'overall'
p1413
I12
tp1414
a(I1600
I0
F0.875
S'music'
p1415
I12
tp1416
a(I1600
I0
F1.0
S'good'
p1417
I12
tp1418
a(I1732
I42
F0.875
S'nice'
p1419
I12
tp1420
a(I1779
I18
F0.125
S'please'
p1421
I12
tp1422
a(I1780
I10
F-0.125
S'overall'
p1423
I12
tp1424
a(I1780
I10
F-0.875
S'positive'
p1425
I12
tp1426
a(I1780
I11
F-1.0
S'bad'
p1427
I12
tp1428
a(I1780
I16
F0.5
S'satisfactory'
p1429
I12
tp1430
a(I1798
I0
F0.875
S'great'
p1431
I12
tp1432
a(I1880
I9
I0
S'more'
p1433
I12
tp1434
a(I1928
I5
F1.0
S'good'
p1435
I12
tp1436
a(I1956
I8
F-1.0
S'bad'
p1437
I12
tp1438
as(S'modern'
p1439
S'combat'
p1440
tp1441
(lp1442
(I1109
I2
F0.5
S'modern'
p1443
I0
tp1444
as(S'please'
p1445
S'dont'
p1446
S'buy'
p1447
tp1448
(lp1449
(I37
I7
I0
S'u'
p1450
I0
tp1451
a(I880
I1
F0.125
S'please'
p1452
I0
tp1453
a(I1210
I3
I0
S'u'
p1454
I0
tp1455
a(I37
I7
I0
g1450
I8
tp1456
a(I506
I24
F-0.25
S'i'
p1457
I8
tp1458
a(I880
I1
F0.125
g1452
I8
tp1459
a(I1210
I3
I0
g1454
I8
tp1460
as(S'of'
p1461
S'touch'
p1462
S'screen'
p1463
tp1464
(lp1465
(I43
I12
F0.5
S'touch'
p1466
I0
tp1467
a(I311
I5
F0.5
S'touch'
p1468
I0
tp1469
a(I311
I5
F0.75
S'whole'
p1470
I0
tp1471
a(I444
I0
F0.5
S'touch'
p1472
I0
tp1473
a(I604
I4
F0.5
S'touch'
p1474
I0
tp1475
a(I1202
I4
F0.5
S'touch'
p1476
I0
tp1477
a(I1202
I4
F-0.75
S'dead'
p1478
I0
tp1479
a(I1202
I7
F0.5
S'touch'
p1480
I0
tp1481
a(I1615
I3
F0.5
S'touch'
p1482
I0
tp1483
a(I1615
I4
F0.5
S'touch'
p1484
I0
tp1485
a(I1653
I4
F0.5
S'touch'
p1486
I0
tp1487
a(I1680
I28
F0.5
S'touch'
p1488
I0
tp1489
a(I1680
I28
F-0.75
S'unresponsive'
p1490
I0
tp1491
a(I1736
I5
F0.5
S'touch'
p1492
I0
tp1493
a(I1741
I20
F0.5
S'touch'
p1494
I0
tp1495
a(I1835
I3
F0.5
S'touch'
p1496
I0
tp1497
a(I1927
I1
F0.5
S'touch'
p1498
I0
tp1499
a(I23
I2
F0.5
S'touch'
p1500
I2
tp1501
a(I43
I12
F0.5
g1466
I2
tp1502
a(I311
I5
F0.5
g1468
I2
tp1503
a(I311
I5
F0.75
g1470
I2
tp1504
a(I312
I5
F0.5
S'touch'
p1505
I2
tp1506
a(I444
I0
F0.5
g1472
I2
tp1507
a(I445
I0
F0.125
S'mobile'
p1508
I2
tp1509
a(I445
I0
F0.5
S'touch'
p1510
I2
tp1511
a(I470
I1
I0
S'many'
p1512
I2
tp1513
a(I540
I3
F0.5
S'touch'
p1514
I2
tp1515
a(I545
I9
F-0.125
S'swipe'
p1516
I2
tp1517
a(I570
I27
F0.25
S'receptive'
p1518
I2
tp1519
a(I570
I27
F1.0
S'good'
p1520
I2
tp1521
a(I574
I4
F1.0
S'good'
p1522
I2
tp1523
a(I604
I4
F0.5
g1474
I2
tp1524
a(I604
I6
F0.5
S'touch'
p1525
I2
tp1526
a(I629
I0
F1.0
S'good'
p1527
I2
tp1528
a(I643
I2
F0.5
S'touch'
p1529
I2
tp1530
a(I777
I4
F0.5
S'touch'
p1531
I2
tp1532
a(I777
I4
F1.0
S'good'
p1533
I2
tp1534
a(I1008
I34
F1.0
S'good'
p1535
I2
tp1536
a(I1163
I23
F1.0
S'good'
p1537
I2
tp1538
a(I1198
I5
F0.5
S'touch'
p1539
I2
tp1540
a(I1202
I2
F-0.75
S'short'
p1541
I2
tp1542
a(I1202
I4
F0.5
g1476
I2
tp1543
a(I1202
I4
F-0.75
g1478
I2
tp1544
a(I1202
I5
F-0.75
S'dead'
p1545
I2
tp1546
a(I1202
I5
F0.5
S'responsive'
p1547
I2
tp1548
a(I1202
I7
F0.5
g1480
I2
tp1549
a(I1583
I1
F0.5
S'touch'
p1550
I2
tp1551
a(I1583
I1
F-0.75
S'unresponsive'
p1552
I2
tp1553
a(I1583
I2
F0.75
S'whole'
p1554
I2
tp1555
a(I1583
I2
F-0.75
S'unresponsive'
p1556
I2
tp1557
a(I1608
I6
F0.5
S'touch'
p1558
I2
tp1559
a(I1608
I6
F-0.75
S'unresponsive'
p1560
I2
tp1561
a(I1608
I7
F0.75
S'whole'
p1562
I2
tp1563
a(I1608
I7
F-0.75
S'unresponsive'
p1564
I2
tp1565
a(I1615
I3
F0.5
g1482
I2
tp1566
a(I1615
I4
F0.5
g1484
I2
tp1567
a(I1653
I4
F0.5
g1486
I2
tp1568
a(I1680
I28
F0.5
g1488
I2
tp1569
a(I1680
I28
F-0.75
g1490
I2
tp1570
a(I1732
I15
F0.5
S'touch'
p1571
I2
tp1572
a(I1736
I5
F0.5
g1492
I2
tp1573
a(I1741
I20
F0.5
g1494
I2
tp1574
a(I1763
I1
F1.0
S'good'
p1575
I2
tp1576
a(I1798
I2
F0.5
S'touch'
p1577
I2
tp1578
a(I1802
I2
F0.5
S'touch'
p1579
I2
tp1580
a(I1832
I4
F0.5
S'touch'
p1581
I2
tp1582
a(I1833
I1
F0.5
S'touch'
p1583
I2
tp1584
a(I1835
I3
F0.5
g1496
I2
tp1585
a(I1858
I1
F0.5
S'touch'
p1586
I2
tp1587
a(I1876
I1
F0.5
S'touch'
p1588
I2
tp1589
a(I1905
I5
F0.5
S'touch'
p1590
I2
tp1591
a(I1920
I0
F0.5
S'touch'
p1592
I2
tp1593
a(I1927
I1
F0.5
g1498
I2
tp1594
as(S'5'
p1595
S'gb'
p1596
tp1597
(lp1598
(I446
I5
F0.25
S'able'
p1599
I0
tp1600
a(I506
I20
F0.5
S'internal'
p1601
I0
tp1602
a(I897
I3
F0.375
S'available'
p1603
I0
tp1604
a(I943
I1
F0.25
S'mandatory'
p1605
I0
tp1606
a(I943
I1
I0
S'least'
p1607
I0
tp1608
a(I955
I2
F0.5
S'internal'
p1609
I0
tp1610
a(I1038
I4
F0.25
S'usable'
p1611
I0
tp1612
a(I1549
I3
F0.5
S'internal'
p1613
I0
tp1614
as(S'poor'
p1615
S'camera'
p1616
S'quality'
p1617
tp1618
(lp1619
(I384
I5
F-0.875
S'poor'
p1620
I0
tp1621
a(I442
I0
F-0.875
g803
I0
tp1622
a(I442
I56
F0.75
S'sound'
p1623
I0
tp1624
a(I442
I56
F-0.875
S'cheapest'
p1625
I0
tp1626
a(I442
I56
F0.5
g805
I0
tp1627
a(I481
I11
F-0.875
S'poor'
p1628
I0
tp1629
a(I481
I11
F-1.0
S'worst'
p1630
I0
tp1631
a(I540
I0
F-0.875
S'poor'
p1632
I0
tp1633
a(I919
I1
F-0.875
S'poor'
p1634
I0
tp1635
a(I1214
I1
F-0.875
S'poor'
p1636
I0
tp1637
a(I1239
I1
F0.5
S'utterly'
p1638
I0
tp1639
a(I1239
I1
F-0.875
S'poor'
p1640
I0
tp1641
a(I1256
I0
F-0.875
S'poor'
p1642
I0
tp1643
a(I124
I1
F1.0
g299
I14
tp1644
a(I174
I0
F0.875
S'decent'
p1645
I14
tp1646
a(I221
I8
F0.375
S'ok'
p1647
I14
tp1648
a(I241
I33
F1.0
g301
I14
tp1649
a(I315
I5
F1.0
g303
I14
tp1650
a(I315
I6
F1.0
g305
I14
tp1651
a(I340
I0
I0
S'myth'
p1652
I14
tp1653
a(I340
I0
F1.0
S'better'
p1654
I14
tp1655
a(I384
I5
F-0.875
g1620
I14
tp1656
a(I442
I0
F-0.875
g803
I14
tp1657
a(I442
I56
F-0.875
g1625
I14
tp1658
a(I442
I56
F0.5
g805
I14
tp1659
a(I447
I12
F1.0
g307
I14
tp1660
a(I458
I11
F0.25
S'able'
p1661
I14
tp1662
a(I458
I11
F0.5
S'high'
p1663
I14
tp1664
a(I481
I11
F-0.875
g1628
I14
tp1665
a(I481
I11
F-1.0
g1630
I14
tp1666
a(I533
I0
F1.0
g309
I14
tp1667
a(I540
I0
F-0.875
g1632
I14
tp1668
a(I542
I12
F-1.0
S'bad'
p1669
I14
tp1670
a(I552
I1
F-0.875
S'pathetic'
p1671
I14
tp1672
a(I571
I2
F-0.625
S'average'
p1673
I14
tp1674
a(I572
I9
F0.875
g834
I14
tp1675
a(I650
I1
F1.0
g311
I14
tp1676
a(I650
I1
F-0.125
g313
I14
tp1677
a(I650
I1
I0
g315
I14
tp1678
a(I705
I14
F1.0
g317
I14
tp1679
a(I712
I10
F0.625
S'fine'
p1680
I14
tp1681
a(I725
I4
F1.0
g319
I14
tp1682
a(I744
I73
F-0.875
g321
I14
tp1683
a(I744
I73
F-0.875
g323
I14
tp1684
a(I755
I1
F-0.875
S'low'
p1685
I14
tp1686
a(I797
I0
F-0.125
g325
I14
tp1687
a(I797
I0
F1.0
g327
I14
tp1688
a(I797
I0
I0
g329
I14
tp1689
a(I797
I0
F-0.875
g331
I14
tp1690
a(I797
I0
F0.5
g333
I14
tp1691
a(I833
I17
F0.75
S'primary'
p1692
I14
tp1693
a(I833
I18
I0
S'more'
p1694
I14
tp1695
a(I833
I18
F0.125
S'please'
p1696
I14
tp1697
a(I834
I14
F0.75
S'sound'
p1698
I14
tp1699
a(I848
I3
F1.0
g335
I14
tp1700
a(I878
I13
F1.0
g337
I14
tp1701
a(I878
I13
F-0.125
g339
I14
tp1702
a(I919
I1
F-0.875
g1634
I14
tp1703
a(I920
I26
F1.0
S'better'
p1704
I14
tp1705
a(I925
I22
F0.875
S'nice'
p1706
I14
tp1707
a(I925
I22
F0.875
S'great'
p1708
I14
tp1709
a(I925
I22
F0.125
S'outdoor'
p1710
I14
tp1711
a(I925
I22
F-0.75
S'artificial'
p1712
I14
tp1713
a(I925
I22
F0.875
S'great'
p1714
I14
tp1715
a(I958
I7
F-1.0
S'bad'
p1716
I14
tp1717
a(I985
I7
F-0.125
g864
I14
tp1718
a(I985
I7
F-1.0
S'bad'
p1719
I14
tp1720
a(I1000
I0
F-0.625
S'average'
p1721
I14
tp1722
a(I1008
I30
F1.0
g341
I14
tp1723
a(I1033
I0
F1.0
g343
I14
tp1724
a(I1078
I2
F0.625
S'superior'
p1725
I14
tp1726
a(I1092
I12
F-0.5
S'less'
p1727
I14
tp1728
a(I1092
I12
F0.625
S'quality'
p1729
I14
tp1730
a(I1214
I1
F-0.875
g1636
I14
tp1731
a(I1239
I1
F0.5
g1638
I14
tp1732
a(I1239
I1
F-0.875
g1640
I14
tp1733
a(I1252
I5
F0.375
S'bed'
p1734
I14
tp1735
a(I1252
I7
F-0.875
S'cheap'
p1736
I14
tp1737
a(I1255
I0
F-0.5
S'frustrated'
p1738
I14
tp1739
a(I1256
I0
F-0.875
g1642
I14
tp1740
a(I1304
I0
F1.0
g345
I14
tp1741
a(I1304
I0
F1.0
g347
I14
tp1742
a(I1307
I0
F-1.0
S'bad'
p1743
I14
tp1744
a(I1334
I1
I0
S't'
p1745
I14
tp1746
a(I1345
I1
F-1.0
S'bad'
p1747
I14
tp1748
a(I1429
I1
F1.0
g349
I14
tp1749
a(I1545
I3
F-0.875
S'low'
p1750
I14
tp1751
a(I1545
I12
F1.0
g351
I14
tp1752
a(I1545
I12
F-0.875
g353
I14
tp1753
a(I1552
I1
F-0.625
S'average'
p1754
I14
tp1755
a(I1615
I5
F1.0
g355
I14
tp1756
a(I1615
I5
F0.75
g357
I14
tp1757
a(I1658
I8
F1.0
g359
I14
tp1758
a(I1739
I5
F0.625
g361
I14
tp1759
a(I1744
I4
F1.0
g363
I14
tp1760
a(I1753
I2
F0.875
S'nice'
p1761
I14
tp1762
a(I1774
I1
F0.625
S'fine'
p1763
I14
tp1764
a(I1780
I7
F1.0
g365
I14
tp1765
a(I1810
I9
F1.0
g367
I14
tp1766
a(I1875
I21
F-0.875
S'low'
p1767
I14
tp1768
a(I1875
I21
F-0.875
S'low'
p1769
I14
tp1770
a(I1875
I21
F-0.75
S'secondary'
p1771
I14
tp1772
a(I1875
I21
F-1.0
S'bad'
p1773
I14
tp1774
a(I1880
I3
F1.0
g369
I14
tp1775
a(I1880
I3
I0
g371
I14
tp1776
a(I1880
I3
F1.0
g373
I14
tp1777
a(I1880
I3
F1.0
g375
I14
tp1778
a(I1882
I7
F-0.5
g377
I14
tp1779
a(I1882
I7
F1.0
g379
I14
tp1780
a(I1884
I1
F1.0
g381
I14
tp1781
a(I1904
I7
F-0.125
g383
I14
tp1782
a(I1904
I7
F1.0
g385
I14
tp1783
a(I1905
I6
F1.0
g387
I14
tp1784
a(I1913
I2
F1.0
g389
I14
tp1785
a(I1965
I15
F0.75
g391
I14
tp1786
a(I1965
I15
F1.0
g393
I14
tp1787
a(I1965
I15
F0.5
g395
I14
tp1788
a(I1965
I15
F0.875
g397
I14
tp1789
a(I1965
I15
F-0.125
g399
I14
tp1790
a(I1965
I15
F0.875
g401
I14
tp1791
a(I2070
I6
F1.0
g403
I14
tp1792
a(I2090
I2
F0.5
S'high'
p1793
I14
tp1794
a(I2090
I2
I0
g977
I14
tp1795
a(I2097
I2
F0.875
g405
I14
tp1796
a(I2097
I2
I0
g407
I14
tp1797
as(S'with'
p1798
S'lenovo'
p1799
S'a7000'
p1800
tp1801
(lp1802
(I21
I2
F1.0
S'better'
p1803
I0
tp1804
a(I464
I0
F0.875
S'happy'
p1805
I0
tp1806
a(I701
I5
F-0.5
S'disappointed'
p1807
I0
tp1808
a(I772
I12
F0.375
S'satisfied'
p1809
I0
tp1810
a(I1713
I14
F0.875
S'happy'
p1811
I0
tp1812
a(I1768
I5
F0.375
S'much'
p1813
I0
tp1814
a(I21
I2
F1.0
g1803
I0
tp1815
a(I178
I6
F-0.25
g1318
I0
tp1816
a(I383
I5
F1.0
S'good'
p1817
I0
tp1818
a(I447
I43
F0.125
g1322
I0
tp1819
a(I502
I7
F-0.5
S'continuous'
p1820
I0
tp1821
a(I519
I4
F0.125
S'enough'
p1822
I0
tp1823
a(I572
I1
F0.125
g1324
I0
tp1824
a(I574
I5
F0.375
S'available'
p1825
I0
tp1826
a(I701
I5
F-0.5
g1807
I0
tp1827
a(I744
I59
F0.125
g1326
I0
tp1828
a(I772
I12
F0.375
g1809
I0
tp1829
a(I857
I0
F0.875
S'great'
p1830
I0
tp1831
a(I880
I0
I0
S'more'
p1832
I0
tp1833
a(I1014
I19
F0.875
S'happy'
p1834
I0
tp1835
a(I1041
I3
F0.5
S'entire'
p1836
I0
tp1837
a(I1195
I6
F0.75
g1328
I0
tp1838
a(I1210
I8
F0.125
g1330
I0
tp1839
a(I1219
I0
F-0.75
S'defective'
p1840
I0
tp1841
a(I1291
I3
I0
S'more'
p1842
I0
tp1843
a(I1713
I14
F0.875
g1811
I0
tp1844
a(I1734
I0
F-0.625
S'new'
p1845
I0
tp1846
a(I1768
I5
F0.375
g1813
I0
tp1847
a(I1872
I12
F0.125
g1336
I0
tp1848
a(I14
I5
F1.0
S'good'
p1849
I1
tp1850
a(I111
I5
F0.625
S'evident'
p1851
I1
tp1852
a(I111
I12
F-0.125
S'such'
p1853
I1
tp1854
a(I111
I12
F0.125
S'mobile'
p1855
I1
tp1856
a(I178
I6
F-0.25
g1318
I1
tp1857
a(I196
I11
I0
S'thanks'
p1858
I1
tp1859
a(I241
I7
F-1.0
S'worst'
p1860
I1
tp1861
a(I339
I2
F-0.875
S'smart'
p1862
I1
tp1863
a(I447
I43
F0.125
g1322
I1
tp1864
a(I457
I20
I0
S'few'
p1865
I1
tp1866
a(I457
I20
F0.875
S'awesome'
p1867
I1
tp1868
a(I458
I8
F-0.625
S'other'
p1869
I1
tp1870
a(I458
I42
F-0.125
S'overall'
p1871
I1
tp1872
a(I477
I11
I0
S'many'
p1873
I1
tp1874
a(I521
I15
F1.0
S'good'
p1875
I1
tp1876
a(I572
I1
F0.125
g1324
I1
tp1877
a(I574
I5
F0.375
g1825
I1
tp1878
a(I601
I11
F0.125
S'mobile'
p1879
I1
tp1880
a(I642
I7
F-0.125
S'cant'
p1881
I1
tp1882
a(I701
I5
F-0.5
g1807
I1
tp1883
a(I702
I1
F-0.25
S'i'
p1884
I1
tp1885
a(I726
I3
I0
S'many'
p1886
I1
tp1887
a(I726
I3
I0
S'more'
p1888
I1
tp1889
a(I744
I59
F0.125
g1326
I1
tp1890
a(I772
I12
F0.375
g1809
I1
tp1891
a(I880
I0
I0
g1832
I1
tp1892
a(I920
I9
I0
S'most'
p1893
I1
tp1894
a(I920
I9
I0
S'prior'
p1895
I1
tp1896
a(I940
I0
F0.875
S'awesome'
p1897
I1
tp1898
a(I1014
I19
F0.875
g1834
I1
tp1899
a(I1041
I3
F0.5
g1836
I1
tp1900
a(I1063
I0
F0.75
S'easy'
p1901
I1
tp1902
a(I1063
I0
F1.0
S'good'
p1903
I1
tp1904
a(I1079
I8
I0
S'sure'
p1905
I1
tp1906
a(I1110
I2
I0
S'user'
p1907
I1
tp1908
a(I1131
I10
I0
S'most'
p1909
I1
tp1910
a(I1193
I5
F0.5
S'ready'
p1911
I1
tp1912
a(I1195
I6
F0.75
g1328
I1
tp1913
a(I1219
I0
F-0.75
g1840
I1
tp1914
a(I1251
I10
F-0.875
S'wrong'
p1915
I1
tp1916
a(I1271
I2
F1.0
S'good'
p1917
I1
tp1918
a(I1291
I3
I0
g1842
I1
tp1919
a(I1291
I15
F-0.625
S'non'
p1920
I1
tp1921
a(I1291
I15
F-0.625
S'non'
p1922
I1
tp1923
a(I1390
I9
F0.75
S'supreme'
p1924
I1
tp1925
a(I1429
I4
F0.125
S'please'
p1926
I1
tp1927
a(I1654
I2
F0.125
S'mobile'
p1928
I1
tp1929
a(I1662
I9
F0.375
S'available'
p1930
I1
tp1931
a(I1680
I31
I0
S'many'
p1932
I1
tp1933
a(I1680
I31
F-0.625
S'other'
p1934
I1
tp1935
a(I1693
I15
I0
S'many'
p1936
I1
tp1937
a(I1713
I14
F0.875
g1811
I1
tp1938
a(I1725
I2
F-0.625
S'other'
p1939
I1
tp1940
a(I1802
I34
F0.5
S'recommended'
p1941
I1
tp1942
a(I1859
I1
F0.75
S'dear'
p1943
I1
tp1944
a(I1872
I12
F0.125
g1336
I1
tp1945
a(I1902
I5
F1.0
S'best'
p1946
I1
tp1947
a(I1957
I2
F-0.625
S'quiet'
p1948
I1
tp1949
a(I2077
I7
F0.125
S'mobile'
p1950
I1
tp1951
a(I2077
I8
F0.125
S'usual'
p1952
I1
tp1953
a(I2100
I1
I0
S'team'
p1954
I1
tp1955
a(I21
I2
F1.0
g1803
I0
tp1956
a(I383
I5
F1.0
g1817
I0
tp1957
a(I442
I36
F0.625
S'close'
p1958
I0
tp1959
a(I478
I7
I0
S'more'
p1960
I0
tp1961
a(I502
I7
F-0.5
g1820
I0
tp1962
a(I502
I13
F0.375
S'much'
p1963
I0
tp1964
a(I502
I20
F-0.125
S'overall'
p1965
I0
tp1966
a(I519
I4
F0.125
g1822
I0
tp1967
a(I606
I0
I-100
S'leneovo'
p1968
I0
tp1969
a(I857
I0
F0.875
g1830
I0
tp1970
a(I1016
I5
F0.125
S'mobile'
p1971
I0
tp1972
a(I1210
I8
F0.125
g1330
I0
tp1973
a(I1231
I19
I0
S'april'
p1974
I0
tp1975
a(I1545
I10
F1.0
S'good'
p1976
I0
tp1977
a(I1734
I0
F-0.625
g1845
I0
tp1978
a(I1768
I5
F0.375
g1813
I0
tp1979
a(I1982
I3
F-0.25
S'previous'
p1980
I0
tp1981
as(S'waste'
p1982
S'of'
p1983
S'money'
p1984
tp1985
(lp1986
(I218
I0
I0
S'total'
p1987
I5
tp1988
a(I1348
I0
I0
S'total'
p1989
I5
tp1990
a(I1392
I1
I0
S'total'
p1991
I5
tp1992
as(S'gaming'
p1993
tp1994
(lp1995
(I55
I23
F0.375
S'much'
p1996
I5
tp1997
a(I73
I0
F0.5
S'intense'
p1998
I5
tp1999
a(I185
I7
I0
S'normal'
p2000
I5
tp2001
a(I355
I2
F0.375
S'much'
p2002
I5
tp2003
a(I368
I6
F0.5
S'intense'
p2004
I5
tp2005
a(I374
I1
F-0.625
S'moderate'
p2006
I5
tp2007
a(I490
I13
F0.375
S'much'
p2008
I5
tp2009
a(I925
I17
F-0.5
S'heavy'
p2010
I5
tp2011
a(I937
I6
F0.875
S'awesome'
p2012
I5
tp2013
a(I1084
I1
F0.5
S'touch'
p2014
I5
tp2015
a(I1100
I9
F-0.5
S'heavy'
p2016
I5
tp2017
a(I1604
I10
F0.375
S'much'
p2018
I5
tp2019
a(I1762
I5
F0.375
S'usage'
p2020
I5
tp2021
a(I1762
I5
F-0.5
S'heavy'
p2022
I5
tp2023
a(I1762
I5
I0
S'wifi'
p2024
I5
tp2025
a(I1840
I9
F0.375
S'much'
p2026
I5
tp2027
a(I1927
I15
F0.125
S'silky'
p2028
I5
tp2029
a(I1927
I15
F0.625
S'smooth'
p2030
I5
tp2031
as(S'wifi'
p2032
tp2033
(lp2034
(I30
I10
F1.0
S'good'
p2035
I1
tp2036
a(I570
I33
F0.625
S'fine'
p2037
I1
tp2038
a(I621
I11
I0
S'update'
p2039
I1
tp2040
a(I621
I11
I0
S'speaker'
p2041
I1
tp2042
a(I621
I11
F-0.75
S'defective'
p2043
I1
tp2044
a(I717
I14
F-0.875
S'stronger'
p2045
I1
tp2046
a(I1887
I0
F-0.375
S'same'
p2047
I1
tp2048
a(I1887
I0
F-0.375
S'same'
p2049
I1
tp2050
as(S'good'
p2051
S'light'
p2052
S'weight'
p2053
tp2054
(lp2055
(I116
I0
I0
S'light'
p2056
I0
tp2057
a(I442
I29
F1.0
S'good'
p2058
I0
tp2059
a(I1106
I0
F-0.25
S'latest'
p2060
I0
tp2061
a(I1106
I0
I0
S'android'
p2062
I0
tp2063
a(I1106
I0
F1.0
S'good'
p2064
I0
tp2065
a(I1579
I0
I0
S'light'
p2066
I0
tp2067
a(I1579
I0
F-0.875
S'low'
p2068
I0
tp2069
a(I1801
I0
I0
S'light'
p2070
I0
tp2071
a(I1801
I0
F1.0
S'good'
p2072
I0
tp2073
a(I2038
I0
F-0.125
S'overall'
p2074
I0
tp2075
as(S'video'
p2076
tp2077
(lp2078
(I24
I36
I-100
S'selfy'
p2079
I6
tp2080
a(I250
I0
I0
S'sample'
p2081
I6
tp2082
a(I574
I24
I0
S'normal'
p2083
I6
tp2084
a(I574
I24
F0.375
S'usage'
p2085
I6
tp2086
a(I1014
I11
F1.0
S'good'
p2087
I6
tp2088
a(I1660
I8
F1.0
S'good'
p2089
I6
tp2090
a(I1693
I7
F0.875
S'great'
p2091
I6
tp2092
a(I1716
I1
I0
S'cool'
p2093
I6
tp2094
a(I1887
I0
F1.0
S'good'
p2095
I6
tp2096
a(I1929
I2
F0.75
S'pleasant'
p2097
I6
tp2098
a(I2101
I0
F1.0
S'good'
p2099
I6
tp2100
as(S'no'
p2101
S'heating'
p2102
S'issue'
p2103
tp2104
(lp2105
(I185
I19
I0
S'normal'
p2106
I0
tp2107
a(I344
I7
F0.375
S'heating'
p2108
I0
tp2109
a(I370
I3
F0.375
S'heating'
p2110
I0
tp2111
a(I403
I1
I0
S'normal'
p2112
I0
tp2113
a(I744
I25
F0.375
S'heating'
p2114
I0
tp2115
a(I745
I57
F0.375
S'heating'
p2116
I0
tp2117
a(I985
I5
F0.375
S'heating'
p2118
I0
tp2119
a(I1014
I2
F0.375
S'heating'
p2120
I0
tp2121
a(I1324
I9
F0.625
S'major'
p2122
I0
tp2123
a(I1802
I36
I0
S'many'
p2124
I0
tp2125
a(I1810
I5
F0.375
S'heating'
p2126
I0
tp2127
a(I2037
I5
F-0.25
S'i'
p2128
I0
tp2129
a(I2037
I5
F0.625
S'major'
p2130
I0
tp2131
a(I2096
I2
I0
S'big'
p2132
I0
tp2133
a(I55
I0
F0.375
S'heating'
p2134
I2
tp2135
a(I185
I19
I0
g2106
I2
tp2136
a(I344
I7
F0.375
g2108
I2
tp2137
a(I370
I3
F0.375
g2110
I2
tp2138
a(I403
I1
I0
g2112
I2
tp2139
a(I473
I1
F0.375
S'heating'
p2140
I2
tp2141
a(I524
I2
F0.375
S'heating'
p2142
I2
tp2143
a(I569
I0
F-0.5
S'dissatisfied'
p2144
I2
tp2145
a(I744
I25
F0.375
g2114
I2
tp2146
a(I745
I57
F0.375
g2116
I2
tp2147
a(I985
I5
F0.375
g2118
I2
tp2148
a(I1014
I2
F0.375
g2120
I2
tp2149
a(I1014
I37
I0
S'freezing'
p2150
I2
tp2151
a(I1088
I5
F0.375
S'heating'
p2152
I2
tp2153
a(I1324
I9
F0.625
g2122
I2
tp2154
a(I1336
I37
F-0.75
S'little'
p2155
I2
tp2156
a(I1336
I37
F0.375
S'heating'
p2157
I2
tp2158
a(I1336
I37
I0
S'u'
p2159
I2
tp2160
a(I1613
I2
F-0.875
S'severe'
p2161
I2
tp2162
a(I1802
I36
I0
g2124
I2
tp2163
a(I1810
I5
F0.375
g2126
I2
tp2164
a(I1959
I4
F0.375
S'heating'
p2165
I2
tp2166
a(I2037
I5
F-0.25
g2128
I2
tp2167
a(I2037
I5
F0.625
g2130
I2
tp2168
a(I2096
I2
I0
g2132
I2
tp2169
as(S'service'
p2170
S'from'
p2171
S'flipkart'
p2172
tp2173
(lp2174
(I538
I5
F-0.875
S'pathetic'
p2175
I2
tp2176
a(I794
I6
F-0.125
S'such'
p2177
I2
tp2178
a(I1231
I19
F-1.0
S'worst'
p2179
I2
tp2180
a(I1250
I5
F-0.125
S'such'
p2181
I2
tp2182
a(I1250
I5
F-1.0
S'worst'
p2183
I2
tp2184
a(I1805
I25
F1.0
S'good'
p2185
I2
tp2186
as(S'in'
p2187
S'low'
p2188
S'light'
p2189
tp2190
(lp2191
(I4
I3
F-0.875
S'low'
p2192
I2
tp2193
a(I105
I1
F-0.625
S'horrible'
p2194
I2
tp2195
a(I105
I1
F-0.875
S'low'
p2196
I2
tp2197
a(I116
I4
F-0.875
S'low'
p2198
I2
tp2199
a(I172
I0
F-0.875
S'low'
p2200
I2
tp2201
a(I186
I11
F-0.875
S'low'
p2202
I2
tp2203
a(I384
I6
F-0.875
S'low'
p2204
I2
tp2205
a(I384
I6
F-0.625
S'horrible'
p2206
I2
tp2207
a(I657
I0
F-0.875
S'low'
p2208
I2
tp2209
a(I1064
I6
F-0.875
S'low'
p2210
I2
tp2211
a(I1078
I4
F-0.875
S'lower'
p2212
I2
tp2213
a(I1163
I0
F-0.875
S'low'
p2214
I2
tp2215
a(I1473
I12
F-0.625
S'red'
p2216
I2
tp2217
a(I1473
I12
F-0.625
S'red'
p2218
I2
tp2219
a(I1546
I4
F-0.875
S'low'
p2220
I2
tp2221
a(I1565
I0
F-0.875
S'low'
p2222
I2
tp2223
a(I1587
I5
F-0.875
S'low'
p2224
I2
tp2225
a(I1598
I4
F-0.875
S'low'
p2226
I2
tp2227
a(I2063
I7
F-0.875
S'low'
p2228
I2
tp2229
a(I4
I3
F-0.875
g2192
I2
tp2230
a(I105
I1
F-0.625
g2194
I2
tp2231
a(I105
I1
F-0.875
g2196
I2
tp2232
a(I116
I4
F-0.875
g2198
I2
tp2233
a(I172
I0
F-0.875
g2200
I2
tp2234
a(I185
I25
F-0.875
S'low'
p2235
I2
tp2236
a(I185
I25
F-0.875
S'pathetic'
p2237
I2
tp2238
a(I186
I11
F-0.875
g2202
I2
tp2239
a(I384
I6
F-0.875
g2204
I2
tp2240
a(I384
I6
F-0.625
g2206
I2
tp2241
a(I657
I0
F-0.875
g2208
I2
tp2242
a(I980
I0
F-0.875
S'low'
p2243
I2
tp2244
a(I1064
I6
F-0.875
g2210
I2
tp2245
a(I1078
I4
F-0.875
g2212
I2
tp2246
a(I1163
I0
F-0.875
g2214
I2
tp2247
a(I1473
I12
F-0.625
g2216
I2
tp2248
a(I1473
I12
F-0.625
g2218
I2
tp2249
a(I1546
I4
F-0.875
g2220
I2
tp2250
a(I1565
I0
F-0.875
g2222
I2
tp2251
a(I1587
I5
F-0.875
g2224
I2
tp2252
a(I1598
I4
F-0.875
g2226
I2
tp2253
a(I2063
I7
F-0.875
g2228
I2
tp2254
as(S'a'
p2255
S'lenovo'
p2256
S'a7000'
p2257
tp2258
(lp2259
(I21
I2
F1.0
g1803
I0
tp2260
a(I178
I6
F-0.25
g1318
I0
tp2261
a(I383
I5
F1.0
g1817
I0
tp2262
a(I447
I43
F0.125
g1322
I0
tp2263
a(I502
I7
F-0.5
g1820
I0
tp2264
a(I519
I4
F0.125
g1822
I0
tp2265
a(I572
I1
F0.125
g1324
I0
tp2266
a(I574
I5
F0.375
g1825
I0
tp2267
a(I701
I5
F-0.5
g1807
I0
tp2268
a(I744
I59
F0.125
g1326
I0
tp2269
a(I772
I12
F0.375
g1809
I0
tp2270
a(I857
I0
F0.875
g1830
I0
tp2271
a(I880
I0
I0
g1832
I0
tp2272
a(I1014
I19
F0.875
g1834
I0
tp2273
a(I1041
I3
F0.5
g1836
I0
tp2274
a(I1195
I6
F0.75
g1328
I0
tp2275
a(I1210
I8
F0.125
g1330
I0
tp2276
a(I1219
I0
F-0.75
g1840
I0
tp2277
a(I1291
I3
I0
g1842
I0
tp2278
a(I1713
I14
F0.875
g1811
I0
tp2279
a(I1734
I0
F-0.625
g1845
I0
tp2280
a(I1768
I5
F0.375
g1813
I0
tp2281
a(I1872
I12
F0.125
g1336
I0
tp2282
as(S'need'
p2283
tp2284
(lp2285
(I197
I7
F-0.25
S'i'
p2286
I9
tp2287
a(I197
I7
I0
S't'
p2288
I9
tp2289
a(I197
I7
F0.375
S'much'
p2290
I9
tp2291
as(S'gb'
p2292
S'internal'
p2293
S'memory'
p2294
tp2295
(lp2296
(I91
I1
F0.5
S'internal'
p2297
I0
tp2298
a(I174
I0
F0.5
S'internal'
p2299
I0
tp2300
a(I506
I20
F0.5
g1601
I0
tp2301
a(I605
I3
F0.5
S'internal'
p2302
I0
tp2303
a(I757
I30
I0
S'most'
p2304
I0
tp2305
a(I757
I30
F0.5
S'internal'
p2306
I0
tp2307
a(I853
I1
I0
S'gb'
p2308
I0
tp2309
a(I853
I1
F0.5
S'internal'
p2310
I0
tp2311
a(I853
I1
F0.375
S'available'
p2312
I0
tp2313
a(I1009
I6
F0.5
S'internal'
p2314
I0
tp2315
a(I1038
I2
F0.5
S'internal'
p2316
I0
tp2317
a(I1076
I5
F0.5
S'internal'
p2318
I0
tp2319
a(I1092
I5
F0.5
S'internal'
p2320
I0
tp2321
a(I1092
I5
I0
S'least'
p2322
I0
tp2323
a(I1131
I36
F0.5
S'internal'
p2324
I0
tp2325
a(I1451
I1
F0.5
S'internal'
p2326
I0
tp2327
a(I1549
I3
F0.5
g1613
I0
tp2328
a(I1613
I14
F0.5
S'internal'
p2329
I0
tp2330
a(I1613
I15
I0
S'least'
p2331
I0
tp2332
a(I1613
I15
F0.5
S'internal'
p2333
I0
tp2334
a(I1671
I5
F0.5
S'internal'
p2335
I0
tp2336
a(I1701
I0
F1.0
S'good'
p2337
I0
tp2338
a(I1701
I0
F0.5
S'internal'
p2339
I0
tp2340
a(I1701
I0
F-0.5
S'less'
p2341
I0
tp2342
a(I1712
I18
F0.5
S'internal'
p2343
I0
tp2344
a(I1712
I18
I0
S'user'
p2345
I0
tp2346
a(I1725
I2
F0.5
S'internal'
p2347
I0
tp2348
a(I1725
I2
I0
S'gb'
p2349
I0
tp2350
a(I1732
I46
F0.5
S'internal'
p2351
I0
tp2352
a(I1732
I58
F0.5
S'internal'
p2353
I0
tp2354
a(I1732
I58
F0.375
S'full'
p2355
I0
tp2356
a(I1739
I10
F0.5
S'internal'
p2357
I0
tp2358
a(I1802
I31
F0.5
S'internal'
p2359
I0
tp2360
a(I1807
I0
F0.5
S'internal'
p2361
I0
tp2362
a(I1894
I5
F0.5
S'internal'
p2363
I0
tp2364
a(I1950
I0
F0.5
S'internal'
p2365
I0
tp2366
a(I2039
I4
F0.5
S'internal'
p2367
I0
tp2368
a(I2039
I4
F-0.875
S'low'
p2369
I0
tp2370
a(I2077
I3
F0.5
S'internal'
p2371
I0
tp2372
a(I2077
I3
I0
S'user'
p2373
I0
tp2374
a(I91
I1
F0.5
g2297
I3
tp2375
a(I174
I0
F0.5
g2299
I3
tp2376
a(I456
I26
F0.5
S'internal'
p2377
I3
tp2378
a(I456
I26
F-0.25
S'external'
p2379
I3
tp2380
a(I477
I14
F0.5
S'internal'
p2381
I3
tp2382
a(I477
I14
F0.375
S'full'
p2383
I3
tp2384
a(I605
I3
F0.5
g2302
I3
tp2385
a(I757
I30
I0
g2304
I3
tp2386
a(I757
I30
F0.5
g2306
I3
tp2387
a(I853
I1
I0
g2308
I3
tp2388
a(I853
I1
F0.5
g2310
I3
tp2389
a(I1009
I6
F0.5
g2314
I3
tp2390
a(I1015
I19
F0.5
S'internal'
p2391
I3
tp2392
a(I1076
I5
F0.5
g2318
I3
tp2393
a(I1076
I8
F0.5
S'internal'
p2394
I3
tp2395
a(I1076
I8
F0.375
S'available'
p2396
I3
tp2397
a(I1092
I5
F0.5
g2320
I3
tp2398
a(I1131
I36
F0.5
g2324
I3
tp2399
a(I1336
I20
F0.5
S'internal'
p2400
I3
tp2401
a(I1336
I20
F-0.875
S'small'
p2402
I3
tp2403
a(I1451
I1
F0.5
g2326
I3
tp2404
a(I1613
I14
F0.5
g2329
I3
tp2405
a(I1613
I15
I0
g2331
I3
tp2406
a(I1613
I15
F0.5
g2333
I3
tp2407
a(I1642
I1
F0.5
S'internal'
p2408
I3
tp2409
a(I1642
I1
F-0.875
S'low'
p2410
I3
tp2411
a(I1671
I5
F0.5
g2335
I3
tp2412
a(I1680
I1
F0.5
S'internal'
p2413
I3
tp2414
a(I1701
I0
F1.0
g2337
I3
tp2415
a(I1701
I0
F0.5
g2339
I3
tp2416
a(I1701
I0
F-0.5
g2341
I3
tp2417
a(I1712
I18
F0.5
g2343
I3
tp2418
a(I1712
I18
I0
g2345
I3
tp2419
a(I1712
I24
F0.5
S'internal'
p2420
I3
tp2421
a(I1712
I24
F-0.875
S'insufficient'
p2422
I3
tp2423
a(I1725
I2
F0.5
g2347
I3
tp2424
a(I1725
I2
I0
g2349
I3
tp2425
a(I1732
I9
F0.5
S'internal'
p2426
I3
tp2427
a(I1732
I9
F-0.875
S'low'
p2428
I3
tp2429
a(I1732
I46
F0.5
g2351
I3
tp2430
a(I1732
I58
F0.375
g2355
I3
tp2431
a(I1733
I0
F0.5
S'internal'
p2432
I3
tp2433
a(I1739
I10
F0.5
g2357
I3
tp2434
a(I1784
I1
F0.5
S'internal'
p2435
I3
tp2436
a(I1802
I31
F0.5
g2359
I3
tp2437
a(I1924
I1
F0.5
S'internal'
p2438
I3
tp2439
a(I1950
I0
F0.5
g2365
I3
tp2440
a(I1956
I25
F0.5
S'internal'
p2441
I3
tp2442
a(I1956
I25
F-0.75
S'sufficient'
p2443
I3
tp2444
a(I2039
I4
F0.5
g2367
I3
tp2445
a(I2039
I4
F-0.875
g2369
I3
tp2446
a(I2077
I3
F0.5
g2371
I3
tp2447
a(I42
I6
F-0.25
S'medium'
p2448
I10
tp2449
a(I91
I1
F0.5
g2297
I10
tp2450
a(I129
I7
F0.5
S'effective'
p2451
I10
tp2452
a(I132
I0
F0.25
S'ki'
p2453
I10
tp2454
a(I132
I0
F0.5
S'expandable'
p2455
I10
tp2456
a(I132
I2
I-100
S'hota'
p2457
I10
tp2458
a(I174
I0
F0.5
g2299
I10
tp2459
a(I241
I23
I0
S'u'
p2460
I10
tp2461
a(I241
I23
F-0.5
S'extra'
p2462
I10
tp2463
a(I241
I25
I0
S'user'
p2464
I10
tp2465
a(I241
I25
F0.375
S'available'
p2466
I10
tp2467
a(I330
I1
F-0.25
S'external'
p2468
I10
tp2469
a(I456
I26
F0.5
g2377
I10
tp2470
a(I456
I26
F-0.25
g2379
I10
tp2471
a(I458
I23
F0.375
S'available'
p2472
I10
tp2473
a(I477
I14
F0.5
g2381
I10
tp2474
a(I477
I14
F0.375
g2383
I10
tp2475
a(I478
I4
I0
S'purchaser'
p2476
I10
tp2477
a(I570
I20
F0.375
S'available'
p2478
I10
tp2479
a(I573
I0
F0.375
S'available'
p2480
I10
tp2481
a(I605
I3
F0.5
g2302
I10
tp2482
a(I611
I27
F0.375
S'full'
p2483
I10
tp2484
a(I697
I0
F-0.875
S'low'
p2485
I10
tp2486
a(I731
I3
F0.5
S'expandable'
p2487
I10
tp2488
a(I757
I30
I0
g2304
I10
tp2489
a(I757
I30
F0.5
g2306
I10
tp2490
a(I853
I1
I0
g2308
I10
tp2491
a(I853
I1
F0.5
g2310
I10
tp2492
a(I926
I1
I-100
S'intrnl'
p2493
I10
tp2494
a(I957
I6
I0
S'inbuilt'
p2495
I10
tp2496
a(I1009
I6
F0.5
g2314
I10
tp2497
a(I1015
I19
F0.5
g2391
I10
tp2498
a(I1076
I5
F0.5
g2318
I10
tp2499
a(I1076
I8
F0.5
g2394
I10
tp2500
a(I1076
I8
F0.375
g2396
I10
tp2501
a(I1086
I0
F0.875
S'great'
p2502
I10
tp2503
a(I1086
I0
I0
S'inbuilt'
p2504
I10
tp2505
a(I1092
I5
F0.5
g2320
I10
tp2506
a(I1131
I29
F-0.875
S'low'
p2507
I10
tp2508
a(I1131
I36
F0.5
g2324
I10
tp2509
a(I1260
I1
F0.5
S'expandable'
p2510
I10
tp2511
a(I1336
I20
F0.5
g2400
I10
tp2512
a(I1336
I20
F-0.875
g2402
I10
tp2513
a(I1349
I0
F0.125
S'enough'
p2514
I10
tp2515
a(I1451
I1
F0.5
g2326
I10
tp2516
a(I1547
I10
F0.875
S'great'
p2517
I10
tp2518
a(I1549
I4
I0
S'gig'
p2519
I10
tp2520
a(I1589
I0
I0
S'inbuilt'
p2521
I10
tp2522
a(I1613
I14
F0.5
g2329
I10
tp2523
a(I1613
I15
I0
g2331
I10
tp2524
a(I1613
I15
F0.5
g2333
I10
tp2525
a(I1642
I1
F0.5
g2408
I10
tp2526
a(I1642
I1
F-0.875
g2410
I10
tp2527
a(I1660
I1
F0.375
S'full'
p2528
I10
tp2529
a(I1671
I5
F0.5
g2335
I10
tp2530
a(I1680
I1
F0.5
g2413
I10
tp2531
a(I1701
I0
F1.0
g2337
I10
tp2532
a(I1701
I0
F0.5
g2339
I10
tp2533
a(I1701
I0
F-0.5
g2341
I10
tp2534
a(I1712
I18
F0.5
g2343
I10
tp2535
a(I1712
I18
I0
g2345
I10
tp2536
a(I1712
I24
F0.5
g2420
I10
tp2537
a(I1712
I24
F-0.875
g2422
I10
tp2538
a(I1725
I2
F0.5
g2347
I10
tp2539
a(I1725
I2
I0
g2349
I10
tp2540
a(I1732
I9
F0.5
g2426
I10
tp2541
a(I1732
I9
F-0.875
g2428
I10
tp2542
a(I1732
I46
F0.5
g2351
I10
tp2543
a(I1732
I48
F-0.25
S'external'
p2544
I10
tp2545
a(I1732
I58
F0.375
g2355
I10
tp2546
a(I1733
I0
F0.5
g2432
I10
tp2547
a(I1739
I10
F0.5
g2357
I10
tp2548
a(I1784
I1
F0.5
g2435
I10
tp2549
a(I1788
I0
F-0.25
S'external'
p2550
I10
tp2551
a(I1802
I31
F0.5
g2359
I10
tp2552
a(I1924
I1
F0.5
g2438
I10
tp2553
a(I1950
I0
F0.5
g2365
I10
tp2554
a(I1956
I18
F0.5
S'high'
p2555
I10
tp2556
a(I1956
I25
F0.5
g2441
I10
tp2557
a(I1956
I25
F-0.75
g2443
I10
tp2558
a(I2039
I4
F0.5
g2367
I10
tp2559
a(I2039
I4
F-0.875
g2369
I10
tp2560
a(I2077
I3
F0.5
g2371
I10
tp2561
as(g2255
S'little'
p2562
S'bit'
p2563
tp2564
(lp2565
(I37
I2
F-0.75
S'little'
p2566
I0
tp2567
a(I37
I2
I0
S'more'
p2568
I0
tp2569
a(I186
I2
F-0.75
S'little'
p2570
I0
tp2571
a(I618
I1
F-0.75
S'little'
p2572
I0
tp2573
a(I618
I1
F-0.5
S'slower'
p2574
I0
tp2575
a(I718
I1
F-0.75
S'little'
p2576
I0
tp2577
a(I985
I5
F-0.75
S'little'
p2578
I0
tp2579
a(I1124
I0
F-0.75
S'little'
p2580
I0
tp2581
a(I1547
I15
F-0.75
S'little'
p2582
I0
tp2583
a(I1680
I10
F-0.75
S'little'
p2584
I0
tp2585
as(S'build'
p2586
S'quality'
p2587
tp2588
(lp2589
(I116
I0
F1.0
S'good'
p2590
I2
tp2591
a(I297
I10
F1.0
S'good'
p2592
I2
tp2593
a(I370
I1
I0
S'build'
p2594
I2
tp2595
a(I565
I0
I0
S'build'
p2596
I2
tp2597
a(I565
I0
F-1.0
S'bad'
p2598
I2
tp2599
a(I842
I3
I0
S'build'
p2600
I2
tp2601
a(I842
I3
F-0.875
S'poor'
p2602
I2
tp2603
a(I959
I0
F-1.0
S'bad'
p2604
I2
tp2605
a(I1092
I4
F1.0
S'better'
p2606
I2
tp2607
a(I1092
I4
F1.0
S'good'
p2608
I2
tp2609
a(I1186
I0
I0
S'build'
p2610
I2
tp2611
a(I1186
I0
F1.0
S'good'
p2612
I2
tp2613
a(I1354
I2
F-0.875
S'poor'
p2614
I2
tp2615
a(I1355
I0
I0
S'build'
p2616
I2
tp2617
a(I1882
I5
I0
S'build'
p2618
I2
tp2619
a(I1954
I0
F1.0
S'good'
p2620
I2
tp2621
a(I2065
I0
F1.0
S'good'
p2622
I2
tp2623
a(I2087
I1
F-0.875
S'low'
p2624
I2
tp2625
as(S'8'
p2626
S'mp'
p2627
S'camera'
p2628
tp2629
(lp2630
(I85
I1
F1.0
g421
I0
tp2631
a(I85
I1
F1.0
g423
I0
tp2632
a(I101
I0
I0
g543
I0
tp2633
a(I111
I10
F-0.625
S'real'
p2634
I0
tp2635
a(I111
I10
F-0.875
S'pathetic'
p2636
I0
tp2637
a(I111
I10
I0
S'actual'
p2638
I0
tp2639
a(I172
I0
I0
S'camera'
p2640
I0
tp2641
a(I250
I0
F-0.75
S'little'
p2642
I0
tp2643
a(I250
I0
F-0.875
S'inferior'
p2644
I0
tp2645
a(I301
I1
F-0.125
g793
I0
tp2646
a(I301
I1
F0.75
g795
I0
tp2647
a(I340
I0
I0
g1652
I0
tp2648
a(I369
I2
F1.0
g559
I0
tp2649
a(I371
I16
F1.0
S'better'
p2650
I0
tp2651
a(I456
I17
F1.0
g567
I0
tp2652
a(I510
I3
F-0.125
g441
I0
tp2653
a(I743
I0
I0
g602
I0
tp2654
a(I743
I0
F0.75
g604
I0
tp2655
a(I745
I4
F0.75
S'primary'
p2656
I0
tp2657
a(I745
I4
F-0.125
S'front'
p2658
I0
tp2659
a(I757
I19
F0.625
S'fine'
p2660
I0
tp2661
a(I848
I20
F-0.125
S'front'
p2662
I0
tp2663
a(I1014
I7
F0.875
S'great'
p2664
I0
tp2665
a(I1016
I6
F0.875
g867
I0
tp2666
a(I1056
I14
F0.5
S'thankful'
p2667
I0
tp2668
a(I1078
I0
F-0.125
g873
I0
tp2669
a(I1312
I1
F1.0
g660
I0
tp2670
a(I1555
I1
I0
g491
I0
tp2671
a(I1555
I1
I0
g493
I0
tp2672
a(I1793
I1
F1.0
g712
I0
tp2673
a(I1793
I1
F0.25
S'able'
p2674
I0
tp2675
a(I1802
I13
F-0.125
S'front'
p2676
I0
tp2677
as(S'power'
p2678
tp2679
(lp2680
(I30
I4
I0
S'different'
p2681
I5
tp2682
a(I132
I4
I-100
S'gpu'
p2683
I5
tp2684
a(I430
I0
I0
S'u'
p2685
I5
tp2686
a(I474
I14
F0.625
S'super'
p2687
I5
tp2688
a(I521
I24
F0.625
S'super'
p2689
I5
tp2690
a(I535
I0
F0.25
S'able'
p2691
I5
tp2692
a(I545
I5
F-0.125
S'ultimate'
p2693
I5
tp2694
a(I757
I25
I0
S'ultra'
p2695
I5
tp2696
a(I935
I1
F-0.125
S'ultimate'
p2697
I5
tp2698
a(I1983
I9
F-0.125
S'ultimate'
p2699
I5
tp2700
a(I2097
I4
F0.375
S'full'
p2701
I5
tp2702
as(S'well'
p2703
tp2704
(lp2705
(I848
I14
I0
S'big'
p2706
I9
tp2707
as(S'in'
p2708
S'lenovo'
p2709
S'a7000'
p2710
tp2711
(lp2712
(I178
I6
F-0.25
g1318
I0
tp2713
a(I447
I43
F0.125
g1322
I0
tp2714
a(I502
I7
F-0.5
g1820
I0
tp2715
a(I519
I4
F0.125
g1822
I0
tp2716
a(I572
I1
F0.125
g1324
I0
tp2717
a(I574
I5
F0.375
g1825
I0
tp2718
a(I701
I5
F-0.5
g1807
I0
tp2719
a(I744
I59
F0.125
g1326
I0
tp2720
a(I1041
I3
F0.5
g1836
I0
tp2721
a(I1291
I3
I0
g1842
I0
tp2722
a(I1713
I14
F0.875
g1811
I0
tp2723
a(I1734
I0
F-0.625
g1845
I0
tp2724
a(I1768
I5
F0.375
g1813
I0
tp2725
a(I1872
I12
F0.125
g1336
I0
tp2726
as(S'android'
p2727
tp2728
(lp2729
(I187
I2
F-0.625
S'other'
p2730
I3
tp2731
a(I188
I9
F0.25
S'intuitive'
p2732
I3
tp2733
a(I188
I9
F0.5
S'similar'
p2734
I3
tp2735
a(I188
I9
F-0.625
S'other'
p2736
I3
tp2737
a(I379
I0
F0.625
S'first'
p2738
I3
tp2739
a(I535
I1
F1.0
S'good'
p2740
I3
tp2741
a(I757
I30
F0.75
S'due'
p2742
I3
tp2743
a(I957
I6
F-0.25
S'latest'
p2744
I3
tp2745
a(I985
I9
F1.0
S'good'
p2746
I3
tp2747
a(I1006
I2
I0
S'only'
p2748
I3
tp2749
a(I1071
I3
F-0.25
S'latest'
p2750
I3
tp2751
a(I1805
I27
F-0.625
S'other'
p2752
I3
tp2753
a(I1876
I6
F0.375
S'available'
p2754
I3
tp2755
as(S'good'
p2756
S'product'
p2757
tp2758
(lp2759
(I459
I7
F1.0
S'good'
p2760
I5
tp2761
a(I465
I3
F1.0
S'good'
p2762
I5
tp2763
a(I723
I11
F1.0
S'good'
p2764
I5
tp2765
a(I724
I0
F1.0
S'good'
p2766
I5
tp2767
a(I955
I3
F-0.125
S'overall'
p2768
I5
tp2769
a(I1026
I5
F-0.625
S'last'
p2770
I5
tp2771
a(I1280
I8
F-0.125
S'overall'
p2772
I5
tp2773
a(I1579
I0
F1.0
S'good'
p2774
I5
tp2775
a(I1580
I32
F1.0
S'good'
p2776
I5
tp2777
a(I1587
I3
F1.0
S'good'
p2778
I5
tp2779
a(I1587
I8
F-0.125
S'overall'
p2780
I5
tp2781
a(I1587
I8
F1.0
S'good'
p2782
I5
tp2783
a(I1590
I0
F1.0
S'good'
p2784
I5
tp2785
a(I1662
I8
F1.0
S'good'
p2786
I5
tp2787
a(I1668
I0
F-0.125
S'overall'
p2788
I5
tp2789
a(I1668
I0
F1.0
S'good'
p2790
I5
tp2791
a(I1680
I0
F1.0
S'good'
p2792
I5
tp2793
a(I1680
I0
I0
S'light'
p2794
I5
tp2795
a(I1687
I0
F-0.125
S'overall'
p2796
I5
tp2797
a(I1687
I0
F-0.625
S'average'
p2798
I5
tp2799
a(I1687
I0
F0.625
S'quality'
p2800
I5
tp2801
a(I1688
I2
F1.0
S'good'
p2802
I5
tp2803
a(I1688
I2
F-0.25
S'i'
p2804
I5
tp2805
a(I1688
I2
F0.875
S'happy'
p2806
I5
tp2807
a(I1732
I35
F1.0
S'good'
p2808
I5
tp2809
a(I1741
I3
F1.0
S'good'
p2810
I5
tp2811
a(I1754
I2
F1.0
S'good'
p2812
I5
tp2813
a(I1754
I2
F0.375
S'satisfied'
p2814
I5
tp2815
a(I1792
I0
F1.0
S'good'
p2816
I5
tp2817
a(I1797
I0
F1.0
S'good'
p2818
I5
tp2819
a(I1800
I0
F1.0
S'good'
p2820
I5
tp2821
a(I1802
I24
F1.0
S'good'
p2822
I5
tp2823
a(I1803
I4
F1.0
S'good'
p2824
I5
tp2825
a(I1805
I24
F1.0
S'good'
p2826
I5
tp2827
a(I1835
I15
F0.875
S'great'
p2828
I5
tp2829
a(I1885
I22
F1.0
S'good'
p2830
I5
tp2831
a(I1956
I21
F1.0
S'good'
p2832
I5
tp2833
a(I1993
I0
F1.0
S'excellent'
p2834
I5
tp2835
a(I2100
I5
F1.0
S'good'
p2836
I5
tp2837
a(I2101
I0
F1.0
S'good'
p2838
I5
tp2839
as(S'pros'
p2840
S'and'
p2841
S'cons'
p2842
tp2843
(lp2844
(I930
I0
F1.0
S'best'
p2845
I0
tp2846
a(I2071
I2
I0
S'few'
p2847
I0
tp2848
a(I930
I0
F1.0
g2845
I2
tp2849
a(I987
I5
F0.75
S'beautiful'
p2850
I2
tp2851
a(I1008
I2
F0.875
S'nice'
p2852
I2
tp2853
a(I1010
I0
I0
S'write'
p2854
I2
tp2855
a(I1010
I0
I0
S'u'
p2856
I2
tp2857
a(I1291
I2
I0
S'more'
p2858
I2
tp2859
a(I1928
I1
F0.125
S'mobile'
p2860
I2
tp2861
a(I2071
I2
I0
g2847
I2
tp2862
a(I573
I0
I0
S'only'
p2863
I8
tp2864
a(I899
I2
I0
S'above'
p2865
I8
tp2866
a(I1172
I0
I0
S'few'
p2867
I8
tp2868
a(I1556
I1
I0
S'above'
p2869
I8
tp2870
a(I1724
I9
I0
S'few'
p2871
I8
tp2872
a(I1928
I2
F-1.0
S'worst'
p2873
I8
tp2874
as(S'to'
p2875
S'service'
p2876
S'center'
p2877
tp2878
(lp2879
(I574
I3
F-0.5
S'long'
p2880
I0
tp2881
a(I704
I2
I0
S'more'
p2882
I0
tp2883
a(I1662
I2
F1.0
S'good'
p2884
I0
tp2885
a(I1956
I3
F-0.375
S'authorized'
p2886
I0
tp2887
a(I1960
I2
F0.75
S'due'
p2888
I0
tp2889
a(I574
I3
F-0.5
g2880
I5
tp2890
a(I704
I2
I0
g2882
I5
tp2891
a(I1662
I2
F1.0
g2884
I5
tp2892
a(I1780
I12
F-0.75
S'sufficient'
p2893
I5
tp2894
a(I1860
I9
F-0.875
S'cheap'
p2895
I5
tp2896
a(I1956
I3
F-0.375
g2886
I5
tp2897
a(I1960
I2
F0.75
g2888
I5
tp2898
as(S'no'
p2899
S'heating'
p2900
S'problem'
p2901
tp2902
(lp2903
(I603
I0
F0.375
S'much'
p2904
I1
tp2905
a(I603
I0
F0.5
S'high'
p2906
I1
tp2907
a(I954
I0
F-0.625
S'other'
p2908
I1
tp2909
a(I1200
I21
F-0.778
S'common'
p2910
I1
tp2911
a(I1925
I1
F-0.778
S'common'
p2912
I1
tp2913
a(I37
I1
F-0.75
S'little'
p2914
I6
tp2915
a(I37
I1
F0.75
S'due'
p2916
I6
tp2917
a(I305
I1
F0.75
S'due'
p2918
I6
tp2919
a(I603
I0
F0.375
g2904
I6
tp2920
a(I603
I0
F0.5
g2906
I6
tp2921
a(I745
I47
F0.625
S'major'
p2922
I6
tp2923
a(I954
I0
F-0.625
g2908
I6
tp2924
a(I1088
I5
I0
S'only'
p2925
I6
tp2926
a(I1200
I21
F-0.778
g2910
I6
tp2927
a(I1210
I0
F-0.25
S'i'
p2928
I6
tp2929
a(I1658
I7
F-0.875
S'small'
p2930
I6
tp2931
a(I1879
I0
F0.75
S'due'
p2932
I6
tp2933
a(I1925
I1
F-0.778
g2912
I6
tp2934
a(I1956
I18
I0
S'only'
p2935
I6
tp2936
a(I2095
I0
I0
S'biggest'
p2937
I6
tp2938
as(g2626
S'gb'
p2939
tp2940
(lp2941
(I186
I14
F0.25
S'usable'
p2942
I0
tp2943
a(I446
I5
F0.25
g1599
I0
tp2944
a(I472
I6
F0.5
S'internal'
p2945
I0
tp2946
a(I519
I3
F1.0
S'good'
p2947
I0
tp2948
a(I519
I3
F0.5
S'internal'
p2949
I0
tp2950
a(I853
I1
F0.375
g2312
I0
tp2951
a(I943
I1
F0.25
g1605
I0
tp2952
a(I943
I1
I0
g1607
I0
tp2953
a(I955
I2
F0.5
g1609
I0
tp2954
a(I1038
I2
F0.5
g2316
I0
tp2955
a(I1064
I3
F1.0
S'good'
p2956
I0
tp2957
a(I1732
I58
F0.5
g2353
I0
tp2958
a(I1807
I0
F0.5
g2361
I0
tp2959
a(I1821
I1
I0
S'most'
p2960
I0
tp2961
a(I1894
I5
F0.5
g2363
I0
tp2962
a(I2077
I3
I0
g2373
I0
tp2963
as(g1595
g1595
S'display'
p2964
tp2965
(lp2966
(I3
I5
F0.625
S'vibrant'
p2967
I0
tp2968
a(I3
I5
F0.625
S'rich'
p2969
I0
tp2970
a(I371
I11
I0
S'inch'
p2971
I0
tp2972
a(I371
I11
F0.5
S'operable'
p2973
I0
tp2974
a(I661
I2
I0
S'inch'
p2975
I0
tp2976
a(I694
I2
F0.625
S'vibrant'
p2977
I0
tp2978
a(I694
I2
F0.625
S'rich'
p2979
I0
tp2980
a(I772
I6
F0.75
S'easy'
p2981
I0
tp2982
a(I990
I0
I0
S'wireless'
p2983
I0
tp2984
a(I3
I5
F0.625
g2967
I13
tp2985
a(I3
I5
F0.625
g2969
I13
tp2986
a(I54
I8
F1.0
S'good'
p2987
I13
tp2988
a(I70
I0
F0.5
S'crisp'
p2989
I13
tp2990
a(I78
I1
F1.0
S'good'
p2991
I13
tp2992
a(I82
I1
F0.75
S'wonderful'
p2993
I13
tp2994
a(I117
I2
F0.875
S'nice'
p2995
I13
tp2996
a(I131
I0
F0.5
S'crisp'
p2997
I13
tp2998
a(I171
I0
F0.625
S'vibrant'
p2999
I13
tp3000
a(I185
I10
I0
S'more'
p3001
I13
tp3002
a(I185
I10
F1.0
S'good'
p3003
I13
tp3004
a(I188
I21
F1.0
S'good'
p3005
I13
tp3006
a(I201
I0
F0.875
S'nice'
p3007
I13
tp3008
a(I252
I0
F1.0
S'good'
p3009
I13
tp3010
a(I252
I0
F1.0
S'excellent'
p3011
I13
tp3012
a(I252
I3
F1.0
S'good'
p3013
I13
tp3014
a(I269
I1
F-0.625
S'sharp'
p3015
I13
tp3016
a(I269
I1
I0
S'clear'
p3017
I13
tp3018
a(I368
I0
F1.0
S'good'
p3019
I13
tp3020
a(I371
I11
I0
g2971
I13
tp3021
a(I371
I11
F0.5
g2973
I13
tp3022
a(I385
I2
F0.5
S'large'
p3023
I13
tp3024
a(I405
I1
F0.875
S'awesome'
p3025
I13
tp3026
a(I481
I9
F-0.125
S'front'
p3027
I13
tp3028
a(I483
I4
F1.0
S'good'
p3029
I13
tp3030
a(I502
I3
F0.75
S'sound'
p3031
I13
tp3032
a(I522
I2
F0.625
S'vibrant'
p3033
I13
tp3034
a(I544
I15
F0.875
S'awesome'
p3035
I13
tp3036
a(I570
I25
F0.875
S'great'
p3037
I13
tp3038
a(I613
I0
F1.0
S'good'
p3039
I13
tp3040
a(I632
I0
F0.375
S'full'
p3041
I13
tp3042
a(I661
I2
I0
g2975
I13
tp3043
a(I670
I0
F1.0
S'good'
p3044
I13
tp3045
a(I694
I2
F0.625
g2977
I13
tp3046
a(I694
I2
F0.625
g2979
I13
tp3047
a(I711
I4
F0.875
S'great'
p3048
I13
tp3049
a(I717
I1
I0
S'normal'
p3050
I13
tp3051
a(I717
I5
F0.625
S'notice'
p3052
I13
tp3053
a(I717
I5
F0.75
S'outstanding'
p3054
I13
tp3055
a(I717
I6
I0
S's'
p3056
I13
tp3057
a(I731
I0
F1.0
S'good'
p3058
I13
tp3059
a(I745
I64
I0
S's'
p3060
I13
tp3061
a(I745
I64
F-0.75
S'black'
p3062
I13
tp3063
a(I772
I6
F0.75
g2981
I13
tp3064
a(I775
I1
I0
S'cool'
p3065
I13
tp3066
a(I788
I1
F0.875
S'superb'
p3067
I13
tp3068
a(I796
I0
F1.0
S'good'
p3069
I13
tp3070
a(I833
I20
F0.625
S'smooth'
p3071
I13
tp3072
a(I833
I20
F1.0
S'soft'
p3073
I13
tp3074
a(I856
I16
F0.875
S'awesome'
p3075
I13
tp3076
a(I921
I1
I0
S'crystal'
p3077
I13
tp3078
a(I921
I1
I0
S'clear'
p3079
I13
tp3080
a(I942
I1
F0.5
S'careful'
p3081
I13
tp3082
a(I987
I5
F0.75
S'gorgeous'
p3083
I13
tp3084
a(I990
I0
I0
g2983
I13
tp3085
a(I1008
I23
F1.0
S'excellent'
p3086
I13
tp3087
a(I1008
I37
F-0.5
S'sudden'
p3088
I13
tp3089
a(I1014
I39
F1.0
S'good'
p3090
I13
tp3091
a(I1019
I12
I0
S'clear'
p3092
I13
tp3093
a(I1117
I4
F1.0
S'good'
p3094
I13
tp3095
a(I1126
I0
F1.0
S'excellent'
p3096
I13
tp3097
a(I1182
I0
F1.0
S'good'
p3098
I13
tp3099
a(I1347
I1
F1.0
S'good'
p3100
I13
tp3101
a(I1429
I9
F0.875
S'awesome'
p3102
I13
tp3103
a(I1462
I0
F1.0
S'best'
p3104
I13
tp3105
a(I1519
I12
F1.0
S'good'
p3106
I13
tp3107
a(I1546
I0
I0
S'bright'
p3108
I13
tp3109
a(I1547
I6
I0
S'bright'
p3110
I13
tp3111
a(I1584
I0
F1.0
S'good'
p3112
I13
tp3113
a(I1660
I15
I-100
S'chep'
p3114
I13
tp3115
a(I1660
I15
I0
S'nd'
p3116
I13
tp3117
a(I1680
I8
F0.625
S'vibrant'
p3118
I13
tp3119
a(I1731
I0
F0.625
S'rich'
p3120
I13
tp3121
a(I1736
I18
F0.875
S'amazing'
p3122
I13
tp3123
a(I1741
I12
I0
S'n'
p3124
I13
tp3125
a(I1778
I1
F0.5
S'large'
p3126
I13
tp3127
a(I1781
I2
F1.0
S'good'
p3128
I13
tp3129
a(I1785
I0
F1.0
S'good'
p3130
I13
tp3131
a(I1802
I28
F0.375
S'ok'
p3132
I13
tp3133
a(I1802
I33
F0.125
S'mobile'
p3134
I13
tp3135
a(I1802
I33
F0.375
S'full'
p3136
I13
tp3137
a(I1802
I33
F0.75
S'white'
p3138
I13
tp3139
a(I1802
I34
F0.125
S'mobile'
p3140
I13
tp3141
a(I1802
I34
F-0.75
S'dead'
p3142
I13
tp3143
a(I1802
I34
F-0.25
S'i'
p3144
I13
tp3145
a(I1805
I23
I0
S'screen'
p3146
I13
tp3147
a(I1805
I23
F1.0
S'good'
p3148
I13
tp3149
a(I1880
I5
I0
S'more'
p3150
I13
tp3151
a(I1904
I6
F0.875
S'amazing'
p3152
I13
tp3153
a(I1908
I1
F1.0
S'good'
p3154
I13
tp3155
a(I1921
I4
F0.875
g414
I13
tp3156
a(I1928
I6
F-1.0
S'bad'
p3157
I13
tp3158
a(I1941
I4
F0.875
S'nice'
p3159
I13
tp3160
a(I1983
I17
F0.625
S'smooth'
p3161
I13
tp3162
a(I2041
I1
F1.0
S'good'
p3163
I13
tp3164
a(I2050
I1
F0.875
S'awesome'
p3165
I13
tp3166
a(I2098
I2
F0.875
S'awesome'
p3167
I13
tp3168
as(S'secure'
p3169
S'zone'
p3170
tp3171
(lp3172
(I2073
I3
I0
S'normal'
p3173
I0
tp3174
a(I2073
I3
F-0.625
S'secure'
p3175
I0
tp3176
as(S'6'
p3177
S'months'
p3178
tp3179
(lp3180
(I1671
I0
F-0.25
S'past'
p3181
I1
tp3182
a(I604
I1
I0
S'few'
p3183
I7
tp3184
a(I611
I20
I0
S'more'
p3185
I7
tp3186
a(I611
I24
I0
S'more'
p3187
I7
tp3188
a(I611
I24
F-0.25
S'i'
p3189
I7
tp3190
a(I1569
I0
F0.5
S'touch'
p3191
I7
tp3192
a(I1604
I13
F0.375
S'form'
p3193
I7
tp3194
a(I1660
I5
F-0.625
S'last'
p3195
I7
tp3196
a(I1671
I0
F-0.25
g3181
I7
tp3197
a(I1696
I3
F0.625
S'fine'
p3198
I7
tp3199
a(I1705
I2
F0.25
S'been'
p3200
I7
tp3201
a(I1732
I14
F-0.625
S'last'
p3202
I7
tp3203
a(I1780
I16
F1.0
S'better'
p3204
I7
tp3205
a(I1800
I2
I0
S'few'
p3206
I7
tp3207
a(I1835
I11
F0.875
S'great'
p3208
I7
tp3209
a(I1861
I2
F-0.625
S'last'
p3210
I7
tp3211
a(I1905
I1
F-0.625
S'last'
p3212
I7
tp3213
a(I1905
I1
F0.375
S'satisfied'
p3214
I7
tp3215
a(I1905
I4
F-0.625
S'last'
p3216
I7
tp3217
a(I1921
I3
F0.125
S'mobile'
p3218
I7
tp3219
a(I1941
I0
F-0.625
S'last'
p3220
I7
tp3221
a(I1958
I12
F-0.25
S'past'
p3222
I7
tp3223
a(I1976
I16
F-0.25
S'past'
p3224
I7
tp3225
a(I2057
I0
F0.875
S'happy'
p3226
I7
tp3227
as(S'dolby'
p3228
S'atmos'
p3229
S'feature'
p3230
tp3231
(lp3232
(I371
I17
F-0.625
S'new'
p3233
I0
tp3234
a(I442
I47
F1.0
S'good'
p3235
I0
tp3236
a(I777
I5
F0.125
S'star'
p3237
I0
tp3238
a(I1125
I25
F1.0
S'excellent'
p3239
I0
tp3240
a(I1316
I3
F0.875
S'superb'
p3241
I0
tp3242
a(I1447
I0
I0
S'main'
p3243
I0
tp3244
a(I1779
I14
F0.875
S'great'
p3245
I0
tp3246
a(I9
I1
I0
S'audio'
p3247
I0
tp3248
a(I77
I24
F1.0
S'good'
p3249
I0
tp3250
a(I110
I0
I0
S'f'
p3251
I0
tp3252
a(I141
I8
I0
S'dolby'
p3253
I0
tp3254
a(I331
I0
F-0.5
S'called'
p3255
I0
tp3256
a(I331
I0
F-0.625
S'useless'
p3257
I0
tp3258
a(I442
I48
F-0.625
S'non'
p3259
I0
tp3260
a(I474
I7
F0.875
S'awesome'
p3261
I0
tp3262
a(I501
I2
F0.5
S'dual'
p3263
I0
tp3264
a(I502
I0
F0.5
S'true'
p3265
I0
tp3266
a(I723
I1
I0
S'dolby'
p3267
I0
tp3268
a(I784
I1
F1.0
S'good'
p3269
I0
tp3270
a(I832
I2
F1.0
S'best'
p3271
I0
tp3272
a(I1121
I0
F1.0
S'good'
p3273
I0
tp3274
a(I1161
I0
I0
S'dolby'
p3275
I0
tp3276
a(I1316
I3
F0.875
g3241
I0
tp3277
a(I1362
I1
I0
S'dolby'
p3278
I0
tp3279
a(I1406
I0
F1.0
S'good'
p3280
I0
tp3281
a(I1414
I0
F-0.25
S'latest'
p3282
I0
tp3283
a(I1414
I0
I0
S'dolby'
p3284
I0
tp3285
a(I1439
I0
F0.875
S'awesome'
p3286
I0
tp3287
a(I1440
I1
F0.875
S'important'
p3288
I0
tp3289
a(I1519
I18
F0.875
S'amazing'
p3290
I0
tp3291
a(I1547
I1
I0
S'advertised'
p3292
I0
tp3293
a(I1629
I0
F0.875
S'great'
p3294
I0
tp3295
a(I1898
I1
I0
S'dolby'
p3296
I0
tp3297
a(I110
I0
I0
g3251
I0
tp3298
a(I305
I7
F0.5
S'true'
p3299
I0
tp3300
a(I331
I0
F-0.625
g3257
I0
tp3301
a(I442
I48
F-0.625
g3259
I0
tp3302
a(I502
I0
F0.5
g3265
I0
tp3303
a(I502
I8
F0.625
S'first'
p3304
I0
tp3305
a(I502
I8
I0
S'update'
p3306
I0
tp3307
a(I1008
I32
F0.25
S'use'
p3308
I0
tp3309
a(I1079
I0
F1.0
S'good'
p3310
I0
tp3311
a(I1079
I5
F0.375
S'tweaked'
p3312
I0
tp3313
a(I1414
I0
F-0.25
g3282
I0
tp3314
a(I1547
I1
I0
g3292
I0
tp3315
a(I1682
I5
F-0.625
S'average'
p3316
I0
tp3317
a(I1924
I0
F1.0
S'good'
p3318
I0
tp3319
a(I1941
I7
F0.75
S'sound'
p3320
I0
tp3321
a(I9
I1
I0
g3247
I0
tp3322
a(I77
I24
F1.0
g3249
I0
tp3323
a(I141
I8
I0
g3253
I0
tp3324
a(I331
I0
F-0.5
g3255
I0
tp3325
a(I474
I7
F0.875
g3261
I0
tp3326
a(I501
I2
F0.5
g3263
I0
tp3327
a(I658
I7
F0.375
S'enable'
p3328
I0
tp3329
a(I723
I1
I0
g3267
I0
tp3330
a(I784
I1
F1.0
g3269
I0
tp3331
a(I832
I2
F1.0
g3271
I0
tp3332
a(I1121
I0
F1.0
g3273
I0
tp3333
a(I1161
I0
I0
g3275
I0
tp3334
a(I1316
I3
F0.875
g3241
I0
tp3335
a(I1362
I1
I0
g3278
I0
tp3336
a(I1406
I0
F1.0
g3280
I0
tp3337
a(I1414
I0
I0
g3284
I0
tp3338
a(I1439
I0
F0.875
g3286
I0
tp3339
a(I1440
I1
F0.875
g3288
I0
tp3340
a(I1519
I18
F0.875
g3290
I0
tp3341
a(I1547
I2
F0.25
S'able'
p3342
I0
tp3343
a(I1629
I0
F0.875
g3294
I0
tp3344
a(I1898
I1
I0
g3296
I0
tp3345
as(S'screen'
p3346
S'guard'
p3347
tp3348
(lp3349
(I89
I1
I0
S'normal'
p3350
I6
tp3351
a(I89
I1
I0
S'screen'
p3352
I6
tp3353
a(I160
I2
I0
S'screen'
p3354
I6
tp3355
a(I161
I3
I0
S'screen'
p3356
I6
tp3357
a(I194
I1
I0
S'screen'
p3358
I6
tp3359
a(I220
I13
I0
S'screen'
p3360
I6
tp3361
a(I220
I13
F-0.875
S'cheap'
p3362
I6
tp3363
a(I456
I11
I0
S'screen'
p3364
I6
tp3365
a(I509
I8
I0
S'screen'
p3366
I6
tp3367
a(I716
I3
I0
S'screen'
p3368
I6
tp3369
a(I870
I2
I0
S'screen'
p3370
I6
tp3371
a(I925
I21
I0
S'screen'
p3372
I6
tp3373
a(I925
I21
F0.875
S'great'
p3374
I6
tp3375
a(I925
I21
F-0.25
S'i'
p3376
I6
tp3377
a(I1006
I8
F-0.75
S'free'
p3378
I6
tp3379
a(I1008
I36
I0
S'standard'
p3380
I6
tp3381
a(I1029
I0
I0
S'screen'
p3382
I6
tp3383
a(I1070
I0
I0
S'screen'
p3384
I6
tp3385
a(I1643
I1
I0
S'screen'
p3386
I6
tp3387
as(S'hours'
p3388
tp3389
(lp3390
(I53
I5
I0
S'few'
p3391
I14
tp3392
a(I55
I3
I0
S'normal'
p3393
I14
tp3394
a(I384
I14
I0
S'most'
p3395
I14
tp3396
a(I384
I14
F0.375
S'full'
p3397
I14
tp3398
a(I663
I1
I0
S'n'
p3399
I14
tp3400
a(I757
I25
I0
S'specific'
p3401
I14
tp3402
a(I1180
I1
F0.125
S'mobile'
p3403
I14
tp3404
a(I1805
I22
I0
S'more'
p3405
I14
tp3406
a(I1810
I6
F-0.125
S'minimum'
p3407
I14
tp3408
a(I1880
I7
F-0.5
S'long'
p3409
I14
tp3410
a(I1923
I3
F-0.5
S'continuous'
p3411
I14
tp3412
a(I1976
I1
I0
S'airborne'
p3413
I14
tp3414
a(I2052
I1
F0.875
S'solid'
p3415
I14
tp3416
as(S'good'
p3417
S'sound'
p3418
S'quality'
p3419
tp3420
(lp3421
(I241
I33
F1.0
S'good'
p3422
I0
tp3423
a(I241
I33
F1.0
g301
I0
tp3424
a(I506
I18
F0.75
S'sound'
p3425
I0
tp3426
a(I506
I18
F1.0
S'good'
p3427
I0
tp3428
a(I705
I18
F0.75
S'sound'
p3429
I0
tp3430
a(I705
I18
F1.0
S'good'
p3431
I0
tp3432
a(I855
I2
F1.0
S'good'
p3433
I0
tp3434
a(I985
I15
F0.75
S'sound'
p3435
I0
tp3436
a(I985
I15
F1.0
S'good'
p3437
I0
tp3438
a(I985
I15
I0
S'clear'
p3439
I0
tp3440
a(I985
I15
F-0.5
S'loud'
p3441
I0
tp3442
a(I985
I15
F1.0
S'good'
p3443
I0
tp3444
a(I1008
I20
F0.75
S'sound'
p3445
I0
tp3446
a(I1032
I0
F1.0
S'good'
p3447
I0
tp3448
a(I1131
I25
F0.75
S'sound'
p3449
I0
tp3450
a(I1131
I25
F1.0
S'good'
p3451
I0
tp3452
a(I1131
I25
F-0.875
S'low'
p3453
I0
tp3454
a(I1309
I1
F1.0
S'good'
p3455
I0
tp3456
a(I1544
I1
F0.75
S'sound'
p3457
I0
tp3458
a(I1544
I1
F1.0
S'good'
p3459
I0
tp3460
a(I1560
I6
F1.0
S'good'
p3461
I0
tp3462
a(I1614
I8
F0.75
S'sound'
p3463
I0
tp3464
a(I1614
I8
F1.0
S'good'
p3465
I0
tp3466
a(I1615
I3
F1.0
S'good'
p3467
I0
tp3468
a(I1615
I3
F-0.875
S'low'
p3469
I0
tp3470
a(I1615
I5
F1.0
g355
I0
tp3471
a(I1615
I5
F0.75
g357
I0
tp3472
a(I1660
I9
F1.0
S'good'
p3473
I0
tp3474
a(I1941
I5
F1.0
S'good'
p3475
I0
tp3476
a(I1941
I5
I0
S'advertised'
p3477
I0
tp3478
a(I1954
I2
F0.75
S'sound'
p3479
I0
tp3480
a(I1954
I2
F0.625
S'acceptable'
p3481
I0
tp3482
a(I1954
I2
F-0.875
S'poor'
p3483
I0
tp3484
a(I1965
I15
F0.75
g391
I0
tp3485
a(I1965
I15
F1.0
g393
I0
tp3486
a(I1965
I15
F0.5
g395
I0
tp3487
a(I1983
I4
F1.0
S'good'
p3488
I0
tp3489
a(I241
I33
F1.0
g3422
I5
tp3490
a(I241
I33
F1.0
g301
I5
tp3491
a(I331
I0
F0.75
S'sound'
p3492
I5
tp3493
a(I331
I0
F0.875
S'great'
p3494
I5
tp3495
a(I394
I2
I-100
S'camear'
p3496
I5
tp3497
a(I442
I56
F-0.875
g1625
I5
tp3498
a(I457
I13
F0.5
S'crisp'
p3499
I5
tp3500
a(I457
I13
I0
S'clear'
p3501
I5
tp3502
a(I457
I13
F0.5
S'high'
p3503
I5
tp3504
a(I506
I18
F0.75
g3425
I5
tp3505
a(I506
I18
F1.0
g3427
I5
tp3506
a(I564
I7
F-1.0
S'bad'
p3507
I5
tp3508
a(I705
I18
F0.75
g3429
I5
tp3509
a(I705
I18
F1.0
g3431
I5
tp3510
a(I725
I7
F0.75
S'sound'
p3511
I5
tp3512
a(I725
I7
F1.0
S'excellent'
p3513
I5
tp3514
a(I757
I16
F0.75
S'sound'
p3515
I5
tp3516
a(I796
I1
F0.75
S'sound'
p3517
I5
tp3518
a(I814
I0
F0.875
S'awesome'
p3519
I5
tp3520
a(I814
I0
F0.875
S'brilliant'
p3521
I5
tp3522
a(I834
I14
F0.75
g1698
I5
tp3523
a(I855
I2
F1.0
g3433
I5
tp3524
a(I985
I15
F0.75
g3435
I5
tp3525
a(I985
I15
F1.0
g3437
I5
tp3526
a(I985
I15
I0
g3439
I5
tp3527
a(I985
I15
F-0.5
g3441
I5
tp3528
a(I985
I15
F1.0
g3443
I5
tp3529
a(I986
I9
F0.75
S'sound'
p3530
I5
tp3531
a(I986
I9
F-0.875
S'low'
p3532
I5
tp3533
a(I1008
I20
F0.75
g3445
I5
tp3534
a(I1008
I31
F-0.625
S'average'
p3535
I5
tp3536
a(I1032
I0
F1.0
g3447
I5
tp3537
a(I1125
I6
F0.75
S'sound'
p3538
I5
tp3539
a(I1125
I6
F0.875
S'nice'
p3540
I5
tp3541
a(I1131
I25
F0.75
g3449
I5
tp3542
a(I1131
I25
F1.0
g3451
I5
tp3543
a(I1131
I25
F-0.875
g3453
I5
tp3544
a(I1163
I2
F0.75
S'sound'
p3545
I5
tp3546
a(I1163
I2
F-0.875
S'low'
p3547
I5
tp3548
a(I1163
I2
F-0.5
S'loud'
p3549
I5
tp3550
a(I1163
I2
I0
S'clear'
p3551
I5
tp3552
a(I1252
I3
F0.75
S'sound'
p3553
I5
tp3554
a(I1252
I3
F-0.875
S'low'
p3555
I5
tp3556
a(I1253
I2
I-100
S'gatiya'
p3557
I5
tp3558
a(I1309
I1
F1.0
g3455
I5
tp3559
a(I1392
I0
F0.75
S'sound'
p3560
I5
tp3561
a(I1544
I1
F0.75
g3457
I5
tp3562
a(I1544
I1
F1.0
g3459
I5
tp3563
a(I1552
I11
F0.75
S'sound'
p3564
I5
tp3565
a(I1553
I0
F-0.875
S'lowest'
p3566
I5
tp3567
a(I1560
I6
F1.0
g3461
I5
tp3568
a(I1614
I8
F0.75
g3463
I5
tp3569
a(I1614
I8
F1.0
g3465
I5
tp3570
a(I1615
I3
F1.0
g3467
I5
tp3571
a(I1615
I3
F-0.875
g3469
I5
tp3572
a(I1615
I5
F1.0
g355
I5
tp3573
a(I1615
I5
F0.75
g357
I5
tp3574
a(I1660
I9
F1.0
g3473
I5
tp3575
a(I1735
I2
F0.75
S'sound'
p3576
I5
tp3577
a(I1735
I2
F-1.0
S'bad'
p3578
I5
tp3579
a(I1735
I2
F-0.875
S'low'
p3580
I5
tp3581
a(I1744
I9
F0.5
S'touch'
p3582
I5
tp3583
a(I1941
I5
F1.0
g3475
I5
tp3584
a(I1941
I5
I0
g3477
I5
tp3585
a(I1954
I2
F0.75
g3479
I5
tp3586
a(I1954
I2
F0.625
g3481
I5
tp3587
a(I1954
I2
F-0.875
g3483
I5
tp3588
a(I1965
I15
F0.75
g391
I5
tp3589
a(I1965
I15
F1.0
g393
I5
tp3590
a(I1965
I15
F0.5
g395
I5
tp3591
a(I1983
I4
F1.0
g3488
I5
tp3592
a(I11
I3
F1.0
S'good'
p3593
I0
tp3594
a(I30
I15
F1.0
S'good'
p3595
I0
tp3596
a(I54
I13
F1.0
S'good'
p3597
I0
tp3598
a(I54
I18
F1.0
S'good'
p3599
I0
tp3600
a(I54
I19
F1.0
S'good'
p3601
I0
tp3602
a(I116
I0
F1.0
g2590
I0
tp3603
a(I124
I1
F1.0
g299
I0
tp3604
a(I129
I3
F1.0
S'good'
p3605
I0
tp3606
a(I167
I1
F0.875
S'music'
p3607
I0
tp3608
a(I167
I1
F1.0
S'good'
p3609
I0
tp3610
a(I186
I22
F-0.625
S'other'
p3611
I0
tp3612
a(I186
I22
F1.0
S'good'
p3613
I0
tp3614
a(I188
I31
F1.0
S'good'
p3615
I0
tp3616
a(I241
I33
F1.0
g301
I0
tp3617
a(I271
I1
F1.0
S'good'
p3618
I0
tp3619
a(I297
I10
F1.0
g2592
I0
tp3620
a(I310
I5
F1.0
S'good'
p3621
I0
tp3622
a(I315
I5
F1.0
g303
I0
tp3623
a(I315
I6
F1.0
g305
I0
tp3624
a(I370
I1
I0
g2594
I0
tp3625
a(I379
I6
F1.0
S'good'
p3626
I0
tp3627
a(I416
I0
F-0.875
S'low'
p3628
I0
tp3629
a(I442
I58
F1.0
S'good'
p3630
I0
tp3631
a(I447
I12
F1.0
g307
I0
tp3632
a(I489
I1
F0.875
S'music'
p3633
I0
tp3634
a(I489
I1
F1.0
S'good'
p3635
I0
tp3636
a(I506
I16
F1.0
S'good'
p3637
I0
tp3638
a(I506
I18
F0.75
g3425
I0
tp3639
a(I506
I18
F1.0
g3427
I0
tp3640
a(I518
I4
F1.0
S'good'
p3641
I0
tp3642
a(I571
I5
F0.5
S'like'
p3643
I0
tp3644
a(I571
I5
F-0.875
S'low'
p3645
I0
tp3646
a(I587
I16
F1.0
S'good'
p3647
I0
tp3648
a(I650
I1
F1.0
g311
I0
tp3649
a(I705
I14
F1.0
g317
I0
tp3650
a(I705
I18
F0.75
g3429
I0
tp3651
a(I705
I18
F1.0
g3431
I0
tp3652
a(I725
I4
F1.0
g319
I0
tp3653
a(I744
I73
F-0.875
g321
I0
tp3654
a(I744
I73
F-0.875
g323
I0
tp3655
a(I745
I21
F1.0
S'good'
p3656
I0
tp3657
a(I745
I60
F1.0
S'good'
p3658
I0
tp3659
a(I797
I0
F-0.125
g325
I0
tp3660
a(I797
I0
F1.0
g327
I0
tp3661
a(I797
I0
I0
g329
I0
tp3662
a(I797
I0
F-0.875
g331
I0
tp3663
a(I797
I0
F0.5
g333
I0
tp3664
a(I837
I1
F0.875
S'music'
p3665
I0
tp3666
a(I837
I1
F1.0
S'good'
p3667
I0
tp3668
a(I842
I3
I0
g2600
I0
tp3669
a(I842
I3
F-0.875
g2602
I0
tp3670
a(I848
I3
F1.0
g335
I0
tp3671
a(I878
I13
F1.0
g337
I0
tp3672
a(I947
I1
F1.0
S'good'
p3673
I0
tp3674
a(I985
I15
F0.75
g3435
I0
tp3675
a(I985
I15
F1.0
g3437
I0
tp3676
a(I985
I15
I0
g3439
I0
tp3677
a(I985
I15
F-0.5
g3441
I0
tp3678
a(I985
I15
F1.0
g3443
I0
tp3679
a(I1008
I20
F0.75
g3445
I0
tp3680
a(I1008
I30
F1.0
g341
I0
tp3681
a(I1014
I43
F1.0
S'good'
p3682
I0
tp3683
a(I1032
I0
F1.0
g3447
I0
tp3684
a(I1033
I0
F1.0
g343
I0
tp3685
a(I1079
I1
F1.0
S'good'
p3686
I0
tp3687
a(I1092
I4
F1.0
g2608
I0
tp3688
a(I1100
I13
F1.0
S'good'
p3689
I0
tp3690
a(I1131
I23
F1.0
S'good'
p3691
I0
tp3692
a(I1131
I25
F0.75
g3449
I0
tp3693
a(I1131
I25
F1.0
g3451
I0
tp3694
a(I1163
I5
F1.0
S'good'
p3695
I0
tp3696
a(I1186
I0
I0
g2610
I0
tp3697
a(I1186
I0
F1.0
g2612
I0
tp3698
a(I1285
I0
F1.0
S'good'
p3699
I0
tp3700
a(I1304
I0
F1.0
g345
I0
tp3701
a(I1304
I0
F1.0
g347
I0
tp3702
a(I1309
I1
F1.0
g3455
I0
tp3703
a(I1316
I3
F1.0
S'good'
p3704
I0
tp3705
a(I1316
I6
F1.0
S'good'
p3706
I0
tp3707
a(I1426
I1
F0.875
S'music'
p3708
I0
tp3709
a(I1426
I1
F1.0
S'good'
p3710
I0
tp3711
a(I1429
I1
F1.0
g349
I0
tp3712
a(I1496
I1
F1.0
S'good'
p3713
I0
tp3714
a(I1544
I1
F0.75
g3457
I0
tp3715
a(I1544
I1
F1.0
g3459
I0
tp3716
a(I1545
I12
F-0.875
g353
I0
tp3717
a(I1556
I13
F1.0
S'good'
p3718
I0
tp3719
a(I1608
I13
F1.0
S'good'
p3720
I0
tp3721
a(I1614
I8
F0.75
g3463
I0
tp3722
a(I1614
I8
F1.0
g3465
I0
tp3723
a(I1615
I3
F1.0
g3467
I0
tp3724
a(I1615
I3
F-0.875
g3469
I0
tp3725
a(I1615
I5
F1.0
g355
I0
tp3726
a(I1615
I5
F0.75
g357
I0
tp3727
a(I1654
I1
F1.0
S'good'
p3728
I0
tp3729
a(I1658
I8
F1.0
g359
I0
tp3730
a(I1670
I0
F1.0
S'good'
p3731
I0
tp3732
a(I1682
I4
F1.0
S'good'
p3733
I0
tp3734
a(I1701
I0
F-0.875
S'low'
p3735
I0
tp3736
a(I1703
I2
F1.0
S'good'
p3737
I0
tp3738
a(I1744
I4
F1.0
g363
I0
tp3739
a(I1762
I2
F1.0
S'good'
p3740
I0
tp3741
a(I1763
I4
F1.0
S'good'
p3742
I0
tp3743
a(I1777
I5
F1.0
S'good'
p3744
I0
tp3745
a(I1780
I7
F1.0
g365
I0
tp3746
a(I1792
I2
I0
S'tuff'
p3747
I0
tp3748
a(I1802
I0
I0
S'screen'
p3749
I0
tp3750
a(I1802
I0
F1.0
S'good'
p3751
I0
tp3752
a(I1810
I9
F1.0
g367
I0
tp3753
a(I1837
I0
I0
S'screen'
p3754
I0
tp3755
a(I1837
I0
F1.0
S'good'
p3756
I0
tp3757
a(I1869
I2
F1.0
S'good'
p3758
I0
tp3759
a(I1874
I0
F1.0
S'good'
p3760
I0
tp3761
a(I1874
I2
F1.0
S'good'
p3762
I0
tp3763
a(I1880
I3
F1.0
g375
I0
tp3764
a(I1882
I5
I0
g2618
I0
tp3765
a(I1882
I7
F1.0
g379
I0
tp3766
a(I1884
I1
F1.0
g381
I0
tp3767
a(I1905
I6
F1.0
g387
I0
tp3768
a(I1913
I2
F1.0
g389
I0
tp3769
a(I1941
I5
F1.0
g3475
I0
tp3770
a(I1941
I5
I0
g3477
I0
tp3771
a(I1945
I6
F0.625
S'graphic'
p3772
I0
tp3773
a(I1945
I6
F1.0
S'good'
p3774
I0
tp3775
a(I1954
I2
F0.75
g3479
I0
tp3776
a(I1954
I2
F0.625
g3481
I0
tp3777
a(I1954
I2
F-0.875
g3483
I0
tp3778
a(I1965
I15
F0.75
g391
I0
tp3779
a(I1965
I15
F1.0
g393
I0
tp3780
a(I1965
I15
F0.5
g395
I0
tp3781
a(I1983
I4
F1.0
g3488
I0
tp3782
a(I2065
I0
F1.0
g2622
I0
tp3783
a(I2068
I0
F1.0
S'good'
p3784
I0
tp3785
a(I2070
I6
F1.0
g403
I0
tp3786
a(I2097
I2
F0.875
g405
I0
tp3787
a(I11
I3
F1.0
g3593
I2
tp3788
a(I30
I15
F1.0
g3595
I2
tp3789
a(I54
I13
F1.0
g3597
I2
tp3790
a(I54
I18
F1.0
g3599
I2
tp3791
a(I54
I19
F1.0
g3601
I2
tp3792
a(I116
I0
F1.0
g2590
I2
tp3793
a(I124
I1
F1.0
g299
I2
tp3794
a(I129
I3
F1.0
g3605
I2
tp3795
a(I167
I1
F0.875
g3607
I2
tp3796
a(I167
I1
F1.0
g3609
I2
tp3797
a(I186
I22
F-0.625
g3611
I2
tp3798
a(I186
I22
F1.0
g3613
I2
tp3799
a(I188
I31
F1.0
g3615
I2
tp3800
a(I241
I33
F1.0
g301
I2
tp3801
a(I271
I1
F1.0
g3618
I2
tp3802
a(I297
I10
F1.0
g2592
I2
tp3803
a(I310
I5
F1.0
g3621
I2
tp3804
a(I315
I5
F1.0
g303
I2
tp3805
a(I315
I6
F1.0
g305
I2
tp3806
a(I370
I1
I0
g2594
I2
tp3807
a(I379
I6
F1.0
g3626
I2
tp3808
a(I416
I0
F-0.875
g3628
I2
tp3809
a(I442
I58
F1.0
g3630
I2
tp3810
a(I447
I12
F1.0
g307
I2
tp3811
a(I489
I1
F0.875
g3633
I2
tp3812
a(I489
I1
F1.0
g3635
I2
tp3813
a(I506
I16
F1.0
g3637
I2
tp3814
a(I506
I18
F0.75
g3425
I2
tp3815
a(I506
I18
F1.0
g3427
I2
tp3816
a(I518
I4
F1.0
g3641
I2
tp3817
a(I571
I5
F0.5
g3643
I2
tp3818
a(I571
I5
F-0.875
g3645
I2
tp3819
a(I587
I16
F1.0
g3647
I2
tp3820
a(I650
I1
F1.0
g311
I2
tp3821
a(I705
I14
F1.0
g317
I2
tp3822
a(I705
I18
F0.75
g3429
I2
tp3823
a(I705
I18
F1.0
g3431
I2
tp3824
a(I725
I4
F1.0
g319
I2
tp3825
a(I744
I73
F-0.875
g321
I2
tp3826
a(I744
I73
F-0.875
g323
I2
tp3827
a(I745
I21
F1.0
g3656
I2
tp3828
a(I745
I60
F1.0
g3658
I2
tp3829
a(I797
I0
F-0.125
g325
I2
tp3830
a(I797
I0
F1.0
g327
I2
tp3831
a(I797
I0
I0
g329
I2
tp3832
a(I797
I0
F-0.875
g331
I2
tp3833
a(I797
I0
F0.5
g333
I2
tp3834
a(I837
I1
F0.875
g3665
I2
tp3835
a(I837
I1
F1.0
g3667
I2
tp3836
a(I842
I3
I0
g2600
I2
tp3837
a(I842
I3
F-0.875
g2602
I2
tp3838
a(I848
I3
F1.0
g335
I2
tp3839
a(I878
I13
F1.0
g337
I2
tp3840
a(I947
I1
F1.0
g3673
I2
tp3841
a(I985
I15
F0.75
g3435
I2
tp3842
a(I985
I15
F1.0
g3437
I2
tp3843
a(I985
I15
I0
g3439
I2
tp3844
a(I985
I15
F-0.5
g3441
I2
tp3845
a(I985
I15
F1.0
g3443
I2
tp3846
a(I1008
I20
F0.75
g3445
I2
tp3847
a(I1008
I30
F1.0
g341
I2
tp3848
a(I1014
I43
F1.0
g3682
I2
tp3849
a(I1032
I0
F1.0
g3447
I2
tp3850
a(I1033
I0
F1.0
g343
I2
tp3851
a(I1079
I1
F1.0
g3686
I2
tp3852
a(I1092
I4
F1.0
g2608
I2
tp3853
a(I1100
I13
F1.0
g3689
I2
tp3854
a(I1131
I23
F1.0
g3691
I2
tp3855
a(I1131
I25
F0.75
g3449
I2
tp3856
a(I1131
I25
F1.0
g3451
I2
tp3857
a(I1163
I5
F1.0
g3695
I2
tp3858
a(I1186
I0
I0
g2610
I2
tp3859
a(I1186
I0
F1.0
g2612
I2
tp3860
a(I1285
I0
F1.0
g3699
I2
tp3861
a(I1304
I0
F1.0
g345
I2
tp3862
a(I1304
I0
F1.0
g347
I2
tp3863
a(I1309
I1
F1.0
g3455
I2
tp3864
a(I1316
I3
F1.0
g3704
I2
tp3865
a(I1316
I6
F1.0
g3706
I2
tp3866
a(I1426
I1
F0.875
g3708
I2
tp3867
a(I1426
I1
F1.0
g3710
I2
tp3868
a(I1429
I1
F1.0
g349
I2
tp3869
a(I1496
I1
F1.0
g3713
I2
tp3870
a(I1544
I1
F0.75
g3457
I2
tp3871
a(I1544
I1
F1.0
g3459
I2
tp3872
a(I1545
I12
F-0.875
g353
I2
tp3873
a(I1556
I13
F1.0
g3718
I2
tp3874
a(I1608
I13
F1.0
g3720
I2
tp3875
a(I1614
I8
F0.75
g3463
I2
tp3876
a(I1614
I8
F1.0
g3465
I2
tp3877
a(I1615
I3
F1.0
g3467
I2
tp3878
a(I1615
I3
F-0.875
g3469
I2
tp3879
a(I1615
I5
F1.0
g355
I2
tp3880
a(I1615
I5
F0.75
g357
I2
tp3881
a(I1654
I1
F1.0
g3728
I2
tp3882
a(I1658
I8
F1.0
g359
I2
tp3883
a(I1670
I0
F1.0
g3731
I2
tp3884
a(I1682
I4
F1.0
g3733
I2
tp3885
a(I1701
I0
F-0.875
g3735
I2
tp3886
a(I1703
I2
F1.0
g3737
I2
tp3887
a(I1744
I4
F1.0
g363
I2
tp3888
a(I1762
I2
F1.0
g3740
I2
tp3889
a(I1763
I4
F1.0
g3742
I2
tp3890
a(I1777
I5
F1.0
g3744
I2
tp3891
a(I1780
I7
F1.0
g365
I2
tp3892
a(I1792
I2
I0
g3747
I2
tp3893
a(I1802
I0
I0
g3749
I2
tp3894
a(I1802
I0
F1.0
g3751
I2
tp3895
a(I1810
I9
F1.0
g367
I2
tp3896
a(I1837
I0
I0
g3754
I2
tp3897
a(I1837
I0
F1.0
g3756
I2
tp3898
a(I1869
I2
F1.0
g3758
I2
tp3899
a(I1874
I0
F1.0
g3760
I2
tp3900
a(I1874
I2
F1.0
g3762
I2
tp3901
a(I1880
I3
F1.0
g375
I2
tp3902
a(I1882
I5
I0
g2618
I2
tp3903
a(I1882
I7
F1.0
g379
I2
tp3904
a(I1884
I1
F1.0
g381
I2
tp3905
a(I1905
I6
F1.0
g387
I2
tp3906
a(I1913
I2
F1.0
g389
I2
tp3907
a(I1941
I5
F1.0
g3475
I2
tp3908
a(I1941
I5
I0
g3477
I2
tp3909
a(I1945
I6
F0.625
g3772
I2
tp3910
a(I1945
I6
F1.0
g3774
I2
tp3911
a(I1954
I2
F0.75
g3479
I2
tp3912
a(I1954
I2
F0.625
g3481
I2
tp3913
a(I1954
I2
F-0.875
g3483
I2
tp3914
a(I1965
I15
F0.75
g391
I2
tp3915
a(I1965
I15
F1.0
g393
I2
tp3916
a(I1965
I15
F0.5
g395
I2
tp3917
a(I1983
I4
F1.0
g3488
I2
tp3918
a(I2065
I0
F1.0
g2622
I2
tp3919
a(I2068
I0
F1.0
g3784
I2
tp3920
a(I2070
I6
F1.0
g403
I2
tp3921
a(I2097
I2
F0.875
g405
I2
tp3922
a(I77
I23
F-0.875
S'low'
p3923
I15
tp3924
a(I77
I24
F-0.75
S'little'
p3925
I15
tp3926
a(I188
I15
F0.875
S'great'
p3927
I15
tp3928
a(I195
I1
F-0.875
S'low'
p3929
I15
tp3930
a(I198
I6
F-0.875
S'low'
p3931
I15
tp3932
a(I219
I0
F1.0
S'good'
p3933
I15
tp3934
a(I241
I33
F1.0
g3422
I15
tp3935
a(I309
I0
F0.875
S'awesome'
p3936
I15
tp3937
a(I354
I1
F1.0
S'good'
p3938
I15
tp3939
a(I368
I9
F1.0
S'good'
p3940
I15
tp3941
a(I371
I18
F1.0
S'good'
p3942
I15
tp3943
a(I384
I8
I0
S'normal'
p3944
I15
tp3945
a(I384
I8
F-0.75
S'shitty'
p3946
I15
tp3947
a(I418
I2
F1.0
S'good'
p3948
I15
tp3949
a(I457
I13
F0.5
g3499
I15
tp3950
a(I458
I32
I0
S'dolby'
p3951
I15
tp3952
a(I470
I1
F-0.625
S'wide'
p3953
I15
tp3954
a(I481
I6
I0
S'dolby'
p3955
I15
tp3956
a(I559
I0
F-0.875
S'low'
p3957
I15
tp3958
a(I564
I7
F-1.0
g3507
I15
tp3959
a(I658
I0
F0.875
S'great'
p3960
I15
tp3961
a(I851
I0
F-0.5
S'ordinary'
p3962
I15
tp3963
a(I855
I2
F1.0
g3433
I15
tp3964
a(I925
I14
F-0.875
S'low'
p3965
I15
tp3966
a(I992
I0
I0
S'dolby'
p3967
I15
tp3968
a(I992
I0
F1.0
S'good'
p3969
I15
tp3970
a(I1020
I4
F-0.5
S'lame'
p3971
I15
tp3972
a(I1046
I1
F-1.0
S'bad'
p3973
I15
tp3974
a(I1046
I1
I0
S's'
p3975
I15
tp3976
a(I1046
I1
F-0.5
S'feeble'
p3977
I15
tp3978
a(I1058
I3
I0
S'dolby'
p3979
I15
tp3980
a(I1065
I1
F0.875
S'awesome'
p3981
I15
tp3982
a(I1071
I5
F1.0
S'good'
p3983
I15
tp3984
a(I1100
I7
F1.0
S'excellent'
p3985
I15
tp3986
a(I1131
I25
F-0.875
g3453
I15
tp3987
a(I1156
I5
I0
S'crystal'
p3988
I15
tp3989
a(I1156
I5
I0
S'clear'
p3990
I15
tp3991
a(I1210
I9
F0.375
S'audible'
p3992
I15
tp3993
a(I1229
I3
F1.0
S'good'
p3994
I15
tp3995
a(I1280
I7
F-0.25
S'i'
p3996
I15
tp3997
a(I1280
I7
F-0.875
S'harder'
p3998
I15
tp3999
a(I1335
I1
F-0.875
S'low'
p4000
I15
tp4001
a(I1335
I7
I-100
S'nokia'
p4002
I15
tp4003
a(I1351
I0
I0
S'u'
p4004
I15
tp4005
a(I1362
I0
F0.5
S'high'
p4006
I15
tp4007
a(I1490
I1
F0.375
S'ok'
p4008
I15
tp4009
a(I1490
I1
F1.0
S'good'
p4010
I15
tp4011
a(I1552
I3
F1.0
S'good'
p4012
I15
tp4013
a(I1560
I6
F1.0
g3461
I15
tp4014
a(I1564
I0
F-0.875
S'low'
p4015
I15
tp4016
a(I1581
I0
F-0.875
S'low'
p4017
I15
tp4018
a(I1610
I0
F0.5
S'high'
p4019
I15
tp4020
a(I1610
I0
I0
S'u'
p4021
I15
tp4022
a(I1657
I9
F1.0
S'excellent'
p4023
I15
tp4024
a(I1660
I9
F1.0
g3473
I15
tp4025
a(I1691
I1
F-0.125
S'hissing'
p4026
I15
tp4027
a(I1735
I3
I-100
S'qualiy'
p4028
I15
tp4029
a(I1744
I9
F0.5
g3582
I15
tp4030
a(I1765
I2
F0.375
S'ok'
p4031
I15
tp4032
a(I1765
I2
F-0.25
S'external'
p4033
I15
tp4034
a(I1765
I2
F0.5
S'powerful'
p4035
I15
tp4036
a(I1765
I2
I0
S'update'
p4037
I15
tp4038
a(I1765
I2
I0
S'android'
p4039
I15
tp4040
a(I1779
I18
F0.875
S'awesome'
p4041
I15
tp4042
a(I1786
I0
F-0.5
S'loud'
p4043
I15
tp4044
a(I1786
I0
I0
S'clear'
p4045
I15
tp4046
a(I1802
I36
F-1.0
S'bad'
p4047
I15
tp4048
a(I1876
I11
F-0.75
S'little'
p4049
I15
tp4050
a(I1876
I11
F-0.875
S'low'
p4051
I15
tp4052
a(I1896
I6
F0.375
S'much'
p4053
I15
tp4054
a(I1924
I0
F-0.875
S'low'
p4055
I15
tp4056
a(I1927
I14
F-0.5
S'loud'
p4057
I15
tp4058
a(I1927
I14
I0
S'clear'
p4059
I15
tp4060
a(I1945
I4
I0
S'dolby'
p4061
I15
tp4062
a(I1980
I1
F0.75
S'perfect'
p4063
I15
tp4064
a(I2056
I6
F1.0
S'excellent'
p4065
I15
tp4066
as(S'back'
p4067
S'camera'
p4068
tp4069
(lp4070
(I43
I6
F-0.125
S'back'
p4071
I0
tp4072
a(I183
I1
F-1.0
g778
I0
tp4073
a(I254
I0
F1.0
g554
I0
tp4074
a(I323
I0
F-0.75
S'sufficient'
p4075
I0
tp4076
a(I442
I0
F-0.875
g803
I0
tp4077
a(I510
I3
F-0.125
g441
I0
tp4078
a(I524
I6
F-0.625
S'average'
p4079
I0
tp4080
a(I533
I0
F1.0
g309
I0
tp4081
a(I540
I1
F-0.5
g828
I0
tp4082
a(I540
I1
F-0.875
g830
I0
tp4083
a(I572
I9
F0.875
g834
I0
tp4084
a(I1016
I6
F0.875
g867
I0
tp4085
a(I1043
I0
F-1.0
g869
I0
tp4086
a(I1084
I0
F1.0
g875
I0
tp4087
a(I1084
I0
F-0.125
g877
I0
tp4088
a(I1084
I0
F-0.625
g879
I0
tp4089
a(I1365
I0
F-1.0
g900
I0
tp4090
a(I1381
I1
F-1.0
S'worst'
p4091
I0
tp4092
a(I1519
I21
F-0.125
g911
I0
tp4093
a(I1545
I12
F1.0
g351
I0
tp4094
a(I1586
I1
F1.0
g673
I0
tp4095
a(I1586
I1
F1.0
g675
I0
tp4096
a(I1614
I6
F-1.0
S'bad'
p4097
I0
tp4098
a(I1882
I9
F0.875
S'awesome'
p4099
I0
tp4100
a(I1882
I9
F-1.0
g520
I0
tp4101
a(I1882
I9
F1.0
g524
I0
tp4102
a(I1904
I7
F-0.125
g383
I0
tp4103
a(I1904
I7
F1.0
g385
I0
tp4104
a(I1948
I0
F-0.125
g526
I0
tp4105
a(I1948
I0
F-0.75
g528
I0
tp4106
a(I2078
I7
F-0.625
g973
I0
tp4107
a(I2078
I7
F-0.125
g975
I0
tp4108
a(I2097
I4
F-0.125
g979
I0
tp4109
a(I2097
I4
F-0.125
g981
I0
tp4110
as(S'heating'
p4111
S'issues'
p4112
tp4113
(lp4114
(I185
I19
F0.625
S'major'
p4115
I0
tp4116
a(I185
I19
I0
g2106
I0
tp4117
a(I647
I1
F-0.125
S'such'
p4118
I0
tp4119
a(I1324
I9
F0.625
g2122
I0
tp4120
a(I1879
I0
F0.375
S'much'
p4121
I0
tp4122
a(I2041
I0
F0.625
S'major'
p4123
I0
tp4124
a(I170
I7
F-0.625
S'other'
p4125
I4
tp4126
a(I178
I3
F0.125
S'mobile'
p4127
I4
tp4128
a(I185
I19
F0.625
g4115
I4
tp4129
a(I418
I5
F0.125
S'mobile'
p4130
I4
tp4131
a(I604
I0
F0.125
S'signal'
p4132
I4
tp4133
a(I647
I1
F-0.125
g4118
I4
tp4134
a(I664
I0
I0
S'sure'
p4135
I4
tp4136
a(I815
I0
F0.125
S'signal'
p4137
I4
tp4138
a(I985
I19
F0.125
S'electrical'
p4139
I4
tp4140
a(I1193
I4
F0.5
S'touch'
p4141
I4
tp4142
a(I1200
I37
F0.25
S'legal'
p4143
I4
tp4144
a(I1236
I0
F0.5
S'technical'
p4145
I4
tp4146
a(I1259
I1
F0.625
S'major'
p4147
I4
tp4148
a(I1680
I19
F-0.375
S'various'
p4149
I4
tp4150
a(I1724
I7
F0.625
S'quality'
p4151
I4
tp4152
a(I1724
I18
F0.5
S'touch'
p4153
I4
tp4154
a(I1752
I2
I0
S'serious'
p4155
I4
tp4156
a(I1860
I15
F0.5
S'touch'
p4157
I4
tp4158
a(I1860
I15
I0
S'delicate'
p4159
I4
tp4160
a(I1863
I0
I0
S'many'
p4161
I4
tp4162
a(I1879
I0
F0.375
g4121
I4
tp4163
a(I2041
I0
F0.625
g4123
I4
tp4164
as(S'good'
p4165
S'battery'
p4166
S'backup'
p4167
tp4168
(lp4169
(I6
I7
F1.0
S'good'
p4170
I0
tp4171
a(I162
I0
F1.0
S'good'
p4172
I0
tp4173
a(I197
I20
F1.0
S'good'
p4174
I0
tp4175
a(I211
I14
F1.0
S'good'
p4176
I0
tp4177
a(I333
I0
F1.0
S'good'
p4178
I0
tp4179
a(I368
I7
F1.0
S'good'
p4180
I0
tp4181
a(I409
I1
F1.0
S'good'
p4182
I0
tp4183
a(I509
I10
F1.0
S'good'
p4184
I0
tp4185
a(I521
I23
F1.0
S'good'
p4186
I0
tp4187
a(I522
I1
F1.0
S'good'
p4188
I0
tp4189
a(I545
I2
F1.0
S'good'
p4190
I0
tp4191
a(I706
I5
F-0.25
S'battery'
p4192
I0
tp4193
a(I716
I6
F1.0
S'good'
p4194
I0
tp4195
a(I778
I1
F1.0
S'good'
p4196
I0
tp4197
a(I831
I0
F1.0
S'good'
p4198
I0
tp4199
a(I865
I1
F1.0
S'good'
p4200
I0
tp4201
a(I1006
I5
F1.0
S'good'
p4202
I0
tp4203
a(I1092
I4
F0.875
S'nice'
p4204
I0
tp4205
a(I1109
I1
F1.0
S'good'
p4206
I0
tp4207
a(I1307
I6
F1.0
S'good'
p4208
I0
tp4209
a(I1561
I0
F1.0
S'good'
p4210
I0
tp4211
a(I1581
I0
F-0.875
S'low'
p4212
I0
tp4213
a(I1585
I0
F1.0
S'good'
p4214
I0
tp4215
a(I1596
I0
F1.0
S'good'
p4216
I0
tp4217
a(I1598
I1
F1.0
S'good'
p4218
I0
tp4219
a(I1618
I0
F1.0
S'good'
p4220
I0
tp4221
a(I1642
I2
F1.0
S'good'
p4222
I0
tp4223
a(I1656
I5
F1.0
S'good'
p4224
I0
tp4225
a(I1689
I1
F1.0
S'good'
p4226
I0
tp4227
a(I1689
I1
F-0.375
S'same'
p4228
I0
tp4229
a(I1781
I1
F1.0
S'good'
p4230
I0
tp4231
a(I1907
I1
F1.0
S'good'
p4232
I0
tp4233
a(I1938
I0
F1.0
S'good'
p4234
I0
tp4235
a(I1989
I0
F1.0
S'good'
p4236
I0
tp4237
a(I1997
I0
F1.0
S'good'
p4238
I0
tp4239
a(I2098
I4
F1.0
S'good'
p4240
I0
tp4241
as(S'back'
p4242
S'cover'
p4243
tp4244
(lp4245
(I48
I0
F-0.125
S'back'
p4246
I2
tp4247
a(I133
I10
I0
S'delicate'
p4248
I2
tp4249
a(I160
I3
I-100
S'slipery'
p4250
I2
tp4251
a(I241
I2
F-0.125
S'back'
p4252
I2
tp4253
a(I254
I1
F1.0
S'good'
p4254
I2
tp4255
a(I326
I0
F0.625
S'necessary'
p4256
I2
tp4257
a(I369
I1
F1.0
S'good'
p4258
I2
tp4259
a(I473
I13
F-0.5
S'flip'
p4260
I2
tp4261
a(I473
I13
F-0.125
S'back'
p4262
I2
tp4263
a(I590
I9
F1.0
S'good'
p4264
I2
tp4265
a(I757
I20
F1.0
S'best'
p4266
I2
tp4267
a(I842
I3
F1.0
S'good'
p4268
I2
tp4269
a(I955
I2
F-0.375
S'prone'
p4270
I2
tp4271
a(I1111
I2
F-0.125
S'back'
p4272
I2
tp4273
a(I1111
I2
F0.5
S'thin'
p4274
I2
tp4275
a(I1316
I6
I0
S'delicate'
p4276
I2
tp4277
a(I1324
I14
F-0.125
S'back'
p4278
I2
tp4279
a(I1324
I18
F-0.5
S'flimsy'
p4280
I2
tp4281
a(I1324
I18
F-0.75
S'loose'
p4282
I2
tp4283
a(I1382
I1
F-0.875
S'cheap'
p4284
I2
tp4285
a(I1521
I0
F0.875
S'nice'
p4286
I2
tp4287
a(I1560
I3
F-0.125
S'back'
p4288
I2
tp4289
a(I1560
I3
F0.5
S'thin'
p4290
I2
tp4291
a(I1693
I5
F-0.125
S'back'
p4292
I2
tp4293
a(I1693
I5
F0.5
S'plastic'
p4294
I2
tp4295
as(S'day'
p4296
S'to'
p4297
S'day'
p4298
tp4299
(lp4300
(I78
I16
F0.625
S'first'
p4301
I0
tp4302
a(I111
I7
F0.625
S'fine'
p4303
I0
tp4304
a(I168
I10
F-0.125
S'next'
p4305
I0
tp4306
a(I177
I0
I0
S'more'
p4307
I0
tp4308
a(I188
I19
F0.375
S'full'
p4309
I0
tp4310
a(I241
I8
F0.5
S'second'
p4311
I0
tp4312
a(I341
I1
F0.375
S'full'
p4313
I0
tp4314
a(I344
I7
I0
S'normal'
p4315
I0
tp4316
a(I696
I0
F-0.625
S'last'
p4317
I0
tp4318
a(I861
I10
F-0.375
S'same'
p4319
I0
tp4320
a(I1012
I7
F-0.625
S'moderate'
p4321
I0
tp4322
a(I1058
I6
F0.375
S'full'
p4323
I0
tp4324
a(I1163
I15
F0.625
S'first'
p4325
I0
tp4326
a(I1198
I8
F-0.125
S'next'
p4327
I0
tp4328
a(I1198
I8
F-0.125
S'next'
p4329
I0
tp4330
a(I1198
I8
F-0.75
S'disappointing'
p4331
I0
tp4332
a(I1198
I9
F0.5
S'entire'
p4333
I0
tp4334
a(I1200
I27
F-0.125
S'next'
p4335
I0
tp4336
a(I1219
I20
F-0.125
S'next'
p4337
I0
tp4338
a(I1296
I0
F-0.125
S'next'
p4339
I0
tp4340
a(I1306
I9
F-0.125
S'next'
p4341
I0
tp4342
a(I1306
I9
F0.375
S'early'
p4343
I0
tp4344
a(I1309
I0
F-0.125
S'cant'
p4345
I0
tp4346
a(I1395
I0
F0.625
S'first'
p4347
I0
tp4348
a(I1732
I50
F0.75
S'whole'
p4349
I0
tp4350
a(I1732
I61
F0.625
S'first'
p4351
I0
tp4352
a(I1780
I1
F-0.375
S'same'
p4353
I0
tp4354
a(I1885
I21
F-0.125
S'next'
p4355
I0
tp4356
as(S'bought'
p4357
tp4358
(lp4359
(I794
I4
F1.0
S'best'
p4360
I14
tp4361
as(S'headphone'
p4362
tp4363
(lp4364
(I30
I12
F1.0
S'good'
p4365
I1
tp4366
a(I90
I1
F1.0
S'good'
p4367
I1
tp4368
a(I315
I11
F-0.625
S'new'
p4369
I1
tp4370
a(I442
I11
F-0.875
S'poor'
p4371
I1
tp4372
a(I513
I6
F-1.0
S'worst'
p4373
I1
tp4374
a(I637
I0
F0.25
S'worth'
p4375
I1
tp4376
a(I658
I2
F1.0
S'good'
p4377
I1
tp4378
a(I658
I7
F1.0
S'good'
p4379
I1
tp4380
a(I658
I7
F0.875
S'great'
p4381
I1
tp4382
a(I743
I0
F-1.0
S'bad'
p4383
I1
tp4384
a(I745
I20
F1.0
S'good'
p4385
I1
tp4386
a(I1100
I25
F-0.875
S'low'
p4387
I1
tp4388
a(I1217
I1
F-0.875
S'low'
p4389
I1
tp4390
a(I1556
I12
F1.0
S'good'
p4391
I1
tp4392
a(I1560
I7
F-0.875
S'low'
p4393
I1
tp4394
a(I1565
I1
F-0.875
S'cheap'
p4395
I1
tp4396
as(S'low'
p4397
S'quality'
p4398
tp4399
(lp4400
(I122
I1
F0.375
S'ok'
p4401
I2
tp4402
a(I221
I8
F0.375
g1647
I2
tp4403
a(I241
I33
F1.0
g301
I2
tp4404
a(I416
I0
F-0.875
g3628
I2
tp4405
a(I442
I55
F-0.875
S'low'
p4406
I2
tp4407
a(I542
I5
F-0.875
S'low'
p4408
I2
tp4409
a(I571
I5
F0.5
g3643
I2
tp4410
a(I571
I5
F-0.875
g3645
I2
tp4411
a(I686
I8
F-0.875
S'low'
p4412
I2
tp4413
a(I706
I11
F-0.875
S'low'
p4414
I2
tp4415
a(I744
I73
F-0.875
g321
I2
tp4416
a(I744
I73
F-0.875
g323
I2
tp4417
a(I755
I1
F-0.875
g1685
I2
tp4418
a(I756
I1
F-0.875
S'low'
p4419
I2
tp4420
a(I797
I0
F-0.125
g325
I2
tp4421
a(I797
I0
F1.0
g327
I2
tp4422
a(I797
I0
I0
g329
I2
tp4423
a(I797
I0
F-0.875
g331
I2
tp4424
a(I797
I0
F0.5
g333
I2
tp4425
a(I955
I2
F-0.875
S'poor'
p4426
I2
tp4427
a(I986
I9
F0.75
g3530
I2
tp4428
a(I986
I9
F-0.875
g3532
I2
tp4429
a(I1084
I1
F-0.875
S'low'
p4430
I2
tp4431
a(I1090
I4
F-0.875
S'low'
p4432
I2
tp4433
a(I1131
I25
F0.75
g3449
I2
tp4434
a(I1131
I25
F1.0
g3451
I2
tp4435
a(I1163
I2
F0.75
g3545
I2
tp4436
a(I1163
I2
F-0.875
g3547
I2
tp4437
a(I1163
I2
F-0.5
g3549
I2
tp4438
a(I1163
I2
I0
g3551
I2
tp4439
a(I1252
I3
F0.75
g3553
I2
tp4440
a(I1252
I3
F-0.875
g3555
I2
tp4441
a(I1545
I3
F-0.875
g1750
I2
tp4442
a(I1545
I12
F-0.875
g353
I2
tp4443
a(I1553
I0
F-0.875
g3566
I2
tp4444
a(I1560
I3
F-0.875
S'low'
p4445
I2
tp4446
a(I1615
I3
F1.0
g3467
I2
tp4447
a(I1615
I3
F-0.875
g3469
I2
tp4448
a(I1701
I0
F-0.875
g3735
I2
tp4449
a(I1735
I2
F0.75
g3576
I2
tp4450
a(I1735
I2
F-1.0
g3578
I2
tp4451
a(I1735
I2
F-0.875
g3580
I2
tp4452
a(I1779
I10
F-0.875
S'low'
p4453
I2
tp4454
a(I1875
I21
F-0.875
g1767
I2
tp4455
a(I1875
I21
F-0.875
g1769
I2
tp4456
a(I1875
I21
F-0.75
g1771
I2
tp4457
a(I1875
I21
F-1.0
g1773
I2
tp4458
a(I1896
I4
F-0.875
S'low'
p4459
I2
tp4460
a(I2087
I1
F-0.875
g2624
I2
tp4461
as(S'first'
p4462
S'flash'
p4463
S'sale'
p4464
tp4465
(lp4466
(I92
I0
F-0.5
S'flash'
p4467
I0
tp4468
a(I92
I0
F-0.5
S'flash'
p4469
I0
tp4470
a(I344
I0
F0.625
S'first'
p4471
I0
tp4472
a(I344
I0
F-0.5
S'flash'
p4473
I0
tp4474
a(I344
I1
F0.625
S'first'
p4475
I0
tp4476
a(I344
I1
F-0.5
S'flash'
p4477
I0
tp4478
a(I344
I1
F0.75
S'due'
p4479
I0
tp4480
a(I441
I4
F0.625
S'first'
p4481
I0
tp4482
a(I441
I4
F-0.5
S'flash'
p4483
I0
tp4484
a(I442
I17
F0.625
S'first'
p4485
I0
tp4486
a(I519
I9
F0.625
S'first'
p4487
I0
tp4488
a(I519
I9
F-0.5
S'flash'
p4489
I0
tp4490
a(I527
I0
F0.625
S'first'
p4491
I0
tp4492
a(I527
I0
F-0.5
S'flash'
p4493
I0
tp4494
a(I535
I0
F0.625
S'first'
p4495
I0
tp4496
a(I535
I0
F-0.5
S'flash'
p4497
I0
tp4498
a(I535
I0
F0.625
S'first'
p4499
I0
tp4500
a(I540
I7
F-0.5
S'flash'
p4501
I0
tp4502
a(I569
I7
F0.625
S'first'
p4503
I0
tp4504
a(I569
I7
F-0.5
S'flash'
p4505
I0
tp4506
a(I1014
I20
F0.625
S'first'
p4507
I0
tp4508
a(I1014
I20
F-0.5
S'flash'
p4509
I0
tp4510
a(I1219
I13
F-0.5
S'flash'
p4511
I0
tp4512
a(I1412
I2
F0.625
S'first'
p4513
I0
tp4514
a(I1493
I0
F0.625
S'first'
p4515
I0
tp4516
a(I1493
I0
F-0.5
S'flash'
p4517
I0
tp4518
a(I1556
I14
F0.625
S'first'
p4519
I0
tp4520
a(I92
I0
F-0.5
g4467
I0
tp4521
a(I92
I0
F-0.5
g4469
I0
tp4522
a(I344
I0
F0.625
g4471
I0
tp4523
a(I344
I0
F-0.5
g4473
I0
tp4524
a(I344
I1
F0.625
g4475
I0
tp4525
a(I344
I1
F-0.5
g4477
I0
tp4526
a(I344
I1
F0.75
g4479
I0
tp4527
a(I369
I4
F0.125
S'mobile'
p4528
I0
tp4529
a(I369
I4
F-0.5
S'flash'
p4530
I0
tp4531
a(I441
I4
F0.625
g4481
I0
tp4532
a(I441
I4
F-0.5
g4483
I0
tp4533
a(I442
I17
F0.625
g4485
I0
tp4534
a(I519
I9
F0.625
g4487
I0
tp4535
a(I519
I9
F-0.5
g4489
I0
tp4536
a(I527
I0
F0.625
g4491
I0
tp4537
a(I527
I0
F-0.5
g4493
I0
tp4538
a(I535
I0
F0.625
g4495
I0
tp4539
a(I535
I0
F-0.5
g4497
I0
tp4540
a(I535
I0
F0.625
g4499
I0
tp4541
a(I535
I8
F-0.5
S'flash'
p4542
I0
tp4543
a(I540
I7
F-0.5
g4501
I0
tp4544
a(I569
I7
F0.625
g4503
I0
tp4545
a(I569
I7
F-0.5
g4505
I0
tp4546
a(I587
I5
F-0.5
S'flash'
p4547
I0
tp4548
a(I1006
I14
F-0.5
S'flash'
p4549
I0
tp4550
a(I1014
I20
F0.625
g4507
I0
tp4551
a(I1014
I20
F-0.5
g4509
I0
tp4552
a(I1015
I25
F-0.5
S'flash'
p4553
I0
tp4554
a(I1210
I16
F-0.5
S'flash'
p4555
I0
tp4556
a(I1219
I13
F-0.5
g4511
I0
tp4557
a(I1285
I1
F0.5
S'second'
p4558
I0
tp4559
a(I1285
I1
F-0.5
S'flash'
p4560
I0
tp4561
a(I1412
I2
F0.625
g4513
I0
tp4562
a(I1493
I0
F0.625
g4515
I0
tp4563
a(I1493
I0
F-0.5
g4517
I0
tp4564
a(I1556
I14
F0.625
g4519
I0
tp4565
a(I1741
I19
F-0.5
S'flash'
p4566
I0
tp4567
a(I1800
I1
F-0.5
S'flash'
p4568
I0
tp4569
as(S'next'
p4570
S'day'
p4571
tp4572
(lp4573
(I168
I10
F-0.125
g4305
I1
tp4574
a(I240
I0
F-0.125
S'next'
p4575
I1
tp4576
a(I262
I5
F-0.125
S'next'
p4577
I1
tp4578
a(I418
I3
F-0.125
S'next'
p4579
I1
tp4580
a(I527
I0
F-0.125
S'next'
p4581
I1
tp4582
a(I567
I0
F-0.125
S'next'
p4583
I1
tp4584
a(I569
I7
F-0.125
S'next'
p4585
I1
tp4586
a(I646
I0
F-0.125
S'next'
p4587
I1
tp4588
a(I794
I7
F-0.125
S'next'
p4589
I1
tp4590
a(I1061
I1
F-0.125
S'next'
p4591
I1
tp4592
a(I1100
I33
F-0.125
S'next'
p4593
I1
tp4594
a(I1198
I7
F-0.125
S'next'
p4595
I1
tp4596
a(I1198
I8
F-0.125
g4327
I1
tp4597
a(I1198
I8
F-0.125
g4329
I1
tp4598
a(I1198
I8
F-0.75
g4331
I1
tp4599
a(I1200
I25
F-0.125
S'next'
p4600
I1
tp4601
a(I1200
I27
F-0.125
g4335
I1
tp4602
a(I1200
I28
F-0.125
S'next'
p4603
I1
tp4604
a(I1219
I14
F-0.125
S'next'
p4605
I1
tp4606
a(I1219
I20
F-0.125
g4337
I1
tp4607
a(I1296
I0
F-0.125
g4339
I1
tp4608
a(I1306
I9
F-0.125
g4341
I1
tp4609
a(I1306
I9
F0.375
g4343
I1
tp4610
a(I1323
I3
F-0.125
S'next'
p4611
I1
tp4612
a(I1493
I0
F-0.125
S'next'
p4613
I1
tp4614
a(I1885
I21
F-0.125
g4355
I1
tp4615
as(S'good'
p4616
S'battery'
p4617
S'life'
p4618
tp4619
(lp4620
(I447
I6
F1.0
S'good'
p4621
I0
tp4622
a(I483
I9
F1.0
S'good'
p4623
I0
tp4624
a(I524
I1
F-0.25
S'compromised'
p4625
I0
tp4626
a(I705
I21
F0.25
S'standby'
p4627
I0
tp4628
a(I745
I63
F1.0
S'better'
p4629
I0
tp4630
a(I878
I1
F1.0
S'good'
p4631
I0
tp4632
a(I923
I1
F1.0
S'good'
p4633
I0
tp4634
a(I935
I1
F0.625
S'super'
p4635
I0
tp4636
a(I935
I1
F1.0
S'good'
p4637
I0
tp4638
a(I955
I1
I0
S'rear'
p4639
I0
tp4640
a(I955
I1
F1.0
S'good'
p4641
I0
tp4642
a(I975
I0
F1.0
S'good'
p4643
I0
tp4644
a(I1012
I6
F1.0
S'good'
p4645
I0
tp4646
a(I1102
I1
F1.0
S'good'
p4647
I0
tp4648
a(I1109
I1
F1.0
g4206
I0
tp4649
a(I1131
I21
F1.0
S'good'
p4650
I0
tp4651
a(I1305
I0
F1.0
S'good'
p4652
I0
tp4653
a(I1316
I2
F1.0
S'good'
p4654
I0
tp4655
a(I1639
I2
F1.0
S'good'
p4656
I0
tp4657
a(I1708
I0
F1.0
S'good'
p4658
I0
tp4659
a(I1726
I10
F1.0
S'good'
p4660
I0
tp4661
a(I1733
I0
F1.0
S'good'
p4662
I0
tp4663
a(I1738
I0
F1.0
S'good'
p4664
I0
tp4665
a(I1768
I1
F1.0
S'good'
p4666
I0
tp4667
a(I1805
I5
F1.0
S'good'
p4668
I0
tp4669
a(I1835
I1
F0.875
S'superb'
p4670
I0
tp4671
a(I1879
I4
F1.0
S'good'
p4672
I0
tp4673
a(I1879
I4
F-0.375
S'various'
p4674
I0
tp4675
a(I1891
I0
F1.0
S'good'
p4676
I0
tp4677
a(I1926
I3
F-0.5
S'heavy'
p4678
I0
tp4679
a(I1926
I3
F1.0
S'good'
p4680
I0
tp4681
a(I1953
I2
F1.0
S'good'
p4682
I0
tp4683
a(I2072
I9
F1.0
S'good'
p4684
I0
tp4685
a(I25
I0
F1.0
S'good'
p4686
I1
tp4687
a(I54
I16
F1.0
S'good'
p4688
I1
tp4689
a(I162
I0
F1.0
g4172
I1
tp4690
a(I222
I0
F1.0
S'good'
p4691
I1
tp4692
a(I315
I7
F1.0
S'good'
p4693
I1
tp4694
a(I333
I0
F1.0
g4178
I1
tp4695
a(I371
I29
F1.0
S'good'
p4696
I1
tp4697
a(I409
I1
F1.0
g4182
I1
tp4698
a(I483
I7
F1.0
S'good'
p4699
I1
tp4700
a(I518
I7
F-0.375
S'adequate'
p4701
I1
tp4702
a(I524
I1
F-0.25
g4625
I1
tp4703
a(I545
I2
F1.0
g4190
I1
tp4704
a(I568
I0
I0
S'hrs'
p4705
I1
tp4706
a(I607
I0
F0.125
S'mobile'
p4707
I1
tp4708
a(I618
I3
F1.0
S'good'
p4709
I1
tp4710
a(I705
I30
F1.0
S'good'
p4711
I1
tp4712
a(I716
I6
F1.0
g4194
I1
tp4713
a(I743
I12
F1.0
S'good'
p4714
I1
tp4715
a(I745
I24
F1.0
S'good'
p4716
I1
tp4717
a(I764
I0
F1.0
S'good'
p4718
I1
tp4719
a(I778
I1
F1.0
g4196
I1
tp4720
a(I834
I25
F1.0
S'good'
p4721
I1
tp4722
a(I878
I1
F1.0
g4631
I1
tp4723
a(I952
I0
F0.5
S'dual'
p4724
I1
tp4725
a(I955
I1
I0
g4639
I1
tp4726
a(I975
I0
F1.0
g4643
I1
tp4727
a(I986
I7
F1.0
S'good'
p4728
I1
tp4729
a(I986
I7
F1.0
S'good'
p4730
I1
tp4731
a(I989
I0
F1.0
S'good'
p4732
I1
tp4733
a(I1008
I0
F1.0
S'good'
p4734
I1
tp4735
a(I1012
I6
F1.0
g4645
I1
tp4736
a(I1026
I5
F1.0
S'good'
p4737
I1
tp4738
a(I1064
I4
F1.0
S'good'
p4739
I1
tp4740
a(I1102
I1
F1.0
g4647
I1
tp4741
a(I1109
I1
F1.0
g4206
I1
tp4742
a(I1129
I0
F1.0
S'good'
p4743
I1
tp4744
a(I1131
I21
F1.0
g4650
I1
tp4745
a(I1305
I0
F1.0
g4652
I1
tp4746
a(I1316
I2
F1.0
g4654
I1
tp4747
a(I1374
I0
F1.0
S'good'
p4748
I1
tp4749
a(I1585
I0
F1.0
g4214
I1
tp4750
a(I1587
I4
F1.0
S'good'
p4751
I1
tp4752
a(I1596
I0
F1.0
g4216
I1
tp4753
a(I1618
I0
F1.0
g4220
I1
tp4754
a(I1656
I5
F1.0
g4224
I1
tp4755
a(I1658
I6
F1.0
S'good'
p4756
I1
tp4757
a(I1661
I1
F0.875
S'awesome'
p4758
I1
tp4759
a(I1708
I0
F1.0
g4658
I1
tp4760
a(I1726
I10
F1.0
g4660
I1
tp4761
a(I1738
I0
F1.0
g4664
I1
tp4762
a(I1802
I29
F1.0
S'good'
p4763
I1
tp4764
a(I1805
I5
F1.0
g4668
I1
tp4765
a(I1862
I2
F1.0
S'good'
p4766
I1
tp4767
a(I1879
I4
F1.0
g4672
I1
tp4768
a(I1880
I7
F1.0
S'good'
p4769
I1
tp4770
a(I1885
I18
F1.0
S'good'
p4771
I1
tp4772
a(I1891
I0
F1.0
g4676
I1
tp4773
a(I1907
I1
F1.0
g4232
I1
tp4774
a(I1926
I3
F-0.5
g4678
I1
tp4775
a(I1936
I0
F1.0
S'good'
p4776
I1
tp4777
a(I1953
I2
F1.0
g4682
I1
tp4778
a(I1956
I11
F1.0
S'good'
p4779
I1
tp4780
a(I1965
I15
F1.0
S'best'
p4781
I1
tp4782
a(I1989
I0
F1.0
g4236
I1
tp4783
a(I2020
I6
F1.0
S'good'
p4784
I1
tp4785
a(I2072
I9
F1.0
g4684
I1
tp4786
a(I52
I1
F0.125
S'mobile'
p4787
I3
tp4788
a(I242
I1
F-0.5
S'long'
p4789
I3
tp4790
a(I354
I3
F0.875
S'great'
p4791
I3
tp4792
a(I373
I1
F0.75
S'wonderful'
p4793
I3
tp4794
a(I447
I6
F1.0
g4621
I3
tp4795
a(I483
I9
F1.0
g4623
I3
tp4796
a(I524
I1
F-0.25
g4625
I3
tp4797
a(I705
I21
F0.25
g4627
I3
tp4798
a(I733
I1
I0
S'descent'
p4799
I3
tp4800
a(I745
I63
F1.0
g4629
I3
tp4801
a(I833
I12
F0.75
S'tremendous'
p4802
I3
tp4803
a(I878
I1
F1.0
g4631
I3
tp4804
a(I891
I1
F0.875
S'nice'
p4805
I3
tp4806
a(I923
I1
F1.0
g4633
I3
tp4807
a(I925
I9
F-0.625
S'average'
p4808
I3
tp4809
a(I935
I1
F0.625
g4635
I3
tp4810
a(I935
I1
F1.0
g4637
I3
tp4811
a(I955
I1
I0
g4639
I3
tp4812
a(I955
I1
F1.0
g4641
I3
tp4813
a(I975
I0
F1.0
g4643
I3
tp4814
a(I1012
I6
F1.0
g4645
I3
tp4815
a(I1102
I1
F1.0
g4647
I3
tp4816
a(I1109
I1
F1.0
g4206
I3
tp4817
a(I1131
I21
F1.0
g4650
I3
tp4818
a(I1143
I1
F0.5
S'high'
p4819
I3
tp4820
a(I1305
I0
F1.0
g4652
I3
tp4821
a(I1316
I2
F1.0
g4654
I3
tp4822
a(I1580
I10
F-0.625
S'average'
p4823
I3
tp4824
a(I1602
I0
F0.875
S'awesome'
p4825
I3
tp4826
a(I1630
I0
F0.875
S'awesome'
p4827
I3
tp4828
a(I1639
I2
F1.0
g4656
I3
tp4829
a(I1680
I9
I0
S'more'
p4830
I3
tp4831
a(I1705
I3
F-0.875
S'poor'
p4832
I3
tp4833
a(I1708
I0
F1.0
g4658
I3
tp4834
a(I1726
I10
F1.0
g4660
I3
tp4835
a(I1733
I0
F1.0
g4662
I3
tp4836
a(I1738
I0
F1.0
g4664
I3
tp4837
a(I1768
I1
F1.0
g4666
I3
tp4838
a(I1805
I5
F1.0
g4668
I3
tp4839
a(I1835
I1
F0.875
g4670
I3
tp4840
a(I1879
I4
F1.0
g4672
I3
tp4841
a(I1879
I4
F-0.375
g4674
I3
tp4842
a(I1891
I0
F1.0
g4676
I3
tp4843
a(I1905
I12
F0.375
S'full'
p4844
I3
tp4845
a(I1926
I3
F-0.5
g4678
I3
tp4846
a(I1926
I3
F1.0
g4680
I3
tp4847
a(I1953
I2
F1.0
g4682
I3
tp4848
a(I2072
I9
F1.0
g4684
I3
tp4849
a(I242
I1
F-0.5
g4789
I8
tp4850
a(I354
I3
F0.875
g4791
I8
tp4851
a(I447
I6
F1.0
g4621
I8
tp4852
a(I483
I9
F1.0
g4623
I8
tp4853
a(I705
I21
F0.25
g4627
I8
tp4854
a(I733
I1
I0
g4799
I8
tp4855
a(I745
I63
F1.0
g4629
I8
tp4856
a(I833
I12
F0.75
g4802
I8
tp4857
a(I923
I1
F1.0
g4633
I8
tp4858
a(I925
I9
F-0.625
g4808
I8
tp4859
a(I935
I1
F0.625
g4635
I8
tp4860
a(I935
I1
F1.0
g4637
I8
tp4861
a(I955
I1
F1.0
g4641
I8
tp4862
a(I1580
I13
F-0.5
S'original'
p4863
I8
tp4864
a(I1602
I0
F0.875
g4825
I8
tp4865
a(I1630
I0
F0.875
g4827
I8
tp4866
a(I1639
I2
F1.0
g4656
I8
tp4867
a(I1680
I9
I0
g4830
I8
tp4868
a(I1705
I3
F-0.875
g4832
I8
tp4869
a(I1733
I0
F1.0
g4662
I8
tp4870
a(I1768
I1
F1.0
g4666
I8
tp4871
a(I1798
I1
F-0.75
S'difficult'
p4872
I8
tp4873
a(I1835
I1
F0.875
g4670
I8
tp4874
a(I1879
I4
F-0.375
g4674
I8
tp4875
a(I1926
I3
F1.0
g4680
I8
tp4876
a(I1974
I0
F0.5
S'daily'
p4877
I8
tp4878
as(S'cheap'
p4879
S'quality'
p4880
tp4881
(lp4882
(I110
I7
F-0.875
S'cheap'
p4883
I1
tp4884
a(I170
I12
F-0.875
S'cheap'
p4885
I1
tp4886
a(I381
I0
F-0.875
S'cheap'
p4887
I1
tp4888
a(I381
I1
F-0.875
S'cheap'
p4889
I1
tp4890
a(I442
I42
F-0.875
S'cheap'
p4891
I1
tp4892
a(I442
I42
I0
S'most'
p4893
I1
tp4894
a(I442
I56
F-0.875
g1625
I1
tp4895
a(I446
I10
F-0.875
S'cheap'
p4896
I1
tp4897
a(I506
I16
F1.0
g3637
I1
tp4898
a(I575
I4
F-0.875
S'cheap'
p4899
I1
tp4900
a(I587
I14
F-0.875
S'cheap'
p4901
I1
tp4902
a(I587
I15
F-0.875
S'cheap'
p4903
I1
tp4904
a(I705
I31
F-0.875
S'cheap'
p4905
I1
tp4906
a(I861
I7
F-0.875
S'cheap'
p4907
I1
tp4908
a(I920
I0
F-0.875
S'cheap'
p4909
I1
tp4910
a(I957
I15
F-0.875
S'cheap'
p4911
I1
tp4912
a(I1008
I33
F-0.875
S'cheap'
p4913
I1
tp4914
a(I1014
I24
F-0.875
S'cheap'
p4915
I1
tp4916
a(I1252
I7
F-0.875
g1736
I1
tp4917
a(I1299
I0
F-0.875
S'cheap'
p4918
I1
tp4919
a(I1497
I1
F-0.875
S'cheap'
p4920
I1
tp4921
a(I1768
I14
F-0.875
S'cheap'
p4922
I1
tp4923
a(I1540
I0
F0.5
S'thin'
p4924
I17
tp4925
as(S'front'
p4926
S'and'
p4927
S'back'
p4928
tp4929
(lp4930
(I323
I0
F-0.75
g4075
I3
tp4931
a(I323
I0
F0.875
g798
I3
tp4932
a(I519
I5
F1.0
g443
I3
tp4933
a(I611
I16
F-1.0
g838
I3
tp4934
a(I1381
I1
F-1.0
g4091
I3
tp4935
a(I1519
I21
F-0.625
g913
I3
tp4936
a(I1882
I9
F0.875
g4099
I3
tp4937
a(I1882
I9
F-1.0
g522
I3
tp4938
as(S'pen'
p4939
S'drive'
p4940
tp4941
(lp4942
(I1076
I11
I0
S'pen'
p4943
I0
tp4944
as(S'days'
p4945
S'of'
p4946
S'use'
p4947
tp4948
(lp4949
(I30
I3
F-0.625
S'moderate'
p4950
I0
tp4951
a(I30
I3
F-0.5
S'heavy'
p4952
I0
tp4953
a(I632
I0
I0
S'few'
p4954
I0
tp4955
as(S'on'
p4956
S'first'
p4957
S'day'
p4958
tp4959
(lp4960
(I78
I26
F-0.5
S'do'
p4961
I0
tp4962
a(I78
I26
F0.625
S'first'
p4963
I0
tp4964
a(I92
I0
F0.625
S'first'
p4965
I0
tp4966
a(I111
I7
F0.625
g4303
I0
tp4967
a(I161
I2
F0.625
S'first'
p4968
I0
tp4969
a(I198
I2
F0.625
S'first'
p4970
I0
tp4971
a(I294
I1
F0.625
S'first'
p4972
I0
tp4973
a(I519
I9
F0.375
S'usage'
p4974
I0
tp4975
a(I527
I0
F-0.125
g4581
I0
tp4976
a(I569
I7
F-0.125
g4585
I0
tp4977
a(I861
I10
F-0.375
g4319
I0
tp4978
a(I1006
I6
F0.625
S'first'
p4979
I0
tp4980
a(I1163
I15
F0.625
g4325
I0
tp4981
a(I1395
I0
F0.625
g4347
I0
tp4982
a(I1493
I0
F-0.125
g4613
I0
tp4983
a(I1732
I61
F0.625
g4351
I0
tp4984
as(S'awesome'
p4985
tp4986
(lp4987
(I160
I1
F0.625
S'super'
p4988
I6
tp4989
a(I438
I0
F0.875
S'great'
p4990
I6
tp4991
a(I586
I8
F1.0
S'good'
p4992
I6
tp4993
a(I822
I0
F0.125
S'usual'
p4994
I6
tp4995
a(I870
I1
F0.625
S'super'
p4996
I6
tp4997
a(I925
I24
F0.375
S'together'
p4998
I6
tp4999
a(I1769
I1
F0.375
S'sleek'
p5000
I6
tp5001
a(I1779
I2
F1.0
S'good'
p5002
I6
tp5003
a(I1929
I6
F-0.75
S'pure'
p5004
I6
tp5005
as(S'bekar'
p5006
S'hai'
p5007
tp5008
(lp5009
(I1251
I0
I-100
S'mene'
p5010
I0
tp5011
as(S'rear'
p5012
S'camera'
p5013
tp5014
(lp5015
(I6
I14
I0
S'rear'
p5016
I6
tp5017
a(I24
I33
F1.0
g535
I6
tp5018
a(I24
I36
I0
g537
I6
tp5019
a(I24
I36
F1.0
g539
I6
tp5020
a(I66
I0
I0
g764
I6
tp5021
a(I66
I0
F0.875
g766
I6
tp5022
a(I66
I0
F-0.125
g768
I6
tp5023
a(I66
I0
F1.0
g770
I6
tp5024
a(I85
I1
F1.0
g421
I6
tp5025
a(I85
I1
F1.0
g423
I6
tp5026
a(I101
I0
I0
g543
I6
tp5027
a(I214
I0
F-0.125
g783
I6
tp5028
a(I214
I0
F1.0
g785
I6
tp5029
a(I231
I0
F-1.0
S'bad'
p5030
I6
tp5031
a(I231
I0
I0
S'rear'
p5032
I6
tp5033
a(I233
I0
I0
S'rear'
p5034
I6
tp5035
a(I344
I12
I0
S'rear'
p5036
I6
tp5037
a(I358
I0
I0
S'rear'
p5038
I6
tp5039
a(I379
I20
I0
S'rear'
p5040
I6
tp5041
a(I481
I2
F1.0
g811
I6
tp5042
a(I481
I2
I0
g813
I6
tp5043
a(I501
I0
I0
g815
I6
tp5044
a(I501
I0
F0.875
g817
I6
tp5045
a(I501
I0
F-0.125
g819
I6
tp5046
a(I501
I0
F1.0
g821
I6
tp5047
a(I521
I28
I0
S'rear'
p5048
I6
tp5049
a(I521
I28
F0.5
S'comparable'
p5050
I6
tp5051
a(I570
I37
F0.75
S'primary'
p5052
I6
tp5053
a(I570
I37
I0
S'rear'
p5054
I6
tp5055
a(I662
I0
I0
S'rear'
p5056
I6
tp5057
a(I671
I1
F1.0
g593
I6
tp5058
a(I671
I1
F-0.875
S'low'
p5059
I6
tp5060
a(I671
I1
I0
S'light'
p5061
I6
tp5062
a(I701
I6
F-1.0
S'worst'
p5063
I6
tp5064
a(I722
I0
I0
S'rear'
p5065
I6
tp5066
a(I780
I1
I0
S'rear'
p5067
I6
tp5068
a(I780
I1
F-1.0
S'bad'
p5069
I6
tp5070
a(I780
I1
F-1.0
S'bad'
p5071
I6
tp5072
a(I834
I20
F0.375
S'satisfied'
p5073
I6
tp5074
a(I917
I1
I0
S'rear'
p5075
I6
tp5076
a(I955
I1
F-0.125
g467
I6
tp5077
a(I969
I0
I0
S'rear'
p5078
I6
tp5079
a(I985
I7
F-0.125
g864
I6
tp5080
a(I1008
I25
I0
S'rear'
p5081
I6
tp5082
a(I1008
I25
F-0.75
S'little'
p5083
I6
tp5084
a(I1008
I25
F-0.75
S'disappointing'
p5085
I6
tp5086
a(I1014
I6
I0
S'rear'
p5087
I6
tp5088
a(I1014
I7
F0.875
g2664
I6
tp5089
a(I1067
I0
I0
g637
I6
tp5090
a(I1067
I0
F1.0
g639
I6
tp5091
a(I1078
I0
F-0.125
g873
I6
tp5092
a(I1114
I0
I0
g477
I6
tp5093
a(I1114
I0
F-0.125
g479
I6
tp5094
a(I1114
I0
F1.0
g481
I6
tp5095
a(I1128
I0
F1.0
g483
I6
tp5096
a(I1128
I0
F-0.125
g485
I6
tp5097
a(I1133
I5
I0
S'rear'
p5098
I6
tp5099
a(I1214
I2
I0
g888
I6
tp5100
a(I1324
I19
F1.0
g894
I6
tp5101
a(I1324
I19
I0
g896
I6
tp5102
a(I1385
I0
I0
S'rear'
p5103
I6
tp5104
a(I1390
I17
I0
S'rear'
p5105
I6
tp5106
a(I1411
I0
F-1.0
S'bad'
p5107
I6
tp5108
a(I1499
I1
I0
g909
I6
tp5109
a(I1552
I7
I0
S'rear'
p5110
I6
tp5111
a(I1554
I0
F-0.875
S'poor'
p5112
I6
tp5113
a(I1555
I1
I0
g491
I6
tp5114
a(I1555
I1
I0
g493
I6
tp5115
a(I1619
I0
F-0.125
g503
I6
tp5116
a(I1619
I0
F1.0
S'good'
p5117
I6
tp5118
a(I1619
I0
F-0.875
S'poor'
p5119
I6
tp5120
a(I1689
I3
F1.0
S'good'
p5121
I6
tp5122
a(I1726
I5
F-0.125
S'front'
p5123
I6
tp5124
a(I1726
I5
F1.0
g927
I6
tp5125
a(I1732
I7
I0
S'rear'
p5126
I6
tp5127
a(I1752
I1
F1.0
g692
I6
tp5128
a(I1768
I8
F1.0
g505
I6
tp5129
a(I1768
I8
F-0.125
g507
I6
tp5130
a(I1768
I8
I0
g509
I6
tp5131
a(I1787
I0
F-0.125
g511
I6
tp5132
a(I1787
I0
I0
g513
I6
tp5133
a(I1787
I0
F1.0
g515
I6
tp5134
a(I1880
I3
F1.0
g369
I6
tp5135
a(I1880
I3
I0
g371
I6
tp5136
a(I1880
I3
F1.0
g373
I6
tp5137
a(I1922
I1
F-0.125
g953
I6
tp5138
a(I1927
I13
F0.875
g955
I6
tp5139
a(I1927
I13
F-0.125
g957
I6
tp5140
a(I1927
I13
I0
g959
I6
tp5141
a(I1945
I3
F-0.125
g961
I6
tp5142
a(I1945
I3
I0
g963
I6
tp5143
a(I1945
I3
F0.875
g965
I6
tp5144
a(I2078
I3
I0
S'rear'
p5145
I6
tp5146
a(I2090
I2
I0
g977
I6
tp5147
as(S'update'
p5148
tp5149
(lp5150
(I23
I5
I0
S't'
p5151
I1
tp5152
a(I502
I8
F0.5
S'second'
p5153
I1
tp5154
a(I1078
I11
I0
S'third'
p5155
I1
tp5156
a(I1576
I0
F-0.125
S'marshmallow'
p5157
I1
tp5158
a(I1576
I0
F0.625
S'smooth'
p5159
I1
tp5160
a(I1614
I10
F-0.125
S'marshmallow'
p5161
I1
tp5162
a(I1894
I15
I0
S'many'
p5163
I1
tp5164
as(S'handset'
p5165
tp5166
(lp5167
(I54
I30
F-0.75
S'warm'
p5168
I14
tp5169
a(I78
I14
F-0.875
S'poor'
p5170
I14
tp5171
a(I324
I0
F1.0
S'good'
p5172
I14
tp5173
a(I416
I0
F1.0
S'good'
p5174
I14
tp5175
a(I701
I9
F1.0
S'good'
p5176
I14
tp5177
a(I744
I36
F0.5
S'true'
p5178
I14
tp5179
a(I794
I16
F-0.625
S'new'
p5180
I14
tp5181
a(I848
I2
F1.0
S'good'
p5182
I14
tp5183
a(I1071
I7
F0.875
S'great'
p5184
I14
tp5185
a(I1181
I0
I-100
S'fluidic'
p5186
I14
tp5187
a(I1181
I0
I0
S'specific'
p5188
I14
tp5189
a(I1195
I2
F-0.25
S'previous'
p5190
I14
tp5191
a(I1195
I2
F-0.625
S'dumb'
p5192
I14
tp5193
a(I1219
I4
I0
S'ur'
p5194
I14
tp5195
a(I1219
I5
F1.0
S'good'
p5196
I14
tp5197
a(I1219
I5
I0
S'u'
p5198
I14
tp5199
a(I1519
I20
F0.875
S'nice'
p5200
I14
tp5201
a(I1656
I0
F1.0
S'good'
p5202
I14
tp5203
a(I1656
I2
F0.375
S'much'
p5204
I14
tp5205
a(I1656
I2
F1.0
S'better'
p5206
I14
tp5207
a(I1682
I2
F-0.375
S'same'
p5208
I14
tp5209
a(I1682
I2
F-0.625
S'new'
p5210
I14
tp5211
a(I1720
I5
I0
S'dis'
p5212
I14
tp5213
a(I2037
I5
I0
S'normal'
p5214
I14
tp5215
a(I2037
I7
F1.0
S'good'
p5216
I14
tp5217
as(S'speaker'
p5218
tp5219
(lp5220
(I5
I16
I0
S'pretty'
p5221
I16
tp5222
a(I5
I16
F-0.5
S'loud'
p5223
I16
tp5224
a(I5
I16
F0.5
S'crisp'
p5225
I16
tp5226
a(I126
I1
F-0.5
S'loud'
p5227
I16
tp5228
a(I126
I1
I0
S'clear'
p5229
I16
tp5230
a(I224
I0
F1.0
S'good'
p5231
I16
tp5232
a(I224
I0
F-1.0
S'bad'
p5233
I16
tp5234
a(I305
I3
F-0.5
S'loud'
p5235
I16
tp5236
a(I315
I10
F-0.5
S'louder'
p5237
I16
tp5238
a(I442
I8
F-0.5
S'loud'
p5239
I16
tp5240
a(I442
I37
I0
S'built'
p5241
I16
tp5242
a(I695
I10
I0
S'pretty'
p5243
I16
tp5244
a(I695
I10
F-0.5
S'loud'
p5245
I16
tp5246
a(I695
I10
F0.5
S'crisp'
p5247
I16
tp5248
a(I705
I31
F0.875
S'awesome'
p5249
I16
tp5250
a(I745
I29
F1.0
S'good'
p5251
I16
tp5252
a(I1007
I2
F-0.875
S'low'
p5253
I16
tp5254
a(I1014
I44
F-0.5
S'loud'
p5255
I16
tp5256
a(I1032
I0
F-0.125
S'front'
p5257
I16
tp5258
a(I1084
I0
I-100
S'owesome'
p5259
I16
tp5260
a(I1085
I2
F-0.75
S'single'
p5261
I16
tp5262
a(I1209
I4
F-0.75
S'defective'
p5263
I16
tp5264
a(I1216
I1
F0.125
S'muffled'
p5265
I16
tp5266
a(I1316
I3
F1.0
S'good'
p5267
I16
tp5268
a(I1335
I6
F-0.75
S'single'
p5269
I16
tp5270
a(I1504
I1
F-0.5
S'loud'
p5271
I16
tp5272
a(I1547
I0
F-0.5
S'loud'
p5273
I16
tp5274
a(I1547
I0
F-0.5
S'loud'
p5275
I16
tp5276
a(I1615
I3
F-0.625
S'moody'
p5277
I16
tp5278
a(I1693
I6
F-0.25
S'external'
p5279
I16
tp5280
a(I1736
I7
F-0.5
S'loud'
p5281
I16
tp5282
a(I1736
I7
F-0.75
S'dead'
p5283
I16
tp5284
a(I1876
I10
F-0.5
S'loud'
p5285
I16
tp5286
a(I1876
I11
F-0.5
S'loud'
p5287
I16
tp5288
a(I1885
I17
F-0.5
S'loud'
p5289
I16
tp5290
a(I1958
I0
F-0.875
S'low'
p5291
I16
tp5292
a(I1958
I0
F0.125
S'piece'
p5293
I16
tp5294
as(S'lenovo'
p5295
S'service'
p5296
S'center'
p5297
tp5298
(lp5299
(I1802
I34
F0.5
g1941
I0
tp5300
as(S'value'
p5301
S'for'
p5302
S'money'
p5303
tp5304
(lp5305
(I879
I10
F1.0
S'good'
p5306
I4
tp5307
a(I954
I0
F1.0
S'good'
p5308
I4
tp5309
a(I1026
I0
F0.875
S'great'
p5310
I4
tp5311
a(I1092
I8
F0.75
S'complete'
p5312
I4
tp5313
a(I1542
I0
F-0.125
S'overall'
p5314
I4
tp5315
a(I1805
I32
F-0.625
S'real'
p5316
I4
tp5317
a(I1959
I8
I0
S'more'
p5318
I4
tp5319
as(S'storage'
p5320
tp5321
(lp5322
(I55
I19
F0.375
S'available'
p5323
I4
tp5324
a(I116
I5
I0
S'indicated'
p5325
I4
tp5326
a(I186
I18
F0.5
S'internal'
p5327
I4
tp5328
a(I220
I16
F-0.25
S'external'
p5329
I4
tp5330
a(I330
I1
F0.375
S'available'
p5331
I4
tp5332
a(I344
I9
F0.5
S'internal'
p5333
I4
tp5334
a(I355
I8
F0.375
S'available'
p5335
I4
tp5336
a(I472
I9
I0
S'more'
p5337
I4
tp5338
a(I477
I16
F0.375
S'usage'
p5339
I4
tp5340
a(I478
I0
F0.5
S'internal'
p5341
I4
tp5342
a(I490
I9
F0.375
S'available'
p5343
I4
tp5344
a(I574
I5
F-0.75
S'free'
p5345
I4
tp5346
a(I574
I5
I0
S'tb'
p5347
I4
tp5348
a(I798
I0
F0.5
S'internal'
p5349
I4
tp5350
a(I798
I0
F-0.875
S'low'
p5351
I4
tp5352
a(I920
I22
F-0.75
S'little'
p5353
I4
tp5354
a(I937
I9
F0.5
S'internal'
p5355
I4
tp5356
a(I937
I9
F-0.875
S'low'
p5357
I4
tp5358
a(I937
I9
F0.5
S'expandable'
p5359
I4
tp5360
a(I996
I0
I-100
S'exapndable'
p5361
I4
tp5362
a(I1056
I2
F0.5
S'internal'
p5363
I4
tp5364
a(I1076
I0
F0.5
S'internal'
p5365
I4
tp5366
a(I1084
I1
I0
S'gb'
p5367
I4
tp5368
a(I1084
I1
F0.5
S'internal'
p5369
I4
tp5370
a(I1604
I6
F0.375
S'available'
p5371
I4
tp5372
a(I1635
I3
F-0.25
S'external'
p5373
I4
tp5374
a(I1660
I0
F-0.75
S'sufficient'
p5375
I4
tp5376
a(I1660
I0
F0.5
S'internal'
p5377
I4
tp5378
a(I1703
I3
I0
S'gb'
p5379
I4
tp5380
a(I1703
I3
F0.5
S'internal'
p5381
I4
tp5382
a(I1744
I8
F0.5
S'internal'
p5383
I4
tp5384
a(I1768
I2
F0.5
S'internal'
p5385
I4
tp5386
a(I1779
I16
F0.5
S'internal'
p5387
I4
tp5388
a(I1788
I0
F-0.25
S'default'
p5389
I4
tp5390
a(I1796
I8
F0.375
S'available'
p5391
I4
tp5392
a(I1840
I5
F0.375
S'available'
p5393
I4
tp5394
a(I1885
I28
I-100
S'16gb'
p5395
I4
tp5396
a(I1983
I23
F0.5
S'internal'
p5397
I4
tp5398
a(I1983
I23
F1.0
S'good'
p5399
I4
tp5400
as(S'multi'
p5401
S'tasking'
p5402
tp5403
(lp5404
(I932
I3
F0.75
S'easy'
p5405
I2
tp5406
a(I933
I1
F0.75
S'easy'
p5407
I2
tp5408
as(S'3'
p5409
S'months'
p5410
tp5411
(lp5412
(I1604
I13
F0.375
g3193
I1
tp5413
a(I1696
I3
F0.625
g3198
I1
tp5414
a(I1780
I16
F1.0
g3204
I1
tp5415
a(I1835
I11
F0.875
g3208
I1
tp5416
a(I1905
I1
F-0.625
g3212
I1
tp5417
a(I1905
I1
F0.375
g3214
I1
tp5418
a(I1905
I4
F-0.625
g3216
I1
tp5419
a(I1921
I3
F0.125
g3218
I1
tp5420
a(I1976
I16
F-0.25
g3224
I1
tp5421
as(S'looks'
p5422
tp5423
(lp5424
(I43
I9
F0.875
S'decent'
p5425
I14
tp5426
a(I158
I2
F0.625
S'fine'
p5427
I14
tp5428
a(I158
I2
F-0.875
S'cheap'
p5429
I14
tp5430
a(I166
I1
F1.0
S'good'
p5431
I14
tp5432
a(I207
I7
F0.875
S'awesome'
p5433
I14
tp5434
a(I241
I28
F-0.125
S'overall'
p5435
I14
tp5436
a(I310
I3
I0
S't'
p5437
I14
tp5438
a(I388
I0
F0.875
S'awesome'
p5439
I14
tp5440
a(I422
I1
F0.75
S'gorgeous'
p5441
I14
tp5442
a(I422
I1
F-0.875
S'smart'
p5443
I14
tp5444
a(I488
I1
F1.0
S'good'
p5445
I14
tp5446
a(I544
I11
F-0.875
S'cheap'
p5447
I14
tp5448
a(I623
I1
F0.75
S'sound'
p5449
I14
tp5450
a(I623
I1
F-0.5
S'loud'
p5451
I14
tp5452
a(I623
I1
I0
S'clear'
p5453
I14
tp5454
a(I623
I1
F1.0
S'good'
p5455
I14
tp5456
a(I660
I0
F0.875
S'nice'
p5457
I14
tp5458
a(I660
I0
I0
S'n'
p5459
I14
tp5460
a(I1028
I2
F0.875
S'nice'
p5461
I14
tp5462
a(I1269
I0
F1.0
S'good'
p5463
I14
tp5464
a(I1425
I1
F1.0
S'good'
p5465
I14
tp5466
a(I1896
I9
F1.0
S'good'
p5467
I14
tp5468
as(S'front'
p5469
S'and'
p5470
S'rear'
p5471
tp5472
(lp5473
(I744
I73
F-0.625
g458
I1
tp5474
a(I1390
I27
F-1.0
g907
I1
tp5475
a(I671
I1
F-0.875
g5059
I7
tp5476
a(I671
I1
I0
g5061
I7
tp5477
a(I834
I20
F0.375
g5073
I7
tp5478
a(I1411
I0
F-1.0
g5107
I7
tp5479
a(I1619
I0
F1.0
g5117
I7
tp5480
a(I1619
I0
F-0.875
g5119
I7
tp5481
a(I1689
I3
F1.0
g5121
I7
tp5482
a(I1726
I5
F-0.125
g5123
I7
tp5483
as(S'in'
p5484
S'price'
p5485
S'range'
p5486
tp5487
(lp5488
(I574
I8
F1.0
S'good'
p5489
I0
tp5490
a(I1306
I0
F0.5
S'higher'
p5491
I0
tp5492
a(I1768
I14
F-0.625
S'surprising'
p5493
I0
tp5494
a(I1816
I6
I0
S'most'
p5495
I0
tp5496
a(I1997
I2
F0.125
S'mobile'
p5497
I0
tp5498
a(I574
I8
F1.0
g5489
I13
tp5499
a(I929
I0
F-0.125
S'such'
p5500
I13
tp5501
a(I1306
I0
F0.5
g5491
I13
tp5502
a(I1731
I1
F1.0
S'good'
p5503
I13
tp5504
a(I1768
I14
F-0.625
g5493
I13
tp5505
a(I1816
I6
I0
g5495
I13
tp5506
a(I1997
I2
F0.125
g5497
I13
tp5507
as(g13
S'days'
p5508
tp5509
(lp5510
(I502
I7
I0
S'more'
p5511
I2
tp5512
a(I745
I26
F0.125
S'mobile'
p5513
I2
tp5514
a(I848
I16
F0.5
S'optimum'
p5515
I2
tp5516
as(S'good'
p5517
S'performance'
p5518
tp5519
(lp5520
(I197
I1
F1.0
S'good'
p5521
I2
tp5522
a(I227
I0
F1.0
S'good'
p5523
I2
tp5524
a(I316
I2
F1.0
S'good'
p5525
I2
tp5526
a(I481
I12
F0.875
g439
I2
tp5527
a(I481
I12
F1.0
S'good'
p5528
I2
tp5529
a(I502
I16
F1.0
S'good'
p5530
I2
tp5531
a(I531
I0
F1.0
S'good'
p5532
I2
tp5533
a(I534
I3
F0.875
S'superb'
p5534
I2
tp5535
a(I575
I9
F1.0
S'good'
p5536
I2
tp5537
a(I614
I0
F1.0
S'good'
p5538
I2
tp5539
a(I674
I2
F-0.125
S'overall'
p5540
I2
tp5541
a(I674
I2
F1.0
S'good'
p5542
I2
tp5543
a(I743
I0
F0.875
S'awesome'
p5544
I2
tp5545
a(I757
I9
I0
S'sure'
p5546
I2
tp5547
a(I757
I9
F1.0
S'good'
p5548
I2
tp5549
a(I770
I0
F1.0
S'good'
p5550
I2
tp5551
a(I845
I1
F1.0
S'good'
p5552
I2
tp5553
a(I890
I1
F1.0
S'good'
p5554
I2
tp5555
a(I973
I0
F1.0
S'good'
p5556
I2
tp5557
a(I1014
I39
F0.25
S'fluid'
p5558
I2
tp5559
a(I1058
I6
F1.0
S'good'
p5560
I2
tp5561
a(I1090
I3
F1.0
S'good'
p5562
I2
tp5563
a(I1092
I6
F1.0
S'good'
p5564
I2
tp5565
a(I1336
I37
F1.0
S'good'
p5566
I2
tp5567
a(I1336
I37
I0
S'lag'
p5568
I2
tp5569
a(I1519
I26
F0.375
S'much'
p5570
I2
tp5571
a(I1593
I2
F1.0
S'good'
p5572
I2
tp5573
a(I1611
I5
F0.125
S'mobile'
p5574
I2
tp5575
a(I1611
I5
F1.0
S'good'
p5576
I2
tp5577
a(I1614
I7
F1.0
S'good'
p5578
I2
tp5579
a(I1616
I0
F1.0
S'good'
p5580
I2
tp5581
a(I1663
I9
F1.0
S'good'
p5582
I2
tp5583
a(I1712
I13
F-0.75
S'free'
p5584
I2
tp5585
a(I1733
I0
F1.0
S'good'
p5586
I2
tp5587
a(I1736
I10
F1.0
S'good'
p5588
I2
tp5589
a(I1777
I2
F1.0
S'good'
p5590
I2
tp5591
a(I1779
I22
F1.0
S'good'
p5592
I2
tp5593
a(I1779
I22
F-0.25
S'earlier'
p5594
I2
tp5595
a(I1781
I3
F1.0
S'good'
p5596
I2
tp5597
a(I1792
I2
F1.0
S'good'
p5598
I2
tp5599
a(I1805
I28
F1.0
S'good'
p5600
I2
tp5601
a(I1835
I12
F1.0
S'good'
p5602
I2
tp5603
a(I1893
I0
F1.0
S'good'
p5604
I2
tp5605
a(I1976
I1
F1.0
S'good'
p5606
I2
tp5607
a(I1976
I1
I0
S'asphalt'
p5608
I2
tp5609
a(I1983
I8
F1.0
S'good'
p5610
I2
tp5611
a(I1987
I0
F1.0
S'good'
p5612
I2
tp5613
a(I2019
I0
F1.0
S'good'
p5614
I2
tp5615
a(I2064
I0
F1.0
S'good'
p5616
I2
tp5617
a(I2097
I2
F1.0
S'good'
p5618
I2
tp5619
a(I6
I6
F0.375
S'incomparable'
p5620
I13
tp5621
a(I6
I6
F0.875
S'fabulous'
p5622
I13
tp5623
a(I24
I14
F-0.125
S'overall'
p5624
I13
tp5625
a(I37
I1
F0.5
S'high'
p5626
I13
tp5627
a(I66
I7
F0.875
S'superb'
p5628
I13
tp5629
a(I78
I20
I0
S't'
p5630
I13
tp5631
a(I197
I1
F1.0
g5521
I13
tp5632
a(I197
I4
F0.625
S'super'
p5633
I13
tp5634
a(I227
I0
F1.0
g5523
I13
tp5635
a(I316
I2
F1.0
g5525
I13
tp5636
a(I392
I0
F-0.125
S'ultimate'
p5637
I13
tp5638
a(I416
I3
I-100
S'f9'
p5639
I13
tp5640
a(I478
I7
F0.5
S'highest'
p5641
I13
tp5642
a(I481
I12
F1.0
g5528
I13
tp5643
a(I502
I16
F1.0
g5530
I13
tp5644
a(I521
I8
F-0.125
S'overall'
p5645
I13
tp5646
a(I531
I0
F1.0
g5532
I13
tp5647
a(I534
I3
F0.875
g5534
I13
tp5648
a(I543
I3
F0.875
S'happy'
p5649
I13
tp5650
a(I575
I9
F1.0
g5536
I13
tp5651
a(I583
I0
F0.875
S'awesome'
p5652
I13
tp5653
a(I586
I7
F0.375
S'satisfied'
p5654
I13
tp5655
a(I614
I0
F1.0
g5538
I13
tp5656
a(I671
I0
F1.0
S'excellent'
p5657
I13
tp5658
a(I674
I2
F-0.125
g5540
I13
tp5659
a(I674
I2
F1.0
g5542
I13
tp5660
a(I712
I0
F0.625
S'commendable'
p5661
I13
tp5662
a(I715
I7
F0.75
S'outstanding'
p5663
I13
tp5664
a(I715
I11
F0.5
S'highest'
p5665
I13
tp5666
a(I715
I13
F-0.375
S'same'
p5667
I13
tp5668
a(I743
I0
F0.875
g5544
I13
tp5669
a(I744
I46
I0
S'audio'
p5670
I13
tp5671
a(I745
I41
F-0.125
S'overall'
p5672
I13
tp5673
a(I745
I41
F0.5
S'satisfactory'
p5674
I13
tp5675
a(I757
I9
I0
g5546
I13
tp5676
a(I757
I9
F1.0
g5548
I13
tp5677
a(I759
I5
F-0.125
S'such'
p5678
I13
tp5679
a(I759
I5
F0.5
S'high'
p5680
I13
tp5681
a(I770
I0
F1.0
g5550
I13
tp5682
a(I845
I1
F1.0
g5552
I13
tp5683
a(I856
I8
F0.875
S'great'
p5684
I13
tp5685
a(I878
I4
F-0.625
S'faster'
p5686
I13
tp5687
a(I880
I4
F-0.875
S'low'
p5688
I13
tp5689
a(I890
I1
F1.0
g5554
I13
tp5690
a(I919
I0
F-0.75
S'raw'
p5691
I13
tp5692
a(I973
I0
F1.0
g5556
I13
tp5693
a(I982
I0
I0
S'main'
p5694
I13
tp5695
a(I1012
I8
F0.875
S'awesome'
p5696
I13
tp5697
a(I1014
I39
F0.25
g5558
I13
tp5698
a(I1016
I0
F-0.625
S'other'
p5699
I13
tp5700
a(I1016
I0
F0.875
S'great'
p5701
I13
tp5702
a(I1058
I6
F1.0
g5560
I13
tp5703
a(I1071
I7
F-0.125
S'overall'
p5704
I13
tp5705
a(I1090
I3
F1.0
g5562
I13
tp5706
a(I1092
I5
F0.875
S'amazing'
p5707
I13
tp5708
a(I1092
I6
F1.0
g5564
I13
tp5709
a(I1164
I1
F0.875
S'great'
p5710
I13
tp5711
a(I1324
I0
F-0.625
S'real'
p5712
I13
tp5713
a(I1336
I37
F1.0
g5566
I13
tp5714
a(I1336
I37
I0
g5568
I13
tp5715
a(I1356
I0
F0.625
S'reliable'
p5716
I13
tp5717
a(I1460
I0
F-0.875
S'poor'
p5718
I13
tp5719
a(I1491
I2
F1.0
S'excellent'
p5720
I13
tp5721
a(I1519
I13
I0
S'par'
p5722
I13
tp5723
a(I1519
I21
F-0.875
S'poor'
p5724
I13
tp5725
a(I1552
I11
F0.875
S'superb'
p5726
I13
tp5727
a(I1556
I8
F1.0
S'excellent'
p5728
I13
tp5729
a(I1582
I0
F1.0
S'excellent'
p5730
I13
tp5731
a(I1593
I1
F1.0
S'best'
p5732
I13
tp5733
a(I1593
I2
F1.0
g5572
I13
tp5734
a(I1611
I5
F0.125
g5574
I13
tp5735
a(I1611
I5
F1.0
g5576
I13
tp5736
a(I1614
I7
F1.0
g5578
I13
tp5737
a(I1616
I0
F1.0
g5580
I13
tp5738
a(I1663
I9
F1.0
g5582
I13
tp5739
a(I1663
I10
I0
S'light'
p5740
I13
tp5741
a(I1663
I10
F0.5
S'very'
p5742
I13
tp5743
a(I1663
I10
F0.875
S'nice'
p5744
I13
tp5745
a(I1681
I1
F-0.125
S'overall'
p5746
I13
tp5747
a(I1684
I0
F0.5
S'satisfactory'
p5748
I13
tp5749
a(I1705
I1
F-0.25
S'i'
p5750
I13
tp5751
a(I1705
I1
F-0.5
S'disappointed'
p5752
I13
tp5753
a(I1712
I13
F-0.75
g5584
I13
tp5754
a(I1724
I2
F-0.875
S'poor'
p5755
I13
tp5756
a(I1726
I7
F0.875
S'great'
p5757
I13
tp5758
a(I1733
I0
F1.0
g5586
I13
tp5759
a(I1736
I10
F1.0
g5588
I13
tp5760
a(I1746
I1
I0
S'lagging'
p5761
I13
tp5762
a(I1746
I1
F0.625
S'smooth'
p5763
I13
tp5764
a(I1777
I2
F1.0
g5590
I13
tp5765
a(I1779
I22
F1.0
g5592
I13
tp5766
a(I1779
I22
F-0.25
g5594
I13
tp5767
a(I1781
I3
F1.0
g5596
I13
tp5768
a(I1792
I2
F1.0
g5598
I13
tp5769
a(I1803
I7
F0.375
S'ok'
p5770
I13
tp5771
a(I1803
I7
F0.375
S'ok'
p5772
I13
tp5773
a(I1804
I2
F-0.375
S'flawless'
p5774
I13
tp5775
a(I1805
I28
F1.0
g5600
I13
tp5776
a(I1835
I12
F1.0
g5602
I13
tp5777
a(I1893
I0
F1.0
g5604
I13
tp5778
a(I1904
I9
F0.875
S'awesome'
p5779
I13
tp5780
a(I1927
I12
F0.375
S'impressive'
p5781
I13
tp5782
a(I1945
I2
F0.5
S'high'
p5783
I13
tp5784
a(I1956
I0
F-0.875
S'poor'
p5785
I13
tp5786
a(I1976
I1
F1.0
g5606
I13
tp5787
a(I1976
I1
I0
g5608
I13
tp5788
a(I1976
I16
F0.375
S'satisfied'
p5789
I13
tp5790
a(I1979
I1
F0.875
S'great'
p5791
I13
tp5792
a(I1983
I8
F1.0
g5610
I13
tp5793
a(I1987
I0
F1.0
g5612
I13
tp5794
a(I2019
I0
F1.0
g5614
I13
tp5795
a(I2020
I5
F0.875
S'awesome'
p5796
I13
tp5797
a(I2044
I0
F1.0
S'excellent'
p5798
I13
tp5799
a(I2063
I5
F0.375
S'impressive'
p5800
I13
tp5801
a(I2064
I0
F1.0
g5616
I13
tp5802
a(I2097
I2
F1.0
g5618
I13
tp5803
as(S't'
p5804
S'buy'
p5805
S'product'
p5806
tp5807
(lp5808
(I37
I7
I0
S'electronic'
p5809
I0
tp5810
a(I447
I43
F0.5
S'china'
p5811
I0
tp5812
a(I447
I43
I0
S'local'
p5813
I0
tp5814
a(I602
I0
F-0.875
S'pathetic'
p5815
I0
tp5816
a(I880
I1
F0.125
g1452
I0
tp5817
a(I1026
I5
F-0.625
g2770
I0
tp5818
a(I1195
I2
F-0.625
S'dumb'
p5819
I0
tp5820
a(I1210
I3
I0
S'electronic'
p5821
I0
tp5822
a(I1231
I19
F0.5
S'ready'
p5823
I0
tp5824
a(I1337
I11
F-0.625
S'last'
p5825
I0
tp5826
a(I1654
I5
F0.25
S'worth'
p5827
I0
tp5828
a(I1882
I9
F0.125
S'don'
p5829
I0
tp5830
a(I37
I7
I0
g5809
I0
tp5831
a(I447
I43
F0.5
g5811
I0
tp5832
a(I447
I43
I0
g5813
I0
tp5833
a(I602
I0
F-0.875
g5815
I0
tp5834
a(I880
I1
F0.125
g1452
I0
tp5835
a(I1026
I5
F-0.625
g2770
I0
tp5836
a(I1195
I2
F-0.625
g5819
I0
tp5837
a(I1210
I3
I0
g5821
I0
tp5838
a(I1231
I19
F0.5
g5823
I0
tp5839
a(I1337
I11
F-0.625
g5825
I0
tp5840
a(I1654
I5
F0.25
g5827
I0
tp5841
as(S'excellent'
p5842
tp5843
(lp5844
(I705
I15
I-100
S'ae'
p5845
I4
tp5846
as(S'usage'
p5847
tp5848
(lp5849
(I0
I0
F0.5
S'intense'
p5850
I8
tp5851
a(I6
I1
F0.5
S'intense'
p5852
I8
tp5853
a(I6
I3
F0.5
S'intense'
p5854
I8
tp5855
a(I6
I4
I0
S'normal'
p5856
I8
tp5857
a(I37
I2
F0.75
S'due'
p5858
I8
tp5859
a(I37
I2
F0.5
S'high'
p5860
I8
tp5861
a(I42
I9
F0.5
S'intense'
p5862
I8
tp5863
a(I55
I22
I0
S'normal'
p5864
I8
tp5865
a(I67
I8
I0
S'initial'
p5866
I8
tp5867
a(I76
I4
F0.375
S'satisfied'
p5868
I8
tp5869
a(I76
I4
I0
S'initial'
p5870
I8
tp5871
a(I108
I2
F-0.625
S'moderate'
p5872
I8
tp5873
a(I108
I2
F0.375
S'full'
p5874
I8
tp5875
a(I125
I5
F-0.625
S'moderate'
p5876
I8
tp5877
a(I241
I6
I0
S'more'
p5878
I8
tp5879
a(I355
I1
I0
S'normal'
p5880
I8
tp5881
a(I373
I1
F-0.5
S'heavy'
p5882
I8
tp5883
a(I379
I15
F0.25
S'basic'
p5884
I8
tp5885
a(I402
I0
I0
S'initial'
p5886
I8
tp5887
a(I483
I9
F0.5
S'practical'
p5888
I8
tp5889
a(I490
I12
I0
S'normal'
p5890
I8
tp5891
a(I502
I7
F-0.5
S'heavy'
p5892
I8
tp5893
a(I519
I7
I0
S'gb'
p5894
I8
tp5895
a(I521
I11
F-0.75
S'warm'
p5896
I8
tp5897
a(I523
I4
I0
S'internet'
p5898
I8
tp5899
a(I570
I42
F0.875
S'decent'
p5900
I8
tp5901
a(I570
I44
F0.875
S'decent'
p5902
I8
tp5903
a(I686
I3
I0
S'normal'
p5904
I8
tp5905
a(I696
I0
I0
S'normal'
p5906
I8
tp5907
a(I736
I0
F-0.125
S'general'
p5908
I8
tp5909
a(I744
I37
F0.75
S'fair'
p5910
I8
tp5911
a(I777
I3
F-0.25
S'i'
p5912
I8
tp5913
a(I819
I0
I-100
S'predefined'
p5914
I8
tp5915
a(I819
I0
F-0.778
S'common'
p5916
I8
tp5917
a(I848
I17
I0
S'hrs'
p5918
I8
tp5919
a(I848
I17
I0
S'net'
p5920
I8
tp5921
a(I1012
I7
F-0.5
S'heavy'
p5922
I8
tp5923
a(I1080
I1
F-0.5
S'regular'
p5924
I8
tp5925
a(I1100
I9
I0
S'undergoes'
p5926
I8
tp5927
a(I1100
I9
F-0.625
S'moderate'
p5928
I8
tp5929
a(I1100
I9
F0.5
S'safe'
p5930
I8
tp5931
a(I1125
I20
F0.5
S'rigorous'
p5932
I8
tp5933
a(I1210
I18
I0
S'normal'
p5934
I8
tp5935
a(I1270
I0
F-0.625
S'moderate'
p5936
I8
tp5937
a(I1310
I2
F0.375
S'further'
p5938
I8
tp5939
a(I1405
I1
I0
S'normal'
p5940
I8
tp5941
a(I1407
I0
F-0.5
S'longer'
p5942
I8
tp5943
a(I1456
I1
F0.5
S'high'
p5944
I8
tp5945
a(I1602
I0
F-0.5
S'heavy'
p5946
I8
tp5947
a(I1604
I9
I0
S'normal'
p5948
I8
tp5949
a(I1621
I2
F0.75
S'due'
p5950
I8
tp5951
a(I1621
I2
F-0.5
S'heavy'
p5952
I8
tp5953
a(I1713
I5
F0.75
S'proper'
p5954
I8
tp5955
a(I1724
I13
F-0.625
S'moderate'
p5956
I8
tp5957
a(I1824
I6
F0.625
S'interested'
p5958
I8
tp5959
a(I1840
I8
I0
S'normal'
p5960
I8
tp5961
a(I1872
I10
F0.375
S'full'
p5962
I8
tp5963
a(I1957
I0
F0.5
S'high'
p5964
I8
tp5965
a(I1958
I12
F1.0
S'good'
p5966
I8
tp5967
a(I2028
I0
F0.5
S'intense'
p5968
I8
tp5969
a(I2052
I1
F-0.625
S'moderate'
p5970
I8
tp5971
as(S'light'
p5972
S'in'
p5973
S'weight'
p5974
tp5975
(lp5976
(I1
I1
F0.5
S'thin'
p5977
I0
tp5978
a(I1
I7
I0
S'light'
p5979
I0
tp5980
a(I193
I1
I0
S'light'
p5981
I0
tp5982
a(I241
I0
I0
S'light'
p5983
I0
tp5984
a(I303
I0
I0
S'light'
p5985
I0
tp5986
a(I371
I9
I0
S'light'
p5987
I0
tp5988
a(I371
I9
F0.5
S'slim'
p5989
I0
tp5990
a(I371
I9
F0.875
S'great'
p5991
I0
tp5992
a(I518
I2
I0
S'light'
p5993
I0
tp5994
a(I692
I2
F0.5
S'thin'
p5995
I0
tp5996
a(I692
I10
I0
S'light'
p5997
I0
tp5998
a(I744
I74
I0
S'light'
p5999
I0
tp6000
a(I750
I1
I0
S'light'
p6001
I0
tp6002
a(I790
I1
I0
S'light'
p6003
I0
tp6004
a(I1057
I1
F0.375
S'much'
p6005
I0
tp6006
a(I1057
I1
I0
S'lighter'
p6007
I0
tp6008
a(I1106
I0
F-0.25
g2060
I0
tp6009
a(I1106
I0
I0
g2062
I0
tp6010
a(I1106
I0
F1.0
g2064
I0
tp6011
a(I1163
I3
F0.875
S'awesome'
p6012
I0
tp6013
a(I1302
I0
I0
S'light'
p6014
I0
tp6015
a(I1770
I1
I0
S'light'
p6016
I0
tp6017
a(I1801
I0
I0
g2070
I0
tp6018
a(I1801
I0
F1.0
g2072
I0
tp6019
a(I1902
I0
I0
S'light'
p6020
I0
tp6021
a(I1
I1
F0.5
g5977
I0
tp6022
a(I1
I7
I0
g5979
I0
tp6023
a(I69
I0
I0
S'light'
p6024
I0
tp6025
a(I116
I0
I0
g2056
I0
tp6026
a(I133
I20
I0
S'light'
p6027
I0
tp6028
a(I193
I1
I0
g5981
I0
tp6029
a(I196
I5
I0
S'light'
p6030
I0
tp6031
a(I209
I2
I0
S'light'
p6032
I0
tp6033
a(I236
I0
I0
S'light'
p6034
I0
tp6035
a(I241
I0
I0
g5983
I0
tp6036
a(I303
I0
I0
g5985
I0
tp6037
a(I319
I0
I0
S'light'
p6038
I0
tp6039
a(I336
I0
I0
S'light'
p6040
I0
tp6041
a(I367
I0
I0
S'light'
p6042
I0
tp6043
a(I371
I9
I0
g5987
I0
tp6044
a(I371
I9
F0.5
g5989
I0
tp6045
a(I371
I9
F0.875
g5991
I0
tp6046
a(I398
I0
I0
S'light'
p6047
I0
tp6048
a(I442
I29
F1.0
g2058
I0
tp6049
a(I473
I11
I0
S'light'
p6050
I0
tp6051
a(I510
I1
I0
S'light'
p6052
I0
tp6053
a(I518
I2
I0
g5993
I0
tp6054
a(I529
I0
I0
S'light'
p6055
I0
tp6056
a(I544
I5
I0
S'light'
p6057
I0
tp6058
a(I545
I18
F0.5
S'slim'
p6059
I0
tp6060
a(I545
I18
I0
S'light'
p6061
I0
tp6062
a(I553
I7
I0
S'light'
p6063
I0
tp6064
a(I562
I3
I0
S'light'
p6065
I0
tp6066
a(I571
I1
F0.375
S'feels'
p6067
I0
tp6068
a(I571
I1
I0
S'light'
p6069
I0
tp6070
a(I692
I2
F0.5
g5995
I0
tp6071
a(I692
I10
I0
g5997
I0
tp6072
a(I744
I74
I0
g5999
I0
tp6073
a(I750
I1
I0
g6001
I0
tp6074
a(I790
I1
I0
g6003
I0
tp6075
a(I809
I0
I-100
S'lightin'
p6076
I0
tp6077
a(I856
I18
I0
S'light'
p6078
I0
tp6079
a(I884
I1
I0
S'light'
p6080
I0
tp6081
a(I972
I0
I0
S'light'
p6082
I0
tp6083
a(I988
I0
I0
S'light'
p6084
I0
tp6085
a(I1005
I6
I0
S'light'
p6086
I0
tp6087
a(I1006
I7
I0
S'light'
p6088
I0
tp6089
a(I1008
I6
I0
S'light'
p6090
I0
tp6091
a(I1014
I31
I0
S'light'
p6092
I0
tp6093
a(I1019
I0
I0
S'light'
p6094
I0
tp6095
a(I1057
I1
F0.375
g6005
I0
tp6096
a(I1057
I1
I0
g6007
I0
tp6097
a(I1103
I1
I0
S'light'
p6098
I0
tp6099
a(I1106
I0
F-0.25
g2060
I0
tp6100
a(I1106
I0
I0
g2062
I0
tp6101
a(I1106
I0
F1.0
g2064
I0
tp6102
a(I1163
I3
F0.875
g6012
I0
tp6103
a(I1302
I0
I0
g6014
I0
tp6104
a(I1386
I0
I0
S'light'
p6105
I0
tp6106
a(I1415
I0
I0
S'light'
p6107
I0
tp6108
a(I1441
I0
I0
S'light'
p6109
I0
tp6110
a(I1562
I0
I0
S'light'
p6111
I0
tp6112
a(I1579
I0
I0
g2066
I0
tp6113
a(I1579
I0
F-0.875
g2068
I0
tp6114
a(I1627
I0
I0
S'light'
p6115
I0
tp6116
a(I1674
I0
I0
S'light'
p6117
I0
tp6118
a(I1770
I1
I0
g6016
I0
tp6119
a(I1801
I0
I0
g2070
I0
tp6120
a(I1801
I0
F1.0
g2072
I0
tp6121
a(I1802
I27
I0
S'light'
p6122
I0
tp6123
a(I1902
I0
I0
g6020
I0
tp6124
a(I1983
I5
I0
S'light'
p6125
I0
tp6126
a(I2031
I1
I0
S'light'
p6127
I0
tp6128
a(I1
I1
F0.5
g5977
I4
tp6129
a(I1
I7
I0
g5979
I4
tp6130
a(I69
I0
I0
g6024
I4
tp6131
a(I116
I0
I0
g2056
I4
tp6132
a(I133
I20
I0
g6027
I4
tp6133
a(I193
I1
I0
g5981
I4
tp6134
a(I196
I5
I0
g6030
I4
tp6135
a(I197
I3
I-100
S'leight'
p6136
I4
tp6137
a(I209
I2
I0
g6032
I4
tp6138
a(I236
I0
I0
g6034
I4
tp6139
a(I241
I0
I0
g5983
I4
tp6140
a(I303
I0
I0
g5985
I4
tp6141
a(I319
I0
I0
g6038
I4
tp6142
a(I336
I0
I0
g6040
I4
tp6143
a(I344
I17
F0.125
S'feather'
p6144
I4
tp6145
a(I367
I0
I0
g6042
I4
tp6146
a(I371
I9
I0
g5987
I4
tp6147
a(I371
I9
F0.5
g5989
I4
tp6148
a(I371
I9
F0.875
g5991
I4
tp6149
a(I398
I0
I0
g6047
I4
tp6150
a(I473
I11
I0
g6050
I4
tp6151
a(I510
I1
I0
g6052
I4
tp6152
a(I518
I2
I0
g5993
I4
tp6153
a(I529
I0
I0
g6055
I4
tp6154
a(I544
I5
I0
g6057
I4
tp6155
a(I545
I18
F0.5
g6059
I4
tp6156
a(I545
I18
I0
g6061
I4
tp6157
a(I553
I7
I0
g6063
I4
tp6158
a(I562
I3
I0
g6065
I4
tp6159
a(I571
I1
F0.375
g6067
I4
tp6160
a(I571
I1
I0
g6069
I4
tp6161
a(I692
I2
F0.5
g5995
I4
tp6162
a(I692
I10
I0
g5997
I4
tp6163
a(I744
I74
I0
g5999
I4
tp6164
a(I750
I1
I0
g6001
I4
tp6165
a(I790
I1
I0
g6003
I4
tp6166
a(I856
I18
I0
g6078
I4
tp6167
a(I884
I1
I0
g6080
I4
tp6168
a(I972
I0
I0
g6082
I4
tp6169
a(I988
I0
I0
g6084
I4
tp6170
a(I1005
I6
I0
g6086
I4
tp6171
a(I1006
I7
I0
g6088
I4
tp6172
a(I1008
I6
I0
g6090
I4
tp6173
a(I1014
I31
I0
g6092
I4
tp6174
a(I1019
I0
I0
g6094
I4
tp6175
a(I1057
I1
F0.375
g6005
I4
tp6176
a(I1057
I1
I0
g6007
I4
tp6177
a(I1103
I1
I0
g6098
I4
tp6178
a(I1106
I0
F1.0
g2064
I4
tp6179
a(I1302
I0
I0
g6014
I4
tp6180
a(I1356
I1
I0
S'handy'
p6181
I4
tp6182
a(I1356
I1
F-0.5
S'less'
p6183
I4
tp6184
a(I1386
I0
I0
g6105
I4
tp6185
a(I1415
I0
I0
g6107
I4
tp6186
a(I1441
I0
I0
g6109
I4
tp6187
a(I1507
I1
F-0.5
S'less'
p6188
I4
tp6189
a(I1562
I0
I0
g6111
I4
tp6190
a(I1579
I0
I0
g2066
I4
tp6191
a(I1579
I0
F-0.875
g2068
I4
tp6192
a(I1627
I0
I0
g6115
I4
tp6193
a(I1674
I0
I0
g6117
I4
tp6194
a(I1770
I1
I0
g6016
I4
tp6195
a(I1781
I0
F-0.875
S'low'
p6196
I4
tp6197
a(I1801
I0
I0
g2070
I4
tp6198
a(I1801
I0
F1.0
g2072
I4
tp6199
a(I1802
I27
I0
g6122
I4
tp6200
a(I1902
I0
I0
g6020
I4
tp6201
a(I1965
I15
F1.0
S'good'
p6202
I4
tp6203
a(I1965
I15
F-0.5
S'heavy'
p6204
I4
tp6205
a(I1983
I5
I0
g6125
I4
tp6206
a(I1983
I15
F-0.875
S'low'
p6207
I4
tp6208
a(I2031
I1
I0
g6127
I4
tp6209
a(I2054
I1
F-0.875
S'low'
p6210
I4
tp6211
a(I4
I3
F-0.875
g2192
I14
tp6212
a(I24
I35
F-0.5
S'flash'
p6213
I14
tp6214
a(I24
I35
I0
S'clear'
p6215
I14
tp6216
a(I43
I8
F1.0
S'good'
p6217
I14
tp6218
a(I105
I1
F-0.625
g2194
I14
tp6219
a(I105
I1
F-0.875
g2196
I14
tp6220
a(I116
I4
F-0.875
g2198
I14
tp6221
a(I172
I0
F-0.875
g2200
I14
tp6222
a(I185
I25
F-0.875
g2235
I14
tp6223
a(I185
I25
F-0.875
g2237
I14
tp6224
a(I186
I5
F0.625
S'led'
p6225
I14
tp6226
a(I186
I11
F-0.875
g2202
I14
tp6227
a(I384
I6
F-0.875
g2204
I14
tp6228
a(I384
I6
F-0.625
g2206
I14
tp6229
a(I442
I29
F1.0
g2058
I14
tp6230
a(I545
I9
F-0.625
S'double'
p6231
I14
tp6232
a(I657
I0
F-0.875
g2208
I14
tp6233
a(I838
I2
F0.75
S'proper'
p6234
I14
tp6235
a(I838
I2
F1.0
S'good'
p6236
I14
tp6237
a(I849
I0
F1.0
S'best'
p6238
I14
tp6239
a(I849
I0
F1.0
S'good'
p6240
I14
tp6241
a(I980
I0
F-0.875
g2243
I14
tp6242
a(I1014
I8
F-0.75
S'sufficient'
p6243
I14
tp6244
a(I1064
I6
F-0.875
g2210
I14
tp6245
a(I1078
I4
F-0.875
g2212
I14
tp6246
a(I1106
I0
F-0.25
g2060
I14
tp6247
a(I1106
I0
I0
g2062
I14
tp6248
a(I1163
I0
F-0.875
g2214
I14
tp6249
a(I1163
I3
F0.875
g6012
I14
tp6250
a(I1473
I12
F-0.625
g2216
I14
tp6251
a(I1473
I12
F-0.625
g2218
I14
tp6252
a(I1546
I4
F-0.875
g2220
I14
tp6253
a(I1565
I0
F-0.875
g2222
I14
tp6254
a(I1587
I5
F-0.875
g2224
I14
tp6255
a(I1598
I4
F-0.875
g2226
I14
tp6256
a(I1780
I7
F-0.75
S'open'
p6257
I14
tp6258
a(I1805
I13
I0
S'ultra'
p6259
I14
tp6260
a(I1876
I5
I0
S'big'
p6261
I14
tp6262
a(I1885
I6
I0
S'bright'
p6263
I14
tp6264
a(I1965
I0
F-0.875
S'poor'
p6265
I14
tp6266
a(I2063
I7
F-0.875
g2228
I14
tp6267
a(I2072
I4
I0
S'pretty'
p6268
I14
tp6269
as(S'device'
p6270
tp6271
(lp6272
(I133
I8
I0
S'least'
p6273
I11
tp6274
a(I295
I1
I0
S'lighter'
p6275
I11
tp6276
a(I442
I24
F-0.625
S'other'
p6277
I11
tp6278
a(I472
I4
F-0.625
S'other'
p6279
I11
tp6280
a(I712
I10
F0.5
S'careful'
p6281
I11
tp6282
a(I712
I10
F-0.75
S'steady'
p6283
I11
tp6284
a(I718
I22
F-0.25
S'previous'
p6285
I11
tp6286
a(I720
I0
F0.875
S'brilliant'
p6287
I11
tp6288
a(I731
I4
F0.375
S'much'
p6289
I11
tp6290
a(I744
I34
F0.375
S'usage'
p6291
I11
tp6292
a(I744
I34
F0.125
S'routine'
p6293
I11
tp6294
a(I794
I5
F0.25
S'prompt'
p6295
I11
tp6296
a(I948
I1
F1.0
S'good'
p6297
I11
tp6298
a(I1214
I2
F-1.0
S'bad'
p6299
I11
tp6300
a(I1231
I11
F0.5
S'second'
p6301
I11
tp6302
a(I1635
I4
F-0.875
S'insufficient'
p6303
I11
tp6304
a(I1643
I0
F0.875
S'amazing'
p6305
I11
tp6306
a(I1726
I0
F-0.125
S'such'
p6307
I11
tp6308
a(I1780
I3
F0.875
S'superb'
p6309
I11
tp6310
a(I1824
I1
F-0.625
S'new'
p6311
I11
tp6312
a(I1872
I6
F0.625
S'evident'
p6313
I11
tp6314
a(I1872
I6
F0.25
S'use'
p6315
I11
tp6316
a(I1887
I0
F-0.625
S'other'
p6317
I11
tp6318
a(I1956
I16
F1.0
S'good'
p6319
I11
tp6320
a(I1965
I8
F-0.625
S'last'
p6321
I11
tp6322
as(S'music'
p6323
tp6324
(lp6325
(I521
I20
F1.0
S'better'
p6326
I3
tp6327
a(I572
I10
F0.875
S'nice'
p6328
I3
tp6329
a(I728
I0
F1.0
S'best'
p6330
I3
tp6331
a(I728
I0
I-100
S'sony'
p6332
I3
tp6333
a(I744
I28
F-0.375
S'continued'
p6334
I3
tp6335
a(I925
I4
F-0.875
S'low'
p6336
I3
tp6337
a(I955
I2
I0
S'screen'
p6338
I3
tp6339
a(I978
I0
F1.0
S'good'
p6340
I3
tp6341
a(I1100
I18
F0.875
S'nice'
p6342
I3
tp6343
a(I1951
I0
F1.0
S'good'
p6344
I3
tp6345
as(S'octa'
p6346
S'core'
p6347
S'processor'
p6348
tp6349
(lp6350
(I42
I1
I0
S'u'
p6351
I0
tp6352
a(I371
I21
I0
S'different'
p6353
I0
tp6354
a(I458
I38
F0.5
S'true'
p6355
I0
tp6356
a(I1324
I0
F0.5
S'true'
p6357
I0
tp6358
a(I856
I22
F-0.125
S'ghz'
p6359
I0
tp6360
a(I944
I1
F0.5
S'true'
p6361
I0
tp6362
a(I1324
I0
F0.5
g6357
I0
tp6363
a(I42
I1
I0
g6351
I8
tp6364
a(I185
I16
F0.625
S'super'
p6365
I8
tp6366
a(I241
I10
F1.0
S'good'
p6367
I8
tp6368
a(I241
I10
F0.625
S'vibrant'
p6369
I8
tp6370
a(I371
I21
I0
g6353
I8
tp6371
a(I458
I38
F0.5
g6355
I8
tp6372
a(I502
I15
F1.0
S'good'
p6373
I8
tp6374
a(I535
I5
F0.875
S'decent'
p6375
I8
tp6376
a(I543
I4
F0.875
S'awesome'
p6377
I8
tp6378
a(I692
I15
F1.0
S'good'
p6379
I8
tp6380
a(I744
I59
F0.75
S'due'
p6381
I8
tp6382
a(I744
I59
F-0.5
S'heavy'
p6383
I8
tp6384
a(I772
I8
F1.0
S'best'
p6385
I8
tp6386
a(I1015
I7
F-0.625
S'fast'
p6387
I8
tp6388
a(I1127
I0
F1.0
S'good'
p6389
I8
tp6390
a(I1614
I0
F0.5
S'powerful'
p6391
I8
tp6392
a(I1744
I9
F-0.375
S'various'
p6393
I8
tp6394
a(I1874
I2
F-0.625
S'fast'
p6395
I8
tp6396
a(I2074
I0
F1.0
S'good'
p6397
I8
tp6398
as(S'full'
p6399
tp6400
(lp6401
(I1324
I4
F0.5
S'crisper'
p6402
I14
tp6403
as(S'review'
p6404
tp6405
(lp6406
(I72
I1
F0.5
S'detailed'
p6407
I8
tp6408
a(I116
I9
F0.5
S'detailed'
p6409
I8
tp6410
a(I170
I3
F-0.75
S'unable'
p6411
I8
tp6412
a(I170
I3
F0.625
S'valuable'
p6413
I8
tp6414
a(I301
I6
I0
S'least'
p6415
I8
tp6416
a(I301
I6
F-0.636
S'genuine'
p6417
I8
tp6418
a(I456
I0
I0
S'useful'
p6419
I8
tp6420
a(I535
I11
F0.625
S'first'
p6421
I8
tp6422
a(I574
I21
F-0.875
S'negative'
p6423
I8
tp6424
a(I656
I4
F-0.75
S'unable'
p6425
I8
tp6426
a(I656
I4
F0.625
S'valuable'
p6427
I8
tp6428
a(I759
I9
F0.25
S'helpful'
p6429
I8
tp6430
a(I1072
I2
F0.5
S'detailed'
p6431
I8
tp6432
a(I1138
I2
F-0.375
S'same'
p6433
I8
tp6434
a(I1202
I1
F0.375
S'much'
p6435
I8
tp6436
a(I1260
I8
F0.625
S'first'
p6437
I8
tp6438
a(I1545
I17
F-0.75
S'short'
p6439
I8
tp6440
a(I1587
I9
F1.0
S'good'
p6441
I8
tp6442
a(I1953
I0
F0.75
S'complete'
p6443
I8
tp6444
as(S'apps'
p6445
tp6446
(lp6447
(I13
I2
F1.0
S'good'
p6448
I4
tp6449
a(I24
I31
I0
S'more'
p6450
I4
tp6451
a(I110
I9
I0
S'many'
p6452
I4
tp6453
a(I133
I17
I0
S'many'
p6454
I4
tp6455
a(I458
I13
I0
S'un'
p6456
I4
tp6457
a(I509
I6
F-0.625
S'other'
p6458
I4
tp6459
a(I534
I2
I0
S'most'
p6460
I4
tp6461
a(I534
I2
F-0.778
S'common'
p6462
I4
tp6463
a(I569
I1
I0
S'more'
p6464
I4
tp6465
a(I603
I0
I-100
S'unkown'
p6466
I4
tp6467
a(I651
I1
I0
S'many'
p6468
I4
tp6469
a(I659
I2
F0.25
S'recent'
p6470
I4
tp6471
a(I726
I2
F0.375
S'available'
p6472
I4
tp6473
a(I745
I29
F1.0
S'good'
p6474
I4
tp6475
a(I786
I1
F0.125
S'movable'
p6476
I4
tp6477
a(I833
I19
I0
S'bigger'
p6478
I4
tp6479
a(I925
I0
I0
S'unnecessary'
p6480
I4
tp6481
a(I1075
I0
F-0.875
S'limited'
p6482
I4
tp6483
a(I1076
I3
I0
S'few'
p6484
I4
tp6485
a(I1076
I3
I0
S'more'
p6486
I4
tp6487
a(I1177
I1
I0
S'multiple'
p6488
I4
tp6489
a(I1349
I0
F0.625
S'alive'
p6490
I4
tp6491
a(I1375
I5
I0
S'many'
p6492
I4
tp6493
a(I1519
I14
F-0.75
S'open'
p6494
I4
tp6495
a(I1519
I16
F-0.75
S'opened'
p6496
I4
tp6497
a(I1520
I1
I0
S'multiple'
p6498
I4
tp6499
a(I1545
I13
F-0.75
S'free'
p6500
I4
tp6501
a(I1635
I4
F-0.625
S'new'
p6502
I4
tp6503
a(I1712
I19
I0
S'inbuilt'
p6504
I4
tp6505
a(I1732
I48
F-0.75
S'unable'
p6506
I4
tp6507
a(I1732
I48
I0
S'more'
p6508
I4
tp6509
a(I1739
I10
I0
S'most'
p6510
I4
tp6511
a(I1753
I4
I0
S'many'
p6512
I4
tp6513
a(I1804
I1
I0
S'many'
p6514
I4
tp6515
a(I1828
I3
I0
S'more'
p6516
I4
tp6517
a(I1828
I3
I0
S'few'
p6518
I4
tp6519
a(I1874
I1
I0
S'most'
p6520
I4
tp6521
a(I1880
I8
I0
S'multiple'
p6522
I4
tp6523
a(I1885
I19
I0
S'u'
p6524
I4
tp6525
a(I1983
I22
I0
S'many'
p6526
I4
tp6527
a(I1983
I22
F-0.625
S'useless'
p6528
I4
tp6529
a(I2077
I5
I0
S'additional'
p6530
I4
tp6531
as(S'though'
p6532
tp6533
(lp6534
(I1648
I2
I-100
S'vibeui'
p6535
I4
tp6536
a(I1712
I8
I0
S'arrive'
p6537
I4
tp6538
as(S'camera'
p6539
S'not'
p6540
S'good'
p6541
tp6542
(lp6543
(I219
I0
F1.0
g548
I1
tp6544
a(I254
I0
F1.0
g554
I1
tp6545
a(I368
I5
F1.0
g435
I1
tp6546
a(I369
I2
F1.0
g559
I1
tp6547
a(I481
I1
F1.0
g569
I1
tp6548
a(I502
I9
F0.375
g572
I1
tp6549
a(I570
I38
F0.75
g580
I1
tp6550
a(I570
I38
F1.0
g582
I1
tp6551
a(I570
I38
I0
g584
I1
tp6552
a(I570
I38
F1.0
g586
I1
tp6553
a(I671
I1
F1.0
g593
I1
tp6554
a(I710
I0
F1.0
g599
I1
tp6555
a(I743
I0
I0
g602
I1
tp6556
a(I743
I0
F0.75
g604
I1
tp6557
a(I899
I1
F1.0
g616
I1
tp6558
a(I938
I1
F1.0
g620
I1
tp6559
a(I955
I1
F-0.125
g467
I1
tp6560
a(I987
I4
F1.0
g625
I1
tp6561
a(I987
I4
F0.875
g627
I1
tp6562
a(I1067
I0
I0
g637
I1
tp6563
a(I1067
I0
F1.0
g639
I1
tp6564
a(I1292
I6
F1.0
g652
I1
tp6565
a(I1307
I4
F1.0
g654
I1
tp6566
a(I1307
I5
F-0.5
g656
I1
tp6567
a(I1307
I5
F1.0
g658
I1
tp6568
a(I1312
I1
F1.0
g660
I1
tp6569
a(I1323
I1
F1.0
g662
I1
tp6570
a(I1545
I12
F1.0
g351
I1
tp6571
a(I1756
I1
F0.625
g696
I1
tp6572
a(I1756
I1
F1.0
g698
I1
tp6573
a(I1765
I2
F1.0
g700
I1
tp6574
a(I1767
I1
F1.0
g702
I1
tp6575
a(I1793
I1
F1.0
g712
I1
tp6576
a(I1872
I7
F0.875
g722
I1
tp6577
a(I1880
I3
F1.0
g369
I1
tp6578
a(I1880
I3
I0
g371
I1
tp6579
a(I1880
I3
F1.0
g373
I1
tp6580
a(I1882
I9
F-1.0
g520
I1
tp6581
a(I1882
I9
F1.0
g524
I1
tp6582
a(I1904
I7
F-0.125
g383
I1
tp6583
a(I1904
I7
F1.0
g385
I1
tp6584
a(I1926
I3
F0.875
g738
I1
tp6585
a(I1958
I7
F1.0
g742
I1
tp6586
a(I1965
I0
F1.0
g744
I1
tp6587
a(I1965
I15
F0.875
g397
I1
tp6588
a(I1965
I15
F-0.125
g399
I1
tp6589
a(I1965
I15
F0.875
g401
I1
tp6590
a(I2076
I2
F1.0
g753
I1
tp6591
a(I2093
I0
F1.0
g755
I1
tp6592
a(I2093
I0
F1.0
g757
I1
tp6593
as.