(dp0
(S'worth'
p1
S'for'
p2
S'money'
p3
tp4
(lp5
(I1005
I9
F0.25
S'worth'
p6
I0
tp7
a(I1224
I3
F1.0
S'good'
p8
I0
tp9
a(I1224
I3
I0
S'most'
p10
I0
tp11
a(I1458
I2
F0.25
S'worth'
p12
I0
tp13
a(I1458
I8
F0.25
S'worth'
p14
I0
tp15
a(I609
I2
I0
S'more'
p16
I8
tp17
a(I952
I0
F0.75
S'fantastic'
p18
I8
tp19
a(I1224
I3
F1.0
g8
I8
tp20
as(S'2'
p21
S'gb'
p22
S'ram'
p23
tp24
(lp25
(I194
I1
F-0.75
S'free'
p26
I4
tp27
a(I207
I2
F-0.75
S'free'
p28
I4
tp29
a(I288
I15
F0.5
S'deliver'
p30
I4
tp31
a(I359
I4
F-0.75
S'free'
p32
I4
tp33
a(I946
I0
F1.0
S'good'
p34
I4
tp35
a(I980
I8
F0.125
S'enough'
p36
I4
tp37
a(I1318
I6
F1.0
S'good'
p38
I4
tp39
as(S'lot'
p40
S'of'
p41
S'heating'
p42
tp43
(lp44
(I369
I2
F1.0
S'good'
p45
I0
tp46
a(I1267
I5
F0.75
S'due'
p47
I0
tp48
as(S'with'
p49
S'lenovo'
p50
S'vibe'
p51
tp52
(lp53
(I1291
I0
F0.375
S'satisfied'
p54
I0
tp55
a(I1582
I0
F-0.5
S'disappointed'
p56
I0
tp57
a(I283
I9
F0.875
S'great'
p58
I0
tp59
a(I799
I22
I0
S'updates'
p60
I0
tp61
a(I816
I1
F1.0
S'good'
p62
I0
tp63
a(I895
I4
F-0.625
S'last'
p64
I0
tp65
a(I1291
I0
F0.375
g54
I0
tp66
a(I1377
I1
I0
S'spec'
p67
I0
tp68
a(I1480
I9
F0.125
S'mobile'
p69
I0
tp70
a(I1582
I0
F-0.5
g56
I0
tp71
a(I217
I2
F1.0
S'better'
p72
I0
tp73
a(I317
I18
F0.875
S'happy'
p74
I0
tp75
a(I18
I1
F0.375
S'understand'
p76
I1
tp77
a(I33
I1
F0.625
S'cover'
p78
I1
tp79
a(I94
I0
F-0.75
S'crappy'
p80
I1
tp81
a(I98
I17
F0.5
S'second'
p82
I1
tp83
a(I283
I9
F0.875
g58
I1
tp84
a(I365
I0
F1.0
S'better'
p85
I1
tp86
a(I417
I4
F-0.125
S'present'
p87
I1
tp88
a(I420
I0
I-100
S'greatful'
p89
I1
tp90
a(I517
I6
F0.75
S'easy'
p91
I1
tp92
a(I517
I6
F0.375
S'famous'
p93
I1
tp94
a(I644
I3
F1.0
S'best'
p95
I1
tp96
a(I705
I3
F1.0
S'best'
p97
I1
tp98
a(I730
I4
I0
S'many'
p99
I1
tp100
a(I730
I4
F1.0
S'good'
p101
I1
tp102
a(I756
I5
F0.5
S'second'
p103
I1
tp104
a(I794
I11
F0.5
S'high'
p105
I1
tp106
a(I799
I22
I0
g60
I1
tp107
a(I816
I1
F1.0
g62
I1
tp108
a(I895
I4
F-0.625
g64
I1
tp109
a(I949
I1
F1.0
S'better'
p110
I1
tp111
a(I1062
I5
F0.875
S'happy'
p112
I1
tp113
a(I1062
I6
F0.625
S'first'
p114
I1
tp115
a(I1077
I33
F1.0
S'best'
p116
I1
tp117
a(I1123
I4
F0.5
S'second'
p118
I1
tp119
a(I1123
I8
F-0.25
S'i'
p120
I1
tp121
a(I1267
I5
I0
S'own'
p122
I1
tp123
a(I1267
I9
F-0.625
S'other'
p124
I1
tp125
a(I1267
I10
F-0.625
S'last'
p126
I1
tp127
a(I1267
I10
I0
S'least'
p128
I1
tp129
a(I1267
I12
F-0.875
S'hard'
p130
I1
tp131
a(I1291
I0
F0.375
g54
I1
tp132
a(I1377
I1
I0
g67
I1
tp133
a(I1383
I1
F-0.625
S'other'
p134
I1
tp135
a(I1399
I18
F-0.125
S'overall'
p136
I1
tp137
a(I1422
I7
I0
S'near'
p138
I1
tp139
a(I1441
I4
F-0.625
S'new'
p140
I1
tp141
a(I1480
I9
F0.125
g69
I1
tp142
a(I1529
I6
F-0.875
S'poor'
p143
I1
tp144
a(I1554
I0
F0.5
S'technical'
p145
I1
tp146
a(I1578
I6
I0
S'updated'
p147
I1
tp148
a(I1582
I0
F-0.5
g56
I1
tp149
a(I1587
I5
F0.5
S'second'
p150
I1
tp151
as(S'average'
p152
tp153
(lp154
(I189
I3
I0
S's'
p155
I12
tp156
a(I216
I5
I0
S'more'
p157
I12
tp158
a(I288
I3
I0
S'above'
p159
I12
tp160
a(I341
I3
I0
S'above'
p161
I12
tp162
a(I739
I0
I0
S'above'
p163
I12
tp164
a(I739
I0
F0.125
S'ample'
p165
I12
tp166
a(I770
I1
F0.375
S'much'
p167
I12
tp168
a(I770
I1
F1.0
S'good'
p169
I12
tp170
a(I770
I1
I0
S'more'
p171
I12
tp172
a(I830
I13
F-0.5
S'heavy'
p173
I12
tp174
a(I830
I13
F1.0
S'good'
p175
I12
tp176
a(I830
I13
F-0.625
S'moderate'
p177
I12
tp178
a(I837
I2
I0
S'user'
p179
I12
tp180
a(I1076
I0
F-1.0
S'bad'
p181
I12
tp182
a(I1076
I0
F1.0
S'good'
p183
I12
tp184
a(I1442
I36
I0
S'below'
p185
I12
tp186
a(I1529
I1
F0.125
S'mobile'
p187
I12
tp188
a(I1529
I1
F1.0
S'good'
p189
I12
tp190
as(S'software'
p191
S'update'
p192
tp193
(lp194
(I31
I0
F-0.25
S'latest'
p195
I0
tp196
a(I241
I11
F-0.25
S'latest'
p197
I0
tp198
a(I473
I0
I0
S'update'
p199
I0
tp200
a(I731
I25
I0
S'update'
p201
I0
tp202
a(I786
I20
I0
S'update'
p203
I0
tp204
a(I786
I20
F-0.5
S'less'
p205
I0
tp206
a(I786
I20
F-0.25
S'earlier'
p207
I0
tp208
a(I917
I0
F-0.25
S'latest'
p209
I0
tp210
a(I31
I0
F-0.25
g195
I2
tp211
a(I50
I2
I0
S'lite'
p212
I2
tp213
a(I241
I11
F-0.25
g197
I2
tp214
a(I473
I0
I0
g199
I2
tp215
a(I731
I25
I0
g201
I2
tp216
a(I766
I0
F0.875
S'great'
p217
I2
tp218
a(I786
I20
I0
g203
I2
tp219
a(I786
I20
F-0.5
g205
I2
tp220
a(I786
I20
F-0.25
g207
I2
tp221
a(I917
I0
F-0.25
g209
I2
tp222
a(I1146
I1
F-0.75
S'underdog'
p223
I2
tp224
a(I1181
I9
F1.0
S'good'
p225
I2
tp226
a(I1475
I2
I0
S'sure'
p227
I2
tp228
as(S'look'
p229
S'and'
p230
S'feel'
p231
tp232
(lp233
(I376
I0
F0.75
S'premium'
p234
I0
tp235
a(I479
I1
F1.0
S'good'
p236
I0
tp237
a(I491
I2
F0.75
S'sound'
p238
I0
tp239
a(I491
I2
F1.0
S'good'
p240
I0
tp241
a(I1267
I0
F1.0
S'good'
p242
I0
tp243
a(I1398
I0
F0.75
S'sound'
p244
I0
tp245
a(I1398
I0
F1.0
S'good'
p246
I0
tp247
a(I1458
I5
F1.0
S'good'
p248
I0
tp249
a(I36
I1
I0
S't'
p250
I10
tp251
a(I261
I15
I0
S'different'
p252
I10
tp253
a(I491
I2
F1.0
g240
I10
tp254
a(I492
I20
I0
S't'
p255
I10
tp256
a(I492
I20
I0
S'light'
p257
I10
tp258
a(I492
I20
F-0.875
S'cheap'
p259
I10
tp260
a(I504
I12
I0
S't'
p261
I10
tp262
a(I709
I3
F1.0
S'good'
p263
I10
tp264
a(I1337
I7
I0
S't'
p265
I10
tp266
a(I1479
I12
F0.5
S'touch'
p267
I10
tp268
a(I1479
I12
F-0.75
S'inconsistent'
p269
I10
tp270
as(S'display'
p271
S'very'
p272
S'good'
p273
tp274
(lp275
(I241
I17
F0.75
S'sound'
p276
I0
tp277
a(I295
I0
F1.0
S'good'
p278
I0
tp279
a(I295
I0
F-0.625
S'sharp'
p280
I0
tp281
a(I631
I16
F1.0
S'good'
p282
I0
tp283
a(I631
I16
F1.0
S'good'
p284
I0
tp285
a(I634
I3
F1.0
S'good'
p286
I0
tp287
a(I707
I3
F0.75
S'sound'
p288
I0
tp289
a(I707
I3
F0.875
S'clean'
p290
I0
tp291
a(I731
I5
F1.0
S'good'
p292
I0
tp293
a(I735
I0
F1.0
S'good'
p294
I0
tp295
a(I767
I5
F0.875
S'awesome'
p296
I0
tp297
a(I779
I0
F1.0
S'good'
p298
I0
tp299
a(I779
I0
F-0.625
S'sharp'
p300
I0
tp301
a(I786
I18
F0.875
S'nice'
p302
I0
tp303
a(I976
I5
F1.0
S'good'
p304
I0
tp305
a(I980
I4
F1.0
S'good'
p306
I0
tp307
a(I1113
I1
F1.0
S'good'
p308
I0
tp309
a(I1177
I0
F1.0
S'good'
p310
I0
tp311
a(I1318
I1
F0.875
S'important'
p312
I0
tp313
a(I1318
I1
F1.0
S'good'
p314
I0
tp315
a(I36
I9
F1.0
S'good'
p316
I3
tp317
a(I241
I17
F0.75
g276
I3
tp318
a(I259
I0
F1.0
S'good'
p319
I3
tp320
a(I278
I0
F0.875
S'great'
p321
I3
tp322
a(I295
I0
F1.0
g278
I3
tp323
a(I295
I0
F-0.625
g280
I3
tp324
a(I311
I0
F1.0
S'good'
p325
I3
tp326
a(I370
I0
F1.0
S'good'
p327
I3
tp328
a(I440
I1
F1.0
S'good'
p329
I3
tp330
a(I492
I6
F1.0
S'good'
p331
I3
tp332
a(I508
I0
F1.0
S'good'
p333
I3
tp334
a(I523
I0
F0.5
S'touch'
p335
I3
tp336
a(I563
I0
F1.0
S'excellent'
p337
I3
tp338
a(I563
I0
F1.0
S'good'
p339
I3
tp340
a(I574
I0
F1.0
S'good'
p341
I3
tp342
a(I599
I21
F-0.625
S'sharp'
p343
I3
tp344
a(I631
I16
F1.0
g282
I3
tp345
a(I631
I16
F1.0
g284
I3
tp346
a(I634
I3
F1.0
g286
I3
tp347
a(I640
I6
F1.0
S'good'
p348
I3
tp349
a(I707
I3
F0.75
g288
I3
tp350
a(I707
I3
F0.875
g290
I3
tp351
a(I730
I5
F0.875
S'great'
p352
I3
tp353
a(I731
I5
F1.0
g292
I3
tp354
a(I735
I0
F1.0
g294
I3
tp355
a(I767
I5
F0.875
g296
I3
tp356
a(I779
I0
F1.0
g298
I3
tp357
a(I779
I0
F-0.625
g300
I3
tp358
a(I786
I18
F0.875
g302
I3
tp359
a(I799
I21
F1.0
S'best'
p360
I3
tp361
a(I841
I1
F1.0
S'good'
p362
I3
tp363
a(I976
I5
F1.0
g304
I3
tp364
a(I980
I4
F1.0
g306
I3
tp365
a(I1077
I9
F1.0
S'good'
p366
I3
tp367
a(I1106
I0
F1.0
S'good'
p368
I3
tp369
a(I1113
I1
F1.0
g308
I3
tp370
a(I1177
I0
F1.0
g310
I3
tp371
a(I1208
I6
F1.0
S'good'
p372
I3
tp373
a(I1318
I1
F0.875
g312
I3
tp374
a(I1318
I1
F1.0
g314
I3
tp375
a(I1320
I0
F0.875
S'awesome'
p376
I3
tp377
a(I1320
I0
F1.0
S'good'
p378
I3
tp379
a(I1447
I2
F0.875
S'fabulous'
p380
I3
tp381
a(I1447
I2
F1.0
S'good'
p382
I3
tp383
a(I1530
I4
F1.0
S'excellent'
p384
I3
tp385
a(I36
I9
F1.0
g316
I0
tp386
a(I241
I17
F0.75
g276
I0
tp387
a(I259
I0
F1.0
g319
I0
tp388
a(I278
I0
F0.875
g321
I0
tp389
a(I295
I0
F1.0
g278
I0
tp390
a(I295
I0
F-0.625
g280
I0
tp391
a(I311
I0
F1.0
g325
I0
tp392
a(I370
I0
F1.0
g327
I0
tp393
a(I440
I1
F1.0
g329
I0
tp394
a(I492
I6
F1.0
g331
I0
tp395
a(I508
I0
F1.0
g333
I0
tp396
a(I523
I0
F0.5
g335
I0
tp397
a(I563
I0
F1.0
g337
I0
tp398
a(I563
I0
F1.0
g339
I0
tp399
a(I574
I0
F1.0
g341
I0
tp400
a(I599
I21
F-0.625
g343
I0
tp401
a(I631
I16
F1.0
g282
I0
tp402
a(I631
I16
F1.0
g284
I0
tp403
a(I634
I3
F1.0
g286
I0
tp404
a(I640
I6
F1.0
g348
I0
tp405
a(I707
I3
F0.75
g288
I0
tp406
a(I707
I3
F0.875
g290
I0
tp407
a(I730
I5
F0.875
g352
I0
tp408
a(I731
I5
F1.0
g292
I0
tp409
a(I735
I0
F1.0
g294
I0
tp410
a(I767
I5
F0.875
g296
I0
tp411
a(I779
I0
F1.0
g298
I0
tp412
a(I779
I0
F-0.625
g300
I0
tp413
a(I786
I18
F0.875
g302
I0
tp414
a(I799
I21
F1.0
g360
I0
tp415
a(I841
I1
F1.0
g362
I0
tp416
a(I976
I5
F1.0
g304
I0
tp417
a(I980
I4
F1.0
g306
I0
tp418
a(I1077
I9
F1.0
g366
I0
tp419
a(I1106
I0
F1.0
g368
I0
tp420
a(I1113
I1
F1.0
g308
I0
tp421
a(I1177
I0
F1.0
g310
I0
tp422
a(I1208
I6
F1.0
g372
I0
tp423
a(I1318
I1
F0.875
g312
I0
tp424
a(I1318
I1
F1.0
g314
I0
tp425
a(I1320
I0
F0.875
g376
I0
tp426
a(I1320
I0
F1.0
g378
I0
tp427
a(I1447
I2
F0.875
g380
I0
tp428
a(I1447
I2
F1.0
g382
I0
tp429
a(I1530
I4
F1.0
g384
I0
tp430
as(S'excellent'
p431
tp432
(lp433
(I1344
I4
F0.75
S'sound'
p434
I4
tp435
as(S'and'
p436
S'camera'
p437
S'quality'
p438
tp439
(lp440
(I229
I8
F0.125
S'equal'
p441
I0
tp442
a(I317
I11
F0.875
S'nice'
p443
I0
tp444
a(I332
I11
F1.0
S'good'
p445
I0
tp446
a(I332
I11
I0
S'audio'
p447
I0
tp448
a(I332
I51
I0
S'update'
p449
I0
tp450
a(I369
I7
F0.375
S'much'
p451
I0
tp452
a(I369
I7
F-0.875
S'poor'
p453
I0
tp454
a(I467
I4
F1.0
S'good'
p455
I0
tp456
a(I610
I6
F1.0
S'good'
p457
I0
tp458
a(I633
I0
F1.0
S'good'
p459
I0
tp460
a(I633
I0
F1.0
S'good'
p461
I0
tp462
a(I703
I7
F1.0
S'good'
p463
I0
tp464
a(I731
I17
F1.0
S'good'
p465
I0
tp466
a(I804
I0
F0.625
S'removable'
p467
I0
tp468
a(I883
I1
F0.875
S'decent'
p469
I0
tp470
a(I903
I0
F0.75
S'primary'
p471
I0
tp472
a(I903
I0
F-0.5
S'less'
p473
I0
tp474
a(I993
I0
F0.875
S'awesome'
p475
I0
tp476
a(I993
I0
F1.0
S'good'
p477
I0
tp478
a(I994
I6
F-1.0
S'bad'
p479
I0
tp480
a(I1051
I10
F0.625
S'acceptable'
p481
I0
tp482
a(I1051
I10
F-1.0
S'bad'
p483
I0
tp484
a(I1081
I1
F-0.875
S'poor'
p485
I0
tp486
a(I1097
I2
F1.0
S'good'
p487
I0
tp488
a(I1153
I15
F0.875
S'nice'
p489
I0
tp490
a(I1153
I15
F-0.125
S'front'
p491
I0
tp492
a(I1173
I1
F1.0
S'good'
p493
I0
tp494
a(I1239
I0
F1.0
S'good'
p495
I0
tp496
a(I1239
I0
F0.625
S'change'
p497
I0
tp498
a(I1242
I1
I0
S'more'
p499
I0
tp500
a(I1242
I1
F1.0
S'good'
p501
I0
tp502
a(I1282
I0
F-0.625
S'average'
p503
I0
tp504
a(I1299
I1
F1.0
S'good'
p505
I0
tp506
a(I1299
I1
F0.375
S'further'
p507
I0
tp508
a(I1331
I26
I0
S'rear'
p509
I0
tp510
a(I1331
I26
F1.0
S'good'
p511
I0
tp512
a(I1336
I0
F1.0
S'good'
p513
I0
tp514
a(I1336
I0
F0.75
S'sound'
p515
I0
tp516
a(I1336
I0
F0.5
S'effective'
p517
I0
tp518
a(I1336
I0
F1.0
S'good'
p519
I0
tp520
a(I1371
I0
I0
S'camera'
p521
I0
tp522
a(I1565
I11
F1.0
S'good'
p523
I0
tp524
as(S'camera'
p525
S'very'
p526
S'good'
p527
tp528
(lp529
(I229
I11
F1.0
S'good'
p530
I0
tp531
a(I317
I11
F0.875
g443
I0
tp532
a(I491
I8
F1.0
S'good'
p533
I0
tp534
a(I609
I4
F1.0
S'good'
p535
I0
tp536
a(I629
I1
I0
S'rear'
p537
I0
tp538
a(I633
I0
F1.0
g459
I0
tp539
a(I633
I0
F1.0
g461
I0
tp540
a(I649
I14
F1.0
S'good'
p541
I0
tp542
a(I653
I7
F1.0
S'good'
p543
I0
tp544
a(I680
I5
F1.0
S'good'
p545
I0
tp546
a(I696
I2
F-0.875
S'poor'
p547
I0
tp548
a(I731
I17
F1.0
g465
I0
tp549
a(I770
I1
F-0.125
S'front'
p550
I0
tp551
a(I770
I1
F1.0
S'good'
p552
I0
tp553
a(I786
I18
F-0.625
S'sharp'
p554
I0
tp555
a(I855
I3
F-0.125
S'front'
p556
I0
tp557
a(I855
I3
F1.0
S'good'
p558
I0
tp559
a(I857
I0
I0
S'rear'
p560
I0
tp561
a(I857
I0
I0
S'rear'
p562
I0
tp563
a(I857
I0
F1.0
S'good'
p564
I0
tp565
a(I929
I0
F0.875
S'nice'
p566
I0
tp567
a(I993
I0
F0.875
g475
I0
tp568
a(I1062
I18
F-1.0
S'bad'
p569
I0
tp570
a(I1062
I18
F-0.875
S'poor'
p571
I0
tp572
a(I1069
I0
F1.0
S'good'
p573
I0
tp574
a(I1096
I3
F0.875
S'decent'
p575
I0
tp576
a(I1160
I3
F1.0
S'good'
p577
I0
tp578
a(I1307
I2
F-0.875
S'poor'
p579
I0
tp580
a(I1331
I26
I0
g509
I0
tp581
a(I1336
I0
F1.0
g519
I0
tp582
a(I1371
I15
F-0.125
S'front'
p583
I0
tp584
a(I1479
I17
F-0.25
S'google'
p585
I0
tp586
a(I1479
I17
F-0.875
S'bit'
p587
I0
tp588
as(S'dolby'
p589
S'atmos'
p590
S'sound'
p591
tp592
(lp593
(I399
I3
F0.5
S'crisp'
p594
I0
tp595
a(I399
I3
I0
S'clear'
p596
I0
tp597
a(I406
I0
I0
S'dolby'
p598
I0
tp599
a(I491
I33
F0.625
S'crystalline'
p600
I0
tp601
a(I510
I0
F0.875
S'awesome'
p602
I0
tp603
a(I624
I0
F0.875
S'awesome'
p604
I0
tp605
a(I856
I1
F0.875
S'awesome'
p606
I0
tp607
a(I856
I1
I0
S'dolby'
p608
I0
tp609
a(I1107
I0
F0.375
S'enhancement'
p610
I0
tp611
a(I1223
I1
I0
S'dolby'
p612
I0
tp613
a(I1223
I1
F0.875
S'great'
p614
I0
tp615
a(I0
I1
F0.875
S'great'
p616
I0
tp617
a(I180
I0
F1.0
S'good'
p618
I0
tp619
a(I180
I0
F1.0
S'best'
p620
I0
tp621
a(I191
I1
F0.125
S'digital'
p622
I0
tp623
a(I207
I2
I0
S'dolby'
p624
I0
tp625
a(I306
I6
F0.875
S'awesome'
p626
I0
tp627
a(I317
I20
F0.875
S'great'
p628
I0
tp629
a(I399
I3
F0.5
g594
I0
tp630
a(I399
I3
I0
g596
I0
tp631
a(I491
I33
F0.625
g600
I0
tp632
a(I510
I0
F0.875
g602
I0
tp633
a(I624
I0
F0.875
g604
I0
tp634
a(I649
I8
F1.0
S'good'
p635
I0
tp636
a(I709
I1
F1.0
S'good'
p637
I0
tp638
a(I845
I6
F0.875
S'awesome'
p639
I0
tp640
a(I856
I1
F0.875
g606
I0
tp641
a(I901
I7
F0.625
S'applaudable'
p642
I0
tp643
a(I1153
I7
F0.75
S'sound'
p644
I0
tp645
a(I1206
I6
F0.125
S'digital'
p646
I0
tp647
a(I1222
I4
I0
S'clear'
p648
I0
tp649
a(I1318
I6
F1.0
S'good'
p650
I0
tp651
a(I1318
I6
F-0.5
S'loud'
p652
I0
tp653
a(I1318
I6
F0.875
S'nice'
p654
I0
tp655
a(I1318
I6
F0.875
S'sweet'
p656
I0
tp657
a(I1335
I7
I0
S'dolby'
p658
I0
tp659
a(I1389
I0
F1.0
S'good'
p660
I0
tp661
a(I1438
I18
I0
S'dolby'
p662
I0
tp663
a(I1438
I18
F0.125
S'digital'
p664
I0
tp665
a(I36
I13
F1.0
S'good'
p666
I0
tp667
a(I230
I25
F0.875
S'great'
p668
I0
tp669
a(I406
I0
I0
g598
I0
tp670
a(I525
I1
F0.25
S'special'
p671
I0
tp672
a(I624
I0
F0.875
g604
I0
tp673
a(I741
I0
I0
S'dolby'
p674
I0
tp675
a(I741
I0
F0.5
S'dual'
p676
I0
tp677
a(I856
I1
I0
g608
I0
tp678
a(I1107
I0
F0.375
g610
I0
tp679
a(I1223
I1
I0
g612
I0
tp680
a(I1223
I1
F0.875
g614
I0
tp681
a(I1371
I3
F0.625
S'fine'
p682
I0
tp683
a(I1371
I3
F0.875
S'nice'
p684
I0
tp685
a(I1371
I10
F0.875
S'amazing'
p686
I0
tp687
a(I36
I13
F1.0
g666
I0
tp688
a(I98
I6
F0.875
S'superb'
p689
I0
tp690
a(I191
I1
F0.125
g622
I0
tp691
a(I241
I21
F0.875
S'amazing'
p692
I0
tp693
a(I525
I1
F0.25
g671
I0
tp694
a(I537
I0
I0
S'atom'
p695
I0
tp696
a(I624
I0
F0.875
g604
I0
tp697
a(I830
I6
F1.0
S'excellent'
p698
I0
tp699
a(I845
I6
F0.875
g639
I0
tp700
a(I855
I7
F1.0
S'good'
p701
I0
tp702
a(I1153
I7
F0.75
g644
I0
tp703
a(I1206
I6
F0.125
g646
I0
tp704
a(I1289
I0
F-0.625
S'double'
p705
I0
tp706
a(I1318
I6
F1.0
g650
I0
tp707
a(I1318
I6
F-0.5
g652
I0
tp708
a(I1371
I3
F0.625
g682
I0
tp709
a(I1371
I3
F0.875
g684
I0
tp710
a(I230
I25
F0.875
g668
I0
tp711
a(I406
I0
I0
g598
I0
tp712
a(I741
I0
I0
g674
I0
tp713
a(I741
I0
F0.5
g676
I0
tp714
a(I856
I1
I0
g608
I0
tp715
a(I1107
I0
F0.375
g610
I0
tp716
a(I1223
I1
I0
g612
I0
tp717
a(I1223
I1
F0.875
g614
I0
tp718
a(I1371
I10
F0.875
g686
I0
tp719
as(S'good'
p720
S'in'
p721
S'looks'
p722
tp723
(lp724
(I206
I3
F1.0
S'good'
p725
I0
tp726
a(I206
I3
F0.5
S'slim'
p727
I0
tp728
a(I640
I1
F1.0
S'good'
p729
I0
tp730
a(I977
I0
F1.0
S'good'
p731
I0
tp732
a(I977
I0
F0.5
S'slim'
p733
I0
tp734
a(I1051
I2
F0.125
S'mobile'
p735
I0
tp736
a(I1051
I2
F1.0
S'good'
p737
I0
tp738
a(I1076
I1
F0.875
S'awesome'
p739
I0
tp740
a(I1606
I1
F1.0
S'good'
p741
I0
tp742
a(I1606
I1
F0.5
S'slim'
p743
I0
tp744
a(I123
I0
F1.0
S'good'
p745
I14
tp746
a(I206
I0
F0.875
S'awesome'
p747
I14
tp748
a(I206
I3
F1.0
g725
I14
tp749
a(I206
I3
F0.5
g727
I14
tp750
a(I384
I10
F0.875
S'great'
p751
I14
tp752
a(I434
I18
F1.0
S'good'
p753
I14
tp754
a(I471
I1
I0
S'n'
p755
I14
tp756
a(I481
I16
F0.875
S'great'
p757
I14
tp758
a(I484
I0
I-100
S'primium'
p759
I14
tp760
a(I490
I18
F-0.125
S'overall'
p761
I14
tp762
a(I515
I1
F0.25
S'particular'
p763
I14
tp764
a(I538
I0
F0.5
S'elegant'
p765
I14
tp766
a(I582
I1
F0.875
S'nice'
p767
I14
tp768
a(I640
I1
F1.0
g729
I14
tp769
a(I810
I1
F1.0
S'good'
p770
I14
tp771
a(I841
I19
F0.5
S'stylish'
p772
I14
tp773
a(I879
I0
F1.0
S'better'
p774
I14
tp775
a(I883
I1
F0.875
S'decent'
p776
I14
tp777
a(I903
I2
F0.875
S'attractive'
p778
I14
tp779
a(I920
I1
F0.875
S'nice'
p780
I14
tp781
a(I926
I0
F1.0
S'good'
p782
I14
tp783
a(I977
I0
F1.0
g731
I14
tp784
a(I977
I0
F0.5
g733
I14
tp785
a(I995
I9
F0.875
S'awesome'
p786
I14
tp787
a(I1051
I2
F0.125
g735
I14
tp788
a(I1051
I2
F1.0
g737
I14
tp789
a(I1052
I15
F0.875
S'amazing'
p790
I14
tp791
a(I1076
I1
F0.875
g739
I14
tp792
a(I1077
I14
F1.0
S'good'
p793
I14
tp794
a(I1077
I14
F0.5
S'stylish'
p795
I14
tp796
a(I1105
I1
F1.0
S'good'
p797
I14
tp798
a(I1160
I15
F0.5
S'elegant'
p799
I14
tp800
a(I1160
I15
I0
S'n'
p801
I14
tp802
a(I1175
I4
F1.0
S'good'
p803
I14
tp804
a(I1211
I0
F0.75
S'fantastic'
p805
I14
tp806
a(I1227
I0
F1.0
S'good'
p807
I14
tp808
a(I1307
I3
F1.0
S'good'
p809
I14
tp810
a(I1346
I1
F1.0
S'good'
p811
I14
tp812
a(I1515
I5
I-100
S'itz'
p813
I14
tp814
a(I1521
I1
F1.0
S'good'
p815
I14
tp816
a(I1528
I13
F-0.75
S'deceptive'
p817
I14
tp818
a(I1606
I1
F1.0
g741
I14
tp819
a(I1606
I1
F0.5
g743
I14
tp820
as(S'waste'
p821
S'of'
p822
S'money'
p823
tp824
(lp825
(I1412
I10
F0.75
S'complete'
p826
I5
tp827
a(I1412
I10
F-0.875
S'hard'
p828
I5
tp829
as(S'ws'
p830
S'retail'
p831
tp832
(lp833
(I1495
I2
I0
S'retail'
p834
I0
tp835
as(S'quality'
p836
S'very'
p837
S'good'
p838
tp839
(lp840
(I306
I10
F0.75
S'sound'
p841
I0
tp842
a(I306
I10
F-0.5
S'original'
p843
I0
tp844
a(I315
I1
F1.0
S'good'
p845
I0
tp846
a(I467
I0
F0.75
S'sound'
p847
I0
tp848
a(I467
I0
F1.0
S'good'
p849
I0
tp850
a(I544
I0
F1.0
S'good'
p851
I0
tp852
a(I631
I3
F1.0
S'good'
p853
I0
tp854
a(I654
I0
F0.875
S'decent'
p855
I0
tp856
a(I898
I8
F0.75
S'sound'
p857
I0
tp858
a(I898
I8
F1.0
S'good'
p859
I0
tp860
a(I993
I0
F1.0
g477
I0
tp861
a(I1050
I0
F1.0
S'good'
p862
I0
tp863
a(I1077
I4
F0.5
S'high'
p864
I0
tp865
a(I1230
I2
F-0.875
S'poor'
p866
I0
tp867
a(I1230
I3
F1.0
S'good'
p868
I0
tp869
a(I1318
I8
F1.0
S'good'
p870
I0
tp871
a(I1331
I26
F1.0
g511
I0
tp872
a(I1336
I0
F1.0
g513
I0
tp873
a(I1336
I0
F0.75
g515
I0
tp874
a(I1336
I0
F0.5
g517
I0
tp875
a(I1371
I0
I0
g521
I0
tp876
a(I225
I1
I0
S'u'
p877
I0
tp878
a(I261
I31
F1.0
S'good'
p879
I0
tp880
a(I288
I16
F1.0
S'good'
p881
I0
tp882
a(I306
I10
F0.75
g841
I0
tp883
a(I306
I10
F-0.5
g843
I0
tp884
a(I315
I1
F1.0
g845
I0
tp885
a(I332
I11
I0
g447
I0
tp886
a(I335
I4
F-0.125
S'such'
p887
I0
tp888
a(I369
I11
F1.0
S'good'
p889
I0
tp890
a(I413
I0
F0.75
S'sound'
p891
I0
tp892
a(I413
I0
F1.0
S'good'
p893
I0
tp894
a(I467
I0
F0.75
g847
I0
tp895
a(I467
I0
F1.0
g849
I0
tp896
a(I467
I4
F1.0
g455
I0
tp897
a(I490
I13
F1.0
S'good'
p898
I0
tp899
a(I610
I1
F0.75
S'sound'
p900
I0
tp901
a(I610
I1
F1.0
S'good'
p902
I0
tp903
a(I610
I6
F1.0
g457
I0
tp904
a(I631
I3
F1.0
g853
I0
tp905
a(I654
I0
F0.875
g855
I0
tp906
a(I700
I6
F1.0
S'good'
p907
I0
tp908
a(I704
I3
F1.0
S'good'
p909
I0
tp910
a(I731
I19
F1.0
S'good'
p911
I0
tp912
a(I756
I7
F1.0
S'good'
p913
I0
tp914
a(I799
I21
I0
S'build'
p915
I0
tp916
a(I799
I21
F0.875
S'great'
p917
I0
tp918
a(I879
I6
F0.75
S'sound'
p919
I0
tp920
a(I898
I8
F0.75
g857
I0
tp921
a(I898
I8
F1.0
g859
I0
tp922
a(I901
I3
F1.0
S'good'
p923
I0
tp924
a(I993
I0
F1.0
g477
I0
tp925
a(I1000
I2
F1.0
S'good'
p926
I0
tp927
a(I1050
I0
F1.0
g862
I0
tp928
a(I1051
I10
F0.625
g481
I0
tp929
a(I1051
I10
F-1.0
g483
I0
tp930
a(I1060
I17
I-100
S'inear'
p931
I0
tp932
a(I1060
I17
F1.0
S'good'
p933
I0
tp934
a(I1077
I4
F0.5
g864
I0
tp935
a(I1097
I2
F1.0
g487
I0
tp936
a(I1153
I11
F1.0
S'good'
p937
I0
tp938
a(I1160
I10
F1.0
S'good'
p939
I0
tp940
a(I1160
I10
F1.0
S'better'
p941
I0
tp942
a(I1173
I1
F1.0
g493
I0
tp943
a(I1207
I0
F1.0
S'good'
p944
I0
tp945
a(I1207
I4
F1.0
S'good'
p946
I0
tp947
a(I1223
I6
F1.0
S'good'
p948
I0
tp949
a(I1224
I3
F0.875
S'awesome'
p950
I0
tp951
a(I1230
I2
F-0.875
g866
I0
tp952
a(I1230
I3
F1.0
g868
I0
tp953
a(I1230
I8
F0.5
S'satisfactory'
p954
I0
tp955
a(I1239
I0
F1.0
g495
I0
tp956
a(I1239
I0
F0.625
g497
I0
tp957
a(I1242
I0
F1.0
S'good'
p958
I0
tp959
a(I1282
I0
F-0.625
g503
I0
tp960
a(I1298
I1
F1.0
S'good'
p961
I0
tp962
a(I1299
I1
F1.0
g505
I0
tp963
a(I1299
I1
F0.375
g507
I0
tp964
a(I1318
I8
F1.0
g870
I0
tp965
a(I1331
I26
F1.0
g511
I0
tp966
a(I1332
I0
F1.0
S'good'
p967
I0
tp968
a(I1332
I4
F0.75
S'sound'
p969
I0
tp970
a(I1332
I4
F1.0
S'good'
p971
I0
tp972
a(I1336
I0
F1.0
g513
I0
tp973
a(I1336
I0
F0.75
g515
I0
tp974
a(I1336
I0
F0.5
g517
I0
tp975
a(I1339
I8
F0.75
S'sound'
p976
I0
tp977
a(I1339
I8
F1.0
S'good'
p978
I0
tp979
a(I1371
I0
I0
g521
I0
tp980
a(I1397
I8
F1.0
S'good'
p981
I0
tp982
a(I1442
I3
F-0.25
S'i'
p983
I0
tp984
a(I1442
I3
I0
S'hardware'
p985
I0
tp986
a(I1442
I3
F1.0
S'good'
p987
I0
tp988
a(I1561
I6
F0.75
S'sound'
p989
I0
tp990
a(I1561
I6
F1.0
S'good'
p991
I0
tp992
as(S'of'
p993
S'heating'
p994
S'issue'
p995
tp996
(lp997
(I294
I0
F0.375
S'heating'
p998
I0
tp999
a(I492
I9
F0.375
S'observe'
p1000
I0
tp1001
a(I549
I1
F-0.375
S'generic'
p1002
I0
tp1003
a(I556
I0
F0.375
S'much'
p1004
I0
tp1005
a(I556
I0
I0
S'many'
p1006
I0
tp1007
a(I856
I14
I0
S's'
p1008
I0
tp1009
a(I890
I1
F0.625
S'major'
p1010
I0
tp1011
a(I890
I1
F0.625
S'correct'
p1012
I0
tp1013
a(I1051
I2
F0.375
S'heating'
p1014
I0
tp1015
a(I1051
I6
F0.125
S'mobile'
p1016
I0
tp1017
a(I1176
I9
F0.75
S'due'
p1018
I0
tp1019
a(I1181
I3
F0.375
S'heating'
p1020
I0
tp1021
a(I1181
I3
F0.375
S'much'
p1022
I0
tp1023
a(I1575
I6
F0.375
S'heating'
p1024
I0
tp1025
as(S'issue'
p1026
S'after'
p1027
S'update'
p1028
tp1029
(lp1030
(I487
I0
F0.375
S'heating'
p1031
I0
tp1032
a(I597
I10
F0.375
S'heating'
p1033
I0
tp1034
a(I655
I3
F0.625
S'first'
p1035
I0
tp1036
a(I662
I8
F-0.125
S'present'
p1037
I0
tp1038
a(I693
I0
I0
S'update'
p1039
I0
tp1040
a(I846
I12
F0.375
S'heating'
p1041
I0
tp1042
a(I980
I6
I0
S'firmware'
p1043
I0
tp1044
a(I1119
I4
I0
S'update'
p1045
I0
tp1046
a(I1181
I3
F0.375
g1020
I0
tp1047
a(I1565
I10
F-0.25
S'latest'
p1048
I0
tp1049
a(I1565
I10
F0.375
S'heating'
p1050
I0
tp1051
a(I40
I2
F-0.125
S'next'
p1052
I1
tp1053
a(I222
I10
F-0.75
S'single'
p1054
I1
tp1055
a(I332
I5
I0
S't'
p1056
I1
tp1057
a(I332
I5
F-0.625
S'new'
p1058
I1
tp1059
a(I434
I11
F-0.125
S'next'
p1060
I1
tp1061
a(I491
I48
F0.625
S'major'
p1062
I1
tp1063
a(I534
I2
I0
S'initial'
p1064
I1
tp1065
a(I655
I3
F0.625
g1035
I1
tp1066
a(I837
I5
I-100
S'android6'
p1067
I1
tp1068
a(I980
I6
I0
g1043
I1
tp1069
a(I995
I9
F-0.125
S'marshmallow'
p1070
I1
tp1071
a(I1062
I14
F-0.125
S'next'
p1072
I1
tp1073
a(I1081
I8
F0.75
S'perfect'
p1074
I1
tp1075
a(I1267
I3
F-0.875
S'small'
p1076
I1
tp1077
a(I1395
I1
F-0.125
S'marshmallow'
p1078
I1
tp1079
a(I1565
I10
F-0.25
g1048
I1
tp1080
a(I1568
I3
F-0.625
S'new'
p1081
I1
tp1082
as(S'some'
p1083
S'heating'
p1084
S'problem'
p1085
tp1086
(lp1087
(I434
I20
F-0.75
S'little'
p1088
I1
tp1089
a(I951
I0
F-0.25
S'i'
p1090
I1
tp1091
a(I995
I9
I0
S'more'
p1092
I1
tp1093
a(I43
I3
F0.375
S'satisfied'
p1094
I6
tp1095
a(I93
I1
I0
S'comfortable'
p1096
I6
tp1097
a(I156
I18
F0.625
S'major'
p1098
I6
tp1099
a(I162
I4
I0
S'main'
p1100
I6
tp1101
a(I162
I4
F-0.75
S'abnormal'
p1102
I6
tp1103
a(I206
I1
I0
S'drastic'
p1104
I6
tp1105
a(I233
I0
F-1.0
S'worst'
p1106
I6
tp1107
a(I233
I0
F0.125
S'mobile'
p1108
I6
tp1109
a(I241
I11
F0.625
S'major'
p1110
I6
tp1111
a(I241
I15
F-0.625
S'intolerable'
p1112
I6
tp1113
a(I317
I2
F-0.125
S'present'
p1114
I6
tp1115
a(I335
I3
I0
S'serious'
p1116
I6
tp1117
a(I434
I20
F-0.75
g1088
I6
tp1118
a(I461
I1
F0.5
S'slight'
p1119
I6
tp1120
a(I471
I12
F0.875
S'happy'
p1121
I6
tp1122
a(I589
I7
F-0.75
S'little'
p1123
I6
tp1124
a(I598
I1
F-0.125
S'overall'
p1125
I6
tp1126
a(I653
I8
F-0.75
S'little'
p1127
I6
tp1128
a(I744
I0
F-0.75
S'little'
p1129
I6
tp1130
a(I757
I0
I0
S'different'
p1131
I6
tp1132
a(I762
I2
F-0.75
S'little'
p1133
I6
tp1134
a(I822
I3
F0.625
S'major'
p1135
I6
tp1136
a(I822
I3
I0
S'phon'
p1137
I6
tp1138
a(I828
I5
F0.375
S'much'
p1139
I6
tp1140
a(I883
I0
F0.625
S'major'
p1141
I6
tp1142
a(I902
I15
I0
S'massive'
p1143
I6
tp1144
a(I951
I0
F-0.25
g1090
I6
tp1145
a(I972
I3
F-1.0
S'bad'
p1146
I6
tp1147
a(I995
I9
I0
g1092
I6
tp1148
a(I1033
I0
F1.0
S'good'
p1149
I6
tp1150
a(I1052
I17
I0
S's'
p1151
I6
tp1152
a(I1060
I0
F-0.125
S'huge'
p1153
I6
tp1154
a(I1064
I2
F0.375
S'much'
p1155
I6
tp1156
a(I1155
I1
I0
S'only'
p1157
I6
tp1158
a(I1267
I5
F0.75
g47
I6
tp1159
a(I1308
I0
F-0.75
S'single'
p1160
I6
tp1161
a(I1386
I1
F0.5
S'high'
p1162
I6
tp1163
a(I1490
I4
F0.125
S'mobile'
p1164
I6
tp1165
a(I1490
I4
F0.375
S'heating'
p1166
I6
tp1167
a(I1492
I4
I0
S'main'
p1168
I6
tp1169
a(I1509
I0
F0.125
S'mobile'
p1170
I6
tp1171
a(I1578
I0
F0.375
S'much'
p1172
I6
tp1173
as(S'camera'
p1174
S'not'
p1175
S'good'
p1176
tp1177
(lp1178
(I98
I0
F-0.5
S'negligible'
p1179
I1
tp1180
a(I114
I5
F1.0
S'good'
p1181
I1
tp1182
a(I154
I1
F1.0
S'good'
p1183
I1
tp1184
a(I199
I0
F-0.125
S'front'
p1185
I1
tp1186
a(I229
I11
F1.0
g530
I1
tp1187
a(I283
I4
F1.0
S'good'
p1188
I1
tp1189
a(I288
I18
F0.375
S'ok'
p1190
I1
tp1191
a(I288
I31
F1.0
S'good'
p1192
I1
tp1193
a(I288
I31
F-0.125
S'front'
p1194
I1
tp1195
a(I288
I31
F1.0
S'good'
p1196
I1
tp1197
a(I304
I0
I0
S'rear'
p1198
I1
tp1199
a(I304
I0
F1.0
S'good'
p1200
I1
tp1201
a(I335
I4
F1.0
S'good'
p1202
I1
tp1203
a(I341
I4
F1.0
S'good'
p1204
I1
tp1205
a(I341
I4
I0
S'rear'
p1206
I1
tp1207
a(I341
I4
F0.5
S'like'
p1208
I1
tp1209
a(I431
I0
F1.0
S'good'
p1210
I1
tp1211
a(I610
I4
I0
S'n'
p1212
I1
tp1213
a(I610
I4
F1.0
S'good'
p1214
I1
tp1215
a(I625
I0
F1.0
S'good'
p1216
I1
tp1217
a(I626
I8
F1.0
S'good'
p1218
I1
tp1219
a(I626
I8
F0.375
S'impressive'
p1220
I1
tp1221
a(I649
I7
F1.0
S'good'
p1222
I1
tp1223
a(I671
I2
F0.625
S'okay'
p1224
I1
tp1225
a(I703
I7
F1.0
g463
I1
tp1226
a(I709
I0
F1.0
S'good'
p1227
I1
tp1228
a(I742
I0
F-0.875
S'low'
p1229
I1
tp1230
a(I742
I0
I0
S'light'
p1231
I1
tp1232
a(I770
I1
F-0.125
g550
I1
tp1233
a(I770
I1
F1.0
g552
I1
tp1234
a(I770
I3
F1.0
S'good'
p1235
I1
tp1236
a(I798
I3
F1.0
S'good'
p1237
I1
tp1238
a(I799
I29
F-0.125
S'front'
p1239
I1
tp1240
a(I799
I29
F1.0
S'good'
p1241
I1
tp1242
a(I799
I29
F-0.125
S'back'
p1243
I1
tp1244
a(I839
I4
F1.0
S'good'
p1245
I1
tp1246
a(I857
I0
I0
g560
I1
tp1247
a(I857
I0
I0
g562
I1
tp1248
a(I857
I0
F1.0
g564
I1
tp1249
a(I898
I0
F0.75
S'primary'
p1250
I1
tp1251
a(I898
I0
F-0.75
S'secondary'
p1252
I1
tp1253
a(I901
I11
F0.75
S'primary'
p1254
I1
tp1255
a(I901
I11
F1.0
S'good'
p1256
I1
tp1257
a(I993
I0
F0.875
g475
I1
tp1258
a(I995
I12
F1.0
S'good'
p1259
I1
tp1260
a(I1065
I0
F1.0
S'good'
p1261
I1
tp1262
a(I1076
I1
F1.0
S'good'
p1263
I1
tp1264
a(I1077
I22
F1.0
S'good'
p1265
I1
tp1266
a(I1077
I22
F1.0
S'excellent'
p1267
I1
tp1268
a(I1230
I8
F1.0
S'good'
p1269
I1
tp1270
a(I1267
I14
F1.0
S'good'
p1271
I1
tp1272
a(I1277
I8
I0
S'rear'
p1273
I1
tp1274
a(I1277
I8
F1.0
S'good'
p1275
I1
tp1276
a(I1277
I8
F1.0
S'good'
p1277
I1
tp1278
a(I1309
I1
F0.75
S'primary'
p1279
I1
tp1280
a(I1309
I1
F1.0
S'good'
p1281
I1
tp1282
a(I1319
I7
F0.375
S'ok'
p1283
I1
tp1284
a(I1319
I7
F1.0
S'good'
p1285
I1
tp1286
a(I1336
I0
F1.0
g519
I1
tp1287
a(I1337
I4
F1.0
S'good'
p1288
I1
tp1289
a(I1339
I9
F1.0
S'good'
p1290
I1
tp1291
a(I1339
I9
I0
S'below'
p1292
I1
tp1293
a(I1458
I11
F1.0
S'good'
p1294
I1
tp1295
a(I1470
I5
F-0.5
S'less'
p1296
I1
tp1297
a(I1470
I5
F-0.875
S'unhappy'
p1298
I1
tp1299
a(I1470
I5
F-1.0
S'bad'
p1300
I1
tp1301
a(I1470
I5
F1.0
S'good'
p1302
I1
tp1303
a(I1479
I17
F-0.25
g585
I1
tp1304
a(I1479
I17
F-0.875
g587
I1
tp1305
a(I1562
I0
F1.0
S'good'
p1306
I1
tp1307
as(S'no'
p1308
S'heating'
p1309
S'issue'
p1310
tp1311
(lp1312
(I294
I0
F0.375
g998
I0
tp1313
a(I514
I5
F0.625
S'fine'
p1314
I0
tp1315
a(I556
I0
F0.375
g1004
I0
tp1316
a(I556
I0
I0
g1006
I0
tp1317
a(I597
I2
F0.375
S'heating'
p1318
I0
tp1319
a(I597
I6
F0.375
S'heating'
p1320
I0
tp1321
a(I597
I10
F0.375
g1033
I0
tp1322
a(I649
I15
F1.0
S'good'
p1323
I0
tp1324
a(I678
I0
F-0.125
S'overall'
p1325
I0
tp1326
a(I678
I0
F0.875
S'nice'
p1327
I0
tp1328
a(I693
I0
I0
g1039
I0
tp1329
a(I846
I12
F0.375
g1041
I0
tp1330
a(I857
I0
F0.375
S'much'
p1331
I0
tp1332
a(I890
I1
F0.625
g1010
I0
tp1333
a(I890
I1
F0.625
g1012
I0
tp1334
a(I903
I10
I0
S'normal'
p1335
I0
tp1336
a(I903
I10
F0.625
S'acceptable'
p1337
I0
tp1338
a(I971
I9
F-0.125
S'such'
p1339
I0
tp1340
a(I986
I11
F0.375
S'heating'
p1341
I0
tp1342
a(I1051
I6
F0.125
g1016
I0
tp1343
a(I1123
I35
F0.375
S'notable'
p1344
I0
tp1345
a(I1181
I3
F0.375
g1020
I0
tp1346
a(I1181
I3
F0.375
g1022
I0
tp1347
a(I1222
I0
F0.375
S'much'
p1348
I0
tp1349
a(I1331
I30
F0.375
S'heating'
p1350
I0
tp1351
a(I1540
I0
F-0.625
S'overheating'
p1352
I0
tp1353
a(I1565
I10
F0.375
g1050
I0
tp1354
a(I1582
I5
I0
S'extreme'
p1355
I0
tp1356
a(I1582
I5
F0.5
S'high'
p1357
I0
tp1358
as(S'design'
p1359
tp1360
(lp1361
(I129
I1
I0
S'n'
p1362
I4
tp1363
a(I207
I2
F-0.75
S'exclusive'
p1364
I4
tp1365
a(I316
I0
I0
S'light'
p1366
I4
tp1367
a(I316
I0
F0.5
S'weight'
p1368
I4
tp1369
a(I316
I0
F0.75
S'easy'
p1370
I4
tp1371
a(I472
I1
F0.875
S'great'
p1372
I4
tp1373
a(I554
I0
F1.0
S'good'
p1374
I4
tp1375
a(I700
I8
F1.0
S'good'
p1376
I4
tp1377
a(I745
I6
F0.375
S'sleek'
p1378
I4
tp1379
a(I810
I2
F1.0
S'good'
p1380
I4
tp1381
a(I996
I0
F1.0
S'good'
p1382
I4
tp1383
a(I1088
I0
F-0.75
S'exclusive'
p1384
I4
tp1385
a(I1096
I7
F0.375
S'sleek'
p1386
I4
tp1387
a(I1096
I7
I0
S'light'
p1388
I4
tp1389
a(I1099
I0
F0.375
S'sleek'
p1390
I4
tp1391
a(I1167
I0
F1.0
S'good'
p1392
I4
tp1393
a(I1268
I0
F0.375
S'sleek'
p1394
I4
tp1395
a(I1277
I4
F0.5
S'stylish'
p1396
I4
tp1397
a(I1277
I6
F0.75
S'premium'
p1398
I4
tp1399
a(I1513
I0
F0.75
S'wonderful'
p1400
I4
tp1401
a(I1557
I4
F-0.25
S'i'
p1402
I4
tp1403
a(I1563
I0
F1.0
S'good'
p1404
I4
tp1405
a(I1604
I1
I0
S'n'
p1406
I4
tp1407
as(S'in'
p1408
S'low'
p1409
S'light'
p1410
tp1411
(lp1412
(I230
I10
F-0.875
S'low'
p1413
I2
tp1414
a(I281
I0
F-0.875
S'low'
p1415
I2
tp1416
a(I316
I4
F-0.875
S'low'
p1417
I2
tp1418
a(I501
I0
F-0.875
S'low'
p1419
I2
tp1420
a(I696
I1
F-0.875
S'low'
p1421
I2
tp1422
a(I703
I3
F-0.875
S'low'
p1423
I2
tp1424
a(I703
I3
I0
S'clear'
p1425
I2
tp1426
a(I716
I7
F-0.875
S'low'
p1427
I2
tp1428
a(I716
I7
I0
S'clear'
p1429
I2
tp1430
a(I775
I4
F-0.875
S'low'
p1431
I2
tp1432
a(I898
I0
F-0.875
S'low'
p1433
I2
tp1434
a(I921
I1
F-0.875
S'low'
p1435
I2
tp1436
a(I1119
I7
F-0.875
S'low'
p1437
I2
tp1438
a(I1330
I9
F-0.875
S'low'
p1439
I2
tp1440
a(I1506
I3
F-0.875
S'low'
p1441
I2
tp1442
a(I1506
I3
I0
S'clear'
p1443
I2
tp1444
a(I230
I10
F-0.875
g1413
I2
tp1445
a(I281
I0
F-0.875
g1415
I2
tp1446
a(I288
I18
F-0.875
S'low'
p1447
I2
tp1448
a(I316
I4
F-0.875
g1417
I2
tp1449
a(I501
I0
F-0.875
g1419
I2
tp1450
a(I696
I1
F-0.875
g1421
I2
tp1451
a(I703
I3
F-0.875
g1423
I2
tp1452
a(I703
I3
I0
g1425
I2
tp1453
a(I716
I7
F-0.875
g1427
I2
tp1454
a(I716
I7
I0
g1429
I2
tp1455
a(I775
I4
F-0.875
g1431
I2
tp1456
a(I898
I0
F-0.875
g1433
I2
tp1457
a(I921
I1
F-0.875
g1435
I2
tp1458
a(I1119
I7
F-0.875
g1437
I2
tp1459
a(I1330
I9
F-0.875
g1439
I2
tp1460
a(I1506
I3
F-0.875
g1441
I2
tp1461
a(I1506
I3
I0
g1443
I2
tp1462
as(S'heats'
p1463
tp1464
(lp1465
(I587
I1
F0.625
S'first'
p1466
I8
tp1467
a(I888
I0
F0.5
S'high'
p1468
I8
tp1469
a(I1238
I2
F0.125
S'mobile'
p1470
I8
tp1471
a(I1302
I2
I0
S'lags'
p1472
I8
tp1473
as(S'build'
p1474
S'quality'
p1475
tp1476
(lp1477
(I173
I0
F-0.875
S'cheap'
p1478
I2
tp1479
a(I574
I0
F1.0
S'good'
p1480
I2
tp1481
a(I763
I17
I0
S'build'
p1482
I2
tp1483
a(I799
I21
I0
g915
I2
tp1484
a(I799
I21
F0.875
g917
I2
tp1485
a(I1114
I1
F1.0
S'good'
p1486
I2
tp1487
a(I1211
I0
F0.875
S'great'
p1488
I2
tp1489
a(I1211
I0
I0
S'build'
p1490
I2
tp1491
a(I1339
I0
I0
S'build'
p1492
I2
tp1493
a(I1565
I11
F0.625
S'super'
p1494
I2
tp1495
as(S'flip'
p1496
S'kart'
p1497
tp1498
(lp1499
(I1563
I1
F-0.5
S'flip'
p1500
I1
tp1501
a(I1564
I1
F-0.5
S'flip'
p1502
I1
tp1503
a(I1575
I1
F-0.5
S'flip'
p1504
I1
tp1505
as(S'camera'
p1506
S'performance'
p1507
tp1508
(lp1509
(I65
I5
F1.0
S'better'
p1510
I0
tp1511
a(I152
I2
F-0.125
S'overall'
p1512
I0
tp1513
a(I206
I1
F-0.875
S'poor'
p1514
I0
tp1515
a(I230
I11
F-0.875
S'low'
p1516
I0
tp1517
a(I341
I0
F1.0
S'good'
p1518
I0
tp1519
a(I342
I7
F-0.625
S'average'
p1520
I0
tp1521
a(I634
I4
F1.0
S'good'
p1522
I0
tp1523
a(I742
I0
F-0.875
g1229
I0
tp1524
a(I742
I0
I0
g1231
I0
tp1525
a(I786
I18
F1.0
S'good'
p1526
I0
tp1527
a(I786
I18
F-0.625
g554
I0
tp1528
a(I846
I17
F-0.875
S'low'
p1529
I0
tp1530
a(I846
I17
I0
S'light'
p1531
I0
tp1532
a(I846
I17
F-0.75
S'little'
p1533
I0
tp1534
a(I846
I17
F-0.875
S'poor'
p1535
I0
tp1536
a(I898
I0
F0.75
g1250
I0
tp1537
a(I898
I0
F-0.75
g1252
I0
tp1538
a(I982
I3
F1.0
S'better'
p1539
I0
tp1540
a(I1096
I7
F0.875
S'great'
p1541
I0
tp1542
a(I1235
I0
F0.875
S'nice'
p1543
I0
tp1544
a(I1377
I3
F1.0
S'good'
p1545
I0
tp1546
a(I1377
I3
I0
S'clear'
p1547
I0
tp1548
a(I1479
I17
F1.0
S'good'
p1549
I0
tp1550
a(I1479
I17
F-0.25
g585
I0
tp1551
a(I1479
I17
F-0.875
g587
I0
tp1552
a(I1575
I1
F-0.875
S'poor'
p1553
I0
tp1554
a(I1575
I4
I0
S'camera'
p1555
I0
tp1556
a(I1599
I3
F1.0
S'better'
p1557
I0
tp1558
a(I89
I2
F0.125
S'mobile'
p1559
I13
tp1560
a(I122
I0
F0.125
S'mobile'
p1561
I13
tp1562
a(I125
I0
F0.875
S'happy'
p1563
I13
tp1564
a(I216
I2
I0
S'more'
p1565
I13
tp1566
a(I218
I3
F-1.0
S'bad'
p1567
I13
tp1568
a(I230
I11
F-0.875
g1516
I13
tp1569
a(I288
I0
F1.0
S'good'
p1570
I13
tp1571
a(I288
I0
F1.0
S'good'
p1572
I13
tp1573
a(I288
I15
F0.875
S'decent'
p1574
I13
tp1575
a(I332
I7
F0.375
S'satisfied'
p1576
I13
tp1577
a(I341
I0
F1.0
g1518
I13
tp1578
a(I341
I0
I-100
S'theatermax'
p1579
I13
tp1580
a(I369
I36
F0.875
S'great'
p1581
I13
tp1582
a(I388
I0
F0.875
S'happy'
p1583
I13
tp1584
a(I400
I1
F-1.0
S'bad'
p1585
I13
tp1586
a(I414
I0
F1.0
S'good'
p1587
I13
tp1588
a(I514
I7
I0
S'bright'
p1589
I13
tp1590
a(I514
I7
F1.0
S'good'
p1591
I13
tp1592
a(I551
I0
F-0.625
S'average'
p1593
I13
tp1594
a(I634
I4
F1.0
g1522
I13
tp1595
a(I640
I4
F1.0
S'good'
p1596
I13
tp1597
a(I655
I8
F1.0
S'good'
p1598
I13
tp1599
a(I713
I2
F0.5
S'stylish'
p1600
I13
tp1601
a(I713
I2
F0.875
S'nice'
p1602
I13
tp1603
a(I716
I2
F1.0
S'good'
p1604
I13
tp1605
a(I730
I6
F1.0
S'good'
p1606
I13
tp1607
a(I767
I9
F0.875
S'decent'
p1608
I13
tp1609
a(I786
I18
F1.0
g1526
I13
tp1610
a(I798
I2
F0.875
S'nice'
p1611
I13
tp1612
a(I805
I7
F-0.5
S'slow'
p1613
I13
tp1614
a(I805
I8
F-0.125
S'overall'
p1615
I13
tp1616
a(I817
I5
F-0.375
S'struck'
p1617
I13
tp1618
a(I839
I6
F0.875
S'great'
p1619
I13
tp1620
a(I839
I6
F0.875
S'great'
p1621
I13
tp1622
a(I841
I13
F1.0
S'good'
p1623
I13
tp1624
a(I846
I15
F-0.125
S'overall'
p1625
I13
tp1626
a(I846
I15
F1.0
S'good'
p1627
I13
tp1628
a(I846
I17
F-0.75
g1533
I13
tp1629
a(I846
I17
F-0.875
g1535
I13
tp1630
a(I856
I26
F-0.125
S'overall'
p1631
I13
tp1632
a(I980
I22
F0.375
S'much'
p1633
I13
tp1634
a(I986
I9
F-0.25
S'i'
p1635
I13
tp1636
a(I986
I9
I0
S't'
p1637
I13
tp1638
a(I991
I0
I-100
S'battrey'
p1639
I13
tp1640
a(I1006
I1
F1.0
S'better'
p1641
I13
tp1642
a(I1077
I33
F1.0
S'good'
p1643
I13
tp1644
a(I1077
I33
F1.0
S'best'
p1645
I13
tp1646
a(I1081
I9
F0.5
S'high'
p1647
I13
tp1648
a(I1081
I9
F1.0
S'good'
p1649
I13
tp1650
a(I1096
I7
F0.875
g1541
I13
tp1651
a(I1110
I2
F0.875
S'decent'
p1652
I13
tp1653
a(I1116
I1
F1.0
S'good'
p1654
I13
tp1655
a(I1205
I1
F1.0
S'good'
p1656
I13
tp1657
a(I1206
I3
F1.0
S'best'
p1658
I13
tp1659
a(I1235
I0
F0.875
g1543
I13
tp1660
a(I1272
I0
F0.5
S'touch'
p1661
I13
tp1662
a(I1272
I0
F0.625
S'smooth'
p1663
I13
tp1664
a(I1277
I7
F1.0
S'good'
p1665
I13
tp1666
a(I1287
I0
F0.375
S'ok'
p1667
I13
tp1668
a(I1297
I1
F1.0
S'good'
p1669
I13
tp1670
a(I1359
I1
F0.875
S'great'
p1671
I13
tp1672
a(I1377
I3
F1.0
g1545
I13
tp1673
a(I1387
I1
F1.0
S'good'
p1674
I13
tp1675
a(I1423
I5
F-0.625
S'average'
p1676
I13
tp1677
a(I1479
I17
F1.0
g1549
I13
tp1678
a(I1541
I4
F0.375
S'ok'
p1679
I13
tp1680
a(I1575
I4
I0
g1555
I13
tp1681
a(I1579
I3
F-1.0
S'bad'
p1682
I13
tp1683
as(S'think'
p1684
tp1685
(lp1686
(I804
I0
F0.75
S'perfect'
p1687
I16
tp1688
a(I804
I1
F0.625
S'acceptable'
p1689
I16
tp1690
as(S'a'
p1691
S'long'
p1692
S'time'
p1693
tp1694
(lp1695
(I129
I0
I0
S'net'
p1696
I0
tp1697
a(I129
I0
F-0.5
S'long'
p1698
I0
tp1699
a(I156
I23
F-0.5
S'long'
p1700
I0
tp1701
a(I288
I0
F-0.5
S'long'
p1702
I0
tp1703
a(I332
I25
F-0.5
S'long'
p1704
I0
tp1705
a(I332
I37
F-0.5
S'long'
p1706
I0
tp1707
a(I345
I14
F-0.5
S'long'
p1708
I0
tp1709
a(I385
I0
I0
S'net'
p1710
I0
tp1711
a(I385
I0
F-0.5
S'long'
p1712
I0
tp1713
a(I630
I2
F-0.5
S'long'
p1714
I0
tp1715
a(I630
I2
I0
S's'
p1716
I0
tp1717
a(I763
I14
F-0.5
S'long'
p1718
I0
tp1719
a(I884
I0
F-0.5
S'long'
p1720
I0
tp1721
a(I1077
I8
F-0.5
S'long'
p1722
I0
tp1723
a(I1245
I0
F-0.5
S'long'
p1724
I0
tp1725
a(I1277
I2
F-0.5
S'long'
p1726
I0
tp1727
a(I1277
I2
I0
S'normal'
p1728
I0
tp1729
a(I1408
I0
F-0.5
S'long'
p1730
I0
tp1731
a(I1578
I1
F-0.5
S'long'
p1732
I0
tp1733
a(I1604
I0
I0
S'net'
p1734
I0
tp1735
a(I1604
I0
F-0.5
S'long'
p1736
I0
tp1737
as(S'theater'
p1738
S'max'
p1739
tp1740
(lp1741
(I893
I3
F0.75
S'premium'
p1742
I0
tp1743
a(I893
I3
F0.875
S'awesome'
p1744
I0
tp1745
as(S'pros'
p1746
S'and'
p1747
S'cons'
p1748
tp1749
(lp1750
(I891
I1
I0
S's'
p1751
I0
tp1752
a(I1123
I13
F0.875
S'simple'
p1753
I0
tp1754
a(I648
I2
I0
S'many'
p1755
I2
tp1756
a(I891
I1
I0
g1751
I2
tp1757
a(I1123
I13
F0.875
g1753
I2
tp1758
a(I3
I1
I0
S'light'
p1759
I8
tp1760
a(I58
I0
F-0.875
S'limited'
p1761
I8
tp1762
a(I125
I9
I0
S'only'
p1763
I8
tp1764
a(I320
I1
I0
S'light'
p1765
I8
tp1766
a(I514
I12
F-0.75
S'minor'
p1767
I8
tp1768
a(I1110
I3
F0.625
S'major'
p1769
I8
tp1770
a(I1277
I3
I0
S'only'
p1771
I8
tp1772
as(S'quality'
p1773
S'not'
p1774
S'good'
p1775
tp1776
(lp1777
(I261
I31
F1.0
g879
I0
tp1778
a(I335
I4
F-0.125
g887
I0
tp1779
a(I731
I19
F1.0
g911
I0
tp1780
a(I756
I7
F1.0
g913
I0
tp1781
a(I763
I0
I-100
S'wrust'
p1782
I0
tp1783
a(I898
I8
F0.75
g857
I0
tp1784
a(I898
I8
F1.0
g859
I0
tp1785
a(I901
I3
F1.0
g923
I0
tp1786
a(I993
I0
F1.0
g477
I0
tp1787
a(I1051
I10
F0.625
g481
I0
tp1788
a(I1051
I10
F-1.0
g483
I0
tp1789
a(I1173
I1
F1.0
g493
I0
tp1790
a(I1230
I8
F0.5
g954
I0
tp1791
a(I1332
I0
F1.0
g967
I0
tp1792
a(I1336
I0
F1.0
g513
I0
tp1793
a(I1336
I0
F0.75
g515
I0
tp1794
a(I1336
I0
F0.5
g517
I0
tp1795
a(I1371
I0
I0
g521
I0
tp1796
a(I1442
I3
F-0.25
g983
I0
tp1797
a(I1442
I3
I0
g985
I0
tp1798
a(I1442
I3
F1.0
g987
I0
tp1799
as(S'no'
p1800
S'heating'
p1801
S'problem'
p1802
tp1803
(lp1804
(I43
I3
F0.375
g1094
I1
tp1805
a(I93
I1
I0
g1096
I1
tp1806
a(I162
I4
I0
g1100
I1
tp1807
a(I162
I4
F-0.75
g1102
I1
tp1808
a(I206
I1
I0
g1104
I1
tp1809
a(I233
I0
F-1.0
g1106
I1
tp1810
a(I233
I0
F0.125
g1108
I1
tp1811
a(I461
I1
F0.5
g1119
I1
tp1812
a(I471
I12
F0.875
g1121
I1
tp1813
a(I598
I1
F-0.125
g1125
I1
tp1814
a(I744
I0
F-0.75
g1129
I1
tp1815
a(I757
I0
I0
g1131
I1
tp1816
a(I883
I0
F0.625
g1141
I1
tp1817
a(I995
I9
I0
g1092
I1
tp1818
a(I1033
I0
F1.0
g1149
I1
tp1819
a(I1060
I0
F-0.125
g1153
I1
tp1820
a(I1064
I2
F0.375
g1155
I1
tp1821
a(I1267
I5
F0.75
g47
I1
tp1822
a(I1386
I1
F0.5
g1162
I1
tp1823
a(I1509
I0
F0.125
g1170
I1
tp1824
as(S'nice'
p1825
S'product'
p1826
tp1827
(lp1828
(I241
I14
F0.875
S'nice'
p1829
I1
tp1830
a(I631
I16
F0.875
S'nice'
p1831
I1
tp1832
a(I631
I16
F0.875
S'nice'
p1833
I1
tp1834
a(I644
I0
F0.875
S'nice'
p1835
I1
tp1836
a(I645
I2
F0.875
S'nice'
p1837
I1
tp1838
a(I653
I12
F0.875
S'nice'
p1839
I1
tp1840
a(I663
I0
F0.875
S'nice'
p1841
I1
tp1842
a(I678
I0
F1.0
S'good'
p1843
I1
tp1844
a(I705
I0
F0.875
S'nice'
p1845
I1
tp1846
a(I706
I11
F0.875
S'nice'
p1847
I1
tp1848
a(I712
I2
F1.0
S'good'
p1849
I1
tp1850
a(I712
I2
F0.875
S'awesome'
p1851
I1
tp1852
a(I731
I17
F0.875
S'nice'
p1853
I1
tp1854
a(I920
I0
F0.875
S'nice'
p1855
I1
tp1856
a(I920
I1
F0.875
S'nice'
p1857
I1
tp1858
a(I971
I16
F0.875
S'nice'
p1859
I1
tp1860
a(I1033
I19
F1.0
S'excellent'
p1861
I1
tp1862
a(I1173
I5
F-0.125
S'such'
p1863
I1
tp1864
a(I1173
I5
F0.875
S'nice'
p1865
I1
tp1866
a(I1173
I5
F-0.125
S'such'
p1867
I1
tp1868
a(I1507
I0
F0.875
S'nice'
p1869
I1
tp1870
a(I1543
I15
F0.875
S'nice'
p1871
I1
tp1872
a(I1543
I15
F-0.25
S'i'
p1873
I1
tp1874
a(I1587
I3
F0.875
S'nice'
p1875
I1
tp1876
a(I1587
I3
F0.875
S'attractive'
p1877
I1
tp1878
as(S'no'
p1879
S'heating'
p1880
S'issues'
p1881
tp1882
(lp1883
(I220
I11
I0
S'tiny'
p1884
I0
tp1885
a(I220
I11
F0.5
S'slight'
p1886
I0
tp1887
a(I514
I5
F0.625
g1314
I0
tp1888
a(I649
I15
F1.0
g1323
I0
tp1889
a(I722
I1
F0.625
S'major'
p1890
I0
tp1891
a(I841
I17
F-1.0
S'bad'
p1892
I0
tp1893
a(I901
I3
F-0.125
S'such'
p1894
I0
tp1895
a(I901
I3
F0.125
S'mobile'
p1896
I0
tp1897
a(I971
I9
F-0.125
g1339
I0
tp1898
a(I1123
I35
F0.375
g1344
I0
tp1899
a(I1160
I8
F0.625
S'major'
p1900
I0
tp1901
a(I1222
I0
F0.375
g1348
I0
tp1902
a(I1575
I1
I0
S'considerable'
p1903
I0
tp1904
a(I152
I2
F-0.625
S'average'
p1905
I0
tp1906
a(I220
I11
I0
g1884
I0
tp1907
a(I220
I11
F0.5
g1886
I0
tp1908
a(I342
I1
F-0.625
S'real'
p1909
I0
tp1910
a(I521
I6
F0.375
S'observed'
p1911
I0
tp1912
a(I649
I15
F1.0
g1323
I0
tp1913
a(I722
I1
F0.625
g1890
I0
tp1914
a(I829
I1
I0
S'many'
p1915
I0
tp1916
a(I837
I6
I0
S'many'
p1917
I0
tp1918
a(I841
I17
F-1.0
g1892
I0
tp1919
a(I856
I14
I0
g1008
I0
tp1920
a(I901
I3
F-0.125
g1894
I0
tp1921
a(I901
I3
F0.125
g1896
I0
tp1922
a(I971
I9
F-0.125
g1339
I0
tp1923
a(I995
I10
F0.625
S'first'
p1924
I0
tp1925
a(I1123
I35
F0.375
g1344
I0
tp1926
a(I1160
I8
F0.625
g1900
I0
tp1927
a(I1222
I0
F0.375
g1348
I0
tp1928
a(I1267
I8
F0.25
S'related'
p1929
I0
tp1930
a(I1321
I0
I0
S'more'
p1931
I0
tp1932
a(I1361
I1
F-0.875
S'low'
p1933
I0
tp1934
a(I1387
I3
F0.375
S'heating'
p1935
I0
tp1936
a(I1575
I1
I0
g1903
I0
tp1937
a(I18
I3
F-0.5
S'disappointed'
p1938
I4
tp1939
a(I206
I11
F-0.375
S'same'
p1940
I4
tp1941
a(I220
I11
I0
g1884
I4
tp1942
a(I220
I11
F0.5
g1886
I4
tp1943
a(I229
I15
I0
S'many'
p1944
I4
tp1945
a(I229
I15
F-0.875
S'negative'
p1946
I4
tp1947
a(I353
I3
F-0.125
S'such'
p1948
I4
tp1949
a(I491
I1
F0.625
S'major'
p1950
I4
tp1951
a(I722
I1
F0.625
g1890
I4
tp1952
a(I829
I1
I0
g1915
I4
tp1953
a(I837
I6
I0
g1917
I4
tp1954
a(I841
I17
F-1.0
g1892
I4
tp1955
a(I901
I3
F-0.125
g1894
I4
tp1956
a(I901
I3
F0.125
g1896
I4
tp1957
a(I995
I10
F0.625
g1924
I4
tp1958
a(I1002
I1
F-0.75
S'minor'
p1959
I4
tp1960
a(I1146
I1
I0
S'mentioned'
p1961
I4
tp1962
a(I1160
I8
F0.625
g1900
I4
tp1963
a(I1175
I8
F1.0
S'good'
p1964
I4
tp1965
a(I1223
I11
I0
S'above'
p1966
I4
tp1967
a(I1267
I8
F0.25
g1929
I4
tp1968
a(I1321
I0
I0
g1931
I4
tp1969
a(I1361
I1
F-0.875
g1933
I4
tp1970
a(I1387
I3
F0.375
g1935
I4
tp1971
a(I1441
I9
F0.75
S'due'
p1972
I4
tp1973
a(I1441
I9
F0.5
S'technical'
p1974
I4
tp1975
a(I1465
I3
F0.625
S'major'
p1976
I4
tp1977
a(I1473
I8
F-0.625
S'other'
p1978
I4
tp1979
a(I1503
I12
F0.5
S'similar'
p1980
I4
tp1981
a(I1559
I12
F-0.125
S'such'
p1982
I4
tp1983
a(I1575
I1
I0
g1903
I4
tp1984
as(g1691
S'good'
p1985
S'product'
p1986
tp1987
(lp1988
(I131
I1
F-0.75
S'little'
p1989
I2
tp1990
a(I341
I1
F-0.625
S'quiet'
p1991
I2
tp1992
a(I345
I12
F1.0
S'good'
p1993
I2
tp1994
a(I348
I0
F1.0
S'good'
p1995
I2
tp1996
a(I369
I2
F-1.0
S'worst'
p1997
I2
tp1998
a(I482
I0
F1.0
S'good'
p1999
I2
tp2000
a(I589
I4
F1.0
S'good'
p2001
I2
tp2002
a(I610
I7
F-0.125
S'overall'
p2003
I2
tp2004
a(I610
I7
F1.0
S'good'
p2005
I2
tp2006
a(I631
I16
F0.875
g1831
I2
tp2007
a(I631
I16
F0.875
g1833
I2
tp2008
a(I645
I3
F-0.125
S'overall'
p2009
I2
tp2010
a(I645
I3
F1.0
S'good'
p2011
I2
tp2012
a(I649
I14
F1.0
S'good'
p2013
I2
tp2014
a(I678
I0
F1.0
g1843
I2
tp2015
a(I691
I0
F1.0
S'good'
p2016
I2
tp2017
a(I693
I0
F1.0
S'good'
p2018
I2
tp2019
a(I706
I11
F0.875
g1847
I2
tp2020
a(I712
I2
F1.0
g1849
I2
tp2021
a(I712
I2
F0.875
g1851
I2
tp2022
a(I715
I0
F1.0
S'good'
p2023
I2
tp2024
a(I731
I17
F0.875
g1853
I2
tp2025
a(I794
I12
F1.0
S'good'
p2026
I2
tp2027
a(I803
I0
F-0.125
S'overall'
p2028
I2
tp2029
a(I803
I0
F1.0
S'good'
p2030
I2
tp2031
a(I929
I3
F-0.125
S'overall'
p2032
I2
tp2033
a(I929
I3
F1.0
S'good'
p2034
I2
tp2035
a(I1037
I0
F1.0
S'good'
p2036
I2
tp2037
a(I1052
I14
F1.0
S'good'
p2038
I2
tp2039
a(I1067
I0
F-0.25
S'i'
p2040
I2
tp2041
a(I1067
I0
F1.0
S'good'
p2042
I2
tp2043
a(I1097
I9
F-0.125
S'overall'
p2044
I2
tp2045
a(I1097
I9
F1.0
S'good'
p2046
I2
tp2047
a(I1223
I10
F1.0
S'good'
p2048
I2
tp2049
a(I1223
I12
F1.0
S'good'
p2050
I2
tp2051
a(I1224
I1
F1.0
S'good'
p2052
I2
tp2053
a(I1224
I1
I0
S'u'
p2054
I2
tp2055
a(I1339
I11
F1.0
S'good'
p2056
I2
tp2057
a(I1340
I0
F1.0
S'good'
p2058
I2
tp2059
a(I1493
I5
F1.0
S'good'
p2060
I2
tp2061
a(I1520
I0
F1.0
S'good'
p2062
I2
tp2063
a(I1531
I0
F-1.0
S'bad'
p2064
I2
tp2065
a(I1588
I0
F1.0
S'good'
p2066
I2
tp2067
a(I131
I1
F-0.75
g1989
I5
tp2068
a(I341
I1
F-0.625
g1991
I5
tp2069
a(I345
I12
F1.0
g1993
I5
tp2070
a(I348
I0
F1.0
g1995
I5
tp2071
a(I369
I2
F-1.0
g1997
I5
tp2072
a(I482
I0
F1.0
g1999
I5
tp2073
a(I542
I4
F1.0
S'good'
p2074
I5
tp2075
a(I589
I0
F1.0
S'good'
p2076
I5
tp2077
a(I589
I4
F1.0
g2001
I5
tp2078
a(I597
I3
F1.0
S'good'
p2079
I5
tp2080
a(I597
I7
F1.0
S'good'
p2081
I5
tp2082
a(I610
I7
F-0.125
g2003
I5
tp2083
a(I610
I7
F1.0
g2005
I5
tp2084
a(I624
I0
I-100
S'exellent'
p2085
I5
tp2086
a(I631
I16
F0.875
g1831
I5
tp2087
a(I631
I16
F0.875
g1833
I5
tp2088
a(I645
I2
F0.875
g1837
I5
tp2089
a(I645
I3
F-0.125
g2009
I5
tp2090
a(I645
I3
F1.0
g2011
I5
tp2091
a(I649
I14
F1.0
g2013
I5
tp2092
a(I651
I0
F1.0
S'good'
p2093
I5
tp2094
a(I652
I0
F1.0
S'good'
p2095
I5
tp2096
a(I663
I2
F1.0
S'good'
p2097
I5
tp2098
a(I678
I0
F1.0
g1843
I5
tp2099
a(I689
I0
F1.0
S'good'
p2100
I5
tp2101
a(I691
I0
F1.0
g2016
I5
tp2102
a(I693
I0
F1.0
g2018
I5
tp2103
a(I703
I0
F1.0
S'good'
p2104
I5
tp2105
a(I706
I11
F0.875
g1847
I5
tp2106
a(I712
I2
F1.0
g1849
I5
tp2107
a(I712
I2
F0.875
g1851
I5
tp2108
a(I715
I0
F1.0
g2023
I5
tp2109
a(I716
I4
F1.0
S'good'
p2110
I5
tp2111
a(I731
I17
F0.875
g1853
I5
tp2112
a(I794
I12
F1.0
g2026
I5
tp2113
a(I803
I0
F-0.125
g2028
I5
tp2114
a(I803
I0
F1.0
g2030
I5
tp2115
a(I841
I7
F1.0
S'good'
p2116
I5
tp2117
a(I929
I3
F-0.125
g2032
I5
tp2118
a(I929
I3
F1.0
g2034
I5
tp2119
a(I1037
I0
F1.0
g2036
I5
tp2120
a(I1050
I0
I-100
S'competative'
p2121
I5
tp2122
a(I1052
I14
F1.0
g2038
I5
tp2123
a(I1067
I0
F-0.25
g2040
I5
tp2124
a(I1067
I0
F1.0
g2042
I5
tp2125
a(I1097
I9
F-0.125
g2044
I5
tp2126
a(I1097
I9
F1.0
g2046
I5
tp2127
a(I1223
I10
F1.0
g2048
I5
tp2128
a(I1223
I12
F1.0
g2050
I5
tp2129
a(I1224
I1
F1.0
g2052
I5
tp2130
a(I1224
I1
I0
g2054
I5
tp2131
a(I1339
I11
F1.0
g2056
I5
tp2132
a(I1340
I0
F1.0
g2058
I5
tp2133
a(I1493
I5
F1.0
g2060
I5
tp2134
a(I1506
I0
F1.0
S'good'
p2135
I5
tp2136
a(I1520
I0
F1.0
g2062
I5
tp2137
a(I1531
I0
F-1.0
g2064
I5
tp2138
a(I1588
I0
F1.0
g2066
I5
tp2139
as(S'for'
p2140
S'long'
p2141
S'time'
p2142
tp2143
(lp2144
(I129
I0
I0
g1696
I0
tp2145
a(I129
I0
F-0.5
g1698
I0
tp2146
a(I288
I0
F-0.5
g1702
I0
tp2147
a(I332
I25
F-0.5
g1704
I0
tp2148
a(I332
I37
F-0.5
g1706
I0
tp2149
a(I345
I14
F-0.5
g1708
I0
tp2150
a(I385
I0
I0
g1710
I0
tp2151
a(I385
I0
F-0.5
g1712
I0
tp2152
a(I884
I0
F-0.5
g1720
I0
tp2153
a(I1077
I8
F-0.5
g1722
I0
tp2154
a(I1277
I2
F-0.5
g1726
I0
tp2155
a(I1277
I2
I0
g1728
I0
tp2156
a(I1578
I1
F-0.5
g1732
I0
tp2157
a(I1604
I0
I0
g1734
I0
tp2158
a(I1604
I0
F-0.5
g1736
I0
tp2159
a(I129
I0
I0
g1696
I5
tp2160
a(I129
I0
F-0.5
g1698
I5
tp2161
a(I156
I23
F-0.5
g1700
I5
tp2162
a(I288
I0
F-0.5
g1702
I5
tp2163
a(I332
I25
F-0.5
g1704
I5
tp2164
a(I332
I37
F-0.5
g1706
I5
tp2165
a(I345
I14
F-0.5
g1708
I5
tp2166
a(I385
I0
I0
g1710
I5
tp2167
a(I385
I0
F-0.5
g1712
I5
tp2168
a(I630
I2
F-0.5
g1714
I5
tp2169
a(I630
I2
I0
g1716
I5
tp2170
a(I763
I14
F-0.5
g1718
I5
tp2171
a(I884
I0
F-0.5
g1720
I5
tp2172
a(I1077
I8
F-0.5
g1722
I5
tp2173
a(I1245
I0
F-0.5
g1724
I5
tp2174
a(I1277
I2
F-0.5
g1726
I5
tp2175
a(I1277
I2
I0
g1728
I5
tp2176
a(I1408
I0
F-0.5
g1730
I5
tp2177
a(I1578
I1
F-0.5
g1732
I5
tp2178
a(I1604
I0
I0
g1734
I5
tp2179
a(I1604
I0
F-0.5
g1736
I5
tp2180
as(S'front'
p2181
S'camera'
p2182
tp2183
(lp2184
(I118
I1
F-0.125
S'front'
p2185
I6
tp2186
a(I118
I1
F1.0
S'good'
p2187
I6
tp2188
a(I162
I6
F-0.125
S'front'
p2189
I6
tp2190
a(I199
I0
F-0.125
g1185
I6
tp2191
a(I205
I3
F-0.75
S'little'
p2192
I6
tp2193
a(I206
I1
F-0.875
g1514
I6
tp2194
a(I287
I4
F-0.125
S'front'
p2195
I6
tp2196
a(I287
I4
F0.875
S'awesome'
p2197
I6
tp2198
a(I288
I31
F1.0
g1192
I6
tp2199
a(I288
I31
F-0.125
g1194
I6
tp2200
a(I288
I31
F1.0
g1196
I6
tp2201
a(I300
I0
F1.0
S'good'
p2202
I6
tp2203
a(I341
I4
F1.0
g1204
I6
tp2204
a(I341
I4
I0
g1206
I6
tp2205
a(I341
I4
F0.5
g1208
I6
tp2206
a(I359
I4
F1.0
S'good'
p2207
I6
tp2208
a(I397
I2
F1.0
S'excellent'
p2209
I6
tp2210
a(I407
I12
F-0.125
S'front'
p2211
I6
tp2212
a(I415
I0
F1.0
S'excellent'
p2213
I6
tp2214
a(I461
I6
I0
S'rear'
p2215
I6
tp2216
a(I461
I6
I0
S'more'
p2217
I6
tp2218
a(I463
I0
F-0.125
S'front'
p2219
I6
tp2220
a(I491
I8
F1.0
g533
I6
tp2221
a(I491
I40
F1.0
S'better'
p2222
I6
tp2223
a(I504
I4
F-0.125
S'front'
p2224
I6
tp2225
a(I504
I4
F-1.0
S'bad'
p2226
I6
tp2227
a(I626
I8
F1.0
g1218
I6
tp2228
a(I626
I8
F0.375
g1220
I6
tp2229
a(I629
I1
F1.0
S'good'
p2230
I6
tp2231
a(I629
I1
I0
S'n'
p2232
I6
tp2233
a(I629
I1
I0
g537
I6
tp2234
a(I653
I7
F1.0
g543
I6
tp2235
a(I726
I1
F-0.625
S'average'
p2236
I6
tp2237
a(I726
I1
F-0.125
S'front'
p2238
I6
tp2239
a(I770
I1
F-0.125
g550
I6
tp2240
a(I770
I1
F1.0
g552
I6
tp2241
a(I778
I1
F1.0
S'good'
p2242
I6
tp2243
a(I799
I29
F-0.125
g1239
I6
tp2244
a(I799
I29
F1.0
g1241
I6
tp2245
a(I799
I29
F-0.125
g1243
I6
tp2246
a(I805
I3
I0
S'rear'
p2247
I6
tp2248
a(I855
I3
F-0.125
g556
I6
tp2249
a(I855
I3
F1.0
g558
I6
tp2250
a(I857
I0
I0
g560
I6
tp2251
a(I857
I0
I0
g562
I6
tp2252
a(I857
I0
F1.0
g564
I6
tp2253
a(I944
I3
F0.375
S'ok'
p2254
I6
tp2255
a(I944
I3
F1.0
S'good'
p2256
I6
tp2257
a(I974
I2
F1.0
S'better'
p2258
I6
tp2259
a(I1008
I0
F-0.125
S'front'
p2260
I6
tp2261
a(I1023
I1
F1.0
S'good'
p2262
I6
tp2263
a(I1038
I1
F1.0
S'good'
p2264
I6
tp2265
a(I1038
I1
F-0.875
S'rare'
p2266
I6
tp2267
a(I1081
I2
F-0.125
S'front'
p2268
I6
tp2269
a(I1081
I2
F-0.875
S'poor'
p2270
I6
tp2271
a(I1082
I0
F0.875
S'awesome'
p2272
I6
tp2273
a(I1096
I3
F0.875
g575
I6
tp2274
a(I1153
I15
F0.875
g489
I6
tp2275
a(I1153
I15
F-0.125
g491
I6
tp2276
a(I1199
I0
F-0.125
S'front'
p2277
I6
tp2278
a(I1199
I0
F0.875
S'awesomer'
p2279
I6
tp2280
a(I1223
I6
I0
S'rear'
p2281
I6
tp2282
a(I1230
I11
F1.0
S'good'
p2283
I6
tp2284
a(I1267
I14
F1.0
g1271
I6
tp2285
a(I1330
I10
F1.0
S'good'
p2286
I6
tp2287
a(I1331
I26
I0
g509
I6
tp2288
a(I1332
I13
F-0.125
S'front'
p2289
I6
tp2290
a(I1339
I3
F0.375
S'impressive'
p2291
I6
tp2292
a(I1359
I3
F1.0
S'good'
p2293
I6
tp2294
a(I1362
I1
F-0.125
S'front'
p2295
I6
tp2296
a(I1362
I1
F0.625
S'okay'
p2297
I6
tp2298
a(I1371
I15
F-0.125
g583
I6
tp2299
a(I1470
I5
F-0.5
g1296
I6
tp2300
a(I1470
I5
F-0.875
g1298
I6
tp2301
a(I1470
I5
F-1.0
g1300
I6
tp2302
a(I1470
I5
F1.0
g1302
I6
tp2303
a(I1492
I2
F-0.125
S'front'
p2304
I6
tp2305
a(I1492
I2
F0.875
S'awesome'
p2306
I6
tp2307
a(I1530
I5
I0
S'rear'
p2308
I6
tp2309
a(I1555
I5
F-0.125
S'front'
p2310
I6
tp2311
a(I1555
I5
F1.0
S'good'
p2312
I6
tp2313
a(I220
I2
I0
S'lags'
p2314
I14
tp2315
a(I230
I24
I-100
S'backlit'
p2316
I14
tp2317
a(I359
I4
F1.0
g2207
I14
tp2318
a(I629
I1
F1.0
g2230
I14
tp2319
a(I629
I1
I0
g2232
I14
tp2320
a(I845
I4
I0
S'rear'
p2321
I14
tp2322
a(I944
I3
F0.375
g2254
I14
tp2323
a(I944
I3
F1.0
g2256
I14
tp2324
a(I1038
I1
F1.0
g2264
I14
tp2325
a(I1038
I1
F-0.875
g2266
I14
tp2326
as(S'hours'
p2327
tp2328
(lp2329
(I114
I15
F-0.875
S'tough'
p2330
I14
tp2331
a(I384
I9
I0
S'few'
p2332
I14
tp2333
a(I480
I7
I0
S'more'
p2334
I14
tp2335
a(I480
I7
F1.0
S'good'
p2336
I14
tp2337
a(I491
I47
I0
S'wifi'
p2338
I14
tp2339
a(I491
I47
I0
S'audio'
p2340
I14
tp2341
a(I517
I1
F1.0
S'excellent'
p2342
I14
tp2343
a(I839
I2
I0
S'few'
p2344
I14
tp2345
a(I839
I2
I0
S'ringer'
p2346
I14
tp2347
a(I1160
I3
F0.5
S'slim'
p2348
I14
tp2349
a(I1228
I2
F-0.5
S'long'
p2350
I14
tp2351
a(I1397
I2
F-0.75
S'abnormal'
p2352
I14
tp2353
as(S'good'
p2354
S'sound'
p2355
S'quality'
p2356
tp2357
(lp2358
(I140
I1
F1.0
S'good'
p2359
I0
tp2360
a(I206
I3
F0.875
S'nice'
p2361
I0
tp2362
a(I306
I10
F0.75
g841
I0
tp2363
a(I306
I10
F-0.5
g843
I0
tp2364
a(I315
I1
F1.0
S'good'
p2365
I0
tp2366
a(I315
I1
F1.0
g845
I0
tp2367
a(I317
I11
F1.0
S'good'
p2368
I0
tp2369
a(I341
I0
F1.0
S'good'
p2370
I0
tp2371
a(I377
I0
F1.0
S'good'
p2372
I0
tp2373
a(I413
I0
F0.75
g891
I0
tp2374
a(I413
I0
F1.0
g893
I0
tp2375
a(I437
I1
F1.0
S'good'
p2376
I0
tp2377
a(I467
I0
F0.75
g847
I0
tp2378
a(I467
I0
F1.0
g849
I0
tp2379
a(I574
I0
F1.0
S'good'
p2380
I0
tp2381
a(I610
I1
F0.75
g900
I0
tp2382
a(I610
I1
F1.0
g902
I0
tp2383
a(I633
I0
F1.0
S'good'
p2384
I0
tp2385
a(I654
I0
F1.0
S'good'
p2386
I0
tp2387
a(I654
I0
F0.125
S'mobile'
p2388
I0
tp2389
a(I654
I0
F1.0
S'good'
p2390
I0
tp2391
a(I654
I0
F0.875
g855
I0
tp2392
a(I731
I19
F1.0
g911
I0
tp2393
a(I879
I6
F0.75
g919
I0
tp2394
a(I883
I1
F1.0
S'good'
p2395
I0
tp2396
a(I898
I8
F0.75
g857
I0
tp2397
a(I898
I8
F1.0
g859
I0
tp2398
a(I977
I0
F0.875
S'nice'
p2399
I0
tp2400
a(I1077
I4
F0.5
g864
I0
tp2401
a(I1153
I11
F1.0
S'good'
p2402
I0
tp2403
a(I1153
I11
F1.0
g937
I0
tp2404
a(I1230
I3
F1.0
g868
I0
tp2405
a(I1318
I6
F0.875
g654
I0
tp2406
a(I1318
I6
F0.875
g656
I0
tp2407
a(I1332
I4
F0.75
g969
I0
tp2408
a(I1332
I4
F1.0
g971
I0
tp2409
a(I1336
I0
F1.0
g513
I0
tp2410
a(I1336
I0
F0.75
g515
I0
tp2411
a(I1336
I0
F0.5
g517
I0
tp2412
a(I1339
I8
F0.75
g976
I0
tp2413
a(I1339
I8
F1.0
g978
I0
tp2414
a(I1561
I6
F0.75
g989
I0
tp2415
a(I1561
I6
F1.0
g991
I0
tp2416
a(I1606
I1
F0.875
S'nice'
p2417
I0
tp2418
a(I140
I1
F1.0
g2359
I5
tp2419
a(I206
I3
F0.875
g2361
I5
tp2420
a(I287
I6
F0.875
S'awesome'
p2421
I5
tp2422
a(I287
I6
F0.75
S'sound'
p2423
I5
tp2424
a(I306
I10
F0.75
g841
I5
tp2425
a(I306
I10
F-0.5
g843
I5
tp2426
a(I315
I1
F1.0
g2365
I5
tp2427
a(I315
I1
F1.0
g845
I5
tp2428
a(I317
I11
F1.0
g2368
I5
tp2429
a(I341
I0
F1.0
g2370
I5
tp2430
a(I377
I0
F1.0
g2372
I5
tp2431
a(I413
I0
F0.75
g891
I5
tp2432
a(I413
I0
F1.0
g893
I5
tp2433
a(I437
I1
F1.0
g2376
I5
tp2434
a(I467
I0
F0.75
g847
I5
tp2435
a(I467
I0
F1.0
g849
I5
tp2436
a(I491
I7
F1.0
S'best'
p2437
I5
tp2438
a(I510
I0
F0.875
g602
I5
tp2439
a(I574
I0
F1.0
g2380
I5
tp2440
a(I576
I1
F0.75
S'sound'
p2441
I5
tp2442
a(I610
I1
F0.75
g900
I5
tp2443
a(I610
I1
F1.0
g902
I5
tp2444
a(I612
I0
F-1.0
S'bad'
p2445
I5
tp2446
a(I633
I0
F1.0
g2384
I5
tp2447
a(I654
I0
F1.0
g2386
I5
tp2448
a(I654
I0
F0.125
g2388
I5
tp2449
a(I654
I0
F1.0
g2390
I5
tp2450
a(I654
I0
F0.875
g855
I5
tp2451
a(I731
I19
F1.0
g911
I5
tp2452
a(I879
I6
F0.75
g919
I5
tp2453
a(I883
I1
F1.0
g2395
I5
tp2454
a(I898
I8
F0.75
g857
I5
tp2455
a(I898
I8
F1.0
g859
I5
tp2456
a(I970
I2
F0.875
S'amazing'
p2457
I5
tp2458
a(I977
I0
F0.875
g2399
I5
tp2459
a(I1033
I16
F0.75
S'sound'
p2460
I5
tp2461
a(I1037
I5
F0.5
S'satisfactory'
p2462
I5
tp2463
a(I1037
I5
F0.75
S'sound'
p2464
I5
tp2465
a(I1037
I5
F0.875
S'nice'
p2466
I5
tp2467
a(I1077
I4
F0.5
g864
I5
tp2468
a(I1153
I11
F1.0
g2402
I5
tp2469
a(I1153
I11
F1.0
g937
I5
tp2470
a(I1154
I1
F0.875
S'awesome'
p2471
I5
tp2472
a(I1154
I1
F1.0
S'best'
p2473
I5
tp2474
a(I1181
I5
F0.75
S'sound'
p2475
I5
tp2476
a(I1181
I5
F0.875
S'nice'
p2477
I5
tp2478
a(I1208
I0
F-0.125
S'ultimate'
p2479
I5
tp2480
a(I1229
I1
F0.875
S'awesome'
p2481
I5
tp2482
a(I1230
I3
F1.0
g868
I5
tp2483
a(I1267
I15
F0.75
S'sound'
p2484
I5
tp2485
a(I1267
I15
F0.875
S'superb'
p2486
I5
tp2487
a(I1318
I6
F0.875
g654
I5
tp2488
a(I1318
I6
F0.875
g656
I5
tp2489
a(I1332
I4
F0.75
g969
I5
tp2490
a(I1332
I4
F1.0
g971
I5
tp2491
a(I1336
I0
F1.0
g513
I5
tp2492
a(I1336
I0
F0.75
g515
I5
tp2493
a(I1336
I0
F0.5
g517
I5
tp2494
a(I1339
I8
F0.75
g976
I5
tp2495
a(I1339
I8
F1.0
g978
I5
tp2496
a(I1372
I4
F0.75
S'sound'
p2497
I5
tp2498
a(I1372
I4
F0.875
S'awesome'
p2499
I5
tp2500
a(I1381
I1
F0.75
S'sound'
p2501
I5
tp2502
a(I1381
I1
F0.875
S'awesome'
p2503
I5
tp2504
a(I1423
I5
F0.75
S'sound'
p2505
I5
tp2506
a(I1423
I5
F0.875
S'nice'
p2507
I5
tp2508
a(I1438
I18
I0
g662
I5
tp2509
a(I1438
I18
F0.125
g664
I5
tp2510
a(I1452
I2
F0.625
S'extraordinary'
p2511
I5
tp2512
a(I1561
I6
F0.75
g989
I5
tp2513
a(I1561
I6
F1.0
g991
I5
tp2514
a(I1575
I15
F0.75
S'sound'
p2515
I5
tp2516
a(I1580
I7
F-0.875
S'poor'
p2517
I5
tp2518
a(I1606
I1
F0.875
g2417
I5
tp2519
as(S'back'
p2520
S'camera'
p2521
tp2522
(lp2523
(I206
I1
F-0.875
g1514
I0
tp2524
a(I668
I1
F0.375
S'ok'
p2525
I0
tp2526
a(I678
I0
F1.0
S'good'
p2527
I0
tp2528
a(I711
I1
F1.0
S'good'
p2529
I0
tp2530
a(I712
I1
F0.375
S'ok'
p2531
I0
tp2532
a(I768
I0
F0.375
S'much'
p2533
I0
tp2534
a(I770
I1
F-0.125
g550
I0
tp2535
a(I770
I1
F1.0
g552
I0
tp2536
a(I779
I5
I0
S'below'
p2537
I0
tp2538
a(I787
I1
F1.0
S'good'
p2539
I0
tp2540
a(I799
I29
F-0.125
g1239
I0
tp2541
a(I799
I29
F1.0
g1241
I0
tp2542
a(I799
I29
F-0.125
g1243
I0
tp2543
a(I815
I2
F-0.125
S'back'
p2544
I0
tp2545
a(I857
I1
F-0.125
S'back'
p2546
I0
tp2547
a(I860
I1
F-0.125
S'back'
p2548
I0
tp2549
a(I883
I12
F-1.0
S'bad'
p2550
I0
tp2551
a(I883
I12
F-1.0
S'worst'
p2552
I0
tp2553
a(I883
I12
F1.0
S'good'
p2554
I0
tp2555
a(I1023
I1
F1.0
g2262
I0
tp2556
a(I1081
I2
F-0.125
g2268
I0
tp2557
a(I1081
I2
F-0.875
g2270
I0
tp2558
a(I1082
I0
F0.875
g2272
I0
tp2559
a(I1121
I0
I0
S'most'
p2560
I0
tp2561
a(I1121
I0
F-0.625
S'average'
p2562
I0
tp2563
a(I1280
I0
F1.0
S'good'
p2564
I0
tp2565
a(I1312
I0
F1.0
S'good'
p2566
I0
tp2567
a(I1316
I0
F-0.125
S'back'
p2568
I0
tp2569
a(I1316
I0
F-0.75
S'disappointing'
p2570
I0
tp2571
a(I1362
I1
F-0.125
g2295
I0
tp2572
a(I1362
I1
F0.625
g2297
I0
tp2573
a(I1585
I0
F0.625
S'fine'
p2574
I0
tp2575
as(S'good'
p2576
S'battery'
p2577
S'backup'
p2578
tp2579
(lp2580
(I36
I16
F1.0
S'good'
p2581
I0
tp2582
a(I36
I24
F1.0
S'good'
p2583
I0
tp2584
a(I525
I0
F1.0
S'good'
p2585
I0
tp2586
a(I677
I1
F1.0
S'good'
p2587
I0
tp2588
a(I699
I0
F1.0
S'good'
p2589
I0
tp2590
a(I711
I1
F1.0
S'good'
p2591
I0
tp2592
a(I714
I4
F1.0
S'good'
p2593
I0
tp2594
a(I720
I5
F1.0
S'good'
p2595
I0
tp2596
a(I737
I0
F1.0
S'good'
p2597
I0
tp2598
a(I798
I5
F1.0
S'good'
p2599
I0
tp2600
a(I883
I12
F-0.625
S'average'
p2601
I0
tp2602
a(I1051
I10
F1.0
S'excellent'
p2603
I0
tp2604
a(I1077
I16
F1.0
S'good'
p2605
I0
tp2606
a(I1097
I7
F1.0
S'good'
p2607
I0
tp2608
a(I1208
I7
F1.0
S'good'
p2609
I0
tp2610
a(I1220
I8
F0.875
S'nice'
p2611
I0
tp2612
a(I1220
I8
F-0.875
S'strong'
p2613
I0
tp2614
a(I1283
I0
F1.0
S'good'
p2615
I0
tp2616
a(I1300
I1
F0.375
S'ok'
p2617
I0
tp2618
a(I1338
I0
F1.0
S'good'
p2619
I0
tp2620
a(I1348
I1
F1.0
S'good'
p2621
I0
tp2622
a(I1377
I5
F1.0
S'good'
p2623
I0
tp2624
a(I1574
I2
F1.0
S'good'
p2625
I0
tp2626
as(S'very'
p2627
S'good'
p2628
S'sound'
p2629
tp2630
(lp2631
(I108
I3
F1.0
S'good'
p2632
I0
tp2633
a(I206
I3
F0.875
g2361
I0
tp2634
a(I207
I2
I0
g624
I0
tp2635
a(I229
I12
F1.0
S'good'
p2636
I0
tp2637
a(I229
I12
F1.0
S'good'
p2638
I0
tp2639
a(I315
I1
F1.0
g2365
I0
tp2640
a(I317
I11
F1.0
g2368
I0
tp2641
a(I334
I2
F1.0
S'good'
p2642
I0
tp2643
a(I437
I1
F1.0
g2376
I0
tp2644
a(I633
I0
F1.0
g2384
I0
tp2645
a(I649
I8
F1.0
g635
I0
tp2646
a(I654
I0
F1.0
g2386
I0
tp2647
a(I654
I0
F0.125
g2388
I0
tp2648
a(I654
I0
F1.0
g2390
I0
tp2649
a(I655
I8
F0.875
S'great'
p2650
I0
tp2651
a(I655
I8
F0.125
S'mobile'
p2652
I0
tp2653
a(I655
I8
F1.0
S'best'
p2654
I0
tp2655
a(I709
I1
F1.0
g637
I0
tp2656
a(I977
I0
F0.875
g2399
I0
tp2657
a(I1205
I6
F1.0
S'good'
p2658
I0
tp2659
a(I1302
I2
F0.875
S'nice'
p2660
I0
tp2661
a(I1318
I6
F0.875
g654
I0
tp2662
a(I1318
I6
F0.875
g656
I0
tp2663
a(I1606
I1
F0.875
g2417
I0
tp2664
a(I108
I3
F1.0
g2632
I0
tp2665
a(I140
I1
F1.0
g2359
I0
tp2666
a(I180
I0
F1.0
g618
I0
tp2667
a(I180
I0
F1.0
g620
I0
tp2668
a(I206
I3
F0.875
g2361
I0
tp2669
a(I207
I2
I0
g624
I0
tp2670
a(I214
I4
F1.0
S'good'
p2671
I0
tp2672
a(I229
I12
F1.0
g2636
I0
tp2673
a(I229
I12
F1.0
g2638
I0
tp2674
a(I312
I0
F1.0
S'good'
p2675
I0
tp2676
a(I315
I1
F1.0
g2365
I0
tp2677
a(I317
I11
F1.0
g2368
I0
tp2678
a(I334
I2
F1.0
g2642
I0
tp2679
a(I341
I0
F1.0
g2370
I0
tp2680
a(I377
I0
F1.0
g2372
I0
tp2681
a(I437
I1
F1.0
g2376
I0
tp2682
a(I558
I0
F1.0
S'good'
p2683
I0
tp2684
a(I574
I0
F1.0
g2380
I0
tp2685
a(I589
I11
F0.875
S'great'
p2686
I0
tp2687
a(I589
I11
F0.75
S'due'
p2688
I0
tp2689
a(I599
I21
F1.0
S'good'
p2690
I0
tp2691
a(I631
I2
F0.625
S'super'
p2692
I0
tp2693
a(I631
I2
F1.0
S'good'
p2694
I0
tp2695
a(I633
I0
F1.0
g2384
I0
tp2696
a(I649
I8
F1.0
g635
I0
tp2697
a(I654
I0
F1.0
g2386
I0
tp2698
a(I654
I0
F0.125
g2388
I0
tp2699
a(I654
I0
F1.0
g2390
I0
tp2700
a(I655
I8
F0.875
g2650
I0
tp2701
a(I655
I8
F0.125
g2652
I0
tp2702
a(I655
I8
F1.0
g2654
I0
tp2703
a(I677
I1
F0.875
S'awesome'
p2704
I0
tp2705
a(I678
I0
F1.0
S'good'
p2706
I0
tp2707
a(I709
I1
F1.0
g637
I0
tp2708
a(I714
I4
F0.875
S'awesome'
p2709
I0
tp2710
a(I883
I1
F1.0
g2395
I0
tp2711
a(I977
I0
F0.875
g2399
I0
tp2712
a(I1005
I3
F1.0
S'good'
p2713
I0
tp2714
a(I1033
I6
F1.0
S'good'
p2715
I0
tp2716
a(I1033
I6
F0.5
S'high'
p2717
I0
tp2718
a(I1033
I6
F-0.875
S'low'
p2719
I0
tp2720
a(I1059
I0
F0.875
S'great'
p2721
I0
tp2722
a(I1153
I11
F1.0
g2402
I0
tp2723
a(I1205
I6
F1.0
g2658
I0
tp2724
a(I1267
I16
F1.0
S'good'
p2725
I0
tp2726
a(I1302
I2
F0.875
g2660
I0
tp2727
a(I1318
I6
F0.875
g654
I0
tp2728
a(I1318
I6
F0.875
g656
I0
tp2729
a(I1331
I34
F1.0
S'good'
p2730
I0
tp2731
a(I1335
I7
I0
g658
I0
tp2732
a(I1338
I9
F1.0
S'good'
p2733
I0
tp2734
a(I1338
I9
F0.875
S'great'
p2735
I0
tp2736
a(I1389
I0
F1.0
g660
I0
tp2737
a(I1395
I0
F0.5
S'true'
p2738
I0
tp2739
a(I1476
I1
F1.0
S'good'
p2740
I0
tp2741
a(I1476
I1
F-0.5
S'loud'
p2742
I0
tp2743
a(I1606
I1
F0.875
g2417
I0
tp2744
a(I0
I1
F0.875
g616
I15
tp2745
a(I93
I9
F0.875
S'awesome'
p2746
I15
tp2747
a(I108
I3
F1.0
g2632
I15
tp2748
a(I140
I1
F1.0
g2359
I15
tp2749
a(I180
I0
F1.0
g618
I15
tp2750
a(I180
I0
F1.0
g620
I15
tp2751
a(I206
I3
F0.875
g2361
I15
tp2752
a(I207
I2
I0
g624
I15
tp2753
a(I214
I4
F1.0
g2671
I15
tp2754
a(I229
I12
F1.0
g2636
I15
tp2755
a(I229
I12
F1.0
g2638
I15
tp2756
a(I297
I0
F-0.5
S'loud'
p2757
I15
tp2758
a(I306
I6
F0.875
g626
I15
tp2759
a(I312
I0
F1.0
g2675
I15
tp2760
a(I315
I1
F1.0
g2365
I15
tp2761
a(I317
I11
F1.0
g2368
I15
tp2762
a(I317
I20
F0.875
g628
I15
tp2763
a(I334
I2
F1.0
g2642
I15
tp2764
a(I341
I0
F1.0
g2370
I15
tp2765
a(I352
I3
F-0.5
S'loud'
p2766
I15
tp2767
a(I377
I0
F1.0
g2372
I15
tp2768
a(I399
I3
F0.5
g594
I15
tp2769
a(I399
I3
I0
g596
I15
tp2770
a(I420
I4
F0.875
S'nice'
p2771
I15
tp2772
a(I437
I1
F1.0
g2376
I15
tp2773
a(I490
I7
F1.0
S'excellent'
p2774
I15
tp2775
a(I491
I7
F1.0
g2437
I15
tp2776
a(I491
I33
F0.625
g600
I15
tp2777
a(I510
I0
F0.875
g602
I15
tp2778
a(I558
I0
F1.0
g2683
I15
tp2779
a(I574
I0
F1.0
g2380
I15
tp2780
a(I589
I11
F0.875
g2686
I15
tp2781
a(I589
I11
F0.75
g2688
I15
tp2782
a(I599
I21
F1.0
g2690
I15
tp2783
a(I631
I2
F0.625
g2692
I15
tp2784
a(I631
I2
F1.0
g2694
I15
tp2785
a(I633
I0
F1.0
g2384
I15
tp2786
a(I649
I8
F1.0
g635
I15
tp2787
a(I654
I0
F1.0
g2386
I15
tp2788
a(I654
I0
F0.125
g2388
I15
tp2789
a(I654
I0
F1.0
g2390
I15
tp2790
a(I655
I8
F0.875
g2650
I15
tp2791
a(I655
I8
F0.125
g2652
I15
tp2792
a(I655
I8
F1.0
g2654
I15
tp2793
a(I677
I1
F0.875
g2704
I15
tp2794
a(I678
I0
F1.0
g2706
I15
tp2795
a(I709
I1
F1.0
g637
I15
tp2796
a(I714
I4
F0.875
g2709
I15
tp2797
a(I749
I0
I0
S'cool'
p2798
I15
tp2799
a(I794
I5
F0.75
S'ear'
p2800
I15
tp2801
a(I856
I1
F0.875
g606
I15
tp2802
a(I883
I1
F1.0
g2395
I15
tp2803
a(I901
I7
F0.625
g642
I15
tp2804
a(I977
I0
F0.875
g2399
I15
tp2805
a(I1005
I3
F1.0
g2713
I15
tp2806
a(I1033
I6
F1.0
g2715
I15
tp2807
a(I1033
I6
F0.5
g2717
I15
tp2808
a(I1033
I6
F-0.875
g2719
I15
tp2809
a(I1057
I1
F1.0
S'excellent'
p2810
I15
tp2811
a(I1059
I0
F0.875
g2721
I15
tp2812
a(I1060
I14
F0.875
S'great'
p2813
I15
tp2814
a(I1153
I11
F1.0
g2402
I15
tp2815
a(I1154
I1
F1.0
g2473
I15
tp2816
a(I1205
I6
F1.0
g2658
I15
tp2817
a(I1222
I4
I0
g648
I15
tp2818
a(I1229
I1
F0.875
g2481
I15
tp2819
a(I1230
I19
F0.875
S'amazing'
p2820
I15
tp2821
a(I1267
I16
F1.0
g2725
I15
tp2822
a(I1302
I2
F0.875
g2660
I15
tp2823
a(I1311
I0
F0.875
S'awesome'
p2824
I15
tp2825
a(I1318
I6
F0.875
g654
I15
tp2826
a(I1318
I6
F0.875
g656
I15
tp2827
a(I1330
I5
I0
S'ultra'
p2828
I15
tp2829
a(I1330
I5
F-0.5
S'loud'
p2830
I15
tp2831
a(I1330
I5
I0
S'clear'
p2832
I15
tp2833
a(I1331
I34
F1.0
g2730
I15
tp2834
a(I1335
I7
I0
g658
I15
tp2835
a(I1338
I9
F1.0
g2733
I15
tp2836
a(I1338
I9
F0.875
g2735
I15
tp2837
a(I1378
I0
I-100
S'dolbby'
p2838
I15
tp2839
a(I1389
I0
F1.0
g660
I15
tp2840
a(I1390
I1
F0.875
S'awesome'
p2841
I15
tp2842
a(I1395
I0
F0.5
g2738
I15
tp2843
a(I1424
I0
F-0.875
S'low'
p2844
I15
tp2845
a(I1438
I18
I0
g662
I15
tp2846
a(I1438
I18
F0.125
g664
I15
tp2847
a(I1476
I1
F1.0
g2740
I15
tp2848
a(I1476
I1
F-0.5
g2742
I15
tp2849
a(I1542
I0
F0.875
S'awesome'
p2850
I15
tp2851
a(I1606
I1
F0.875
g2417
I15
tp2852
as(S'back'
p2853
S'cover'
p2854
tp2855
(lp2856
(I34
I0
F0.75
S'easy'
p2857
I2
tp2858
a(I289
I0
F-0.125
S'back'
p2859
I2
tp2860
a(I890
I1
F0.625
S'removable'
p2861
I2
tp2862
a(I1530
I1
F0.75
S'proper'
p2863
I2
tp2864
as(S'thanks'
p2865
tp2866
(lp2867
(I359
I6
F0.875
S'great'
p2868
I7
tp2869
a(I369
I13
F0.875
S'great'
p2870
I7
tp2871
a(I649
I8
F-0.5
S'loud'
p2872
I7
tp2873
a(I709
I1
F-0.5
S'loud'
p2874
I7
tp2875
a(I1051
I5
I0
S'clear'
p2876
I7
tp2877
a(I1236
I0
I0
S'al'
p2878
I7
tp2879
as(S'moto'
p2880
S'g'
p2881
tp2882
(lp2883
(I384
I1
F0.5
S'old'
p2884
I0
tp2885
a(I995
I12
F1.0
S'good'
p2886
I0
tp2887
as(S'of'
p2888
S'heating'
p2889
S'problem'
p2890
tp2891
(lp2892
(I93
I1
I0
g1096
I0
tp2893
a(I206
I1
I0
g1104
I0
tp2894
a(I241
I11
F0.625
g1110
I0
tp2895
a(I317
I2
F-0.125
g1114
I0
tp2896
a(I744
I0
F-0.75
g1129
I0
tp2897
a(I951
I0
F-0.25
g1090
I0
tp2898
a(I972
I3
F-1.0
g1146
I0
tp2899
a(I1267
I5
F0.75
g47
I0
tp2900
a(I1578
I0
F0.375
g1172
I0
tp2901
as(S'fine'
p2902
tp2903
(lp2904
(I986
I10
F0.375
S'working'
p2905
I15
tp2906
as(S'decent'
p2907
tp2908
(lp2909
(I98
I8
I0
S'pretty'
p2910
I4
tp2911
a(I745
I6
I0
S'handy'
p2912
I4
tp2913
a(I745
I6
I0
S'light'
p2914
I4
tp2915
as(S'third'
p2916
S'party'
p2917
tp2918
(lp2919
(I774
I1
I0
S'third'
p2920
I0
tp2921
a(I1177
I0
I0
S'many'
p2922
I0
tp2923
a(I1177
I0
I0
S'third'
p2924
I0
tp2925
a(I1267
I6
I0
S'third'
p2926
I0
tp2927
a(I1586
I2
I0
S'third'
p2928
I0
tp2929
as(S'next'
p2930
S'day'
p2931
tp2932
(lp2933
(I69
I1
F-0.125
S'next'
p2934
I1
tp2935
a(I114
I9
F-0.125
S'next'
p2936
I1
tp2937
a(I162
I14
F-0.125
S'next'
p2938
I1
tp2939
a(I366
I0
F-0.125
S'next'
p2940
I1
tp2941
a(I467
I1
F-0.125
S'next'
p2942
I1
tp2943
a(I507
I0
F-0.125
S'next'
p2944
I1
tp2945
a(I653
I11
F-0.125
S'next'
p2946
I1
tp2947
a(I980
I1
F-0.125
S'next'
p2948
I1
tp2949
a(I981
I1
F-0.125
S'next'
p2950
I1
tp2951
a(I986
I1
F-0.125
S'next'
p2952
I1
tp2953
a(I1097
I12
F-0.125
S'next'
p2954
I1
tp2955
a(I1162
I9
F-0.125
S'next'
p2956
I1
tp2957
a(I1273
I0
F-0.125
S'next'
p2958
I1
tp2959
a(I1409
I0
F-0.125
S'next'
p2960
I1
tp2961
a(I1409
I0
F-0.125
S'next'
p2962
I1
tp2963
a(I1440
I6
F-0.125
S'next'
p2964
I1
tp2965
a(I1441
I10
F-0.125
S'next'
p2966
I1
tp2967
as(S'service'
p2968
S'center'
p2969
tp2970
(lp2971
(I589
I12
F-0.125
S'present'
p2972
I5
tp2973
a(I1318
I10
F1.0
S'good'
p2974
I5
tp2975
a(I1560
I0
F-0.25
S'i'
p2976
I5
tp2977
a(I1578
I20
I0
S'nearest'
p2978
I5
tp2979
as(S'some'
p2980
S'heating'
p2981
S'issue'
p2982
tp2983
(lp2984
(I342
I1
F-0.625
g1909
I0
tp2985
a(I487
I0
F0.375
g1031
I0
tp2986
a(I492
I4
F0.375
S'heating'
p2987
I0
tp2988
a(I492
I9
F0.375
g1000
I0
tp2989
a(I846
I12
F0.375
g1041
I0
tp2990
a(I856
I4
F0.375
S'heating'
p2991
I0
tp2992
a(I1372
I16
F0.375
S'heating'
p2993
I0
tp2994
a(I114
I12
F0.375
S'heating'
p2995
I2
tp2996
a(I118
I9
I0
S'serious'
p2997
I2
tp2998
a(I129
I2
F0.375
S'heating'
p2999
I2
tp3000
a(I152
I2
F-0.625
g1905
I2
tp3001
a(I162
I1
F0.625
S'major'
p3002
I2
tp3003
a(I229
I1
F0.625
S'major'
p3004
I2
tp3005
a(I261
I27
F0.375
S'much'
p3006
I2
tp3007
a(I294
I0
F0.375
g998
I2
tp3008
a(I332
I44
F-0.875
S'small'
p3009
I2
tp3010
a(I334
I4
I0
S'big'
p3011
I2
tp3012
a(I335
I3
I0
g1116
I2
tp3013
a(I342
I1
F-0.625
g1909
I2
tp3014
a(I342
I7
I0
S'big'
p3015
I2
tp3016
a(I366
I3
F0.375
S'heating'
p3017
I2
tp3018
a(I391
I0
F0.375
S'heating'
p3019
I2
tp3020
a(I487
I0
F0.375
g1031
I2
tp3021
a(I492
I4
F0.375
g2987
I2
tp3022
a(I492
I9
F0.375
g1000
I2
tp3023
a(I521
I6
F0.375
g1911
I2
tp3024
a(I549
I1
F-0.375
g1002
I2
tp3025
a(I556
I0
F0.375
g1004
I2
tp3026
a(I556
I0
I0
g1006
I2
tp3027
a(I597
I2
F0.375
g1318
I2
tp3028
a(I597
I6
F0.375
g1320
I2
tp3029
a(I597
I10
F0.375
g1033
I2
tp3030
a(I630
I1
I0
S'main'
p3031
I2
tp3032
a(I649
I15
F1.0
g1323
I2
tp3033
a(I674
I0
I0
S'only'
p3034
I2
tp3035
a(I678
I0
F-0.125
g1325
I2
tp3036
a(I678
I0
F0.875
g1327
I2
tp3037
a(I693
I0
I0
g1039
I2
tp3038
a(I713
I6
F0.375
S'heating'
p3039
I2
tp3040
a(I730
I13
F0.375
S'heating'
p3041
I2
tp3042
a(I785
I0
F0.375
S'much'
p3043
I2
tp3044
a(I846
I12
F0.375
g1041
I2
tp3045
a(I856
I4
F0.375
g2991
I2
tp3046
a(I856
I14
I0
g1008
I2
tp3047
a(I857
I0
F0.375
g1331
I2
tp3048
a(I887
I0
I0
S'only'
p3049
I2
tp3050
a(I890
I1
F0.625
g1010
I2
tp3051
a(I890
I1
F0.625
g1012
I2
tp3052
a(I903
I10
I0
g1335
I2
tp3053
a(I903
I10
F0.625
g1337
I2
tp3054
a(I921
I0
F-0.625
S'other'
p3055
I2
tp3056
a(I952
I4
I0
S'update'
p3057
I2
tp3058
a(I971
I9
F-0.125
g1339
I2
tp3059
a(I986
I11
F0.375
g1341
I2
tp3060
a(I995
I0
F0.375
S'heating'
p3061
I2
tp3062
a(I997
I0
F0.375
S'heating'
p3063
I2
tp3064
a(I1051
I2
F0.375
g1014
I2
tp3065
a(I1051
I6
F0.125
g1016
I2
tp3066
a(I1119
I12
I-100
S'alll'
p3067
I2
tp3068
a(I1123
I35
F0.375
g1344
I2
tp3069
a(I1176
I9
F0.75
g1018
I2
tp3070
a(I1181
I3
F0.375
g1020
I2
tp3071
a(I1181
I3
F0.375
g1022
I2
tp3072
a(I1222
I0
F0.375
g1348
I2
tp3073
a(I1230
I17
F0.375
S'heating'
p3074
I2
tp3075
a(I1240
I0
I0
S'main'
p3076
I2
tp3077
a(I1331
I30
F0.375
g1350
I2
tp3078
a(I1338
I23
I0
S't'
p3079
I2
tp3080
a(I1338
I23
F0.375
S'heating'
p3081
I2
tp3082
a(I1372
I16
F0.375
g2993
I2
tp3083
a(I1482
I4
F0.625
S'laughable'
p3084
I2
tp3085
a(I1540
I0
F-0.625
g1352
I2
tp3086
a(I1541
I1
I0
S'serious'
p3087
I2
tp3088
a(I1565
I4
F0.375
S'heating'
p3089
I2
tp3090
a(I1565
I10
F0.375
g1050
I2
tp3091
a(I1568
I5
F-1.0
S'worst'
p3092
I2
tp3093
a(I1575
I6
F0.375
g1024
I2
tp3094
a(I1577
I1
F0.375
S'much'
p3095
I2
tp3096
a(I1577
I1
F-0.25
S'i'
p3097
I2
tp3098
a(I1582
I5
I0
g1355
I2
tp3099
a(I1582
I5
F0.5
g1357
I2
tp3100
a(I1604
I2
F0.375
S'heating'
p3101
I2
tp3102
a(I1607
I2
F0.625
S'major'
p3103
I2
tp3104
as(S'good'
p3105
S'battery'
p3106
S'life'
p3107
tp3108
(lp3109
(I332
I12
F1.0
S'good'
p3110
I0
tp3111
a(I461
I4
F0.375
S'ok'
p3112
I0
tp3113
a(I490
I8
F1.0
S'good'
p3114
I0
tp3115
a(I624
I0
F1.0
S'good'
p3116
I0
tp3117
a(I757
I1
F1.0
S'good'
p3118
I0
tp3119
a(I769
I5
F1.0
S'good'
p3120
I0
tp3121
a(I779
I2
F1.0
S'good'
p3122
I0
tp3123
a(I799
I21
F1.0
S'good'
p3124
I0
tp3125
a(I830
I12
F-0.625
S'average'
p3126
I0
tp3127
a(I830
I12
F1.0
S'good'
p3128
I0
tp3129
a(I1157
I0
F1.0
S'good'
p3130
I0
tp3131
a(I1157
I0
I0
S'least'
p3132
I0
tp3133
a(I229
I3
F1.0
S'good'
p3134
I1
tp3135
a(I288
I0
F0.875
S'awesome'
p3136
I1
tp3137
a(I332
I12
F1.0
g3110
I1
tp3138
a(I338
I0
F1.0
S'good'
p3139
I1
tp3140
a(I342
I3
F1.0
S'good'
p3141
I1
tp3142
a(I359
I4
F1.0
S'good'
p3143
I1
tp3144
a(I369
I2
F0.125
S'mobile'
p3145
I1
tp3146
a(I371
I0
F1.0
S'good'
p3147
I1
tp3148
a(I405
I0
F1.0
S'good'
p3149
I1
tp3150
a(I516
I3
F0.875
S'decent'
p3151
I1
tp3152
a(I516
I3
F0.5
S'higher'
p3153
I1
tp3154
a(I624
I0
F1.0
g3116
I1
tp3155
a(I646
I1
F1.0
S'good'
p3156
I1
tp3157
a(I652
I1
F1.0
S'good'
p3158
I1
tp3159
a(I678
I0
F1.0
S'good'
p3160
I1
tp3161
a(I680
I4
F1.0
S'good'
p3162
I1
tp3163
a(I699
I0
F1.0
g2589
I1
tp3164
a(I707
I3
F0.875
S'nice'
p3165
I1
tp3166
a(I707
I3
F1.0
S'good'
p3167
I1
tp3168
a(I711
I1
F1.0
g2591
I1
tp3169
a(I769
I5
F1.0
g3120
I1
tp3170
a(I798
I5
F1.0
g2599
I1
tp3171
a(I799
I21
F1.0
g3124
I1
tp3172
a(I799
I38
F1.0
S'good'
p3173
I1
tp3174
a(I841
I9
F1.0
S'good'
p3175
I1
tp3176
a(I846
I19
F1.0
S'good'
p3177
I1
tp3178
a(I846
I19
F1.0
S'good'
p3179
I1
tp3180
a(I846
I20
F1.0
S'good'
p3181
I1
tp3182
a(I846
I20
F1.0
S'good'
p3183
I1
tp3184
a(I846
I21
F1.0
S'good'
p3185
I1
tp3186
a(I846
I21
F1.0
S'good'
p3187
I1
tp3188
a(I993
I0
F0.125
S'mobile'
p3189
I1
tp3190
a(I995
I14
F-0.875
S'poor'
p3191
I1
tp3192
a(I1000
I2
F-0.75
S'little'
p3193
I1
tp3194
a(I1002
I3
F-0.75
S'little'
p3195
I1
tp3196
a(I1002
I3
F0.875
S'nice'
p3197
I1
tp3198
a(I1002
I3
F0.875
S'great'
p3199
I1
tp3200
a(I1034
I0
F-0.875
S'poor'
p3201
I1
tp3202
a(I1048
I1
F1.0
S'good'
p3203
I1
tp3204
a(I1051
I10
F1.0
g2603
I1
tp3205
a(I1065
I0
F0.375
S'capable'
p3206
I1
tp3207
a(I1121
I5
F1.0
S'good'
p3208
I1
tp3209
a(I1157
I0
F1.0
g3130
I1
tp3210
a(I1165
I0
F1.0
S'good'
p3211
I1
tp3212
a(I1179
I11
F1.0
S'good'
p3213
I1
tp3214
a(I1208
I7
F1.0
g2609
I1
tp3215
a(I1220
I8
F0.875
g2611
I1
tp3216
a(I1280
I0
F0.375
S'ok'
p3217
I1
tp3218
a(I1338
I0
F1.0
g2619
I1
tp3219
a(I1348
I1
F1.0
g2621
I1
tp3220
a(I1442
I46
F1.0
S'good'
p3221
I1
tp3222
a(I156
I13
F-0.25
S'battery'
p3223
I3
tp3224
a(I225
I3
F0.875
S'decent'
p3225
I3
tp3226
a(I230
I6
F0.5
S'reasonable'
p3227
I3
tp3228
a(I332
I12
F1.0
g3110
I3
tp3229
a(I352
I0
F-0.625
S'average'
p3230
I3
tp3231
a(I461
I4
F0.375
g3112
I3
tp3232
a(I490
I8
F1.0
g3114
I3
tp3233
a(I535
I0
F1.0
S'best'
p3234
I3
tp3235
a(I624
I0
F1.0
g3116
I3
tp3236
a(I757
I1
F1.0
g3118
I3
tp3237
a(I769
I5
F1.0
g3120
I3
tp3238
a(I779
I2
F1.0
g3122
I3
tp3239
a(I783
I0
F-0.625
S'average'
p3240
I3
tp3241
a(I797
I0
F0.875
S'decent'
p3242
I3
tp3243
a(I799
I21
F1.0
g3124
I3
tp3244
a(I830
I12
F-0.625
g3126
I3
tp3245
a(I830
I12
F1.0
g3128
I3
tp3246
a(I1000
I1
I0
S'normal'
p3247
I3
tp3248
a(I1083
I0
I-100
S'aprox'
p3249
I3
tp3250
a(I1157
I0
F1.0
g3130
I3
tp3251
a(I1157
I0
I0
g3132
I3
tp3252
a(I1222
I2
F0.375
S'much'
p3253
I3
tp3254
a(I1232
I0
I0
S'v'
p3255
I3
tp3256
a(I1436
I2
F-0.75
S'little'
p3257
I3
tp3258
a(I1529
I6
F-0.875
S'poor'
p3259
I3
tp3260
a(I156
I13
F-0.25
g3223
I8
tp3261
a(I230
I6
F0.5
g3227
I8
tp3262
a(I352
I0
F-0.625
g3230
I8
tp3263
a(I461
I4
F0.375
g3112
I8
tp3264
a(I490
I8
F1.0
g3114
I8
tp3265
a(I491
I45
F-0.125
S'such'
p3266
I8
tp3267
a(I757
I1
F1.0
g3118
I8
tp3268
a(I779
I2
F1.0
g3122
I8
tp3269
a(I830
I12
F-0.625
g3126
I8
tp3270
a(I830
I12
F1.0
g3128
I8
tp3271
a(I1000
I1
I0
g3247
I8
tp3272
a(I1037
I1
F0.375
S'ok'
p3273
I8
tp3274
a(I1157
I0
I0
g3132
I8
tp3275
a(I1222
I2
F0.375
g3253
I8
tp3276
a(I1232
I0
I0
g3255
I8
tp3277
a(I1395
I0
F1.0
S'good'
p3278
I8
tp3279
a(I1436
I2
F-0.75
g3257
I8
tp3280
a(I1442
I10
F-1.0
S'worst'
p3281
I8
tp3282
as(S'heating'
p3283
S'and'
p3284
S'camera'
p3285
tp3286
(lp3287
(I206
I1
I0
g1104
I0
tp3288
a(I206
I1
F-0.875
g1514
I0
tp3289
a(I229
I11
F1.0
g530
I0
tp3290
a(I231
I12
F1.0
S'good'
p3291
I0
tp3292
a(I231
I12
F0.625
S'acceptable'
p3293
I0
tp3294
a(I288
I31
F1.0
g1192
I0
tp3295
a(I288
I31
F-0.125
g1194
I0
tp3296
a(I288
I31
F1.0
g1196
I0
tp3297
a(I369
I7
F0.375
g451
I0
tp3298
a(I369
I7
F-0.875
g453
I0
tp3299
a(I649
I14
F1.0
g541
I0
tp3300
a(I732
I1
F1.0
S'better'
p3301
I0
tp3302
a(I857
I0
F0.375
g1331
I0
tp3303
a(I857
I0
I0
g560
I0
tp3304
a(I857
I0
I0
g562
I0
tp3305
a(I857
I0
F1.0
g564
I0
tp3306
a(I995
I9
F0.875
S'nice'
p3307
I0
tp3308
a(I1076
I1
F1.0
g1263
I0
tp3309
a(I1337
I4
F1.0
g1288
I0
tp3310
a(I1371
I15
F-0.125
g583
I0
tp3311
a(I1414
I8
F-1.0
S'bad'
p3312
I0
tp3313
a(I1562
I0
F1.0
g1306
I0
tp3314
a(I1575
I1
F-0.875
g1553
I0
tp3315
as(S'and'
p3316
S'sound'
p3317
S'quality'
p3318
tp3319
(lp3320
(I206
I3
F0.875
g2361
I1
tp3321
a(I287
I6
F0.875
g2421
I1
tp3322
a(I287
I6
F0.75
g2423
I1
tp3323
a(I317
I11
F1.0
g2368
I1
tp3324
a(I467
I0
F0.75
g847
I1
tp3325
a(I467
I0
F1.0
g849
I1
tp3326
a(I612
I0
F-1.0
g2445
I1
tp3327
a(I633
I0
F1.0
g2384
I1
tp3328
a(I883
I1
F1.0
g2395
I1
tp3329
a(I898
I8
F0.75
g857
I1
tp3330
a(I898
I8
F1.0
g859
I1
tp3331
a(I970
I2
F0.875
g2457
I1
tp3332
a(I977
I0
F0.875
g2399
I1
tp3333
a(I1033
I16
F0.75
g2460
I1
tp3334
a(I1033
I16
I-100
S'fav'
p3335
I1
tp3336
a(I1077
I4
F0.5
g864
I1
tp3337
a(I1229
I1
F0.875
g2481
I1
tp3338
a(I1230
I3
F1.0
g868
I1
tp3339
a(I1318
I6
F0.875
g654
I1
tp3340
a(I1318
I6
F0.875
g656
I1
tp3341
a(I1336
I0
F1.0
g513
I1
tp3342
a(I1336
I0
F0.75
g515
I1
tp3343
a(I1336
I0
F0.5
g517
I1
tp3344
a(I1423
I5
F0.75
g2505
I1
tp3345
a(I1423
I5
F0.875
g2507
I1
tp3346
a(I1606
I1
F0.875
g2417
I1
tp3347
as(S'superb'
p3348
tp3349
(lp3350
(I287
I6
F-0.25
S'i'
p3351
I0
tp3352
as(S'k3'
p3353
S'note'
p3354
tp3355
(lp3356
(I653
I0
F-0.375
S'same'
p3357
I0
tp3358
a(I778
I6
F1.0
S'better'
p3359
I0
tp3360
a(I778
I6
F1.0
g3359
I1
tp3361
a(I980
I14
F0.75
S'due'
p3362
I1
tp3363
a(I1277
I1
I0
S'update'
p3364
I1
tp3365
a(I1277
I1
F0.375
S'much'
p3366
I1
tp3367
a(I1442
I23
I-100
S'vive'
p3368
I1
tp3369
as(S'upto'
p3370
S'mark'
p3371
tp3372
(lp3373
(I98
I0
F-0.875
S'low'
p3374
I0
tp3375
a(I707
I0
F1.0
S'good'
p3376
I0
tp3377
a(I1161
I0
F-0.125
S'overall'
p3378
I0
tp3379
as(S'color'
p3380
S'reproduction'
p3381
tp3382
(lp3383
(I353
I1
I0
S'total'
p3384
I0
tp3385
a(I491
I39
F-0.625
S'horrible'
p3386
I0
tp3387
a(I763
I19
F1.0
S'good'
p3388
I0
tp3389
as(S'camera'
p3390
S'ok'
p3391
tp3392
(lp3393
(I65
I5
F1.0
g1510
I0
tp3394
a(I108
I4
F0.375
S'ok'
p3395
I0
tp3396
a(I152
I2
F-0.125
g1512
I0
tp3397
a(I159
I0
F0.375
S'ok'
p3398
I0
tp3399
a(I241
I3
F0.375
S'ok'
p3400
I0
tp3401
a(I288
I18
F0.375
g1190
I0
tp3402
a(I407
I12
F-0.125
g2211
I0
tp3403
a(I436
I1
F0.375
S'ok'
p3404
I0
tp3405
a(I473
I0
I0
S'rear'
p3406
I0
tp3407
a(I488
I0
F0.375
S'ok'
p3408
I0
tp3409
a(I668
I1
F0.375
g2525
I0
tp3410
a(I671
I2
F0.625
g1224
I0
tp3411
a(I712
I1
F0.375
g2531
I0
tp3412
a(I756
I9
F0.375
S'ok'
p3413
I0
tp3414
a(I770
I3
F1.0
g1235
I0
tp3415
a(I786
I18
F-0.625
g554
I0
tp3416
a(I799
I29
F-0.125
g1239
I0
tp3417
a(I799
I29
F1.0
g1241
I0
tp3418
a(I799
I29
F-0.125
g1243
I0
tp3419
a(I804
I0
F0.625
g467
I0
tp3420
a(I830
I10
F0.375
S'ok'
p3421
I0
tp3422
a(I855
I3
F-0.125
g556
I0
tp3423
a(I855
I3
F1.0
g558
I0
tp3424
a(I857
I0
I0
g560
I0
tp3425
a(I857
I0
I0
g562
I0
tp3426
a(I857
I0
F1.0
g564
I0
tp3427
a(I860
I1
F-0.125
g2548
I0
tp3428
a(I883
I1
F0.875
g469
I0
tp3429
a(I903
I0
F0.75
g471
I0
tp3430
a(I929
I0
F0.875
g566
I0
tp3431
a(I974
I2
F1.0
g2258
I0
tp3432
a(I982
I3
F1.0
g1539
I0
tp3433
a(I995
I9
F0.875
g3307
I0
tp3434
a(I1002
I3
F1.0
S'good'
p3435
I0
tp3436
a(I1002
I3
F0.875
S'great'
p3437
I0
tp3438
a(I1033
I5
F0.375
S'ok'
p3439
I0
tp3440
a(I1037
I4
F-0.875
S'poor'
p3441
I0
tp3442
a(I1076
I1
F1.0
g1263
I0
tp3443
a(I1153
I10
F0.375
S'ok'
p3444
I0
tp3445
a(I1153
I10
F1.0
S'excellent'
p3446
I0
tp3447
a(I1160
I3
F1.0
g577
I0
tp3448
a(I1233
I0
F0.375
S'ok'
p3449
I0
tp3450
a(I1277
I8
I0
g1273
I0
tp3451
a(I1277
I8
F1.0
g1275
I0
tp3452
a(I1277
I8
F1.0
g1277
I0
tp3453
a(I1280
I0
F1.0
g2564
I0
tp3454
a(I1319
I7
F0.375
g1283
I0
tp3455
a(I1319
I7
F1.0
g1285
I0
tp3456
a(I1336
I0
F1.0
g519
I0
tp3457
a(I1339
I9
F1.0
g1290
I0
tp3458
a(I1339
I9
I0
g1292
I0
tp3459
a(I1362
I1
F-0.125
g2295
I0
tp3460
a(I1362
I1
F0.625
g2297
I0
tp3461
a(I1377
I3
I0
g1547
I0
tp3462
a(I1599
I3
F1.0
g1557
I0
tp3463
as(S'rear'
p3464
S'camera'
p3465
tp3466
(lp3467
(I205
I2
I0
S'rear'
p3468
I6
tp3469
a(I205
I3
F-0.75
g2192
I6
tp3470
a(I283
I0
F-1.0
S'bad'
p3471
I6
tp3472
a(I304
I0
I0
g1198
I6
tp3473
a(I304
I0
F1.0
g1200
I6
tp3474
a(I341
I4
F1.0
g1204
I6
tp3475
a(I341
I4
I0
g1206
I6
tp3476
a(I341
I4
F0.5
g1208
I6
tp3477
a(I397
I1
I0
S'rear'
p3478
I6
tp3479
a(I397
I1
F-0.875
S'poor'
p3480
I6
tp3481
a(I407
I12
F-0.125
g2211
I6
tp3482
a(I461
I6
I0
g2215
I6
tp3483
a(I461
I6
I0
g2217
I6
tp3484
a(I473
I0
I0
g3406
I6
tp3485
a(I491
I38
F1.0
S'good'
p3486
I6
tp3487
a(I629
I1
I0
g537
I6
tp3488
a(I720
I1
I0
S'rear'
p3489
I6
tp3490
a(I720
I1
F1.0
S'good'
p3491
I6
tp3492
a(I805
I3
I0
g2247
I6
tp3493
a(I855
I3
F-0.125
g556
I6
tp3494
a(I855
I3
F1.0
g558
I6
tp3495
a(I857
I0
I0
g560
I6
tp3496
a(I857
I0
I0
g562
I6
tp3497
a(I857
I0
F1.0
g564
I6
tp3498
a(I860
I0
I0
S'rear'
p3499
I6
tp3500
a(I971
I16
I0
S'rear'
p3501
I6
tp3502
a(I980
I9
I0
S'rear'
p3503
I6
tp3504
a(I980
I9
F1.0
S'good'
p3505
I6
tp3506
a(I1077
I23
I0
S'rear'
p3507
I6
tp3508
a(I1223
I6
I0
g2281
I6
tp3509
a(I1277
I8
I0
g1273
I6
tp3510
a(I1277
I8
F1.0
g1275
I6
tp3511
a(I1277
I8
F1.0
g1277
I6
tp3512
a(I1331
I26
I0
g509
I6
tp3513
a(I1469
I1
F-0.625
S'horrible'
p3514
I6
tp3515
a(I1469
I1
I0
S'rear'
p3516
I6
tp3517
a(I1492
I3
I0
S'rear'
p3518
I6
tp3519
a(I1492
I3
F1.0
S'good'
p3520
I6
tp3521
a(I1530
I5
I0
g2308
I6
tp3522
a(I1555
I5
F-0.125
g2310
I6
tp3523
a(I1555
I5
F1.0
g2312
I6
tp3524
a(I572
I0
F0.125
S'twin'
p3525
I7
tp3526
as(S'octa'
p3527
S'core'
p3528
S'processor'
p3529
tp3530
(lp3531
(I189
I8
F1.0
S'good'
p3532
I0
tp3533
a(I20
I1
F1.0
S'good'
p3534
I8
tp3535
a(I97
I6
I0
S'snapdragon'
p3536
I8
tp3537
a(I189
I8
F1.0
g3532
I8
tp3538
a(I288
I24
I0
S'snapdragon'
p3539
I8
tp3540
a(I310
I0
F1.0
S'good'
p3541
I8
tp3542
a(I345
I16
F1.0
S'good'
p3543
I8
tp3544
a(I452
I1
F1.0
S'good'
p3545
I8
tp3546
a(I517
I8
F1.0
S'best'
p3547
I8
tp3548
a(I601
I1
F1.0
S'good'
p3549
I8
tp3550
a(I614
I0
F1.0
S'good'
p3551
I8
tp3552
a(I799
I22
F0.5
S'powerful'
p3553
I8
tp3554
a(I799
I22
F-0.5
S'sluggish'
p3555
I8
tp3556
a(I906
I1
F1.0
S'good'
p3557
I8
tp3558
a(I1035
I4
F0.625
S'smooth'
p3559
I8
tp3560
a(I1124
I20
F0.5
S'stable'
p3561
I8
tp3562
a(I1124
I20
F-0.5
S'less'
p3563
I8
tp3564
a(I1230
I12
F1.0
S'good'
p3565
I8
tp3566
a(I1230
I12
F1.0
S'good'
p3567
I8
tp3568
a(I1260
I10
F0.875
S'great'
p3569
I8
tp3570
a(I1267
I14
F1.0
S'good'
p3571
I8
tp3572
a(I1267
I14
F1.0
S'good'
p3573
I8
tp3574
a(I1479
I20
F0.75
S'due'
p3575
I8
tp3576
as(S'full'
p3577
S'hd'
p3578
S'display'
p3579
tp3580
(lp3581
(I763
I5
F0.375
S'full'
p3582
I0
tp3583
a(I1065
I0
F0.375
S'full'
p3584
I0
tp3585
a(I306
I4
F0.375
S'full'
p3586
I0
tp3587
a(I763
I5
F0.375
g3582
I0
tp3588
a(I779
I1
F0.375
S'full'
p3589
I0
tp3590
a(I1065
I0
F0.375
g3584
I0
tp3591
a(I1334
I0
F0.375
S'full'
p3592
I0
tp3593
a(I1438
I17
F0.375
S'full'
p3594
I0
tp3595
a(I19
I1
F0.75
S'premium'
p3596
I13
tp3597
a(I19
I1
F-0.625
S'wide'
p3598
I13
tp3599
a(I36
I9
F1.0
g316
I13
tp3600
a(I36
I11
I0
S'bright'
p3601
I13
tp3602
a(I125
I5
F0.875
S'brilliant'
p3603
I13
tp3604
a(I241
I17
F0.75
g276
I13
tp3605
a(I246
I3
F-0.625
S'sharp'
p3606
I13
tp3607
a(I259
I0
F1.0
g319
I13
tp3608
a(I278
I0
F0.875
g321
I13
tp3609
a(I295
I0
F1.0
g278
I13
tp3610
a(I295
I0
F-0.625
g280
I13
tp3611
a(I311
I0
F1.0
g325
I13
tp3612
a(I332
I24
F-0.625
S'sharp'
p3613
I13
tp3614
a(I351
I2
I0
S'crystal'
p3615
I13
tp3616
a(I351
I2
I0
S'clear'
p3617
I13
tp3618
a(I370
I0
F1.0
g327
I13
tp3619
a(I440
I1
F1.0
g329
I13
tp3620
a(I480
I1
F0.5
S'crisp'
p3621
I13
tp3622
a(I480
I1
F1.0
S'better'
p3623
I13
tp3624
a(I491
I56
F0.875
S'awesome'
p3625
I13
tp3626
a(I491
I56
F0.875
S'awesome'
p3627
I13
tp3628
a(I492
I6
F1.0
g331
I13
tp3629
a(I504
I11
F-1.0
S'bad'
p3630
I13
tp3631
a(I508
I0
F1.0
g333
I13
tp3632
a(I523
I0
F0.5
g335
I13
tp3633
a(I561
I1
I0
S'sms'
p3634
I13
tp3635
a(I561
I1
F-0.375
S'same'
p3636
I13
tp3637
a(I563
I0
F1.0
g337
I13
tp3638
a(I563
I0
F1.0
g339
I13
tp3639
a(I570
I0
F0.75
S'premium'
p3640
I13
tp3641
a(I570
I0
F-0.625
S'wide'
p3642
I13
tp3643
a(I574
I0
F1.0
g341
I13
tp3644
a(I599
I21
F-0.625
g343
I13
tp3645
a(I600
I1
F0.75
S'premium'
p3646
I13
tp3647
a(I600
I1
F-0.625
S'wide'
p3648
I13
tp3649
a(I613
I2
F0.75
S'premium'
p3650
I13
tp3651
a(I613
I2
F-0.625
S'wide'
p3652
I13
tp3653
a(I631
I16
F1.0
g282
I13
tp3654
a(I631
I16
F1.0
g284
I13
tp3655
a(I634
I3
F1.0
g286
I13
tp3656
a(I640
I6
F1.0
g348
I13
tp3657
a(I669
I3
F-0.125
S'such'
p3658
I13
tp3659
a(I669
I3
F0.625
S'vibrant'
p3660
I13
tp3661
a(I697
I0
F0.875
S'amazing'
p3662
I13
tp3663
a(I707
I3
F0.75
g288
I13
tp3664
a(I707
I3
F0.875
g290
I13
tp3665
a(I719
I1
I0
S'inch'
p3666
I13
tp3667
a(I730
I5
F0.875
g352
I13
tp3668
a(I731
I5
F1.0
g292
I13
tp3669
a(I735
I0
F1.0
g294
I13
tp3670
a(I754
I0
F0.75
S'beautiful'
p3671
I13
tp3672
a(I767
I0
F0.875
S'great'
p3673
I13
tp3674
a(I767
I5
F0.875
g296
I13
tp3675
a(I779
I0
F1.0
g298
I13
tp3676
a(I779
I0
F-0.625
g300
I13
tp3677
a(I786
I18
F0.875
g302
I13
tp3678
a(I799
I21
F1.0
g360
I13
tp3679
a(I841
I1
F1.0
g362
I13
tp3680
a(I846
I8
F0.625
S'super'
p3681
I13
tp3682
a(I848
I0
F0.875
S'nice'
p3683
I13
tp3684
a(I895
I2
F0.5
S'touch'
p3685
I13
tp3686
a(I905
I1
F0.75
S'premium'
p3687
I13
tp3688
a(I905
I1
F-0.625
S'wide'
p3689
I13
tp3690
a(I976
I5
F1.0
g304
I13
tp3691
a(I980
I4
F1.0
g306
I13
tp3692
a(I1020
I2
F0.875
S'nice'
p3693
I13
tp3694
a(I1024
I0
F0.875
S'nice'
p3695
I13
tp3696
a(I1024
I0
F0.375
S'sleek'
p3697
I13
tp3698
a(I1060
I12
F0.875
S'great'
p3699
I13
tp3700
a(I1060
I13
F1.0
S'better'
p3701
I13
tp3702
a(I1060
I13
I-100
S'redmi2'
p3703
I13
tp3704
a(I1077
I9
F1.0
g366
I13
tp3705
a(I1096
I4
F0.75
S'sound'
p3706
I13
tp3707
a(I1106
I0
F1.0
g368
I13
tp3708
a(I1113
I1
F1.0
g308
I13
tp3709
a(I1156
I8
I0
S'clear'
p3710
I13
tp3711
a(I1177
I0
F1.0
g310
I13
tp3712
a(I1208
I6
F1.0
g372
I13
tp3713
a(I1222
I3
F0.875
S'awesome'
p3714
I13
tp3715
a(I1235
I0
F-0.625
S'sharp'
p3716
I13
tp3717
a(I1235
I0
F1.0
S'excellent'
p3718
I13
tp3719
a(I1277
I4
F0.5
S'weight'
p3720
I13
tp3721
a(I1277
I4
F1.0
S'excellent'
p3722
I13
tp3723
a(I1284
I0
F0.875
S'awesome'
p3724
I13
tp3725
a(I1318
I1
F0.875
g312
I13
tp3726
a(I1318
I1
F1.0
g314
I13
tp3727
a(I1320
I0
F0.875
g376
I13
tp3728
a(I1320
I0
F1.0
g378
I13
tp3729
a(I1321
I0
F0.75
S'perfect'
p3730
I13
tp3731
a(I1354
I0
F0.875
S'great'
p3732
I13
tp3733
a(I1372
I3
F0.875
S'great'
p3734
I13
tp3735
a(I1391
I12
F-0.625
S'sharp'
p3736
I13
tp3737
a(I1391
I12
F0.75
S'due'
p3738
I13
tp3739
a(I1447
I2
F0.875
g380
I13
tp3740
a(I1447
I2
F1.0
g382
I13
tp3741
a(I1482
I7
F0.75
S'gorgeous'
p3742
I13
tp3743
a(I1482
I7
F0.375
S'impressive'
p3744
I13
tp3745
a(I1530
I4
F1.0
g384
I13
tp3746
as(S'features'
p3747
S'are'
p3748
S'good'
p3749
tp3750
(lp3751
(I128
I3
F-0.625
S'other'
p3752
I3
tp3753
a(I128
I3
F1.0
S'good'
p3754
I3
tp3755
a(I345
I0
F1.0
S'good'
p3756
I3
tp3757
a(I345
I0
I0
S'looks'
p3758
I3
tp3759
a(I345
I0
F1.0
S'good'
p3760
I3
tp3761
a(I386
I2
F1.0
S'good'
p3762
I3
tp3763
a(I417
I12
F1.0
S'good'
p3764
I3
tp3765
a(I610
I8
F1.0
S'good'
p3766
I3
tp3767
a(I626
I9
F-0.625
S'other'
p3768
I3
tp3769
a(I626
I9
F1.0
S'good'
p3770
I3
tp3771
a(I704
I1
F1.0
S'good'
p3772
I3
tp3773
a(I731
I23
F1.0
S'good'
p3774
I3
tp3775
a(I794
I11
F1.0
S'good'
p3776
I3
tp3777
a(I827
I0
F-0.625
S'other'
p3778
I3
tp3779
a(I827
I0
F1.0
S'good'
p3780
I3
tp3781
a(I951
I0
F1.0
S'good'
p3782
I3
tp3783
a(I980
I12
F1.0
S'good'
p3784
I3
tp3785
a(I993
I0
F0.875
S'awesome'
p3786
I3
tp3787
a(I1033
I0
F-0.625
S'other'
p3788
I3
tp3789
a(I1033
I0
F1.0
S'excellent'
p3790
I3
tp3791
a(I1035
I2
F1.0
S'good'
p3792
I3
tp3793
a(I1122
I0
F-0.25
S'latest'
p3794
I3
tp3795
a(I1309
I2
F1.0
S'good'
p3796
I3
tp3797
a(I1371
I15
F1.0
S'best'
p3798
I3
tp3799
a(I1442
I18
F-0.625
S'other'
p3800
I3
tp3801
a(I1442
I18
F1.0
S'good'
p3802
I3
tp3803
a(I1556
I0
F1.0
S'good'
p3804
I3
tp3805
as(S'support'
p3806
tp3807
(lp3808
(I220
I5
I0
S'cool'
p3809
I12
tp3810
a(I301
I0
F-0.875
S'cheapest'
p3811
I12
tp3812
a(I471
I13
I-100
S'vr'
p3813
I12
tp3814
a(I736
I0
F1.0
S'good'
p3815
I12
tp3816
a(I1335
I11
I-100
S'theatremax'
p3817
I12
tp3818
as(S'at'
p3819
S'price'
p3820
S'range'
p3821
tp3822
(lp3823
(I846
I18
F-0.25
S'i'
p3824
I0
tp3825
as(g21
S'days'
p3826
tp3827
(lp3828
(I317
I0
I0
S'more'
p3829
I2
tp3830
a(I1261
I1
I0
S'few'
p3831
I2
tp3832
a(I1537
I4
I-100
S'fon'
p3833
I2
tp3834
a(I1568
I0
F-0.625
S'last'
p3835
I2
tp3836
a(I1578
I0
F1.0
S'good'
p3837
I2
tp3838
a(I1578
I14
F0.5
S'accepted'
p3839
I2
tp3840
as(S'in'
p3841
S'price'
p3842
S'range'
p3843
tp3844
(lp3845
(I763
I17
F1.0
S'best'
p3846
I0
tp3847
a(I846
I18
F-0.25
g3824
I0
tp3848
a(I971
I20
I0
S'middle'
p3849
I0
tp3850
a(I288
I13
F0.375
S'much'
p3851
I13
tp3852
a(I763
I17
F1.0
g3846
I13
tp3853
a(I846
I18
F-0.25
g3824
I13
tp3854
a(I971
I20
I0
g3849
I13
tp3855
as(S'much'
p3856
S'heating'
p3857
S'issue'
p3858
tp3859
(lp3860
(I261
I27
F0.375
g3006
I0
tp3861
a(I556
I0
F0.375
g1004
I0
tp3862
a(I556
I0
I0
g1006
I0
tp3863
a(I785
I0
F0.375
g3043
I0
tp3864
a(I857
I0
F0.375
g1331
I0
tp3865
a(I1181
I3
F0.375
g1020
I0
tp3866
a(I1181
I3
F0.375
g1022
I0
tp3867
a(I1222
I0
F0.375
g1348
I0
tp3868
a(I1577
I1
F0.375
g3095
I0
tp3869
a(I1577
I1
F-0.25
g3097
I0
tp3870
a(I128
I4
F0.375
S'much'
p3871
I2
tp3872
a(I155
I1
F0.375
S'much'
p3873
I2
tp3874
a(I205
I0
F0.375
S'much'
p3875
I2
tp3876
a(I261
I27
F0.375
g3006
I2
tp3877
a(I384
I12
F0.375
S'much'
p3878
I2
tp3879
a(I785
I0
F0.375
g3043
I2
tp3880
a(I828
I5
F0.375
g1139
I2
tp3881
a(I857
I0
F0.375
g1331
I2
tp3882
a(I1064
I2
F0.375
g1155
I2
tp3883
a(I1181
I3
F0.375
g1022
I2
tp3884
a(I1222
I0
F0.375
g1348
I2
tp3885
a(I1492
I5
F0.375
S'much'
p3886
I2
tp3887
a(I1549
I2
F0.375
S'much'
p3888
I2
tp3889
a(I1577
I1
F0.375
g3095
I2
tp3890
a(I1603
I1
F0.375
S'much'
p3891
I2
tp3892
as(S'very'
p3893
S'light'
p3894
S'weight'
p3895
tp3896
(lp3897
(I229
I13
I0
S'light'
p3898
I0
tp3899
a(I287
I5
I0
S'light'
p3900
I0
tp3901
a(I332
I34
I0
S'light'
p3902
I0
tp3903
a(I438
I1
I0
S'light'
p3904
I0
tp3905
a(I516
I3
I0
S'light'
p3906
I0
tp3907
a(I566
I4
F0.875
S'nice'
p3908
I0
tp3909
a(I973
I0
I0
S'light'
p3910
I0
tp3911
a(I973
I0
F0.875
S'great'
p3912
I0
tp3913
a(I980
I10
F0.875
S'nice'
p3914
I0
tp3915
a(I980
I10
I0
S'light'
p3916
I0
tp3917
a(I1051
I7
I0
S'light'
p3918
I0
tp3919
a(I1051
I7
F0.375
S'sleek'
p3920
I0
tp3921
a(I1088
I0
I0
S'light'
p3922
I0
tp3923
a(I1088
I0
F0.875
S'great'
p3924
I0
tp3925
a(I1230
I3
I0
S'handy'
p3926
I0
tp3927
a(I1230
I3
I0
S'light'
p3928
I0
tp3929
a(I1265
I1
I0
S'light'
p3930
I0
tp3931
a(I1336
I0
I0
S'light'
p3932
I0
tp3933
a(I1371
I0
I0
S'light'
p3934
I0
tp3935
a(I23
I1
I0
S'light'
p3936
I0
tp3937
a(I36
I22
I0
S'light'
p3938
I0
tp3939
a(I69
I3
I0
S'light'
p3940
I0
tp3941
a(I103
I1
I0
S'light'
p3942
I0
tp3943
a(I132
I0
I0
S'light'
p3944
I0
tp3945
a(I229
I13
I0
g3898
I0
tp3946
a(I250
I0
I0
S'light'
p3947
I0
tp3948
a(I287
I5
I0
g3900
I0
tp3949
a(I332
I34
I0
g3902
I0
tp3950
a(I345
I22
I0
S'light'
p3951
I0
tp3952
a(I379
I0
I0
S'light'
p3953
I0
tp3954
a(I394
I1
I0
S'light'
p3955
I0
tp3956
a(I438
I1
I0
g3904
I0
tp3957
a(I507
I3
I0
S'light'
p3958
I0
tp3959
a(I516
I3
I0
g3906
I0
tp3960
a(I516
I4
I0
S'light'
p3961
I0
tp3962
a(I553
I7
I0
S'light'
p3963
I0
tp3964
a(I566
I4
F0.875
g3908
I0
tp3965
a(I584
I1
I0
S'light'
p3966
I0
tp3967
a(I604
I1
I0
S'light'
p3968
I0
tp3969
a(I615
I0
I0
S'light'
p3970
I0
tp3971
a(I763
I6
I0
S'light'
p3972
I0
tp3973
a(I799
I38
I0
S'light'
p3974
I0
tp3975
a(I799
I38
F1.0
S'good'
p3976
I0
tp3977
a(I909
I1
I0
S'light'
p3978
I0
tp3979
a(I942
I0
I0
S'light'
p3980
I0
tp3981
a(I942
I0
F0.75
S'easy'
p3982
I0
tp3983
a(I973
I0
I0
g3910
I0
tp3984
a(I973
I0
F0.875
g3912
I0
tp3985
a(I980
I10
F0.875
g3914
I0
tp3986
a(I980
I10
I0
g3916
I0
tp3987
a(I986
I3
I0
S'light'
p3988
I0
tp3989
a(I1037
I12
I0
S'light'
p3990
I0
tp3991
a(I1051
I7
I0
g3918
I0
tp3992
a(I1051
I7
F0.375
g3920
I0
tp3993
a(I1084
I1
I0
S'light'
p3994
I0
tp3995
a(I1088
I0
I0
g3922
I0
tp3996
a(I1088
I0
F0.875
g3924
I0
tp3997
a(I1096
I7
F1.0
S'good'
p3998
I0
tp3999
a(I1206
I7
I0
S'light'
p4000
I0
tp4001
a(I1210
I0
I0
S'light'
p4002
I0
tp4003
a(I1230
I3
I0
g3926
I0
tp4004
a(I1230
I3
I0
g3928
I0
tp4005
a(I1238
I4
I0
S'light'
p4006
I0
tp4007
a(I1260
I5
I0
S'light'
p4008
I0
tp4009
a(I1260
I5
F0.5
S'thin'
p4010
I0
tp4011
a(I1265
I1
I0
g3930
I0
tp4012
a(I1267
I0
I0
S'light'
p4013
I0
tp4014
a(I1268
I0
I0
S'light'
p4015
I0
tp4016
a(I1319
I6
I0
S'light'
p4017
I0
tp4018
a(I1331
I33
I0
S'light'
p4019
I0
tp4020
a(I1335
I5
I0
S'light'
p4021
I0
tp4022
a(I1336
I0
I0
g3932
I0
tp4023
a(I1337
I15
I0
S'light'
p4024
I0
tp4025
a(I1349
I1
I0
S'light'
p4026
I0
tp4027
a(I1371
I0
I0
g3934
I0
tp4028
a(I1431
I0
I0
S'light'
p4029
I0
tp4030
a(I1452
I0
I0
S'light'
p4031
I0
tp4032
a(I1523
I1
I0
S'light'
p4033
I0
tp4034
a(I23
I1
I0
g3936
I4
tp4035
a(I36
I22
I0
g3938
I4
tp4036
a(I69
I3
I0
g3940
I4
tp4037
a(I103
I1
I0
g3942
I4
tp4038
a(I132
I0
I0
g3944
I4
tp4039
a(I229
I13
I0
g3898
I4
tp4040
a(I250
I0
I0
g3947
I4
tp4041
a(I287
I5
I0
g3900
I4
tp4042
a(I332
I34
I0
g3902
I4
tp4043
a(I345
I22
I0
g3951
I4
tp4044
a(I379
I0
I0
g3953
I4
tp4045
a(I394
I1
I0
g3955
I4
tp4046
a(I438
I1
I0
g3904
I4
tp4047
a(I449
I1
F-0.5
S'less'
p4048
I4
tp4049
a(I507
I3
I0
g3958
I4
tp4050
a(I516
I3
I0
g3906
I4
tp4051
a(I516
I4
I0
g3961
I4
tp4052
a(I553
I7
I0
g3963
I4
tp4053
a(I584
I1
I0
g3966
I4
tp4054
a(I604
I1
I0
g3968
I4
tp4055
a(I615
I0
I0
g3970
I4
tp4056
a(I763
I6
I0
g3972
I4
tp4057
a(I799
I38
I0
g3974
I4
tp4058
a(I799
I38
F1.0
g3976
I4
tp4059
a(I909
I1
I0
g3978
I4
tp4060
a(I942
I0
I0
g3980
I4
tp4061
a(I942
I0
F0.75
g3982
I4
tp4062
a(I973
I0
I0
g3910
I4
tp4063
a(I973
I0
F0.875
g3912
I4
tp4064
a(I980
I10
F0.875
g3914
I4
tp4065
a(I980
I10
I0
g3916
I4
tp4066
a(I986
I3
I0
g3988
I4
tp4067
a(I1037
I12
I0
g3990
I4
tp4068
a(I1051
I7
I0
g3918
I4
tp4069
a(I1051
I7
F0.375
g3920
I4
tp4070
a(I1054
I1
I0
S'lite'
p4071
I4
tp4072
a(I1084
I1
I0
g3994
I4
tp4073
a(I1088
I0
I0
g3922
I4
tp4074
a(I1088
I0
F0.875
g3924
I4
tp4075
a(I1096
I7
F1.0
g3998
I4
tp4076
a(I1153
I5
F0.75
S'ideal'
p4077
I4
tp4078
a(I1206
I7
I0
g4000
I4
tp4079
a(I1210
I0
I0
g4002
I4
tp4080
a(I1230
I3
I0
g3926
I4
tp4081
a(I1230
I3
I0
g3928
I4
tp4082
a(I1238
I4
I0
g4006
I4
tp4083
a(I1260
I5
I0
g4008
I4
tp4084
a(I1260
I5
F0.5
g4010
I4
tp4085
a(I1265
I1
I0
g3930
I4
tp4086
a(I1267
I0
I0
g4013
I4
tp4087
a(I1268
I0
I0
g4015
I4
tp4088
a(I1319
I6
I0
g4017
I4
tp4089
a(I1331
I33
I0
g4019
I4
tp4090
a(I1335
I5
I0
g4021
I4
tp4091
a(I1336
I0
I0
g3932
I4
tp4092
a(I1337
I15
I0
g4024
I4
tp4093
a(I1349
I1
I0
g4026
I4
tp4094
a(I1371
I0
I0
g3934
I4
tp4095
a(I1431
I0
I0
g4029
I4
tp4096
a(I1452
I0
I0
g4031
I4
tp4097
a(I1523
I1
I0
g4033
I4
tp4098
a(I230
I10
F-0.875
g1413
I14
tp4099
a(I281
I0
F-0.875
g1415
I14
tp4100
a(I288
I18
F-0.875
g1447
I14
tp4101
a(I316
I4
F-0.875
g1417
I14
tp4102
a(I384
I5
F-0.625
S'natural'
p4103
I14
tp4104
a(I384
I5
F-0.75
S'artificial'
p4105
I14
tp4106
a(I501
I0
F-0.875
g1419
I14
tp4107
a(I566
I4
F0.875
g3908
I14
tp4108
a(I696
I1
F-0.875
g1421
I14
tp4109
a(I703
I3
F-0.875
g1423
I14
tp4110
a(I703
I3
I0
g1425
I14
tp4111
a(I716
I7
F-0.875
g1427
I14
tp4112
a(I716
I7
I0
g1429
I14
tp4113
a(I775
I4
F-0.875
g1431
I14
tp4114
a(I898
I0
F-0.875
g1433
I14
tp4115
a(I921
I1
F-0.875
g1435
I14
tp4116
a(I1101
I0
F1.0
S'good'
p4117
I14
tp4118
a(I1119
I7
F-0.875
g1437
I14
tp4119
a(I1135
I1
F1.0
S'good'
p4120
I14
tp4121
a(I1330
I9
F-0.875
g1439
I14
tp4122
a(I1359
I5
F1.0
S'good'
p4123
I14
tp4124
a(I1506
I3
F-0.875
g1441
I14
tp4125
a(I1506
I3
I0
g1443
I14
tp4126
as(S'heating'
p4127
S'and'
p4128
S'battery'
p4129
tp4130
(lp4131
(I17
I1
F-0.875
S'poor'
p4132
I0
tp4133
a(I114
I12
F-0.75
S'disappointment'
p4134
I0
tp4135
a(I127
I1
F-0.875
S'poor'
p4136
I0
tp4137
a(I162
I4
F-0.75
g1102
I0
tp4138
a(I335
I3
I0
g1116
I0
tp4139
a(I786
I19
F-0.75
S'little'
p4140
I0
tp4141
a(I786
I19
F-0.875
S'low'
p4142
I0
tp4143
a(I961
I1
F0.125
S'mobile'
p4144
I0
tp4145
a(I1034
I0
F-0.875
g3201
I0
tp4146
a(I1048
I1
F1.0
g3203
I0
tp4147
a(I1051
I10
F1.0
g2603
I0
tp4148
a(I1267
I5
F0.75
g47
I0
tp4149
a(I1442
I46
F1.0
g3221
I0
tp4150
a(I1458
I12
F-1.0
S'bad'
p4151
I0
tp4152
a(I1503
I15
F-0.625
S'fast'
p4153
I0
tp4154
as(S'headphones'
p4155
S'in'
p4156
S'box'
p4157
tp4158
(lp4159
(I46
I6
F0.375
S'specialized'
p4160
I0
tp4161
as(S'value'
p4162
S'for'
p4163
S'money'
p4164
tp4165
(lp4166
(I504
I1
F0.875
S'great'
p4167
I4
tp4168
a(I703
I5
F1.0
S'best'
p4169
I4
tp4170
a(I770
I3
F0.75
S'complete'
p4171
I4
tp4172
a(I898
I9
F-0.625
S'last'
p4173
I4
tp4174
a(I898
I9
F1.0
S'good'
p4175
I4
tp4176
a(I902
I11
F0.875
S'great'
p4177
I4
tp4178
a(I1002
I3
F0.875
S'important'
p4179
I4
tp4180
a(I1064
I3
F1.0
S'good'
p4181
I4
tp4182
a(I1124
I18
F1.0
S'good'
p4183
I4
tp4184
a(I102
I3
F-0.875
S'low'
p4185
I7
tp4186
a(I202
I2
F-0.125
S'overall'
p4187
I7
tp4188
a(I202
I2
F1.0
S'good'
p4189
I7
tp4190
a(I360
I10
F-0.125
S'overall'
p4191
I7
tp4192
a(I360
I10
F-0.125
S'huge'
p4193
I7
tp4194
a(I458
I1
F0.5
S'high'
p4195
I7
tp4196
a(I472
I1
F-0.125
S'overall'
p4197
I7
tp4198
a(I504
I1
F0.875
g4167
I7
tp4199
a(I703
I5
F1.0
g4169
I7
tp4200
a(I898
I9
F-0.625
g4173
I7
tp4201
a(I898
I9
F1.0
g4175
I7
tp4202
a(I902
I11
F0.875
g4177
I7
tp4203
a(I980
I23
F0.5
S'high'
p4204
I7
tp4205
a(I1002
I3
F0.875
g4179
I7
tp4206
a(I1064
I3
F1.0
g4181
I7
tp4207
a(I1124
I18
F1.0
g4183
I7
tp4208
a(I1336
I0
F0.375
S'full'
p4209
I7
tp4210
a(I1336
I0
F-0.5
S'slow'
p4211
I7
tp4212
a(I1336
I0
F-1.0
S'bad'
p4213
I7
tp4214
as(S'games'
p4215
tp4216
(lp4217
(I118
I5
I0
S'update'
p4218
I5
tp4219
a(I215
I1
F-0.5
S'heavy'
p4220
I5
tp4221
a(I220
I11
F-0.5
S'heavy'
p4222
I5
tp4223
a(I230
I17
F-0.5
S'heavy'
p4224
I5
tp4225
a(I288
I11
F-0.5
S'heavy'
p4226
I5
tp4227
a(I306
I4
I0
S'net'
p4228
I5
tp4229
a(I345
I19
F0.25
S'basic'
p4230
I5
tp4231
a(I599
I12
F-0.5
S'heavy'
p4232
I5
tp4233
a(I599
I12
F0.5
S'heat'
p4234
I5
tp4235
a(I846
I3
F0.25
S'able'
p4236
I5
tp4237
a(I846
I14
I0
S'normal'
p4238
I5
tp4239
a(I976
I0
F-0.25
S'i'
p4240
I5
tp4241
a(I1037
I0
F-0.5
S'heavy'
p4242
I5
tp4243
a(I1052
I0
I0
S'internet'
p4244
I5
tp4245
a(I1052
I0
I0
S'videos'
p4246
I5
tp4247
a(I1123
I35
I0
S'light'
p4248
I5
tp4249
a(I1178
I0
F1.0
S'good'
p4250
I5
tp4251
a(I1178
I0
F1.0
S'better'
p4252
I5
tp4253
a(I1215
I0
I0
S'n'
p4254
I5
tp4255
a(I1215
I0
F-0.5
S'heavy'
p4256
I5
tp4257
a(I1334
I0
I0
S'many'
p4258
I5
tp4259
a(I1395
I1
F-0.5
S'heavy'
p4260
I5
tp4261
as(S'to'
p4262
S'return'
p4263
S'product'
p4264
tp4265
(lp4266
(I290
I6
F-0.125
S'mouthful'
p4267
I0
tp4268
a(I290
I6
F0.625
S'first'
p4269
I0
tp4270
a(I1547
I0
F0.75
S'easy'
p4271
I0
tp4272
as(S'13'
p4273
S'mp'
p4274
tp4275
(lp4276
(I431
I0
I-100
S'a13'
p4277
I0
tp4278
a(I491
I38
I0
S'rear'
p4279
I0
tp4280
a(I491
I38
F-0.875
S'cheap'
p4281
I0
tp4282
a(I1412
I7
F0.75
S'primary'
p4283
I0
tp4284
as(S'very'
p4285
S'good'
p4286
S'mobile'
p4287
tp4288
(lp4289
(I345
I17
F1.0
S'good'
p4290
I0
tp4291
a(I491
I6
F1.0
S'good'
p4292
I0
tp4293
a(I553
I3
F1.0
S'good'
p4294
I0
tp4295
a(I553
I3
F-0.125
S'such'
p4296
I0
tp4297
a(I609
I0
F1.0
S'good'
p4298
I0
tp4299
a(I668
I0
F1.0
S'good'
p4300
I0
tp4301
a(I668
I0
F0.75
S'beautiful'
p4302
I0
tp4303
a(I712
I0
F1.0
S'good'
p4304
I0
tp4305
a(I712
I0
F0.75
S'beautiful'
p4306
I0
tp4307
a(I1076
I5
F1.0
S'good'
p4308
I0
tp4309
a(I1122
I0
F1.0
S'good'
p4310
I0
tp4311
a(I1224
I0
F1.0
S'good'
p4312
I0
tp4313
a(I1318
I1
F1.0
S'good'
p4314
I0
tp4315
a(I1344
I3
F0.5
S'stylish'
p4316
I0
tp4317
a(I1344
I3
F1.0
S'good'
p4318
I0
tp4319
a(I1396
I0
F1.0
S'good'
p4320
I0
tp4321
a(I1396
I0
I0
S'useful'
p4322
I0
tp4323
a(I1413
I0
F-0.75
S'defective'
p4324
I0
tp4325
a(I342
I2
F0.5
S'high'
p4326
I1
tp4327
a(I345
I17
F1.0
g4290
I1
tp4328
a(I345
I22
F1.0
S'good'
p4329
I1
tp4330
a(I446
I1
F1.0
S'good'
p4331
I1
tp4332
a(I467
I3
F1.0
S'good'
p4333
I1
tp4334
a(I490
I0
F1.0
S'good'
p4335
I1
tp4336
a(I491
I6
F1.0
g4292
I1
tp4337
a(I553
I3
F1.0
g4294
I1
tp4338
a(I553
I3
F-0.125
g4296
I1
tp4339
a(I609
I0
F1.0
g4298
I1
tp4340
a(I666
I0
F1.0
S'excellent'
p4341
I1
tp4342
a(I668
I0
F1.0
g4300
I1
tp4343
a(I668
I0
F0.75
g4302
I1
tp4344
a(I695
I0
F1.0
S'good'
p4345
I1
tp4346
a(I712
I0
F1.0
g4304
I1
tp4347
a(I712
I0
F0.75
g4306
I1
tp4348
a(I757
I8
F1.0
S'good'
p4349
I1
tp4350
a(I762
I2
F0.875
S'nice'
p4351
I1
tp4352
a(I846
I0
F1.0
S'good'
p4353
I1
tp4354
a(I879
I0
F1.0
S'good'
p4355
I1
tp4356
a(I1076
I5
F1.0
g4308
I1
tp4357
a(I1081
I0
F1.0
S'good'
p4358
I1
tp4359
a(I1122
I0
F1.0
g4310
I1
tp4360
a(I1160
I20
F1.0
S'good'
p4361
I1
tp4362
a(I1174
I2
F1.0
S'good'
p4363
I1
tp4364
a(I1174
I15
F1.0
S'good'
p4365
I1
tp4366
a(I1203
I5
F1.0
S'good'
p4367
I1
tp4368
a(I1203
I5
F1.0
S'best'
p4369
I1
tp4370
a(I1207
I7
F-0.125
S'overall'
p4371
I1
tp4372
a(I1207
I7
F1.0
S'good'
p4373
I1
tp4374
a(I1224
I0
F1.0
g4312
I1
tp4375
a(I1279
I0
F1.0
S'good'
p4376
I1
tp4377
a(I1282
I2
F1.0
S'good'
p4378
I1
tp4379
a(I1318
I1
F1.0
g4314
I1
tp4380
a(I1344
I3
F0.5
g4316
I1
tp4381
a(I1344
I3
F1.0
g4318
I1
tp4382
a(I1396
I0
F1.0
g4320
I1
tp4383
a(I1396
I0
I0
g4322
I1
tp4384
a(I1413
I0
F-0.75
g4324
I1
tp4385
a(I1555
I2
F1.0
S'good'
p4386
I1
tp4387
a(I1562
I0
F-0.875
S'cheap'
p4388
I1
tp4389
as(S'usage'
p4390
tp4391
(lp4392
(I51
I2
F-0.5
S'regular'
p4393
I8
tp4394
a(I98
I4
F-0.5
S'continuous'
p4395
I8
tp4396
a(I98
I7
I0
S'normal'
p4397
I8
tp4398
a(I100
I22
I0
S'normal'
p4399
I8
tp4400
a(I156
I3
F-0.25
S'mixed'
p4401
I8
tp4402
a(I188
I2
I0
S'normal'
p4403
I8
tp4404
a(I215
I2
I0
S'normal'
p4405
I8
tp4406
a(I225
I4
F-0.625
S'average'
p4407
I8
tp4408
a(I229
I3
F-0.5
S'heavy'
p4409
I8
tp4410
a(I230
I6
F-0.625
S'moderate'
p4411
I8
tp4412
a(I241
I13
I0
S'normal'
p4413
I8
tp4414
a(I342
I2
F0.5
S'high'
p4415
I8
tp4416
a(I394
I2
I0
S'minimal'
p4417
I8
tp4418
a(I417
I16
F-0.5
S'continuous'
p4419
I8
tp4420
a(I417
I16
I0
S'more'
p4421
I8
tp4422
a(I434
I6
F-0.625
S'moderate'
p4423
I8
tp4424
a(I473
I3
I0
S'hrs'
p4425
I8
tp4426
a(I473
I3
I0
S'prior'
p4427
I8
tp4428
a(I473
I5
F0.5
S'optimum'
p4429
I8
tp4430
a(I473
I5
I0
S'wifi'
p4431
I8
tp4432
a(I491
I23
F-0.5
S'heavy'
p4433
I8
tp4434
a(I706
I1
I0
S'normal'
p4435
I8
tp4436
a(I720
I6
F-0.625
S'moderate'
p4437
I8
tp4438
a(I730
I7
F-0.5
S'heavy'
p4439
I8
tp4440
a(I730
I9
F-0.75
S'warm'
p4441
I8
tp4442
a(I730
I9
F-0.5
S'heavy'
p4443
I8
tp4444
a(I797
I1
I0
S'normal'
p4445
I8
tp4446
a(I799
I27
F-0.625
S'moderate'
p4447
I8
tp4448
a(I817
I5
I0
S'user'
p4449
I8
tp4450
a(I830
I9
F-0.5
S'heavy'
p4451
I8
tp4452
a(I951
I0
F-0.5
S'continuous'
p4453
I8
tp4454
a(I965
I0
F-0.5
S'longer'
p4455
I8
tp4456
a(I1002
I2
F-0.5
S'heavy'
p4457
I8
tp4458
a(I1002
I2
I0
S'normal'
p4459
I8
tp4460
a(I1020
I4
F-0.625
S'average'
p4461
I8
tp4462
a(I1074
I0
I0
S'normal'
p4463
I8
tp4464
a(I1123
I35
F-0.5
S'regular'
p4465
I8
tp4466
a(I1131
I1
F-0.5
S'heavy'
p4467
I8
tp4468
a(I1194
I0
F-0.5
S'heavy'
p4469
I8
tp4470
a(I1302
I0
I0
S'normal'
p4471
I8
tp4472
a(I1331
I20
F-0.625
S'moderate'
p4473
I8
tp4474
a(I1343
I3
F-0.5
S'less'
p4475
I8
tp4476
a(I1371
I12
F-0.5
S'heavy'
p4477
I8
tp4478
a(I1396
I4
F-0.625
S'average'
p4479
I8
tp4480
a(I1396
I4
F0.125
S'mobile'
p4481
I8
tp4482
a(I1503
I7
F-0.625
S'average'
p4483
I8
tp4484
as(S'factory'
p4485
S'reset'
p4486
tp4487
(lp4488
(I91
I1
F0.125
S'mobile'
p4489
I0
tp4490
as(S'buy'
p4491
S'product'
p4492
tp4493
(lp4494
(I288
I28
F0.625
S'advisable'
p4495
I0
tp4496
a(I288
I28
F1.0
S'better'
p4497
I0
tp4498
a(I519
I25
I0
S't'
p4499
I0
tp4500
a(I553
I2
F0.375
S'much'
p4501
I0
tp4502
a(I693
I0
F1.0
g2018
I0
tp4503
a(I1067
I0
F-0.25
g2040
I0
tp4504
a(I1067
I0
F1.0
g2042
I0
tp4505
a(I1587
I3
F0.875
g1875
I0
tp4506
a(I1587
I3
F0.875
g1877
I0
tp4507
as(S'lenovo'
p4508
S'vibe'
p4509
S'k5'
p4510
tp4511
(lp4512
(I233
I0
F0.125
S'mobile'
p4513
I0
tp4514
a(I283
I9
F0.875
g58
I0
tp4515
a(I492
I19
I0
S'pretty'
p4516
I0
tp4517
a(I492
I19
F0.5
S'sturdy'
p4518
I0
tp4519
a(I895
I4
F-0.625
g64
I0
tp4520
a(I1291
I0
F0.375
g54
I0
tp4521
a(I1377
I1
I0
g67
I0
tp4522
a(I1480
I9
F0.125
g69
I0
tp4523
a(I1509
I0
F-0.125
S'vibe'
p4524
I0
tp4525
a(I1575
I1
F0.125
S'mobile'
p4526
I0
tp4527
a(I1582
I0
F-0.5
g56
I0
tp4528
a(I233
I0
F0.125
g4513
I0
tp4529
a(I492
I19
I0
g4516
I0
tp4530
a(I492
I19
F0.5
g4518
I0
tp4531
a(I986
I8
F-0.125
S'vibe'
p4532
I0
tp4533
a(I1509
I0
F-0.125
g4524
I0
tp4534
a(I1555
I1
F-0.125
S'vibe'
p4535
I0
tp4536
a(I1575
I1
F0.125
g4526
I0
tp4537
a(I233
I0
F0.125
g4513
I0
tp4538
a(I283
I9
F0.875
g58
I0
tp4539
a(I492
I19
I0
g4516
I0
tp4540
a(I492
I19
F0.5
g4518
I0
tp4541
a(I673
I0
F0.875
S'awesome'
p4542
I0
tp4543
a(I756
I5
F0.5
g103
I0
tp4544
a(I774
I8
F0.5
S'comparable'
p4545
I0
tp4546
a(I895
I4
F-0.625
g64
I0
tp4547
a(I1291
I0
F0.375
g54
I0
tp4548
a(I1377
I1
I0
g67
I0
tp4549
a(I1441
I4
F-0.625
g140
I0
tp4550
a(I1480
I9
F0.125
g69
I0
tp4551
a(I1509
I0
F-0.125
g4524
I0
tp4552
a(I1575
I1
F0.125
g4526
I0
tp4553
a(I1582
I0
F-0.5
g56
I0
tp4554
as(S'and'
p4555
S'light'
p4556
S'weight'
p4557
tp4558
(lp4559
(I345
I22
I0
g3951
I0
tp4560
a(I394
I1
I0
g3955
I0
tp4561
a(I516
I3
I0
g3906
I0
tp4562
a(I516
I4
I0
g3961
I0
tp4563
a(I942
I0
I0
g3980
I0
tp4564
a(I942
I0
F0.75
g3982
I0
tp4565
a(I973
I0
I0
g3910
I0
tp4566
a(I973
I0
F0.875
g3912
I0
tp4567
a(I980
I10
F0.875
g3914
I0
tp4568
a(I980
I10
I0
g3916
I0
tp4569
a(I1051
I7
I0
g3918
I0
tp4570
a(I1051
I7
F0.375
g3920
I0
tp4571
a(I1084
I1
I0
g3994
I0
tp4572
a(I1088
I0
I0
g3922
I0
tp4573
a(I1088
I0
F0.875
g3924
I0
tp4574
a(I1096
I7
F1.0
g3998
I0
tp4575
a(I1230
I3
I0
g3926
I0
tp4576
a(I1230
I3
I0
g3928
I0
tp4577
a(I1260
I5
I0
g4008
I0
tp4578
a(I1260
I5
F0.5
g4010
I0
tp4579
a(I1265
I1
I0
g3930
I0
tp4580
a(I1267
I0
I0
g4013
I0
tp4581
a(I1268
I0
I0
g4015
I0
tp4582
a(I1336
I0
I0
g3932
I0
tp4583
a(I1371
I0
I0
g3934
I0
tp4584
as(S'good'
p4585
S'camera'
p4586
S'quality'
p4587
tp4588
(lp4589
(I315
I1
F1.0
g845
I0
tp4590
a(I317
I11
F0.875
g443
I0
tp4591
a(I332
I11
F1.0
g445
I0
tp4592
a(I332
I11
I0
g447
I0
tp4593
a(I335
I4
F-0.125
g887
I0
tp4594
a(I335
I4
F1.0
g1202
I0
tp4595
a(I369
I11
F1.0
g889
I0
tp4596
a(I467
I4
F1.0
g455
I0
tp4597
a(I490
I13
F1.0
g898
I0
tp4598
a(I610
I6
F1.0
g457
I0
tp4599
a(I631
I3
F1.0
g853
I0
tp4600
a(I633
I0
F1.0
g459
I0
tp4601
a(I633
I0
F1.0
g461
I0
tp4602
a(I703
I7
F1.0
g463
I0
tp4603
a(I704
I3
F1.0
g909
I0
tp4604
a(I731
I17
F1.0
g465
I0
tp4605
a(I756
I7
F1.0
g913
I0
tp4606
a(I846
I16
F1.0
S'good'
p4607
I0
tp4608
a(I883
I1
F0.875
g469
I0
tp4609
a(I883
I12
F-1.0
g2550
I0
tp4610
a(I883
I12
F-1.0
g2552
I0
tp4611
a(I883
I12
F1.0
g2554
I0
tp4612
a(I993
I0
F0.875
g475
I0
tp4613
a(I993
I0
F1.0
g477
I0
tp4614
a(I1051
I10
F0.625
g481
I0
tp4615
a(I1051
I10
F-1.0
g483
I0
tp4616
a(I1097
I2
F1.0
g487
I0
tp4617
a(I1153
I15
F0.875
g489
I0
tp4618
a(I1153
I15
F-0.125
g491
I0
tp4619
a(I1160
I10
F1.0
g939
I0
tp4620
a(I1160
I10
F1.0
g941
I0
tp4621
a(I1173
I1
F1.0
g493
I0
tp4622
a(I1223
I6
F1.0
g948
I0
tp4623
a(I1223
I6
I0
g2281
I0
tp4624
a(I1224
I3
F1.0
S'good'
p4625
I0
tp4626
a(I1224
I3
F0.875
g950
I0
tp4627
a(I1230
I2
F-0.875
g866
I0
tp4628
a(I1230
I8
F1.0
g1269
I0
tp4629
a(I1230
I8
F0.5
g954
I0
tp4630
a(I1239
I0
F1.0
g495
I0
tp4631
a(I1239
I0
F0.625
g497
I0
tp4632
a(I1242
I1
I0
g499
I0
tp4633
a(I1242
I1
F1.0
g501
I0
tp4634
a(I1282
I0
F-0.625
g503
I0
tp4635
a(I1292
I1
F1.0
S'good'
p4636
I0
tp4637
a(I1299
I1
F1.0
g505
I0
tp4638
a(I1299
I1
F0.375
g507
I0
tp4639
a(I1307
I2
F-0.875
g579
I0
tp4640
a(I1331
I26
I0
g509
I0
tp4641
a(I1331
I26
F1.0
g511
I0
tp4642
a(I1332
I0
F1.0
g967
I0
tp4643
a(I1336
I0
F1.0
g513
I0
tp4644
a(I1336
I0
F0.75
g515
I0
tp4645
a(I1336
I0
F0.5
g517
I0
tp4646
a(I1336
I0
F1.0
g519
I0
tp4647
a(I1339
I9
F1.0
g1290
I0
tp4648
a(I1339
I9
I0
g1292
I0
tp4649
a(I1371
I0
I0
g521
I0
tp4650
a(I1565
I11
F1.0
g523
I0
tp4651
a(I98
I0
F-0.5
g1179
I3
tp4652
a(I114
I5
F1.0
g1181
I3
tp4653
a(I118
I1
F-0.125
g2185
I3
tp4654
a(I118
I1
F1.0
g2187
I3
tp4655
a(I135
I0
F1.0
S'good'
p4656
I3
tp4657
a(I154
I1
F1.0
g1183
I3
tp4658
a(I199
I0
F-0.125
g1185
I3
tp4659
a(I205
I3
F-0.75
g2192
I3
tp4660
a(I229
I11
F1.0
g530
I3
tp4661
a(I283
I4
F1.0
g1188
I3
tp4662
a(I288
I18
F0.375
g1190
I3
tp4663
a(I288
I31
F1.0
g1192
I3
tp4664
a(I288
I31
F-0.125
g1194
I3
tp4665
a(I288
I31
F1.0
g1196
I3
tp4666
a(I300
I0
F1.0
g2202
I3
tp4667
a(I304
I0
I0
g1198
I3
tp4668
a(I304
I0
F1.0
g1200
I3
tp4669
a(I317
I11
F0.875
g443
I3
tp4670
a(I332
I11
F1.0
g445
I3
tp4671
a(I335
I4
F1.0
g1202
I3
tp4672
a(I337
I0
F1.0
S'good'
p4673
I3
tp4674
a(I341
I4
F1.0
g1204
I3
tp4675
a(I341
I4
I0
g1206
I3
tp4676
a(I341
I4
F0.5
g1208
I3
tp4677
a(I431
I0
F1.0
g1210
I3
tp4678
a(I481
I18
F1.0
S'good'
p4679
I3
tp4680
a(I490
I30
F1.0
S'good'
p4681
I3
tp4682
a(I491
I8
F1.0
g533
I3
tp4683
a(I491
I17
F1.0
S'good'
p4684
I3
tp4685
a(I491
I38
F1.0
g3486
I3
tp4686
a(I569
I0
F1.0
S'good'
p4687
I3
tp4688
a(I599
I0
F1.0
S'good'
p4689
I3
tp4690
a(I609
I4
F1.0
g535
I3
tp4691
a(I610
I4
I0
g1212
I3
tp4692
a(I610
I4
F1.0
g1214
I3
tp4693
a(I625
I0
F1.0
g1216
I3
tp4694
a(I626
I8
F1.0
g1218
I3
tp4695
a(I626
I8
F0.375
g1220
I3
tp4696
a(I629
I1
I0
g537
I3
tp4697
a(I633
I0
F1.0
g459
I3
tp4698
a(I633
I0
F1.0
g461
I3
tp4699
a(I646
I0
F-0.625
S'average'
p4700
I3
tp4701
a(I649
I4
F1.0
S'good'
p4702
I3
tp4703
a(I649
I7
F1.0
g1222
I3
tp4704
a(I649
I14
F1.0
g541
I3
tp4705
a(I653
I6
F1.0
S'good'
p4706
I3
tp4707
a(I653
I7
F1.0
g543
I3
tp4708
a(I671
I2
F0.625
g1224
I3
tp4709
a(I678
I0
F1.0
g2527
I3
tp4710
a(I680
I5
F1.0
g545
I3
tp4711
a(I696
I2
F-0.875
g547
I3
tp4712
a(I703
I7
F1.0
g463
I3
tp4713
a(I709
I0
F1.0
g1227
I3
tp4714
a(I711
I1
F1.0
g2529
I3
tp4715
a(I720
I1
I0
g3489
I3
tp4716
a(I720
I1
F1.0
g3491
I3
tp4717
a(I731
I17
F1.0
g465
I3
tp4718
a(I742
I0
F-0.875
g1229
I3
tp4719
a(I742
I0
I0
g1231
I3
tp4720
a(I745
I6
F0.75
S'easy'
p4721
I3
tp4722
a(I770
I1
F-0.125
g550
I3
tp4723
a(I770
I1
F1.0
g552
I3
tp4724
a(I770
I3
F1.0
g1235
I3
tp4725
a(I778
I1
F1.0
g2242
I3
tp4726
a(I786
I18
F-0.625
g554
I3
tp4727
a(I787
I1
F1.0
g2539
I3
tp4728
a(I798
I3
F1.0
g1237
I3
tp4729
a(I799
I29
F-0.125
g1239
I3
tp4730
a(I799
I29
F1.0
g1241
I3
tp4731
a(I799
I29
F-0.125
g1243
I3
tp4732
a(I815
I3
F1.0
S'good'
p4733
I3
tp4734
a(I839
I4
F1.0
g1245
I3
tp4735
a(I846
I16
F1.0
g4607
I3
tp4736
a(I855
I3
F-0.125
g556
I3
tp4737
a(I855
I3
F1.0
g558
I3
tp4738
a(I857
I0
I0
g560
I3
tp4739
a(I857
I0
I0
g562
I3
tp4740
a(I857
I0
F1.0
g564
I3
tp4741
a(I879
I5
F1.0
S'good'
p4742
I3
tp4743
a(I883
I1
F0.875
g469
I3
tp4744
a(I883
I12
F-1.0
g2550
I3
tp4745
a(I883
I12
F-1.0
g2552
I3
tp4746
a(I883
I12
F1.0
g2554
I3
tp4747
a(I898
I0
F0.75
g1250
I3
tp4748
a(I898
I0
F-0.75
g1252
I3
tp4749
a(I901
I9
F1.0
S'good'
p4750
I3
tp4751
a(I901
I11
F0.75
g1254
I3
tp4752
a(I901
I11
F1.0
g1256
I3
tp4753
a(I929
I0
F0.875
g566
I3
tp4754
a(I980
I9
I0
g3503
I3
tp4755
a(I980
I9
F1.0
g3505
I3
tp4756
a(I993
I0
F0.875
g475
I3
tp4757
a(I995
I12
F1.0
g1259
I3
tp4758
a(I1002
I3
F1.0
g3435
I3
tp4759
a(I1002
I3
F0.875
g3437
I3
tp4760
a(I1023
I1
F1.0
g2262
I3
tp4761
a(I1037
I4
F-0.875
g3441
I3
tp4762
a(I1062
I18
F-1.0
g569
I3
tp4763
a(I1062
I18
F-0.875
g571
I3
tp4764
a(I1065
I0
F1.0
g1261
I3
tp4765
a(I1069
I0
F1.0
g573
I3
tp4766
a(I1076
I1
F1.0
g1263
I3
tp4767
a(I1077
I22
F1.0
g1265
I3
tp4768
a(I1077
I22
F1.0
g1267
I3
tp4769
a(I1096
I3
F0.875
g575
I3
tp4770
a(I1153
I15
F0.875
g489
I3
tp4771
a(I1153
I15
F-0.125
g491
I3
tp4772
a(I1160
I3
F1.0
g577
I3
tp4773
a(I1170
I0
I-100
S'frong'
p4774
I3
tp4775
a(I1170
I0
F1.0
S'good'
p4776
I3
tp4777
a(I1223
I6
I0
g2281
I3
tp4778
a(I1224
I3
F1.0
g4625
I3
tp4779
a(I1230
I8
F1.0
g1269
I3
tp4780
a(I1230
I11
F1.0
g2283
I3
tp4781
a(I1242
I1
I0
g499
I3
tp4782
a(I1242
I1
F1.0
g501
I3
tp4783
a(I1267
I14
F1.0
g1271
I3
tp4784
a(I1267
I17
F-0.75
S'open'
p4785
I3
tp4786
a(I1277
I8
I0
g1273
I3
tp4787
a(I1277
I8
F1.0
g1275
I3
tp4788
a(I1277
I8
F1.0
g1277
I3
tp4789
a(I1280
I0
F1.0
g2564
I3
tp4790
a(I1292
I1
F1.0
g4636
I3
tp4791
a(I1307
I2
F-0.875
g579
I3
tp4792
a(I1309
I1
F0.75
g1279
I3
tp4793
a(I1309
I1
F1.0
g1281
I3
tp4794
a(I1312
I0
F1.0
g2566
I3
tp4795
a(I1312
I0
I-100
S'belowe'
p4796
I3
tp4797
a(I1319
I7
F0.375
g1283
I3
tp4798
a(I1319
I7
F1.0
g1285
I3
tp4799
a(I1319
I11
F1.0
S'good'
p4800
I3
tp4801
a(I1319
I11
F-0.625
S'average'
p4802
I3
tp4803
a(I1330
I7
F1.0
S'good'
p4804
I3
tp4805
a(I1330
I10
F1.0
g2286
I3
tp4806
a(I1331
I26
I0
g509
I3
tp4807
a(I1332
I3
F-0.75
S'secondary'
p4808
I3
tp4809
a(I1335
I15
F1.0
S'good'
p4810
I3
tp4811
a(I1336
I0
F1.0
g519
I3
tp4812
a(I1337
I4
F1.0
g1288
I3
tp4813
a(I1339
I9
F1.0
g1290
I3
tp4814
a(I1339
I9
I0
g1292
I3
tp4815
a(I1359
I3
F1.0
g2293
I3
tp4816
a(I1371
I15
F-0.125
g583
I3
tp4817
a(I1377
I3
I0
g1547
I3
tp4818
a(I1458
I11
F1.0
g1294
I3
tp4819
a(I1470
I5
F-0.5
g1296
I3
tp4820
a(I1470
I5
F-0.875
g1298
I3
tp4821
a(I1470
I5
F-1.0
g1300
I3
tp4822
a(I1470
I5
F1.0
g1302
I3
tp4823
a(I1479
I17
F-0.25
g585
I3
tp4824
a(I1479
I17
F-0.875
g587
I3
tp4825
a(I1492
I3
I0
g3518
I3
tp4826
a(I1492
I3
F1.0
g3520
I3
tp4827
a(I1510
I2
F1.0
S'good'
p4828
I3
tp4829
a(I1530
I5
I0
g2308
I3
tp4830
a(I1555
I5
F-0.125
g2310
I3
tp4831
a(I1555
I5
F1.0
g2312
I3
tp4832
a(I1562
I0
F1.0
g1306
I3
tp4833
a(I1565
I11
F1.0
g523
I3
tp4834
a(I205
I1
F-0.875
S'poor'
p4835
I14
tp4836
a(I224
I0
F0.875
S'happy'
p4837
I14
tp4838
a(I229
I8
F0.125
g441
I14
tp4839
a(I233
I0
I0
S'normal'
p4840
I14
tp4841
a(I315
I1
F1.0
g845
I14
tp4842
a(I317
I11
F0.875
g443
I14
tp4843
a(I332
I11
F1.0
g445
I14
tp4844
a(I332
I11
I0
g447
I14
tp4845
a(I332
I51
I0
g449
I14
tp4846
a(I335
I4
F-0.125
g887
I14
tp4847
a(I335
I4
F1.0
g1202
I14
tp4848
a(I368
I7
F-1.0
S'bad'
p4849
I14
tp4850
a(I369
I7
F0.375
g451
I14
tp4851
a(I369
I7
F-0.875
g453
I14
tp4852
a(I369
I11
F1.0
g889
I14
tp4853
a(I404
I0
F-0.875
S'poor'
p4854
I14
tp4855
a(I459
I1
F-0.625
S'average'
p4856
I14
tp4857
a(I467
I4
F1.0
g455
I14
tp4858
a(I490
I13
F1.0
g898
I14
tp4859
a(I610
I6
F1.0
g457
I14
tp4860
a(I631
I3
F1.0
g853
I14
tp4861
a(I631
I8
F-0.625
S'average'
p4862
I14
tp4863
a(I633
I0
F1.0
g459
I14
tp4864
a(I633
I0
F1.0
g461
I14
tp4865
a(I650
I2
F0.625
S'okay'
p4866
I14
tp4867
a(I668
I1
F0.375
g2525
I14
tp4868
a(I668
I1
F-0.875
S'poor'
p4869
I14
tp4870
a(I703
I7
F1.0
g463
I14
tp4871
a(I704
I3
F1.0
g909
I14
tp4872
a(I712
I1
F0.375
g2531
I14
tp4873
a(I712
I1
F-0.875
S'poor'
p4874
I14
tp4875
a(I731
I17
F1.0
g465
I14
tp4876
a(I756
I7
F1.0
g913
I14
tp4877
a(I765
I0
F-0.875
S'poor'
p4878
I14
tp4879
a(I804
I0
F0.625
g467
I14
tp4880
a(I837
I4
F-0.875
S'poor'
p4881
I14
tp4882
a(I846
I16
F1.0
g4607
I14
tp4883
a(I883
I1
F0.875
g469
I14
tp4884
a(I883
I12
F-1.0
g2550
I14
tp4885
a(I883
I12
F-1.0
g2552
I14
tp4886
a(I883
I12
F1.0
g2554
I14
tp4887
a(I903
I0
F0.75
g471
I14
tp4888
a(I903
I0
F-0.5
g473
I14
tp4889
a(I925
I0
F-1.0
S'worst'
p4890
I14
tp4891
a(I993
I0
F0.875
g475
I14
tp4892
a(I993
I0
F1.0
g477
I14
tp4893
a(I994
I6
F-1.0
g479
I14
tp4894
a(I1051
I10
F0.625
g481
I14
tp4895
a(I1051
I10
F-1.0
g483
I14
tp4896
a(I1062
I2
F-0.75
S'disappointing'
p4897
I14
tp4898
a(I1081
I1
F-0.875
g485
I14
tp4899
a(I1097
I2
F1.0
g487
I14
tp4900
a(I1153
I15
F0.875
g489
I14
tp4901
a(I1153
I15
F-0.125
g491
I14
tp4902
a(I1160
I10
F1.0
g939
I14
tp4903
a(I1160
I10
F1.0
g941
I14
tp4904
a(I1160
I11
F1.0
S'better'
p4905
I14
tp4906
a(I1173
I1
F1.0
g493
I14
tp4907
a(I1223
I6
F1.0
g948
I14
tp4908
a(I1223
I6
I0
g2281
I14
tp4909
a(I1224
I3
F1.0
g4625
I14
tp4910
a(I1224
I3
F0.875
g950
I14
tp4911
a(I1230
I2
F-0.875
g866
I14
tp4912
a(I1230
I8
F1.0
g1269
I14
tp4913
a(I1230
I8
F0.5
g954
I14
tp4914
a(I1239
I0
F1.0
g495
I14
tp4915
a(I1239
I0
F0.625
g497
I14
tp4916
a(I1242
I1
I0
g499
I14
tp4917
a(I1242
I1
F1.0
g501
I14
tp4918
a(I1256
I0
F-0.875
S'low'
p4919
I14
tp4920
a(I1260
I4
F0.875
S'great'
p4921
I14
tp4922
a(I1282
I0
F-0.625
g503
I14
tp4923
a(I1292
I1
F1.0
g4636
I14
tp4924
a(I1299
I1
F1.0
g505
I14
tp4925
a(I1299
I1
F0.375
g507
I14
tp4926
a(I1307
I2
F-0.875
g579
I14
tp4927
a(I1331
I26
I0
g509
I14
tp4928
a(I1331
I26
F1.0
g511
I14
tp4929
a(I1332
I0
F1.0
g967
I14
tp4930
a(I1335
I1
F-1.0
S'worse'
p4931
I14
tp4932
a(I1336
I0
F1.0
g513
I14
tp4933
a(I1336
I0
F0.75
g515
I14
tp4934
a(I1336
I0
F0.5
g517
I14
tp4935
a(I1336
I0
F1.0
g519
I14
tp4936
a(I1339
I9
F1.0
g1290
I14
tp4937
a(I1339
I9
I0
g1292
I14
tp4938
a(I1371
I0
I0
g521
I14
tp4939
a(I1387
I2
F-0.875
S'poor'
p4940
I14
tp4941
a(I1396
I2
F0.625
S'fine'
p4942
I14
tp4943
a(I1412
I4
F-0.875
S'low'
p4944
I14
tp4945
a(I1473
I7
F0.5
S'similar'
p4946
I14
tp4947
a(I1565
I11
F1.0
g523
I14
tp4948
a(I1568
I9
F-1.0
S'worst'
p4949
I14
tp4950
a(I98
I0
F-0.5
g1179
I0
tp4951
a(I114
I5
F1.0
g1181
I0
tp4952
a(I118
I1
F-0.125
g2185
I0
tp4953
a(I118
I1
F1.0
g2187
I0
tp4954
a(I135
I0
F1.0
g4656
I0
tp4955
a(I154
I1
F1.0
g1183
I0
tp4956
a(I199
I0
F-0.125
g1185
I0
tp4957
a(I205
I3
F-0.75
g2192
I0
tp4958
a(I229
I11
F1.0
g530
I0
tp4959
a(I283
I4
F1.0
g1188
I0
tp4960
a(I288
I18
F0.375
g1190
I0
tp4961
a(I288
I31
F1.0
g1192
I0
tp4962
a(I288
I31
F-0.125
g1194
I0
tp4963
a(I288
I31
F1.0
g1196
I0
tp4964
a(I300
I0
F1.0
g2202
I0
tp4965
a(I304
I0
I0
g1198
I0
tp4966
a(I304
I0
F1.0
g1200
I0
tp4967
a(I317
I11
F0.875
g443
I0
tp4968
a(I332
I11
F1.0
g445
I0
tp4969
a(I335
I4
F1.0
g1202
I0
tp4970
a(I337
I0
F1.0
g4673
I0
tp4971
a(I341
I4
F1.0
g1204
I0
tp4972
a(I341
I4
I0
g1206
I0
tp4973
a(I341
I4
F0.5
g1208
I0
tp4974
a(I431
I0
F1.0
g1210
I0
tp4975
a(I481
I18
F1.0
g4679
I0
tp4976
a(I490
I30
F1.0
g4681
I0
tp4977
a(I491
I8
F1.0
g533
I0
tp4978
a(I491
I17
F1.0
g4684
I0
tp4979
a(I491
I38
F1.0
g3486
I0
tp4980
a(I569
I0
F1.0
g4687
I0
tp4981
a(I599
I0
F1.0
g4689
I0
tp4982
a(I609
I4
F1.0
g535
I0
tp4983
a(I610
I4
I0
g1212
I0
tp4984
a(I610
I4
F1.0
g1214
I0
tp4985
a(I625
I0
F1.0
g1216
I0
tp4986
a(I626
I8
F1.0
g1218
I0
tp4987
a(I626
I8
F0.375
g1220
I0
tp4988
a(I629
I1
I0
g537
I0
tp4989
a(I633
I0
F1.0
g459
I0
tp4990
a(I633
I0
F1.0
g461
I0
tp4991
a(I646
I0
F-0.625
g4700
I0
tp4992
a(I649
I4
F1.0
g4702
I0
tp4993
a(I649
I7
F1.0
g1222
I0
tp4994
a(I649
I14
F1.0
g541
I0
tp4995
a(I653
I6
F1.0
g4706
I0
tp4996
a(I653
I7
F1.0
g543
I0
tp4997
a(I671
I2
F0.625
g1224
I0
tp4998
a(I678
I0
F1.0
g2527
I0
tp4999
a(I680
I5
F1.0
g545
I0
tp5000
a(I696
I2
F-0.875
g547
I0
tp5001
a(I703
I7
F1.0
g463
I0
tp5002
a(I709
I0
F1.0
g1227
I0
tp5003
a(I711
I1
F1.0
g2529
I0
tp5004
a(I720
I1
I0
g3489
I0
tp5005
a(I720
I1
F1.0
g3491
I0
tp5006
a(I731
I17
F1.0
g465
I0
tp5007
a(I742
I0
F-0.875
g1229
I0
tp5008
a(I742
I0
I0
g1231
I0
tp5009
a(I745
I6
F0.75
g4721
I0
tp5010
a(I770
I1
F-0.125
g550
I0
tp5011
a(I770
I1
F1.0
g552
I0
tp5012
a(I770
I3
F1.0
g1235
I0
tp5013
a(I778
I1
F1.0
g2242
I0
tp5014
a(I786
I18
F-0.625
g554
I0
tp5015
a(I787
I1
F1.0
g2539
I0
tp5016
a(I798
I3
F1.0
g1237
I0
tp5017
a(I799
I29
F-0.125
g1239
I0
tp5018
a(I799
I29
F1.0
g1241
I0
tp5019
a(I799
I29
F-0.125
g1243
I0
tp5020
a(I815
I3
F1.0
g4733
I0
tp5021
a(I839
I4
F1.0
g1245
I0
tp5022
a(I846
I16
F1.0
g4607
I0
tp5023
a(I855
I3
F-0.125
g556
I0
tp5024
a(I855
I3
F1.0
g558
I0
tp5025
a(I857
I0
I0
g560
I0
tp5026
a(I857
I0
I0
g562
I0
tp5027
a(I857
I0
F1.0
g564
I0
tp5028
a(I879
I5
F1.0
g4742
I0
tp5029
a(I883
I1
F0.875
g469
I0
tp5030
a(I883
I12
F-1.0
g2550
I0
tp5031
a(I883
I12
F-1.0
g2552
I0
tp5032
a(I883
I12
F1.0
g2554
I0
tp5033
a(I898
I0
F0.75
g1250
I0
tp5034
a(I898
I0
F-0.75
g1252
I0
tp5035
a(I901
I9
F1.0
g4750
I0
tp5036
a(I901
I11
F0.75
g1254
I0
tp5037
a(I901
I11
F1.0
g1256
I0
tp5038
a(I929
I0
F0.875
g566
I0
tp5039
a(I980
I9
I0
g3503
I0
tp5040
a(I980
I9
F1.0
g3505
I0
tp5041
a(I993
I0
F0.875
g475
I0
tp5042
a(I995
I12
F1.0
g1259
I0
tp5043
a(I1002
I3
F1.0
g3435
I0
tp5044
a(I1002
I3
F0.875
g3437
I0
tp5045
a(I1023
I1
F1.0
g2262
I0
tp5046
a(I1037
I4
F-0.875
g3441
I0
tp5047
a(I1062
I18
F-1.0
g569
I0
tp5048
a(I1062
I18
F-0.875
g571
I0
tp5049
a(I1065
I0
F1.0
g1261
I0
tp5050
a(I1069
I0
F1.0
g573
I0
tp5051
a(I1076
I1
F1.0
g1263
I0
tp5052
a(I1077
I22
F1.0
g1265
I0
tp5053
a(I1077
I22
F1.0
g1267
I0
tp5054
a(I1096
I3
F0.875
g575
I0
tp5055
a(I1153
I15
F0.875
g489
I0
tp5056
a(I1153
I15
F-0.125
g491
I0
tp5057
a(I1160
I3
F1.0
g577
I0
tp5058
a(I1170
I0
F1.0
g4776
I0
tp5059
a(I1223
I6
I0
g2281
I0
tp5060
a(I1224
I3
F1.0
g4625
I0
tp5061
a(I1230
I8
F1.0
g1269
I0
tp5062
a(I1230
I11
F1.0
g2283
I0
tp5063
a(I1242
I1
I0
g499
I0
tp5064
a(I1242
I1
F1.0
g501
I0
tp5065
a(I1267
I14
F1.0
g1271
I0
tp5066
a(I1267
I17
F-0.75
g4785
I0
tp5067
a(I1277
I8
I0
g1273
I0
tp5068
a(I1277
I8
F1.0
g1275
I0
tp5069
a(I1277
I8
F1.0
g1277
I0
tp5070
a(I1280
I0
F1.0
g2564
I0
tp5071
a(I1292
I1
F1.0
g4636
I0
tp5072
a(I1307
I2
F-0.875
g579
I0
tp5073
a(I1309
I1
F0.75
g1279
I0
tp5074
a(I1309
I1
F1.0
g1281
I0
tp5075
a(I1312
I0
F1.0
g2566
I0
tp5076
a(I1319
I7
F0.375
g1283
I0
tp5077
a(I1319
I7
F1.0
g1285
I0
tp5078
a(I1319
I11
F1.0
g4800
I0
tp5079
a(I1319
I11
F-0.625
g4802
I0
tp5080
a(I1330
I7
F1.0
g4804
I0
tp5081
a(I1330
I10
F1.0
g2286
I0
tp5082
a(I1331
I26
I0
g509
I0
tp5083
a(I1332
I3
F-0.75
g4808
I0
tp5084
a(I1335
I15
F1.0
g4810
I0
tp5085
a(I1336
I0
F1.0
g519
I0
tp5086
a(I1337
I4
F1.0
g1288
I0
tp5087
a(I1339
I9
F1.0
g1290
I0
tp5088
a(I1339
I9
I0
g1292
I0
tp5089
a(I1359
I3
F1.0
g2293
I0
tp5090
a(I1371
I15
F-0.125
g583
I0
tp5091
a(I1377
I3
I0
g1547
I0
tp5092
a(I1458
I11
F1.0
g1294
I0
tp5093
a(I1470
I5
F-0.5
g1296
I0
tp5094
a(I1470
I5
F-0.875
g1298
I0
tp5095
a(I1470
I5
F-1.0
g1300
I0
tp5096
a(I1470
I5
F1.0
g1302
I0
tp5097
a(I1479
I17
F-0.25
g585
I0
tp5098
a(I1479
I17
F-0.875
g587
I0
tp5099
a(I1492
I3
I0
g3518
I0
tp5100
a(I1492
I3
F1.0
g3520
I0
tp5101
a(I1510
I2
F1.0
g4828
I0
tp5102
a(I1530
I5
I0
g2308
I0
tp5103
a(I1555
I5
F-0.125
g2310
I0
tp5104
a(I1555
I5
F1.0
g2312
I0
tp5105
a(I1562
I0
F1.0
g1306
I0
tp5106
a(I1565
I11
F1.0
g523
I0
tp5107
as(S'device'
p5108
tp5109
(lp5110
(I261
I30
I0
S'dis'
p5111
I11
tp5112
a(I274
I1
F-0.25
S'i'
p5113
I11
tp5114
a(I799
I24
F-0.625
S'new'
p5115
I11
tp5116
a(I841
I6
F1.0
S'good'
p5117
I11
tp5118
a(I902
I7
F0.875
S'great'
p5119
I11
tp5120
a(I902
I10
F0.625
S'justifiable'
p5121
I11
tp5122
a(I1032
I0
F1.0
S'good'
p5123
I11
tp5124
a(I1060
I26
F0.25
S'worth'
p5125
I11
tp5126
a(I1119
I4
I0
S'cool'
p5127
I11
tp5128
a(I1543
I8
F0.75
S'whole'
p5129
I11
tp5130
a(I1543
I8
F0.125
S'mobile'
p5131
I11
tp5132
a(I1565
I10
F0.625
S'reliable'
p5133
I11
tp5134
a(I1575
I6
F0.375
S'ok'
p5135
I11
tp5136
as(S'delivery'
p5137
S'by'
p5138
S'flipkart'
p5139
tp5140
(lp5141
(I207
I2
F1.0
S'good'
p5142
I0
tp5143
a(I409
I2
F0.5
S'speedy'
p5144
I0
tp5145
a(I858
I0
F0.75
S'perfect'
p5146
I0
tp5147
a(I1088
I0
F1.0
S'good'
p5148
I0
tp5149
a(I1582
I7
F0.875
S'awesome'
p5150
I0
tp5151
as(S'awesome'
p5152
S'sound'
p5153
S'quality'
p5154
tp5155
(lp5156
(I287
I6
F0.875
g2421
I0
tp5157
a(I287
I6
F0.75
g2423
I0
tp5158
a(I510
I0
F0.875
g602
I0
tp5159
a(I574
I0
F1.0
g2380
I0
tp5160
a(I1154
I1
F0.875
g2471
I0
tp5161
a(I1154
I1
F1.0
g2473
I0
tp5162
a(I1229
I1
F0.875
g2481
I0
tp5163
a(I1372
I4
F0.75
g2497
I0
tp5164
a(I1372
I4
F0.875
g2499
I0
tp5165
a(I1381
I1
F0.75
g2501
I0
tp5166
a(I1381
I1
F0.875
g2503
I0
tp5167
a(I360
I4
I0
S'freaking'
p5168
I6
tp5169
a(I1335
I2
I0
S'screen'
p5170
I6
tp5171
as(S'review'
p5172
tp5173
(lp5174
(I203
I0
F-0.375
S'vary'
p5175
I8
tp5176
a(I203
I0
F0.625
S'first'
p5177
I8
tp5178
a(I460
I1
I0
S'many'
p5179
I8
tp5180
a(I473
I6
F-0.25
S'i'
p5181
I8
tp5182
a(I972
I1
I0
S'more'
p5183
I8
tp5184
a(I1229
I0
F0.375
S'satisfied'
p5185
I8
tp5186
a(I1565
I8
F0.625
S'live'
p5187
I8
tp5188
a(I1590
I4
F1.0
S'good'
p5189
I8
tp5190
as(S'k5'
p5191
S'plus'
p5192
S'mobile'
p5193
tp5194
(lp5195
(I233
I0
F0.125
g4513
I0
tp5196
a(I1282
I3
F0.875
S'nice'
p5197
I0
tp5198
a(I1283
I5
F0.875
S'superb'
p5199
I0
tp5200
a(I1442
I23
F0.5
S'ready'
p5201
I0
tp5202
a(I1442
I23
F-0.375
S'same'
p5203
I0
tp5204
a(I1449
I4
F0.125
S'mobile'
p5205
I0
tp5206
a(I1509
I0
F-0.125
g4524
I0
tp5207
a(I1530
I14
F-0.875
S'low'
p5208
I0
tp5209
a(I1575
I1
F0.125
g4526
I0
tp5210
a(I233
I0
F0.125
g4513
I0
tp5211
a(I492
I19
I0
g4516
I0
tp5212
a(I492
I19
F0.5
g4518
I0
tp5213
a(I519
I2
F-1.0
S'bad'
p5214
I0
tp5215
a(I519
I2
F1.0
S'better'
p5216
I0
tp5217
a(I673
I0
F0.875
g4542
I0
tp5218
a(I799
I0
F0.875
S'nice'
p5219
I0
tp5220
a(I1265
I0
F0.875
S'nice'
p5221
I0
tp5222
a(I1442
I23
F-0.375
g5203
I0
tp5223
a(I1449
I4
F0.125
g5205
I0
tp5224
a(I1509
I0
F-0.125
g4524
I0
tp5225
a(I1575
I1
F0.125
g4526
I0
tp5226
a(I1582
I0
F0.75
S'due'
p5227
I0
tp5228
a(I799
I0
F0.875
g5219
I2
tp5229
a(I1265
I0
F0.875
g5221
I2
tp5230
a(I1330
I8
F0.875
S'great'
p5231
I2
tp5232
a(I1449
I4
F0.125
g5205
I2
tp5233
a(I1582
I0
F0.75
g5227
I2
tp5234
as(S'apps'
p5235
tp5236
(lp5237
(I13
I2
I0
S'unnecessary'
p5238
I4
tp5239
a(I13
I2
F0.5
S'possible'
p5240
I4
tp5241
a(I36
I6
F-0.625
S'other'
p5242
I4
tp5243
a(I36
I7
F0.875
S'great'
p5244
I4
tp5245
a(I100
I19
F0.875
S'important'
p5246
I4
tp5247
a(I114
I2
I0
S'few'
p5248
I4
tp5249
a(I331
I2
I0
S'unnecessary'
p5250
I4
tp5251
a(I331
I2
F0.5
S'possible'
p5252
I4
tp5253
a(I471
I12
F-0.5
S'unwanted'
p5254
I4
tp5255
a(I481
I7
F-0.625
S'useless'
p5256
I4
tp5257
a(I639
I0
F-0.625
S'other'
p5258
I4
tp5259
a(I767
I19
F0.5
S'internal'
p5260
I4
tp5261
a(I841
I1
F0.75
S'easy'
p5262
I4
tp5263
a(I877
I0
F-0.5
S'slow'
p5264
I4
tp5265
a(I974
I1
I0
S'few'
p5266
I4
tp5267
a(I974
I1
F0.75
S'essential'
p5268
I4
tp5269
a(I1062
I12
I0
S'many'
p5270
I4
tp5271
a(I1141
I1
F-0.875
S'poor'
p5272
I4
tp5273
a(I1224
I0
F0.625
S'necessary'
p5274
I4
tp5275
a(I1267
I8
I-100
S'inbuild'
p5276
I4
tp5277
a(I1267
I8
F-0.75
S'hidden'
p5278
I4
tp5279
a(I1267
I10
F-0.875
S'hard'
p5280
I4
tp5281
a(I1528
I3
I0
S'few'
p5282
I4
tp5283
as.