(dp0
(S'service'
p1
S'centre'
p2
tp3
(lp4
(I0
I1216
F0.375
S'available'
p5
I2
tp6
a(I0
I3469
F-0.778
S'common'
p7
I2
tp8
a(I0
I3470
I0
S'u'
p9
I2
tp10
as(S'worth'
p11
S'for'
p12
S'money'
p13
tp14
(lp15
(I0
I3737
F1.0
S'good'
p16
I0
tp17
a(I0
I1755
I0
S'more'
p18
I8
tp19
a(I0
I2743
F1.0
S'good'
p20
I8
tp21
a(I0
I3397
I-100
S'moneymeizu'
p22
I8
tp23
a(I0
I3742
F0.125
S'mobile'
p24
I8
tp25
as(S'sim'
p26
S'and'
p27
S'memory'
p28
tp29
(lp30
(I0
I390
F0.5
S'dual'
p31
I0
tp32
a(I0
I1608
I0
S'u'
p33
I0
tp34
a(I0
I1608
F0.5
S'dual'
p35
I0
tp36
a(I0
I1608
I0
S'optional'
p37
I0
tp38
a(I0
I2524
F-0.75
S'single'
p39
I0
tp40
a(I0
I3639
F0.5
S'dual'
p41
I0
tp42
a(I0
I3652
I0
S'n'
p43
I0
tp44
as(S'quality'
p45
S'good'
p46
tp47
(lp48
(I0
I92
I0
S'audio'
p49
I0
tp50
a(I0
I220
F1.0
S'good'
p51
I0
tp52
a(I0
I222
F0.75
S'sound'
p53
I0
tp54
a(I0
I222
F1.0
S'good'
p55
I0
tp56
a(I0
I231
F1.0
S'good'
p57
I0
tp58
a(I0
I231
F1.0
S'good'
p59
I0
tp60
a(I0
I244
I0
S'build'
p61
I0
tp62
a(I0
I244
F1.0
S'good'
p63
I0
tp64
a(I0
I290
F-0.5
S'call'
p65
I0
tp66
a(I0
I290
F1.0
S'good'
p67
I0
tp68
a(I0
I321
I0
S'build'
p69
I0
tp70
a(I0
I321
F0.875
S'nice'
p71
I0
tp72
a(I0
I453
I0
S'build'
p73
I0
tp74
a(I0
I511
I0
S'build'
p75
I0
tp76
a(I0
I537
F0.125
S'mobile'
p77
I0
tp78
a(I0
I537
I0
S'screen'
p79
I0
tp80
a(I0
I548
F1.0
S'good'
p81
I0
tp82
a(I0
I551
F-0.125
S'overall'
p83
I0
tp84
a(I0
I551
F1.0
S'good'
p85
I0
tp86
a(I0
I575
F-0.875
S'horrid'
p87
I0
tp88
a(I0
I615
F1.0
S'good'
p89
I0
tp90
a(I0
I759
F1.0
S'good'
p91
I0
tp92
a(I0
I990
F1.0
S'good'
p93
I0
tp94
a(I0
I1003
F1.0
S'good'
p95
I0
tp96
a(I0
I1065
F1.0
S'good'
p97
I0
tp98
a(I0
I1085
I0
S'build'
p99
I0
tp100
a(I0
I1098
F-1.0
S'bad'
p101
I0
tp102
a(I0
I1098
F0.75
S'sound'
p103
I0
tp104
a(I0
I1116
F1.0
S'good'
p105
I0
tp106
a(I0
I1282
F1.0
S'good'
p107
I0
tp108
a(I0
I1304
F0.625
S'acceptable'
p109
I0
tp110
a(I0
I1308
F-0.5
S'call'
p111
I0
tp112
a(I0
I1324
F-0.625
S'average'
p113
I0
tp114
a(I0
I1359
F1.0
S'good'
p115
I0
tp116
a(I0
I1372
F1.0
S'good'
p117
I0
tp118
a(I0
I1699
F1.0
S'good'
p119
I0
tp120
a(I0
I1781
F1.0
S'good'
p121
I0
tp122
a(I0
I1823
F-0.875
S'pathetic'
p123
I0
tp124
a(I0
I1826
F-1.0
S'bad'
p125
I0
tp126
a(I0
I1833
F1.0
S'good'
p127
I0
tp128
a(I0
I1905
F1.0
S'good'
p129
I0
tp130
a(I0
I1911
F1.0
S'good'
p131
I0
tp132
a(I0
I1912
F1.0
S'good'
p133
I0
tp134
a(I0
I2019
F1.0
S'good'
p135
I0
tp136
a(I0
I2125
I0
S'build'
p137
I0
tp138
a(I0
I2125
F1.0
S'good'
p139
I0
tp140
a(I0
I2291
I0
S'build'
p141
I0
tp142
a(I0
I2291
F1.0
S'good'
p143
I0
tp144
a(I0
I2354
F1.0
S'best'
p145
I0
tp146
a(I0
I2403
F1.0
S'good'
p147
I0
tp148
a(I0
I2414
F-0.875
S'low'
p149
I0
tp150
a(I0
I2495
I0
S'many'
p151
I0
tp152
a(I0
I2495
I0
S'audio'
p153
I0
tp154
a(I0
I2495
F1.0
S'good'
p155
I0
tp156
a(I0
I2546
F1.0
S'good'
p157
I0
tp158
a(I0
I2592
F0.875
S'great'
p159
I0
tp160
a(I0
I2707
F1.0
S'good'
p161
I0
tp162
a(I0
I2754
F1.0
S'good'
p163
I0
tp164
a(I0
I2754
I0
S'total'
p165
I0
tp166
a(I0
I2805
F1.0
S'good'
p167
I0
tp168
a(I0
I2906
F0.875
S'nice'
p169
I0
tp170
a(I0
I2914
F1.0
S'good'
p171
I0
tp172
a(I0
I2914
F1.0
S'good'
p173
I0
tp174
a(I0
I2938
F1.0
S'good'
p175
I0
tp176
a(I0
I3006
I0
S'build'
p177
I0
tp178
a(I0
I3006
F1.0
S'good'
p179
I0
tp180
a(I0
I3200
F0.25
S'able'
p181
I0
tp182
a(I0
I3200
F1.0
S'good'
p183
I0
tp184
a(I0
I3310
F-0.875
S'cheap'
p185
I0
tp186
a(I0
I3318
I0
S'more'
p187
I0
tp188
a(I0
I3329
F-0.875
S'rare'
p189
I0
tp190
a(I0
I3329
I0
S'normal'
p191
I0
tp192
a(I0
I3329
F1.0
S'good'
p193
I0
tp194
a(I0
I3356
F0.625
S'okay'
p195
I0
tp196
a(I0
I3356
F1.0
S'excellent'
p197
I0
tp198
a(I0
I3403
F1.0
S'good'
p199
I0
tp200
a(I0
I92
I0
g49
I2
tp201
a(I0
I220
F1.0
g51
I2
tp202
a(I0
I222
F0.75
g53
I2
tp203
a(I0
I222
F1.0
g55
I2
tp204
a(I0
I231
F1.0
g57
I2
tp205
a(I0
I231
F1.0
g59
I2
tp206
a(I0
I244
I0
g61
I2
tp207
a(I0
I244
F1.0
g63
I2
tp208
a(I0
I290
F-0.5
g65
I2
tp209
a(I0
I290
F1.0
g67
I2
tp210
a(I0
I321
I0
g69
I2
tp211
a(I0
I321
F0.875
g71
I2
tp212
a(I0
I453
I0
g73
I2
tp213
a(I0
I511
I0
g75
I2
tp214
a(I0
I537
F0.125
g77
I2
tp215
a(I0
I537
I0
g79
I2
tp216
a(I0
I548
F1.0
g81
I2
tp217
a(I0
I551
F-0.125
g83
I2
tp218
a(I0
I551
F1.0
g85
I2
tp219
a(I0
I575
F-0.875
g87
I2
tp220
a(I0
I615
F1.0
g89
I2
tp221
a(I0
I759
F1.0
g91
I2
tp222
a(I0
I990
F1.0
g93
I2
tp223
a(I0
I1003
F1.0
g95
I2
tp224
a(I0
I1065
F1.0
g97
I2
tp225
a(I0
I1085
I0
g99
I2
tp226
a(I0
I1098
F-1.0
g101
I2
tp227
a(I0
I1098
F0.75
g103
I2
tp228
a(I0
I1116
F1.0
g105
I2
tp229
a(I0
I1282
F1.0
g107
I2
tp230
a(I0
I1304
F0.625
g109
I2
tp231
a(I0
I1308
F-0.5
g111
I2
tp232
a(I0
I1324
F-0.625
g113
I2
tp233
a(I0
I1359
F1.0
g115
I2
tp234
a(I0
I1372
F1.0
g117
I2
tp235
a(I0
I1522
I-100
S'betterpicture'
p236
I2
tp237
a(I0
I1699
F1.0
g119
I2
tp238
a(I0
I1781
F1.0
g121
I2
tp239
a(I0
I1823
F-0.875
g123
I2
tp240
a(I0
I1826
F-1.0
g125
I2
tp241
a(I0
I1833
F1.0
g127
I2
tp242
a(I0
I1905
F1.0
g129
I2
tp243
a(I0
I1911
F1.0
g131
I2
tp244
a(I0
I1912
F1.0
g133
I2
tp245
a(I0
I1931
I-100
S'phoneexcellent'
p246
I2
tp247
a(I0
I2019
F1.0
g135
I2
tp248
a(I0
I2125
I0
g137
I2
tp249
a(I0
I2125
F1.0
g139
I2
tp250
a(I0
I2291
I0
g141
I2
tp251
a(I0
I2291
F1.0
g143
I2
tp252
a(I0
I2354
F1.0
g145
I2
tp253
a(I0
I2403
F1.0
g147
I2
tp254
a(I0
I2414
F-0.875
g149
I2
tp255
a(I0
I2495
I0
g151
I2
tp256
a(I0
I2495
I0
g153
I2
tp257
a(I0
I2495
F1.0
g155
I2
tp258
a(I0
I2546
F1.0
g157
I2
tp259
a(I0
I2592
F0.875
g159
I2
tp260
a(I0
I2707
F1.0
g161
I2
tp261
a(I0
I2754
F1.0
g163
I2
tp262
a(I0
I2754
I0
g165
I2
tp263
a(I0
I2805
F1.0
g167
I2
tp264
a(I0
I2906
F0.875
g169
I2
tp265
a(I0
I2914
F1.0
g171
I2
tp266
a(I0
I2914
F1.0
g173
I2
tp267
a(I0
I2938
F1.0
g175
I2
tp268
a(I0
I3006
I0
g177
I2
tp269
a(I0
I3006
F1.0
g179
I2
tp270
a(I0
I3200
F0.25
g181
I2
tp271
a(I0
I3200
F1.0
g183
I2
tp272
a(I0
I3241
I-100
S'good9'
p273
I2
tp274
a(I0
I3310
F-0.875
g185
I2
tp275
a(I0
I3318
I0
g187
I2
tp276
a(I0
I3329
F-0.875
g189
I2
tp277
a(I0
I3329
I0
g191
I2
tp278
a(I0
I3329
F1.0
g193
I2
tp279
a(I0
I3356
F0.625
g195
I2
tp280
a(I0
I3356
F1.0
g197
I2
tp281
a(I0
I3403
F1.0
g199
I2
tp282
as(S'heating'
p283
S'issue'
p284
tp285
(lp286
(I0
I139
F0.375
S'significant'
p287
I2
tp288
a(I0
I747
F-0.75
S'little'
p289
I2
tp290
a(I0
I747
F0.375
S'heating'
p291
I2
tp292
a(I0
I1210
F0.375
S'heating'
p293
I2
tp294
a(I0
I1863
F0.375
S'heating'
p295
I2
tp296
a(I0
I2394
F-0.5
S'slowness'
p297
I2
tp298
a(I0
I2394
F0.375
S'much'
p299
I2
tp300
a(I0
I3081
F0.5
S'touch'
p301
I2
tp302
a(I0
I3321
F-0.625
S'new'
p303
I2
tp304
a(I0
I3321
I0
S'update'
p305
I2
tp306
a(I0
I3378
I-100
S'lagsno'
p307
I2
tp308
as(S'call'
p309
S'quality'
p310
tp311
(lp312
(I0
I290
F-0.5
g65
I1
tp313
a(I0
I290
F1.0
g67
I1
tp314
a(I0
I1308
F-0.5
g111
I1
tp315
a(I0
I1342
F0.875
S'nice'
p316
I1
tp317
a(I0
I1613
I-100
S'awesomebuild'
p318
I1
tp319
a(I0
I2354
F1.0
g145
I1
tp320
a(I0
I2406
F0.5
S'crisp'
p321
I1
tp322
a(I0
I2406
I0
S'clear'
p323
I1
tp324
a(I0
I2754
F1.0
g163
I1
tp325
a(I0
I2754
I0
g165
I1
tp326
a(I0
I3380
I0
S'cellular'
p327
I1
tp328
a(I0
I3380
F0.875
S'decent'
p329
I1
tp330
as(S'good'
p331
S'front'
p332
S'camera'
p333
tp334
(lp335
(I0
I320
F1.0
S'good'
p336
I0
tp337
a(I0
I324
F-0.875
S'poor'
p338
I0
tp339
a(I0
I341
I0
S'yellowish'
p340
I0
tp341
a(I0
I341
F0.75
S'white'
p342
I0
tp343
a(I0
I413
F1.0
S'good'
p344
I0
tp345
a(I0
I586
F1.0
S'good'
p346
I0
tp347
a(I0
I586
F1.0
S'good'
p348
I0
tp349
a(I0
I735
I0
S'rear'
p350
I0
tp351
a(I0
I846
F1.0
S'good'
p352
I0
tp353
a(I0
I913
I0
S'rear'
p354
I0
tp355
a(I0
I913
F1.0
S'good'
p356
I0
tp357
a(I0
I1549
F1.0
S'good'
p358
I0
tp359
a(I0
I1608
I0
S'above'
p360
I0
tp361
a(I0
I1826
F-0.375
S'blur'
p362
I0
tp363
a(I0
I1877
F1.0
S'good'
p364
I0
tp365
a(I0
I2805
I0
S'self'
p366
I0
tp367
a(I0
I2805
F-0.625
S'average'
p368
I0
tp369
a(I0
I2863
F-0.125
S'front'
p370
I0
tp371
a(I0
I3397
F0.625
S'quality'
p372
I0
tp373
a(I0
I3400
F1.0
S'good'
p374
I0
tp375
a(I0
I320
F1.0
g336
I6
tp376
a(I0
I324
F-0.875
g338
I6
tp377
a(I0
I404
F-0.125
S'back'
p378
I6
tp379
a(I0
I404
F-0.125
S'front'
p380
I6
tp381
a(I0
I413
F1.0
g344
I6
tp382
a(I0
I566
F0.625
S'smooth'
p383
I6
tp384
a(I0
I586
F1.0
g346
I6
tp385
a(I0
I586
F1.0
g348
I6
tp386
a(I0
I735
I0
g350
I6
tp387
a(I0
I846
F1.0
g352
I6
tp388
a(I0
I913
I0
g354
I6
tp389
a(I0
I913
F1.0
g356
I6
tp390
a(I0
I938
F-0.125
S'front'
p391
I6
tp392
a(I0
I1536
I0
S'rear'
p393
I6
tp394
a(I0
I1549
F1.0
g358
I6
tp395
a(I0
I1608
I0
g360
I6
tp396
a(I0
I1630
F-0.125
S'front'
p397
I6
tp398
a(I0
I1826
F-0.375
g362
I6
tp399
a(I0
I1877
F1.0
g364
I6
tp400
a(I0
I2210
F1.0
S'better'
p401
I6
tp402
a(I0
I2468
F-0.875
S'poor'
p403
I6
tp404
a(I0
I2528
F0.5
S'touch'
p405
I6
tp406
a(I0
I2805
I0
g366
I6
tp407
a(I0
I2805
F-0.625
g368
I6
tp408
a(I0
I2851
I0
S'rear'
p409
I6
tp410
a(I0
I2851
F-0.25
S'i'
p411
I6
tp412
a(I0
I2863
F-0.125
g370
I6
tp413
a(I0
I2887
F-0.125
S'front'
p414
I6
tp415
a(I0
I3031
F0.625
S'fine'
p416
I6
tp417
a(I0
I3031
F-0.125
S'front'
p418
I6
tp419
a(I0
I3330
F0.375
S'ok'
p420
I6
tp421
a(I0
I3341
F-0.125
S'front'
p422
I6
tp423
a(I0
I3397
F0.625
g372
I6
tp424
a(I0
I3400
F1.0
g374
I6
tp425
as(S'flyme'
p426
S'os'
p427
tp428
(lp429
(I0
I180
I-100
S'flyme'
p430
I0
tp431
a(I0
I213
F0.875
S'great'
p432
I0
tp433
a(I0
I486
F1.0
S'good'
p434
I0
tp435
a(I0
I557
F1.0
S'good'
p436
I0
tp437
a(I0
I592
F-0.25
S'i'
p438
I0
tp439
a(I0
I976
F-0.25
S'latest'
p440
I0
tp441
a(I0
I977
F-0.25
S'latest'
p442
I0
tp443
a(I0
I977
F0.375
S'available'
p444
I0
tp445
a(I0
I1539
F-0.75
S'stupid'
p446
I0
tp447
a(I0
I1852
F1.0
S'good'
p448
I0
tp449
a(I0
I1877
F-0.125
S'os'
p450
I0
tp451
a(I0
I1888
I-100
S'goodflyme'
p452
I0
tp453
a(I0
I1888
F0.375
S'impressive'
p454
I0
tp455
a(I0
I1889
F-0.25
S'latest'
p456
I0
tp457
a(I0
I2010
F-0.5
S'snappy'
p458
I0
tp459
a(I0
I2107
F1.0
S'good'
p460
I0
tp461
a(I0
I2353
F0.625
S'smooth'
p462
I0
tp463
a(I0
I2353
I0
S'lag'
p464
I0
tp465
a(I0
I2353
F-0.75
S'free'
p466
I0
tp467
a(I0
I2376
F0.875
S'superb'
p468
I0
tp469
a(I0
I2650
F1.0
S'good'
p470
I0
tp471
a(I0
I2774
F0.875
S'simple'
p472
I0
tp473
a(I0
I3094
I-100
S'ultrasmooth'
p474
I0
tp475
a(I0
I3375
F-0.75
S'little'
p476
I0
tp477
a(I0
I3375
F-0.75
S'tricky'
p478
I0
tp479
a(I0
I3375
F0.625
S'friendly'
p480
I0
tp481
a(I0
I3375
F-0.375
S'same'
p482
I0
tp483
a(I0
I3375
F-0.25
S'rest'
p484
I0
tp485
a(I0
I3375
F0.625
S'fine'
p486
I0
tp487
a(I0
I777
F-0.125
S'overall'
p488
I0
tp489
a(I0
I777
F-0.625
S'fast'
p490
I0
tp491
a(I0
I976
F-0.25
g440
I0
tp492
a(I0
I977
F-0.25
g442
I0
tp493
a(I0
I1085
I-100
S'efficent'
p494
I0
tp495
a(I0
I1684
F-0.25
S'latest'
p496
I0
tp497
a(I0
I1852
F1.0
g448
I0
tp498
a(I0
I1877
F-0.125
g450
I0
tp499
a(I0
I1889
F-0.25
g456
I0
tp500
a(I0
I2195
I-100
S'camera3'
p501
I0
tp502
a(I0
I2815
F0.75
S'sound'
p503
I0
tp504
a(I0
I2949
I0
S'user'
p505
I0
tp506
a(I0
I3134
F-0.25
S'i'
p507
I0
tp508
a(I0
I3142
F-0.625
S'irritating'
p509
I0
tp510
as(S'experience'
p511
tp512
(lp513
(I0
I213
F0.875
S'awesome'
p514
I12
tp515
a(I0
I363
F1.0
S'good'
p516
I12
tp517
a(I0
I564
F1.0
S'good'
p518
I12
tp519
a(I0
I591
F0.5
S'unique'
p520
I12
tp521
a(I0
I591
F0.875
S'nice'
p522
I12
tp523
a(I0
I625
I0
S'different'
p524
I12
tp525
a(I0
I642
F0.5
S'touch'
p526
I12
tp527
a(I0
I642
F0.625
S'smooth'
p528
I12
tp529
a(I0
I676
F0.75
S'whole'
p530
I12
tp531
a(I0
I733
F0.5
S'high'
p532
I12
tp533
a(I0
I953
F0.875
S'great'
p534
I12
tp535
a(I0
I1020
I0
S'different'
p536
I12
tp537
a(I0
I1071
F-0.25
S'i'
p538
I12
tp539
a(I0
I1084
F0.75
S'beautiful'
p540
I12
tp541
a(I0
I1152
F0.875
S'awesome'
p542
I12
tp543
a(I0
I1379
F-0.625
S'irritating'
p544
I12
tp545
a(I0
I1752
F-0.625
S'new'
p546
I12
tp547
a(I0
I1915
F-0.625
S'new'
p548
I12
tp549
a(I0
I1923
F1.0
S'good'
p550
I12
tp551
a(I0
I2169
F1.0
S'good'
p552
I12
tp553
a(I0
I2397
F0.875
S'awesome'
p554
I12
tp555
a(I0
I2404
F0.875
S'great'
p556
I12
tp557
a(I0
I2541
F-1.0
S'bad'
p558
I12
tp559
a(I0
I2717
F-0.125
S'such'
p560
I12
tp561
a(I0
I2717
F-1.0
S'bad'
p562
I12
tp563
a(I0
I2973
F1.0
S'good'
p564
I12
tp565
a(I0
I3408
F-1.0
S'bad'
p566
I12
tp567
a(I0
I3493
F0.75
S'whole'
p568
I12
tp569
a(I0
I3493
I0
S'different'
p570
I12
tp571
a(I0
I3699
F0.875
S'nice'
p572
I12
tp573
as(S'mobile'
p574
S'very'
p575
S'good'
p576
tp577
(lp578
(I0
I909
F1.0
S'good'
p579
I0
tp580
a(I0
I1558
F1.0
S'good'
p581
I0
tp582
a(I0
I1574
F1.0
S'good'
p583
I0
tp584
a(I0
I2438
F1.0
S'good'
p585
I0
tp586
a(I0
I2924
F0.875
S'awesome'
p587
I0
tp588
a(I0
I3262
F0.875
S'happy'
p589
I0
tp590
as(S'software'
p591
tp592
(lp593
(I0
I468
F0.5
S'similar'
p594
I2
tp595
a(I0
I475
F-0.625
S'other'
p596
I2
tp597
a(I0
I489
F-0.375
S'manual'
p598
I2
tp599
a(I0
I490
F1.0
S'best'
p600
I2
tp601
a(I0
I544
F1.0
S'good'
p602
I2
tp603
a(I0
I577
F-0.875
S'terrible'
p604
I2
tp605
a(I0
I712
F-0.5
S'extra'
p606
I2
tp607
a(I0
I712
I0
S'standard'
p608
I2
tp609
a(I0
I712
F-1.0
S'bad'
p610
I2
tp611
a(I0
I979
F0.5
S'upgrade'
p612
I2
tp613
a(I0
I1019
I0
S'specs'
p614
I2
tp615
a(I0
I1366
F-0.5
S'international'
p616
I2
tp617
a(I0
I2756
I0
S'update'
p618
I2
tp619
a(I0
I2958
F0.5
S'internal'
p620
I2
tp621
a(I0
I2958
F0.875
S'nice'
p622
I2
tp623
a(I0
I3539
F-0.25
S'hang'
p624
I2
tp625
as(S'for'
p626
S'meizu'
p627
S'm2'
p628
tp629
(lp630
(I0
I972
I0
S'm1'
p631
I0
tp632
a(I0
I1587
F0.375
S'satisfied'
p633
I0
tp634
a(I0
I2930
F0.625
S'select'
p635
I0
tp636
a(I0
I3162
F-0.875
S'tall'
p637
I0
tp638
as(S'very'
p639
S'good'
p640
S'product'
p641
tp642
(lp643
(I0
I48
F1.0
S'good'
p644
I0
tp645
a(I0
I48
F-0.875
S'pathetic'
p646
I0
tp647
a(I0
I57
F1.0
S'good'
p648
I0
tp649
a(I0
I163
F1.0
S'good'
p650
I0
tp651
a(I0
I1519
F0.875
S'nice'
p652
I0
tp653
a(I0
I1519
F1.0
S'good'
p654
I0
tp655
a(I0
I1594
F1.0
S'good'
p656
I0
tp657
a(I0
I1613
F1.0
S'good'
p658
I0
tp659
a(I0
I1988
F-1.0
S'bad'
p660
I0
tp661
a(I0
I2726
F1.0
S'good'
p662
I0
tp663
a(I0
I2754
F-1.0
S'bad'
p664
I0
tp665
a(I0
I2754
F-0.25
S'i'
p666
I0
tp667
a(I0
I3186
F-1.0
S'bad'
p668
I0
tp669
a(I0
I3580
F1.0
S'good'
p670
I0
tp671
a(I0
I3658
F1.0
S'good'
p672
I0
tp673
a(I0
I3703
F1.0
S'good'
p674
I0
tp675
a(I0
I48
F1.0
g644
I5
tp676
a(I0
I48
F-0.875
g646
I5
tp677
a(I0
I57
F1.0
g648
I5
tp678
a(I0
I163
F1.0
g650
I5
tp679
a(I0
I451
F1.0
S'good'
p680
I5
tp681
a(I0
I451
F0.25
S'worth'
p682
I5
tp683
a(I0
I630
F1.0
S'good'
p684
I5
tp685
a(I0
I739
F1.0
S'good'
p686
I5
tp687
a(I0
I1044
F1.0
S'good'
p688
I5
tp689
a(I0
I1098
F-0.25
S'i'
p690
I5
tp691
a(I0
I1098
F0.5
S'dual'
p692
I5
tp693
a(I0
I1482
F0.5
S'true'
p694
I5
tp695
a(I0
I1519
F1.0
g654
I5
tp696
a(I0
I1594
F1.0
g656
I5
tp697
a(I0
I1613
F1.0
g658
I5
tp698
a(I0
I1700
F1.0
S'good'
p699
I5
tp700
a(I0
I1888
F1.0
S'good'
p701
I5
tp702
a(I0
I1928
I0
S'quick'
p703
I5
tp704
a(I0
I1928
I-100
S'possiblegood'
p705
I5
tp706
a(I0
I1988
F-1.0
g660
I5
tp707
a(I0
I2236
F1.0
S'good'
p708
I5
tp709
a(I0
I2726
F1.0
g662
I5
tp710
a(I0
I2754
F-1.0
g664
I5
tp711
a(I0
I2754
F-0.25
g666
I5
tp712
a(I0
I3005
F1.0
S'good'
p713
I5
tp714
a(I0
I3186
F-1.0
g668
I5
tp715
a(I0
I3337
I-100
S'pricethis'
p716
I5
tp717
a(I0
I3403
F0.375
S'fulfilled'
p718
I5
tp719
a(I0
I3580
F1.0
g670
I5
tp720
a(I0
I3658
F1.0
g672
I5
tp721
a(I0
I3703
F1.0
g674
I5
tp722
as(S'usage'
p723
tp724
(lp725
(I0
I17
F-0.5
S'heavy'
p726
I8
tp727
a(I0
I74
F-0.5
S'heavy'
p728
I8
tp729
a(I0
I118
F-0.5
S'heavy'
p730
I8
tp731
a(I0
I272
I0
S'wifi'
p732
I8
tp733
a(I0
I730
F-0.5
S'strenuous'
p734
I8
tp735
a(I0
I777
F-0.5
S'lesser'
p736
I8
tp737
a(I0
I984
F-0.625
S'moderate'
p738
I8
tp739
a(I0
I1006
F-0.5
S'heavy'
p740
I8
tp741
a(I0
I1098
F1.0
S'good'
p742
I8
tp743
a(I0
I1204
F-0.625
S'moderate'
p744
I8
tp745
a(I0
I1276
F-0.625
S'moderate'
p746
I8
tp747
a(I0
I1451
F-0.625
S'average'
p748
I8
tp749
a(I0
I1648
F-0.625
S'new'
p750
I8
tp751
a(I0
I1789
F-0.5
S'heavy'
p752
I8
tp753
a(I0
I2421
F-0.5
S'heavy'
p754
I8
tp755
a(I0
I2459
F-0.625
S'moderate'
p756
I8
tp757
a(I0
I2612
F-0.5
S'heavy'
p758
I8
tp759
a(I0
I2616
F-0.5
S'heavy'
p760
I8
tp761
a(I0
I2951
I0
S'normal'
p762
I8
tp763
a(I0
I3081
F-0.625
S'moderate'
p764
I8
tp765
a(I0
I3257
I0
S'minimal'
p766
I8
tp767
a(I0
I3293
I0
S'specs'
p768
I8
tp769
a(I0
I3293
I0
S'actual'
p770
I8
tp771
a(I0
I3707
I0
S'normal'
p772
I8
tp773
as(S'top'
p774
S'notch'
p775
tp776
(lp777
(I0
I168
F0.375
S'summary'
p778
I0
tp779
a(I0
I301
F-0.375
S'top'
p780
I0
tp781
a(I0
I2770
F-0.375
S'top'
p782
I0
tp783
as(S'double'
p784
S'tap'
p785
tp786
(lp787
(I0
I1648
F-0.625
S'double'
p788
I0
tp789
a(I0
I2306
F-0.625
S'double'
p790
I0
tp791
a(I0
I3244
F-0.625
S'double'
p792
I0
tp793
as(S'built'
p794
S'quality'
p795
tp796
(lp797
(I0
I223
I0
S'built'
p798
I1
tp799
a(I0
I223
F-0.625
S'average'
p800
I1
tp801
a(I0
I223
I0
S'built'
p802
I1
tp803
a(I0
I223
F0.875
S'great'
p804
I1
tp805
a(I0
I588
I0
S'built'
p806
I1
tp807
a(I0
I990
F1.0
g93
I1
tp808
a(I0
I1747
F-0.875
S'poor'
p809
I1
tp810
a(I0
I1833
F1.0
g127
I1
tp811
a(I0
I2403
F1.0
g147
I1
tp812
a(I0
I2489
I0
S'built'
p813
I1
tp814
a(I0
I2653
I-100
S'qualitysuperb'
p815
I1
tp816
a(I0
I2805
F1.0
g167
I1
tp817
a(I0
I2906
F0.875
g169
I1
tp818
as(S'no'
p819
S'service'
p820
S'center'
p821
tp822
(lp823
(I0
I530
F0.625
S'smooth'
p824
I1
tp825
a(I0
I2855
I0
S's'
p826
I1
tp827
a(I0
I3296
F-0.875
S'poor'
p828
I1
tp829
a(I0
I3582
F0.25
S'official'
p830
I1
tp831
as(S'performance'
p832
tp833
(lp834
(I0
I17
F0.375
S'phenomenal'
p835
I13
tp836
a(I0
I25
F1.0
S'excellent'
p837
I13
tp838
a(I0
I25
I0
S'daylight'
p839
I13
tp840
a(I0
I25
F0.625
S'acceptable'
p841
I13
tp842
a(I0
I70
F-0.5
S'unsatisfactory'
p843
I13
tp844
a(I0
I216
F0.625
S'smooth'
p845
I13
tp846
a(I0
I259
F0.875
S'nice'
p847
I13
tp848
a(I0
I287
F1.0
S'good'
p849
I13
tp850
a(I0
I505
F1.0
S'good'
p851
I13
tp852
a(I0
I623
F1.0
S'good'
p853
I13
tp854
a(I0
I804
F0.625
S'smooth'
p855
I13
tp856
a(I0
I1294
F0.625
S'smooth'
p857
I13
tp858
a(I0
I1382
F-0.5
S'slow'
p859
I13
tp860
a(I0
I1456
F1.0
S'good'
p861
I13
tp862
a(I0
I1574
F1.0
S'good'
p863
I13
tp864
a(I0
I1583
F0.5
S'understanding'
p865
I13
tp866
a(I0
I1629
F0.875
S'awesome'
p867
I13
tp868
a(I0
I1629
F0.625
S'superior'
p869
I13
tp870
a(I0
I1629
F0.625
S'smooth'
p871
I13
tp872
a(I0
I1699
F1.0
S'good'
p873
I13
tp874
a(I0
I1707
F0.5
S'high'
p875
I13
tp876
a(I0
I1744
F1.0
S'good'
p877
I13
tp878
a(I0
I1760
F1.0
S'excellent'
p879
I13
tp880
a(I0
I1868
F-0.125
S'overall'
p881
I13
tp882
a(I0
I1868
F0.25
S'worth'
p883
I13
tp884
a(I0
I1933
F0.625
S'rich'
p885
I13
tp886
a(I0
I1937
F1.0
S'good'
p887
I13
tp888
a(I0
I1945
I0
S'nc'
p889
I13
tp890
a(I0
I1980
F1.0
S'good'
p891
I13
tp892
a(I0
I2119
F0.875
S'great'
p893
I13
tp894
a(I0
I2119
F0.875
S'great'
p895
I13
tp896
a(I0
I2119
F1.0
S'good'
p897
I13
tp898
a(I0
I2226
I-100
S'thiz'
p899
I13
tp900
a(I0
I2244
F0.625
S'super'
p901
I13
tp902
a(I0
I2353
F1.0
S'best'
p903
I13
tp904
a(I0
I2390
F-0.375
S'adequate'
p905
I13
tp906
a(I0
I2390
F-0.875
S'poor'
p907
I13
tp908
a(I0
I2390
I-100
S'qualityiam'
p909
I13
tp910
a(I0
I2390
F0.875
S'happy'
p911
I13
tp912
a(I0
I2427
F1.0
S'good'
p913
I13
tp914
a(I0
I2462
F1.0
S'good'
p915
I13
tp916
a(I0
I2562
F0.125
S'amazon'
p917
I13
tp918
a(I0
I2562
I-100
S'servicesmooth'
p919
I13
tp920
a(I0
I2603
F0.875
S'amazing'
p921
I13
tp922
a(I0
I2603
F1.0
S'good'
p923
I13
tp924
a(I0
I2678
F1.0
S'good'
p925
I13
tp926
a(I0
I2678
I0
S'light'
p927
I13
tp928
a(I0
I2680
F-0.25
S'i'
p929
I13
tp930
a(I0
I2734
F-0.5
S'slow'
p931
I13
tp932
a(I0
I2805
I-100
S'builddecent'
p933
I13
tp934
a(I0
I3337
F1.0
S'good'
p935
I13
tp936
a(I0
I3401
F1.0
S'good'
p937
I13
tp938
a(I0
I3501
F1.0
S'good'
p939
I13
tp940
as(S'sound'
p941
S'quality'
p942
tp943
(lp944
(I0
I222
F0.75
g53
I5
tp945
a(I0
I222
F1.0
g55
I5
tp946
a(I0
I231
F1.0
g57
I5
tp947
a(I0
I231
F1.0
g59
I5
tp948
a(I0
I415
F1.0
S'good'
p949
I5
tp950
a(I0
I418
I0
S'clear'
p951
I5
tp952
a(I0
I418
F0.5
S'crisp'
p953
I5
tp954
a(I0
I548
F-0.875
S'low'
p955
I5
tp956
a(I0
I548
F1.0
g81
I5
tp957
a(I0
I1034
F0.75
S'sound'
p958
I5
tp959
a(I0
I1039
F0.75
S'sound'
p960
I5
tp961
a(I0
I1065
F1.0
g97
I5
tp962
a(I0
I1098
F-1.0
g101
I5
tp963
a(I0
I1098
F0.75
g103
I5
tp964
a(I0
I1145
F0.375
S'ok'
p965
I5
tp966
a(I0
I1565
F-0.875
S'poor'
p967
I5
tp968
a(I0
I1695
F1.0
S'good'
p969
I5
tp970
a(I0
I1721
I0
S'build'
p971
I5
tp972
a(I0
I1768
F1.0
S'good'
p973
I5
tp974
a(I0
I1912
F1.0
g133
I5
tp975
a(I0
I2267
F0.75
S'sound'
p976
I5
tp977
a(I0
I2267
F-0.875
S'poor'
p978
I5
tp979
a(I0
I2308
F0.75
S'sound'
p980
I5
tp981
a(I0
I2308
F0.875
S'nice'
p982
I5
tp983
a(I0
I2308
F-0.5
S'loud'
p984
I5
tp985
a(I0
I2308
F-0.875
S'low'
p986
I5
tp987
a(I0
I2308
F0.75
S'perfect'
p988
I5
tp989
a(I0
I2414
F-0.875
g149
I5
tp990
a(I0
I2740
F-0.625
S'last'
p991
I5
tp992
a(I0
I2740
F0.875
S'important'
p993
I5
tp994
a(I0
I2740
F-1.0
S'bad'
p995
I5
tp996
a(I0
I2791
F0.75
S'sound'
p997
I5
tp998
a(I0
I2805
F1.0
g167
I5
tp999
a(I0
I3237
F0.75
S'sound'
p1000
I5
tp1001
a(I0
I3237
F1.0
S'better'
p1002
I5
tp1003
a(I0
I3452
F-0.875
S'poor'
p1004
I5
tp1005
a(I0
I3556
F-0.875
S'pathetic'
p1006
I5
tp1007
a(I0
I265
F0.875
S'amazing'
p1008
I15
tp1009
a(I0
I415
F1.0
g949
I15
tp1010
a(I0
I418
I0
g951
I15
tp1011
a(I0
I418
F0.5
g953
I15
tp1012
a(I0
I548
F-0.875
g955
I15
tp1013
a(I0
I606
F0.875
S'awesome'
p1014
I15
tp1015
a(I0
I606
F1.0
S'good'
p1016
I15
tp1017
a(I0
I701
F-0.875
S'poor'
p1018
I15
tp1019
a(I0
I704
I0
S'comfortable'
p1020
I15
tp1021
a(I0
I1052
I0
S'normal'
p1022
I15
tp1023
a(I0
I1052
F0.375
S'dynamic'
p1024
I15
tp1025
a(I0
I1054
I-100
S'enhansment'
p1026
I15
tp1027
a(I0
I1563
I-100
S'goodgood'
p1028
I15
tp1029
a(I0
I1565
F-0.875
g967
I15
tp1030
a(I0
I1695
F1.0
g969
I15
tp1031
a(I0
I1768
F1.0
g973
I15
tp1032
a(I0
I1858
F-0.5
S'slow'
p1033
I15
tp1034
a(I0
I1858
F1.0
S'good'
p1035
I15
tp1036
a(I0
I1910
F0.5
S'true'
p1037
I15
tp1038
a(I0
I1935
F-0.25
S'let'
p1039
I15
tp1040
a(I0
I1974
I-100
S'interupt'
p1041
I15
tp1042
a(I0
I2308
F-0.875
g986
I15
tp1043
a(I0
I2308
F0.75
g988
I15
tp1044
a(I0
I2356
I0
S'clear'
p1045
I15
tp1046
a(I0
I2402
F1.0
S'good'
p1047
I15
tp1048
a(I0
I2402
I0
S'clear'
p1049
I15
tp1050
a(I0
I2464
I0
S'dirac'
p1051
I15
tp1052
a(I0
I2740
F-0.625
g991
I15
tp1053
a(I0
I2740
F0.875
g993
I15
tp1054
a(I0
I2740
F-1.0
g995
I15
tp1055
a(I0
I3376
F-0.75
S'disappointing'
p1056
I15
tp1057
a(I0
I3556
F-0.875
g1006
I15
tp1058
a(I0
I3675
F-1.0
S'bad'
p1059
I15
tp1060
as(S'at'
p1061
S'price'
p1062
S'range'
p1063
tp1064
(lp1065
(I0
I1046
F0.75
S'perfect'
p1066
I0
tp1067
a(I0
I1046
F0.75
g1066
I13
tp1068
as(S'overall'
p1069
tp1070
(lp1071
(I0
I3116
F1.0
S'good'
p1072
I9
tp1073
as(S'http'
p1074
S'www'
p1075
tp1076
(lp1077
(I0
I150
I0
S'http'
p1078
I0
tp1079
as(S'need'
p1080
tp1081
(lp1082
(I0
I2617
I0
S'clear'
p1083
I9
tp1084
a(I0
I2617
I0
S'specs'
p1085
I9
tp1086
a(I0
I3134
I0
S'u'
p1087
I9
tp1088
a(I0
I3649
F-1.0
S'bad'
p1089
I9
tp1090
as(S'gorilla'
p1091
S'glass'
p1092
tp1093
(lp1094
(I0
I246
F0.875
S'great'
p1095
I2
tp1096
a(I0
I295
I0
S'tampered'
p1097
I2
tp1098
a(I0
I1048
F0.75
S'due'
p1099
I2
tp1100
a(I0
I1151
I0
S'main'
p1101
I2
tp1102
a(I0
I2836
I-100
S'dragontail'
p1103
I2
tp1104
a(I0
I246
F0.875
g1095
I10
tp1105
a(I0
I258
F-0.875
S'hard'
p1106
I10
tp1107
a(I0
I295
I0
g1097
I10
tp1108
a(I0
I1151
I0
g1101
I10
tp1109
a(I0
I1214
I-100
S'tampared'
p1110
I10
tp1111
a(I0
I1989
F0.25
S'shocked'
p1112
I10
tp1113
a(I0
I2116
I0
S'tempered'
p1114
I10
tp1115
a(I0
I2837
F0.875
S'solid'
p1116
I10
tp1117
a(I0
I3032
I0
S'tempered'
p1118
I10
tp1119
a(I0
I3111
F-0.5
S'weak'
p1120
I10
tp1121
a(I0
I3188
I-100
S'dragontrail'
p1122
I10
tp1123
a(I0
I3522
I0
S'tempered'
p1124
I10
tp1125
as(S'dual'
p1126
S'sim'
p1127
tp1128
(lp1129
(I0
I390
F0.5
g31
I1
tp1130
a(I0
I433
F0.5
S'dual'
p1131
I1
tp1132
a(I0
I943
F0.5
S'dual'
p1133
I1
tp1134
a(I0
I1098
F0.5
S'dual'
p1135
I1
tp1136
a(I0
I1098
F0.5
S'dual'
p1137
I1
tp1138
a(I0
I1143
F0.5
S'dual'
p1139
I1
tp1140
a(I0
I1424
F-0.625
S'useless'
p1141
I1
tp1142
a(I0
I1476
F0.5
S'dual'
p1143
I1
tp1144
a(I0
I1476
F-0.75
S'exclusive'
p1145
I1
tp1146
a(I0
I1608
I0
g33
I1
tp1147
a(I0
I1608
F0.5
g35
I1
tp1148
a(I0
I1608
I0
g37
I1
tp1149
a(I0
I1947
F0.5
S'dual'
p1150
I1
tp1151
a(I0
I2140
F0.5
S'dual'
p1152
I1
tp1153
a(I0
I2573
F-0.75
S'single'
p1154
I1
tp1155
a(I0
I2573
F0.5
S'dual'
p1156
I1
tp1157
a(I0
I3639
F0.5
g41
I1
tp1158
a(I0
I3722
F0.5
S'dual'
p1159
I1
tp1160
a(I0
I3723
F0.5
S'dual'
p1161
I1
tp1162
a(I0
I1424
F-0.625
g1141
I1
tp1163
as(S'build'
p1164
S'quality'
p1165
tp1166
(lp1167
(I0
I108
F-0.875
S'cheap'
p1168
I2
tp1169
a(I0
I113
I0
S'build'
p1170
I2
tp1171
a(I0
I244
I0
g61
I2
tp1172
a(I0
I244
F1.0
g63
I2
tp1173
a(I0
I266
F0.75
S'perfect'
p1174
I2
tp1175
a(I0
I321
I0
g69
I2
tp1176
a(I0
I321
F0.875
g71
I2
tp1177
a(I0
I453
I0
g73
I2
tp1178
a(I0
I511
I0
g75
I2
tp1179
a(I0
I1085
I0
g99
I2
tp1180
a(I0
I1116
F1.0
g105
I2
tp1181
a(I0
I1282
F1.0
g107
I2
tp1182
a(I0
I1347
F-0.125
S'overall'
p1183
I2
tp1184
a(I0
I1347
I0
S'build'
p1185
I2
tp1186
a(I0
I1664
F1.0
S'good'
p1187
I2
tp1188
a(I0
I1698
I0
S'build'
p1189
I2
tp1190
a(I0
I1721
I0
g971
I2
tp1191
a(I0
I1984
I-100
S'outstandinggot'
p1192
I2
tp1193
a(I0
I2125
I0
g137
I2
tp1194
a(I0
I2125
F1.0
g139
I2
tp1195
a(I0
I2291
I0
g141
I2
tp1196
a(I0
I2291
F1.0
g143
I2
tp1197
a(I0
I2528
I0
S'build'
p1198
I2
tp1199
a(I0
I2528
F0.75
S'fantastic'
p1200
I2
tp1201
a(I0
I2592
F0.5
S'responsive'
p1202
I2
tp1203
a(I0
I2592
F0.875
g159
I2
tp1204
a(I0
I2805
F1.0
g167
I2
tp1205
a(I0
I3006
I0
g177
I2
tp1206
a(I0
I3006
F1.0
g179
I2
tp1207
a(I0
I3568
F0.625
S'quality'
p1208
I2
tp1209
a(I0
I108
F-0.875
g1168
I2
tp1210
a(I0
I256
F1.0
S'good'
p1211
I2
tp1212
a(I0
I1195
F-0.875
S'tough'
p1213
I2
tp1214
a(I0
I1664
F1.0
g1187
I2
tp1215
a(I0
I2592
F0.5
g1202
I2
tp1216
a(I0
I3568
F0.625
g1208
I2
tp1217
as(S'at'
p1218
S'price'
p1219
S'point'
p1220
tp1221
(lp1222
(I0
I556
F-0.375
S'same'
p1223
I0
tp1224
a(I0
I1181
F0.125
S'mobile'
p1225
I0
tp1226
a(I0
I1181
F0.5
S'elegant'
p1227
I0
tp1228
as(S'power'
p1229
S'saving'
p1230
S'mode'
p1231
tp1232
(lp1233
(I0
I203
F0.625
S'super'
p1234
I0
tp1235
a(I0
I1592
I0
S'mode'
p1236
I0
tp1237
a(I0
I2645
I0
S'ultra'
p1238
I0
tp1239
a(I0
I3502
F0.5
S'similar'
p1240
I0
tp1241
a(I0
I1387
F1.0
S'good'
p1242
I13
tp1243
a(I0
I1388
F1.0
S'good'
p1244
I13
tp1245
a(I0
I3322
F-0.375
S'manual'
p1246
I13
tp1247
a(I0
I3501
F0.125
S'balanced'
p1248
I13
tp1249
a(I0
I3502
F0.5
g1240
I13
tp1250
a(I0
I3503
F1.0
S'better'
p1251
I13
tp1252
a(I0
I3503
I0
S'normal'
p1253
I13
tp1254
as(S'design'
p1255
tp1256
(lp1257
(I0
I108
F0.875
S'clean'
p1258
I4
tp1259
a(I0
I551
F0.875
S'neat'
p1260
I4
tp1261
a(I0
I1154
F0.375
S'sleek'
p1262
I4
tp1263
a(I0
I1177
F0.125
S'mobile'
p1264
I4
tp1265
a(I0
I1177
F1.0
S'good'
p1266
I4
tp1267
a(I0
I1484
F1.0
S'best'
p1268
I4
tp1269
a(I0
I1871
I0
S'nd'
p1270
I4
tp1271
a(I0
I2121
I0
S'curved'
p1272
I4
tp1273
a(I0
I2265
I0
S'light'
p1274
I4
tp1275
a(I0
I2383
F0.375
S'sleek'
p1276
I4
tp1277
a(I0
I2839
F1.0
S'good'
p1278
I4
tp1279
a(I0
I2840
F1.0
S'good'
p1280
I4
tp1281
a(I0
I3215
F-0.75
S'single'
p1282
I4
tp1283
a(I0
I3215
F0.5
S'slim'
p1284
I4
tp1285
a(I0
I3380
F-1.0
S'bad'
p1286
I4
tp1287
a(I0
I3380
F0.875
S'great'
p1288
I4
tp1289
a(I0
I3399
F0.875
S'awesome'
p1290
I4
tp1291
a(I0
I3612
F0.875
S'great'
p1292
I4
tp1293
as(S'sim'
p1294
S'sd'
p1295
S'card'
p1296
tp1297
(lp1298
(I0
I433
F0.5
g1131
I0
tp1299
a(I0
I761
I0
S'sd'
p1300
I0
tp1301
a(I0
I943
F0.5
g1133
I0
tp1302
a(I0
I943
F-0.25
S'insert'
p1303
I0
tp1304
a(I0
I943
I0
S'u'
p1305
I0
tp1306
a(I0
I1118
I0
S'sd'
p1307
I0
tp1308
a(I0
I1143
F0.5
g1139
I0
tp1309
a(I0
I1343
I0
S'sd'
p1310
I0
tp1311
a(I0
I1343
I0
S'tray'
p1312
I0
tp1313
a(I0
I1343
I0
S'sd'
p1314
I0
tp1315
a(I0
I1476
F0.5
g1143
I0
tp1316
a(I0
I1476
F-0.75
g1145
I0
tp1317
a(I0
I1521
I0
S'sd'
p1318
I0
tp1319
a(I0
I1613
F0.125
S'card'
p1320
I0
tp1321
a(I0
I1881
I0
S'sd'
p1322
I0
tp1323
a(I0
I2140
F0.5
g1152
I0
tp1324
a(I0
I2140
F-0.25
S'micro'
p1325
I0
tp1326
a(I0
I2319
F-0.75
S'single'
p1327
I0
tp1328
a(I0
I3364
I0
S'sd'
p1329
I0
tp1330
a(I0
I3364
I0
S'sd'
p1331
I0
tp1332
a(I0
I3722
F0.5
g1159
I0
tp1333
a(I0
I142
F0.5
S'second'
p1334
I2
tp1335
a(I0
I382
F0.5
S'possible'
p1336
I2
tp1337
a(I0
I390
F0.5
g31
I2
tp1338
a(I0
I433
F0.5
g1131
I2
tp1339
a(I0
I723
F-0.375
S'same'
p1340
I2
tp1341
a(I0
I761
I0
g1300
I2
tp1342
a(I0
I884
F0.375
S'full'
p1343
I2
tp1344
a(I0
I943
F0.5
g1133
I2
tp1345
a(I0
I943
I0
g1305
I2
tp1346
a(I0
I1118
I0
g1307
I2
tp1347
a(I0
I1143
F0.5
g1139
I2
tp1348
a(I0
I1343
I0
g1310
I2
tp1349
a(I0
I1343
I0
g1312
I2
tp1350
a(I0
I1343
I0
g1314
I2
tp1351
a(I0
I1476
F0.5
g1143
I2
tp1352
a(I0
I1476
F-0.75
g1145
I2
tp1353
a(I0
I1521
I0
g1318
I2
tp1354
a(I0
I1608
I0
g33
I2
tp1355
a(I0
I1608
F0.5
g35
I2
tp1356
a(I0
I1608
I0
g37
I2
tp1357
a(I0
I1881
I0
g1322
I2
tp1358
a(I0
I2140
F0.5
g1152
I2
tp1359
a(I0
I2319
F-0.75
g1327
I2
tp1360
a(I0
I2379
F-0.75
S'single'
p1361
I2
tp1362
a(I0
I2379
I0
S'mem'
p1363
I2
tp1364
a(I0
I2524
F0.125
S'memory'
p1365
I2
tp1366
a(I0
I2524
F-0.75
g39
I2
tp1367
a(I0
I2944
F-0.75
S'single'
p1368
I2
tp1369
a(I0
I3267
F0.125
S'memory'
p1370
I2
tp1371
a(I0
I3268
F0.5
S'possible'
p1372
I2
tp1373
a(I0
I3364
I0
g1329
I2
tp1374
a(I0
I3364
I0
g1331
I2
tp1375
a(I0
I3429
F0.5
S'second'
p1376
I2
tp1377
a(I0
I3639
F0.5
g41
I2
tp1378
a(I0
I3639
F0.5
S'dual'
p1379
I2
tp1380
a(I0
I3652
I0
g43
I2
tp1381
a(I0
I3722
F0.5
g1159
I2
tp1382
a(I0
I761
I0
g1300
I0
tp1383
a(I0
I943
F-0.25
g1303
I0
tp1384
a(I0
I943
I0
g1305
I0
tp1385
a(I0
I980
I0
S'sd'
p1386
I0
tp1387
a(I0
I1118
I0
g1307
I0
tp1388
a(I0
I1336
I0
S'sd'
p1389
I0
tp1390
a(I0
I1343
I0
g1310
I0
tp1391
a(I0
I1521
I0
g1318
I0
tp1392
a(I0
I1613
F0.125
g1320
I0
tp1393
a(I0
I2140
F-0.25
g1325
I0
tp1394
a(I0
I2295
F-0.25
S'micro'
p1395
I0
tp1396
a(I0
I3364
I0
g1329
I0
tp1397
a(I0
I3364
I0
g1331
I0
tp1398
a(I0
I382
F0.5
g1336
I8
tp1399
a(I0
I761
I0
g1300
I8
tp1400
a(I0
I943
I0
g1305
I8
tp1401
a(I0
I980
I0
g1386
I8
tp1402
a(I0
I1061
I0
S'screen'
p1403
I8
tp1404
a(I0
I1118
I0
g1307
I8
tp1405
a(I0
I1336
I0
g1389
I8
tp1406
a(I0
I1343
I0
g1310
I8
tp1407
a(I0
I1521
I0
g1318
I8
tp1408
a(I0
I2265
I-100
S'saprate'
p1409
I8
tp1410
a(I0
I2379
I0
g1363
I8
tp1411
a(I0
I2479
I-100
S'hdfc'
p1412
I8
tp1413
a(I0
I2524
F0.125
g1365
I8
tp1414
a(I0
I2723
I-100
S'memori'
p1415
I8
tp1416
a(I0
I3267
F0.125
g1370
I8
tp1417
a(I0
I3268
F0.5
g1372
I8
tp1418
a(I0
I3364
I0
g1329
I8
tp1419
a(I0
I3364
I0
g1331
I8
tp1420
a(I0
I3639
F0.5
g1379
I8
tp1421
as(S'android'
p1422
tp1423
(lp1424
(I0
I473
F-0.125
S'present'
p1425
I3
tp1426
a(I0
I591
I0
S'traditional'
p1427
I3
tp1428
a(I0
I745
I-100
S'uplatest'
p1429
I3
tp1430
a(I0
I1275
F0.875
S'great'
p1431
I3
tp1432
a(I0
I2059
I0
S'different'
p1433
I3
tp1434
a(I0
I2059
F0.875
S'great'
p1435
I3
tp1436
a(I0
I2088
I0
S'different'
p1437
I3
tp1438
a(I0
I2088
F0.875
S'great'
p1439
I3
tp1440
a(I0
I2571
F1.0
S'good'
p1441
I3
tp1442
a(I0
I2631
F-0.25
S'latest'
p1443
I3
tp1444
a(I0
I3093
F1.0
S'good'
p1445
I3
tp1446
a(I0
I3157
F1.0
S'best'
p1447
I3
tp1448
a(I0
I3527
F0.875
S'great'
p1449
I3
tp1450
as(S'service'
p1451
S'centers'
p1452
tp1453
(lp1454
(I0
I1768
I0
S'least'
p1455
I0
tp1456
as(S'to'
p1457
S'service'
p1458
S'center'
p1459
tp1460
(lp1461
(I0
I2540
I0
S'local'
p1462
I0
tp1463
a(I0
I3296
F-0.875
g828
I0
tp1464
a(I0
I530
F0.625
g824
I5
tp1465
a(I0
I2540
I0
g1462
I5
tp1466
a(I0
I2855
I0
g826
I5
tp1467
a(I0
I3296
F-0.875
g828
I5
tp1468
a(I0
I3582
F0.25
g830
I5
tp1469
a(I0
I2540
I0
g1462
I7
tp1470
a(I0
I3665
F0.375
S'available'
p1471
I7
tp1472
as(S'lenovo'
p1473
S'k3'
p1474
S'note'
p1475
tp1476
(lp1477
(I0
I828
I-100
S'eg'
p1478
I0
tp1479
a(I0
I1244
I0
S'm2'
p1480
I0
tp1481
a(I0
I1629
F-0.125
S'overall'
p1482
I0
tp1483
a(I0
I3441
F1.0
S'good'
p1484
I0
tp1485
a(I0
I3377
I0
S'alternative'
p1486
I0
tp1487
a(I0
I1244
I0
g1480
I0
tp1488
a(I0
I1361
F1.0
S'better'
p1489
I0
tp1490
a(I0
I1361
I0
S'm2'
p1491
I0
tp1492
a(I0
I1629
F-0.125
g1482
I0
tp1493
a(I0
I3441
F1.0
g1484
I0
tp1494
a(I0
I3570
F1.0
S'better'
p1495
I0
tp1496
as(S'm'
p1497
S'back'
p1498
S'button'
p1499
tp1500
(lp1501
(I0
I591
F-0.75
S'single'
p1502
I0
tp1503
a(I0
I715
F0.25
S'sensory'
p1504
I0
tp1505
a(I0
I1021
F-0.375
S'same'
p1506
I0
tp1507
a(I0
I1390
F0.5
S'touch'
p1508
I0
tp1509
a(I0
I1390
F0.5
S'touch'
p1510
I0
tp1511
a(I0
I1390
F0.5
S'touch'
p1512
I0
tp1513
a(I0
I2324
F-0.125
S'back'
p1514
I0
tp1515
a(I0
I2487
I0
S'physical'
p1516
I0
tp1517
a(I0
I2487
F-0.125
S'back'
p1518
I0
tp1519
a(I0
I3235
F0.875
S'great'
p1520
I0
tp1521
a(I0
I3659
F-0.125
S'back'
p1522
I0
tp1523
a(I0
I3659
F0.125
S'key'
p1524
I0
tp1525
a(I0
I591
F-0.75
g1502
I0
tp1526
a(I0
I715
F0.25
g1504
I0
tp1527
a(I0
I1021
F-0.375
g1506
I0
tp1528
a(I0
I2324
F-0.125
g1514
I0
tp1529
a(I0
I2487
I0
g1516
I0
tp1530
a(I0
I2487
F-0.125
g1518
I0
tp1531
a(I0
I3235
F0.875
g1520
I0
tp1532
a(I0
I3659
F-0.125
g1522
I0
tp1533
a(I0
I3659
F0.125
g1524
I0
tp1534
a(I0
I116
I-100
S'mtouch'
p1535
I1
tp1536
a(I0
I124
F-0.75
S'single'
p1537
I1
tp1538
a(I0
I124
F0.5
S'unique'
p1539
I1
tp1540
a(I0
I124
F0.75
S'easy'
p1541
I1
tp1542
a(I0
I242
F-0.75
S'single'
p1543
I1
tp1544
a(I0
I242
I0
S'traditional'
p1545
I1
tp1546
a(I0
I242
F0.625
S'innovative'
p1547
I1
tp1548
a(I0
I450
F1.0
S'excellent'
p1549
I1
tp1550
a(I0
I558
F1.0
S'good'
p1551
I1
tp1552
a(I0
I591
F-0.75
g1502
I1
tp1553
a(I0
I616
F-0.75
S'single'
p1554
I1
tp1555
a(I0
I715
F0.25
g1504
I1
tp1556
a(I0
I738
I0
S'm'
p1557
I1
tp1558
a(I0
I738
I-100
S'smooth4'
p1559
I1
tp1560
a(I0
I981
F0.5
S'touch'
p1561
I1
tp1562
a(I0
I981
I0
S'physical'
p1563
I1
tp1564
a(I0
I1021
F-0.375
g1506
I1
tp1565
a(I0
I1397
F0.5
S'touch'
p1566
I1
tp1567
a(I0
I1397
I0
S'central'
p1568
I1
tp1569
a(I0
I1505
F1.0
S'good'
p1570
I1
tp1571
a(I0
I2013
I0
S'handy'
p1572
I1
tp1573
a(I0
I2324
F-0.125
g1514
I1
tp1574
a(I0
I2487
I0
g1516
I1
tp1575
a(I0
I2487
F-0.125
g1518
I1
tp1576
a(I0
I3131
I0
S'physical'
p1577
I1
tp1578
a(I0
I3235
F0.875
g1520
I1
tp1579
a(I0
I3659
F-0.125
g1522
I1
tp1580
a(I0
I3659
F0.125
g1524
I1
tp1581
as(S'amazing'
p1582
tp1583
(lp1584
(I0
I1871
F0.125
S'mobile'
p1585
I1
tp1586
as(S'rear'
p1587
S'and'
p1588
S'front'
p1589
tp1590
(lp1591
(I0
I1452
F1.0
S'good'
p1592
I0
tp1593
a(I0
I1826
F-0.375
g362
I0
tp1594
a(I0
I2851
I0
g409
I0
tp1595
a(I0
I2851
F-0.25
g411
I0
tp1596
a(I0
I3098
F0.875
S'decent'
p1597
I0
tp1598
a(I0
I1452
F1.0
g1592
I1
tp1599
a(I0
I1826
F-0.375
g362
I1
tp1600
a(I0
I2851
I0
g409
I1
tp1601
a(I0
I2851
F-0.25
g411
I1
tp1602
a(I0
I3098
F0.875
g1597
I1
tp1603
a(I0
I1452
F1.0
g1592
I7
tp1604
a(I0
I2211
I0
S't'
p1605
I7
tp1606
a(I0
I2211
F1.0
S'mean'
p1607
I7
tp1608
a(I0
I2304
F0.875
S'decent'
p1609
I7
tp1610
a(I0
I3098
F0.875
g1597
I7
tp1611
a(I0
I1826
F-0.375
g362
I14
tp1612
a(I0
I2851
I0
g409
I14
tp1613
a(I0
I2851
F-0.25
g411
I14
tp1614
a(I0
I3089
F0.75
S'upper'
p1615
I14
tp1616
a(I0
I3685
F1.0
S'good'
p1617
I14
tp1618
as(S'satisfied'
p1619
S'with'
p1620
S'product'
p1621
tp1622
(lp1623
(I0
I255
F0.875
S'nice'
p1624
I0
tp1625
a(I0
I722
F0.375
S'satisfied'
p1626
I0
tp1627
a(I0
I2713
I-100
S'updatesatisfied'
p1628
I0
tp1629
as(S'for'
p1630
S'memory'
p1631
S'card'
p1632
tp1633
(lp1634
(I0
I2524
F0.125
g1365
I0
tp1635
a(I0
I2572
I0
S'u'
p1636
I0
tp1637
a(I0
I3639
F0.5
g1379
I0
tp1638
a(I0
I382
F0.5
g1336
I4
tp1639
a(I0
I1118
I0
g1307
I4
tp1640
a(I0
I2524
F0.125
g1365
I4
tp1641
a(I0
I2572
I0
g1636
I4
tp1642
a(I0
I3267
I-100
S'sims'
p1643
I4
tp1644
a(I0
I3267
F0.125
g1370
I4
tp1645
a(I0
I3268
F0.5
g1372
I4
tp1646
a(I0
I3600
F-0.5
S'separate'
p1647
I4
tp1648
a(I0
I3639
F0.5
g1379
I4
tp1649
as(S'slot'
p1650
S'for'
p1651
S'memory'
p1652
tp1653
(lp1654
(I0
I1063
F-0.5
S'separate'
p1655
I0
tp1656
a(I0
I1746
F-0.375
S'same'
p1657
I0
tp1658
a(I0
I2943
I0
S'additional'
p1659
I0
tp1660
a(I0
I3184
F-0.5
S'separate'
p1661
I0
tp1662
a(I0
I3659
F-0.778
S'common'
p1663
I0
tp1664
a(I0
I142
F0.5
S'second'
p1665
I2
tp1666
a(I0
I555
F-0.375
S'same'
p1667
I2
tp1668
a(I0
I1063
F-0.5
g1655
I2
tp1669
a(I0
I1746
F-0.375
g1657
I2
tp1670
a(I0
I2943
I0
g1659
I2
tp1671
a(I0
I3184
F-0.5
g1661
I2
tp1672
a(I0
I3659
F-0.778
g1663
I2
tp1673
a(I0
I3690
F-0.375
S'same'
p1674
I2
tp1675
a(I0
I3723
F-0.375
S'same'
p1676
I2
tp1677
a(I0
I100
F-0.75
S'open'
p1678
I10
tp1679
a(I0
I280
F0.5
S'internal'
p1680
I10
tp1681
a(I0
I872
I0
S'most'
p1682
I10
tp1683
a(I0
I872
F-0.5
S'hungry'
p1684
I10
tp1685
a(I0
I1064
F0.5
S'internal'
p1686
I10
tp1687
a(I0
I1104
F0.5
S'expandable'
p1688
I10
tp1689
a(I0
I1438
F0.5
S'internal'
p1690
I10
tp1691
a(I0
I1682
F-0.5
S'separate'
p1692
I10
tp1693
a(I0
I1947
F-0.25
S'external'
p1694
I10
tp1695
a(I0
I2025
F0.5
S'efficient'
p1696
I10
tp1697
a(I0
I2572
I0
g1636
I10
tp1698
a(I0
I2635
I0
S'more'
p1699
I10
tp1700
a(I0
I3600
F-0.5
g1647
I10
tp1701
as(S'good'
p1702
S'battery'
p1703
S'backup'
p1704
tp1705
(lp1706
(I0
I326
F1.0
S'good'
p1707
I0
tp1708
a(I0
I439
F1.0
S'excellent'
p1709
I0
tp1710
a(I0
I542
F1.0
S'good'
p1711
I0
tp1712
a(I0
I1155
I0
S's'
p1713
I0
tp1714
a(I0
I1155
F0.875
S'awesome'
p1715
I0
tp1716
a(I0
I1723
F1.0
S'good'
p1717
I0
tp1718
a(I0
I1764
F1.0
S'good'
p1719
I0
tp1720
a(I0
I1970
F1.0
S'good'
p1721
I0
tp1722
a(I0
I2266
F1.0
S'good'
p1723
I0
tp1724
a(I0
I2553
F1.0
S'good'
p1725
I0
tp1726
a(I0
I2703
F0.125
S'stylist'
p1727
I0
tp1728
a(I0
I2703
F0.875
S'nice'
p1729
I0
tp1730
a(I0
I2924
F1.0
S'good'
p1731
I0
tp1732
a(I0
I3679
F1.0
S'good'
p1733
I0
tp1734
as(S'back'
p1735
S'cover'
p1736
tp1737
(lp1738
(I0
I223
F-0.125
S'back'
p1739
I2
tp1740
a(I0
I1197
I0
S'sure'
p1741
I2
tp1742
a(I0
I1667
F-0.125
S'back'
p1743
I2
tp1744
a(I0
I3450
F0.5
S'glossy'
p1745
I2
tp1746
as(S'google'
p1747
S'play'
p1748
S'services'
p1749
tp1750
(lp1751
(I0
I694
F-0.25
S'google'
p1752
I0
tp1753
a(I0
I698
I0
S'update'
p1754
I0
tp1755
a(I0
I2700
F0.625
S'fine'
p1756
I0
tp1757
as(S'one'
p1758
S'sim'
p1759
tp1760
(lp1761
(I0
I723
F-0.375
g1340
I0
tp1762
a(I0
I884
F0.375
g1343
I0
tp1763
a(I0
I1098
I-100
S'gsm'
p1764
I0
tp1765
a(I0
I1098
F0.5
g1135
I0
tp1766
a(I0
I1098
F0.5
g1137
I0
tp1767
a(I0
I1100
I-100
S'cous'
p1768
I0
tp1769
a(I0
I1143
F0.5
g1139
I0
tp1770
a(I0
I1343
I0
g1312
I0
tp1771
a(I0
I1343
I0
g1314
I0
tp1772
a(I0
I1608
I0
g33
I0
tp1773
a(I0
I1608
F0.5
g35
I0
tp1774
a(I0
I1608
I0
g37
I0
tp1775
a(I0
I2140
F0.5
g1152
I0
tp1776
a(I0
I2265
I-100
S'slotsawesome'
p1777
I0
tp1778
a(I0
I2319
F-0.75
g1327
I0
tp1779
a(I0
I2379
F-0.75
g1361
I0
tp1780
a(I0
I2524
F-0.75
g39
I0
tp1781
a(I0
I2573
F-0.75
g1154
I0
tp1782
a(I0
I2573
F0.5
g1156
I0
tp1783
a(I0
I2944
F-0.75
g1368
I0
tp1784
a(I0
I3652
I0
g43
I0
tp1785
a(I0
I3722
F0.5
g1159
I0
tp1786
as(S'looks'
p1787
tp1788
(lp1789
(I0
I137
I0
S'different'
p1790
I14
tp1791
a(I0
I137
F0.5
S'similar'
p1792
I14
tp1793
a(I0
I439
F1.0
S'good'
p1794
I14
tp1795
a(I0
I775
F0.875
S'awesome'
p1796
I14
tp1797
a(I0
I1020
F0.875
S'great'
p1798
I14
tp1799
a(I0
I1098
F1.0
S'good'
p1800
I14
tp1801
a(I0
I1180
F0.875
S'nice'
p1802
I14
tp1803
a(I0
I1257
F0.75
S'premium'
p1804
I14
tp1805
a(I0
I1443
F0.875
S'great'
p1806
I14
tp1807
a(I0
I1564
F1.0
S'good'
p1808
I14
tp1809
a(I0
I1564
F1.0
S'good'
p1810
I14
tp1811
a(I0
I1594
I-100
S'awesomeworth'
p1812
I14
tp1813
a(I0
I1608
F1.0
S'good'
p1814
I14
tp1815
a(I0
I1634
F1.0
S'good'
p1816
I14
tp1817
a(I0
I2203
F1.0
S'good'
p1818
I14
tp1819
a(I0
I2353
I-100
S'displaystylish'
p1820
I14
tp1821
a(I0
I2552
F1.0
S'good'
p1822
I14
tp1823
a(I0
I2568
I0
S't'
p1824
I14
tp1825
a(I0
I2568
F1.0
S'good'
p1826
I14
tp1827
a(I0
I2592
F0.5
S'stylish'
p1828
I14
tp1829
a(I0
I2772
I-100
S'rupeesit'
p1830
I14
tp1831
a(I0
I3163
F0.875
S'great'
p1832
I14
tp1833
a(I0
I3374
F0.5
S'weight'
p1834
I14
tp1835
a(I0
I3377
F0.75
S'premium'
p1836
I14
tp1837
a(I0
I3473
F0.875
S'nice'
p1838
I14
tp1839
as(S'audio'
p1840
S'quality'
p1841
tp1842
(lp1843
(I0
I91
I0
S'audio'
p1844
I2
tp1845
a(I0
I92
I0
g49
I2
tp1846
a(I0
I575
F-0.875
g87
I2
tp1847
a(I0
I1481
F1.0
S'good'
p1848
I2
tp1849
a(I0
I1781
F1.0
g121
I2
tp1850
a(I0
I1815
F-0.875
S'low'
p1851
I2
tp1852
a(I0
I2424
I0
S'audio'
p1853
I2
tp1854
a(I0
I2424
F-0.875
S'poor'
p1855
I2
tp1856
a(I0
I2495
I0
g151
I2
tp1857
a(I0
I2495
I0
g153
I2
tp1858
a(I0
I2495
F1.0
g155
I2
tp1859
a(I0
I2805
F1.0
g167
I2
tp1860
a(I0
I3403
F1.0
g199
I2
tp1861
as(S'battery'
p1862
S'lasts'
p1863
tp1864
(lp1865
(I0
I202
F1.0
S'good'
p1866
I0
tp1867
a(I0
I2195
I0
S'more'
p1868
I0
tp1869
as(S'fm'
p1870
S'radio'
p1871
tp1872
(lp1873
(I0
I1866
F0.375
S'available'
p1874
I0
tp1875
a(I0
I2319
I0
S'inbuilt'
p1876
I0
tp1877
a(I0
I2438
I0
S'fm'
p1878
I0
tp1879
as(S'smooth'
p1880
tp1881
(lp1882
(I0
I1584
I0
S'user'
p1883
I3
tp1884
a(I0
I3234
F0.5
S'touch'
p1885
I3
tp1886
a(I0
I3435
F1.0
S'best'
p1887
I3
tp1888
as(S'good'
p1889
S'battery'
p1890
S'life'
p1891
tp1892
(lp1893
(I0
I320
I0
S'more'
p1894
I0
tp1895
a(I0
I561
F1.0
S'good'
p1896
I0
tp1897
a(I0
I656
F1.0
S'good'
p1898
I0
tp1899
a(I0
I775
F0.875
S'awesome'
p1900
I0
tp1901
a(I0
I840
F1.0
S'good'
p1902
I0
tp1903
a(I0
I1085
I0
S'pretty'
p1904
I0
tp1905
a(I0
I1085
F0.875
S'decent'
p1906
I0
tp1907
a(I0
I1141
F1.0
S'good'
p1908
I0
tp1909
a(I0
I1180
F-0.25
S'battery'
p1910
I0
tp1911
a(I0
I1180
F1.0
S'good'
p1912
I0
tp1913
a(I0
I1359
F0.875
S'great'
p1914
I0
tp1915
a(I0
I1474
F1.0
S'good'
p1916
I0
tp1917
a(I0
I1482
F1.0
S'good'
p1918
I0
tp1919
a(I0
I1562
F-0.75
S'little'
p1920
I0
tp1921
a(I0
I1562
F-0.875
S'low'
p1922
I0
tp1923
a(I0
I1564
F1.0
S'good'
p1924
I0
tp1925
a(I0
I1587
I0
S'more'
p1926
I0
tp1927
a(I0
I1690
F0.375
S'ok'
p1928
I0
tp1929
a(I0
I1863
F1.0
S'good'
p1930
I0
tp1931
a(I0
I1924
F1.0
S'good'
p1932
I0
tp1933
a(I0
I2022
F1.0
S'good'
p1934
I0
tp1935
a(I0
I2503
F1.0
S'good'
p1936
I0
tp1937
a(I0
I320
I0
g1894
I0
tp1938
a(I0
I561
F1.0
g1896
I0
tp1939
a(I0
I656
F1.0
g1898
I0
tp1940
a(I0
I775
F0.875
g1900
I0
tp1941
a(I0
I840
F1.0
g1902
I0
tp1942
a(I0
I1085
I0
g1904
I0
tp1943
a(I0
I1085
F0.875
g1906
I0
tp1944
a(I0
I1141
F1.0
g1908
I0
tp1945
a(I0
I1180
F-0.25
g1910
I0
tp1946
a(I0
I1180
F1.0
g1912
I0
tp1947
a(I0
I1359
F0.875
g1914
I0
tp1948
a(I0
I1474
F1.0
g1916
I0
tp1949
a(I0
I1482
F1.0
g1918
I0
tp1950
a(I0
I1562
F-0.75
g1920
I0
tp1951
a(I0
I1562
F-0.875
g1922
I0
tp1952
a(I0
I1564
F1.0
g1924
I0
tp1953
a(I0
I1587
I0
g1926
I0
tp1954
a(I0
I1690
F0.375
g1928
I0
tp1955
a(I0
I1863
F1.0
g1930
I0
tp1956
a(I0
I1924
F1.0
g1932
I0
tp1957
a(I0
I2022
F1.0
g1934
I0
tp1958
a(I0
I2503
F1.0
g1936
I0
tp1959
a(I0
I320
I0
g1894
I3
tp1960
a(I0
I352
F0.875
S'awesome'
p1961
I3
tp1962
a(I0
I561
F1.0
g1896
I3
tp1963
a(I0
I656
F1.0
g1898
I3
tp1964
a(I0
I707
F-0.5
S'longer'
p1965
I3
tp1966
a(I0
I775
F0.875
g1900
I3
tp1967
a(I0
I840
F1.0
g1902
I3
tp1968
a(I0
I1085
I0
g1904
I3
tp1969
a(I0
I1085
F0.875
g1906
I3
tp1970
a(I0
I1102
F-0.5
S'heavy'
p1971
I3
tp1972
a(I0
I1141
F1.0
g1908
I3
tp1973
a(I0
I1180
F-0.25
g1910
I3
tp1974
a(I0
I1180
F1.0
g1912
I3
tp1975
a(I0
I1359
F0.875
g1914
I3
tp1976
a(I0
I1400
F-0.625
S'other'
p1977
I3
tp1978
a(I0
I1474
F1.0
g1916
I3
tp1979
a(I0
I1482
F1.0
g1918
I3
tp1980
a(I0
I1562
F-0.75
g1920
I3
tp1981
a(I0
I1562
F-0.875
g1922
I3
tp1982
a(I0
I1564
F1.0
g1924
I3
tp1983
a(I0
I1587
I0
g1926
I3
tp1984
a(I0
I1690
F0.375
g1928
I3
tp1985
a(I0
I1824
F-0.25
S'battery'
p1986
I3
tp1987
a(I0
I1863
F1.0
g1930
I3
tp1988
a(I0
I1924
F1.0
g1932
I3
tp1989
a(I0
I2022
F1.0
g1934
I3
tp1990
a(I0
I2503
F1.0
g1936
I3
tp1991
a(I0
I2681
I-100
S'displayawesome'
p1992
I3
tp1993
a(I0
I3378
F-0.5
S'insane'
p1994
I3
tp1995
a(I0
I3434
F-0.625
S'lasting'
p1996
I3
tp1997
a(I0
I3615
F-0.5
S'long'
p1998
I3
tp1999
a(I0
I320
I0
g1894
I8
tp2000
a(I0
I352
F0.875
g1961
I8
tp2001
a(I0
I561
F1.0
g1896
I8
tp2002
a(I0
I656
F1.0
g1898
I8
tp2003
a(I0
I707
F-0.5
g1965
I8
tp2004
a(I0
I775
F0.875
g1900
I8
tp2005
a(I0
I840
F1.0
g1902
I8
tp2006
a(I0
I1180
F-0.25
g1910
I8
tp2007
a(I0
I1180
F1.0
g1912
I8
tp2008
a(I0
I1400
F-0.625
g1977
I8
tp2009
a(I0
I1400
I-100
S'thingsbattery'
p2010
I8
tp2011
a(I0
I1474
F1.0
g1916
I8
tp2012
a(I0
I1562
F-0.75
g1920
I8
tp2013
a(I0
I1562
F-0.875
g1922
I8
tp2014
a(I0
I1564
F1.0
g1924
I8
tp2015
a(I0
I1565
F-0.5
S'longer'
p2016
I8
tp2017
a(I0
I1587
I0
g1926
I8
tp2018
a(I0
I1690
F0.375
g1928
I8
tp2019
a(I0
I1824
F-0.25
g1986
I8
tp2020
a(I0
I1924
F1.0
g1932
I8
tp2021
a(I0
I2022
F1.0
g1934
I8
tp2022
a(I0
I3378
F-0.5
g1994
I8
tp2023
a(I0
I3615
F-0.5
g1998
I8
tp2024
as(S'superb'
p2025
tp2026
(lp2027
(I0
I162
F0.875
S'nice'
p2028
I0
tp2029
a(I0
I1633
F-0.125
S'overall'
p2030
I0
tp2031
a(I0
I1651
F0.875
S'awesome'
p2032
I0
tp2033
a(I0
I2175
I0
S'u'
p2034
I0
tp2035
a(I0
I2195
I0
S'n'
p2036
I0
tp2037
a(I0
I2195
I0
S'n'
p2038
I0
tp2039
a(I0
I2411
I0
S'more'
p2040
I0
tp2041
a(I0
I2805
I-100
S'sunlightawesome'
p2042
I0
tp2043
as(S'user'
p2044
tp2045
(lp2046
(I0
I1192
F-0.75
S'reckless'
p2047
I9
tp2048
a(I0
I1240
I0
S'n'
p2049
I9
tp2050
a(I0
I1240
F-0.625
S'average'
p2051
I9
tp2052
a(I0
I1562
F0.625
S'friendly'
p2053
I9
tp2054
a(I0
I1902
F-0.625
S'moderate'
p2055
I9
tp2056
a(I0
I2930
I0
S'clear'
p2057
I9
tp2058
a(I0
I3165
F-0.625
S'dumb'
p2059
I9
tp2060
a(I0
I3206
I0
S'light'
p2061
I9
tp2062
a(I0
I3354
F0.625
S'friendly'
p2063
I9
tp2064
a(I0
I3456
F0.125
S'mobile'
p2065
I9
tp2066
as(S'very'
p2067
S'good'
p2068
S'camera'
p2069
tp2070
(lp2071
(I0
I129
F1.0
S'good'
p2072
I0
tp2073
a(I0
I324
F-0.875
g338
I0
tp2074
a(I0
I341
I0
g340
I0
tp2075
a(I0
I341
F0.75
g342
I0
tp2076
a(I0
I413
F1.0
g344
I0
tp2077
a(I0
I464
F1.0
S'good'
p2078
I0
tp2079
a(I0
I537
F1.0
S'excellent'
p2080
I0
tp2081
a(I0
I539
F-0.125
S'overall'
p2082
I0
tp2083
a(I0
I558
F0.75
S'premium'
p2084
I0
tp2085
a(I0
I586
F1.0
g346
I0
tp2086
a(I0
I586
F1.0
g348
I0
tp2087
a(I0
I735
I0
g350
I0
tp2088
a(I0
I913
I0
g354
I0
tp2089
a(I0
I913
F1.0
g356
I0
tp2090
a(I0
I1047
F1.0
S'good'
p2091
I0
tp2092
a(I0
I1047
F1.0
S'good'
p2093
I0
tp2094
a(I0
I1387
F-0.375
S'manual'
p2095
I0
tp2096
a(I0
I1594
F0.75
S'perfect'
p2097
I0
tp2098
a(I0
I1603
F0.875
S'nice'
p2099
I0
tp2100
a(I0
I1699
F1.0
S'good'
p2101
I0
tp2102
a(I0
I1768
F1.0
S'good'
p2103
I0
tp2104
a(I0
I2237
F1.0
S'good'
p2105
I0
tp2106
a(I0
I2237
F-0.625
S'average'
p2107
I0
tp2108
a(I0
I2805
I0
g366
I0
tp2109
a(I0
I2805
F-0.625
g368
I0
tp2110
a(I0
I2906
F0.75
S'wonderful'
p2111
I0
tp2112
a(I0
I3134
F0.875
S'great'
p2113
I0
tp2114
a(I0
I3134
F0.125
S'mobile'
p2115
I0
tp2116
a(I0
I3672
F-0.125
S'back'
p2117
I0
tp2118
a(I0
I129
F1.0
g2072
I0
tp2119
a(I0
I324
F-0.875
g338
I0
tp2120
a(I0
I341
I0
g340
I0
tp2121
a(I0
I341
F0.75
g342
I0
tp2122
a(I0
I413
F1.0
g344
I0
tp2123
a(I0
I464
F1.0
g2078
I0
tp2124
a(I0
I537
F1.0
g2080
I0
tp2125
a(I0
I539
F-0.125
g2082
I0
tp2126
a(I0
I558
F0.75
g2084
I0
tp2127
a(I0
I586
F1.0
g346
I0
tp2128
a(I0
I586
F1.0
g348
I0
tp2129
a(I0
I735
I0
g350
I0
tp2130
a(I0
I913
I0
g354
I0
tp2131
a(I0
I913
F1.0
g356
I0
tp2132
a(I0
I1047
F1.0
g2091
I0
tp2133
a(I0
I1047
F1.0
g2093
I0
tp2134
a(I0
I1387
F-0.375
g2095
I0
tp2135
a(I0
I1594
F0.75
g2097
I0
tp2136
a(I0
I1603
F0.875
g2099
I0
tp2137
a(I0
I1699
F1.0
g2101
I0
tp2138
a(I0
I1768
F1.0
g2103
I0
tp2139
a(I0
I2237
F1.0
g2105
I0
tp2140
a(I0
I2237
F-0.625
g2107
I0
tp2141
a(I0
I2805
I0
g366
I0
tp2142
a(I0
I2805
F-0.625
g368
I0
tp2143
a(I0
I2906
F0.75
g2111
I0
tp2144
a(I0
I3134
F0.875
g2113
I0
tp2145
a(I0
I3134
F0.125
g2115
I0
tp2146
a(I0
I3672
F-0.125
g2117
I0
tp2147
a(I0
I129
F1.0
g2072
I3
tp2148
a(I0
I320
F1.0
g336
I3
tp2149
a(I0
I324
F-0.875
g338
I3
tp2150
a(I0
I341
I0
g340
I3
tp2151
a(I0
I341
F0.75
g342
I3
tp2152
a(I0
I413
F1.0
g344
I3
tp2153
a(I0
I417
F1.0
S'good'
p2154
I3
tp2155
a(I0
I452
F1.0
S'good'
p2156
I3
tp2157
a(I0
I464
F1.0
g2078
I3
tp2158
a(I0
I509
F1.0
S'good'
p2159
I3
tp2160
a(I0
I537
F1.0
g2080
I3
tp2161
a(I0
I539
F-0.125
g2082
I3
tp2162
a(I0
I558
F0.75
g2084
I3
tp2163
a(I0
I586
F1.0
g346
I3
tp2164
a(I0
I586
F1.0
g348
I3
tp2165
a(I0
I628
I-100
S'good2'
p2166
I3
tp2167
a(I0
I735
I0
g350
I3
tp2168
a(I0
I759
F-0.625
S'fast'
p2169
I3
tp2170
a(I0
I846
F1.0
g352
I3
tp2171
a(I0
I913
I0
g354
I3
tp2172
a(I0
I913
F1.0
g356
I3
tp2173
a(I0
I1047
F1.0
g2091
I3
tp2174
a(I0
I1047
F1.0
g2093
I3
tp2175
a(I0
I1085
F-0.875
S'strong'
p2176
I3
tp2177
a(I0
I1178
I-100
S'inls'
p2178
I3
tp2179
a(I0
I1303
F1.0
S'good'
p2180
I3
tp2181
a(I0
I1387
F-0.375
g2095
I3
tp2182
a(I0
I1410
F1.0
S'good'
p2183
I3
tp2184
a(I0
I1449
F1.0
S'good'
p2185
I3
tp2186
a(I0
I1506
F1.0
S'good'
p2187
I3
tp2188
a(I0
I1535
I-100
S'itpros'
p2189
I3
tp2190
a(I0
I1535
F1.0
S'good'
p2191
I3
tp2192
a(I0
I1549
F1.0
g358
I3
tp2193
a(I0
I1550
F-0.875
S'rare'
p2194
I3
tp2195
a(I0
I1563
F1.0
S'best'
p2196
I3
tp2197
a(I0
I1587
F1.0
S'good'
p2198
I3
tp2199
a(I0
I1591
F1.0
S'good'
p2200
I3
tp2201
a(I0
I1591
F0.75
S'easy'
p2202
I3
tp2203
a(I0
I1591
F1.0
S'good'
p2204
I3
tp2205
a(I0
I1594
F0.75
g2097
I3
tp2206
a(I0
I1608
I0
g360
I3
tp2207
a(I0
I1664
F0.875
S'decent'
p2208
I3
tp2209
a(I0
I1699
F1.0
g2101
I3
tp2210
a(I0
I1765
F1.0
S'good'
p2211
I3
tp2212
a(I0
I1768
F1.0
g2103
I3
tp2213
a(I0
I1771
F-0.625
S'average'
p2214
I3
tp2215
a(I0
I1877
F1.0
g364
I3
tp2216
a(I0
I1941
F1.0
S'good'
p2217
I3
tp2218
a(I0
I1979
F1.0
S'good'
p2219
I3
tp2220
a(I0
I2139
F1.0
S'good'
p2221
I3
tp2222
a(I0
I2231
F1.0
S'good'
p2223
I3
tp2224
a(I0
I2237
F1.0
g2105
I3
tp2225
a(I0
I2237
F-0.625
g2107
I3
tp2226
a(I0
I2570
F1.0
S'good'
p2227
I3
tp2228
a(I0
I2570
I0
S'u'
p2229
I3
tp2230
a(I0
I2592
F1.0
S'good'
p2231
I3
tp2232
a(I0
I2655
F1.0
S'excellent'
p2233
I3
tp2234
a(I0
I2762
F1.0
S'good'
p2235
I3
tp2236
a(I0
I2776
I0
S'rear'
p2237
I3
tp2238
a(I0
I2776
F1.0
S'good'
p2239
I3
tp2240
a(I0
I2805
I0
g366
I3
tp2241
a(I0
I2805
F-0.625
g368
I3
tp2242
a(I0
I2863
F-0.125
g370
I3
tp2243
a(I0
I2888
I0
S'rear'
p2244
I3
tp2245
a(I0
I2888
F1.0
S'good'
p2246
I3
tp2247
a(I0
I2906
F0.75
g2111
I3
tp2248
a(I0
I3091
F1.0
S'good'
p2249
I3
tp2250
a(I0
I3134
F0.875
g2113
I3
tp2251
a(I0
I3134
F0.125
g2115
I3
tp2252
a(I0
I3134
I-100
S'specificationrear'
p2253
I3
tp2254
a(I0
I3336
F-0.125
S'os'
p2255
I3
tp2256
a(I0
I3336
F1.0
S'excellent'
p2257
I3
tp2258
a(I0
I3336
F-0.875
S'low'
p2259
I3
tp2260
a(I0
I3397
F0.625
g372
I3
tp2261
a(I0
I3400
F1.0
g374
I3
tp2262
a(I0
I3413
I0
S'rear'
p2263
I3
tp2264
a(I0
I3533
F0.875
S'nice'
p2265
I3
tp2266
a(I0
I3533
F1.0
S'good'
p2267
I3
tp2268
a(I0
I3672
F-0.125
g2117
I3
tp2269
a(I0
I129
F1.0
g2072
I0
tp2270
a(I0
I320
F1.0
g336
I0
tp2271
a(I0
I324
F-0.875
g338
I0
tp2272
a(I0
I341
I0
g340
I0
tp2273
a(I0
I341
F0.75
g342
I0
tp2274
a(I0
I413
F1.0
g344
I0
tp2275
a(I0
I417
F1.0
g2154
I0
tp2276
a(I0
I452
F1.0
g2156
I0
tp2277
a(I0
I464
F1.0
g2078
I0
tp2278
a(I0
I509
F1.0
g2159
I0
tp2279
a(I0
I537
F1.0
g2080
I0
tp2280
a(I0
I539
F-0.125
g2082
I0
tp2281
a(I0
I558
F0.75
g2084
I0
tp2282
a(I0
I586
F1.0
g346
I0
tp2283
a(I0
I586
F1.0
g348
I0
tp2284
a(I0
I735
I0
g350
I0
tp2285
a(I0
I759
F-0.625
g2169
I0
tp2286
a(I0
I846
F1.0
g352
I0
tp2287
a(I0
I913
I0
g354
I0
tp2288
a(I0
I913
F1.0
g356
I0
tp2289
a(I0
I1047
F1.0
g2091
I0
tp2290
a(I0
I1047
F1.0
g2093
I0
tp2291
a(I0
I1085
F-0.875
g2176
I0
tp2292
a(I0
I1303
F1.0
g2180
I0
tp2293
a(I0
I1387
F-0.375
g2095
I0
tp2294
a(I0
I1410
F1.0
g2183
I0
tp2295
a(I0
I1449
F1.0
g2185
I0
tp2296
a(I0
I1506
F1.0
g2187
I0
tp2297
a(I0
I1535
F1.0
g2191
I0
tp2298
a(I0
I1549
F1.0
g358
I0
tp2299
a(I0
I1550
F-0.875
g2194
I0
tp2300
a(I0
I1563
F1.0
g2196
I0
tp2301
a(I0
I1587
F1.0
g2198
I0
tp2302
a(I0
I1591
F1.0
g2200
I0
tp2303
a(I0
I1591
F0.75
g2202
I0
tp2304
a(I0
I1591
F1.0
g2204
I0
tp2305
a(I0
I1594
F0.75
g2097
I0
tp2306
a(I0
I1608
I0
g360
I0
tp2307
a(I0
I1664
F0.875
g2208
I0
tp2308
a(I0
I1699
F1.0
g2101
I0
tp2309
a(I0
I1765
F1.0
g2211
I0
tp2310
a(I0
I1768
F1.0
g2103
I0
tp2311
a(I0
I1771
F-0.625
g2214
I0
tp2312
a(I0
I1877
F1.0
g364
I0
tp2313
a(I0
I1941
F1.0
g2217
I0
tp2314
a(I0
I1979
F1.0
g2219
I0
tp2315
a(I0
I2139
F1.0
g2221
I0
tp2316
a(I0
I2231
F1.0
g2223
I0
tp2317
a(I0
I2237
F1.0
g2105
I0
tp2318
a(I0
I2237
F-0.625
g2107
I0
tp2319
a(I0
I2570
F1.0
g2227
I0
tp2320
a(I0
I2570
I0
g2229
I0
tp2321
a(I0
I2592
F1.0
g2231
I0
tp2322
a(I0
I2655
F1.0
g2233
I0
tp2323
a(I0
I2762
F1.0
g2235
I0
tp2324
a(I0
I2776
I0
g2237
I0
tp2325
a(I0
I2776
F1.0
g2239
I0
tp2326
a(I0
I2805
I0
g366
I0
tp2327
a(I0
I2805
F-0.625
g368
I0
tp2328
a(I0
I2863
F-0.125
g370
I0
tp2329
a(I0
I2888
I0
g2244
I0
tp2330
a(I0
I2888
F1.0
g2246
I0
tp2331
a(I0
I2906
F0.75
g2111
I0
tp2332
a(I0
I3091
F1.0
g2249
I0
tp2333
a(I0
I3134
F0.875
g2113
I0
tp2334
a(I0
I3134
F0.125
g2115
I0
tp2335
a(I0
I3336
F-0.125
g2255
I0
tp2336
a(I0
I3336
F1.0
g2257
I0
tp2337
a(I0
I3336
F-0.875
g2259
I0
tp2338
a(I0
I3397
F0.625
g372
I0
tp2339
a(I0
I3400
F1.0
g374
I0
tp2340
a(I0
I3413
I0
g2263
I0
tp2341
a(I0
I3533
F0.875
g2265
I0
tp2342
a(I0
I3533
F1.0
g2267
I0
tp2343
a(I0
I3672
F-0.125
g2117
I0
tp2344
as(S'display'
p2345
tp2346
(lp2347
(I0
I89
F0.5
S'crisp'
p2348
I13
tp2349
a(I0
I89
I0
S'clear'
p2350
I13
tp2351
a(I0
I221
F0.875
S'great'
p2352
I13
tp2353
a(I0
I240
F0.875
S'brilliant'
p2354
I13
tp2355
a(I0
I264
F0.875
S'amazing'
p2356
I13
tp2357
a(I0
I289
F0.875
S'great'
p2358
I13
tp2359
a(I0
I369
F-0.625
S'quiet'
p2360
I13
tp2361
a(I0
I369
F1.0
S'good'
p2362
I13
tp2363
a(I0
I407
F1.0
S'good'
p2364
I13
tp2365
a(I0
I541
F0.875
S'amazing'
p2366
I13
tp2367
a(I0
I801
F0.875
S'great'
p2368
I13
tp2369
a(I0
I832
F1.0
S'excellent'
p2370
I13
tp2371
a(I0
I887
F1.0
S'excellent'
p2372
I13
tp2373
a(I0
I1063
F0.875
S'nice'
p2374
I13
tp2375
a(I0
I1063
F0.5
S'crisp'
p2376
I13
tp2377
a(I0
I1063
F1.0
S'good'
p2378
I13
tp2379
a(I0
I1085
F1.0
S'good'
p2380
I13
tp2381
a(I0
I1091
F1.0
S'better'
p2382
I13
tp2383
a(I0
I1140
F0.875
S'nice'
p2384
I13
tp2385
a(I0
I1140
F1.0
S'good'
p2386
I13
tp2387
a(I0
I1155
F0.875
S'nice'
p2388
I13
tp2389
a(I0
I1164
F0.375
S'impressive'
p2390
I13
tp2391
a(I0
I1197
F-0.125
S'mine'
p2392
I13
tp2393
a(I0
I1197
F0.5
S'intact'
p2394
I13
tp2395
a(I0
I1228
F-0.125
S'such'
p2396
I13
tp2397
a(I0
I1245
F1.0
S'better'
p2398
I13
tp2399
a(I0
I1245
I0
S'n'
p2400
I13
tp2401
a(I0
I1386
F0.875
S'decent'
p2402
I13
tp2403
a(I0
I1386
F0.625
S'smooth'
p2404
I13
tp2405
a(I0
I1443
I0
S'more'
p2406
I13
tp2407
a(I0
I1574
I0
S's'
p2408
I13
tp2409
a(I0
I1574
F0.875
S'awesome'
p2410
I13
tp2411
a(I0
I1585
F1.0
S'excellent'
p2412
I13
tp2413
a(I0
I1591
F1.0
S'good'
p2414
I13
tp2415
a(I0
I1604
F0.875
S'awesome'
p2416
I13
tp2417
a(I0
I1605
F1.0
S'good'
p2418
I13
tp2419
a(I0
I1608
F0.875
S'great'
p2420
I13
tp2421
a(I0
I1608
F0.75
S'beautiful'
p2422
I13
tp2423
a(I0
I1613
F0.875
S'awesome'
p2424
I13
tp2425
a(I0
I1628
F0.875
S'nice'
p2426
I13
tp2427
a(I0
I1628
F1.0
S'good'
p2428
I13
tp2429
a(I0
I1664
F1.0
S'good'
p2430
I13
tp2431
a(I0
I1771
F1.0
S'good'
p2432
I13
tp2433
a(I0
I1780
F0.875
S'amazing'
p2434
I13
tp2435
a(I0
I1824
I-100
S'realy'
p2436
I13
tp2437
a(I0
I1824
F0.875
S'awesome'
p2438
I13
tp2439
a(I0
I1942
F1.0
S'best'
p2440
I13
tp2441
a(I0
I1947
I0
S'n'
p2442
I13
tp2443
a(I0
I1989
F-0.5
S'broken'
p2444
I13
tp2445
a(I0
I2204
F1.0
S'good'
p2446
I13
tp2447
a(I0
I2228
F1.0
S'good'
p2448
I13
tp2449
a(I0
I2228
F-0.625
S'sharp'
p2450
I13
tp2451
a(I0
I2234
F0.875
S'great'
p2452
I13
tp2453
a(I0
I2324
F0.5
S'possible'
p2454
I13
tp2455
a(I0
I2334
F-0.625
S'sharp'
p2456
I13
tp2457
a(I0
I2405
F1.0
S'best'
p2458
I13
tp2459
a(I0
I2457
F1.0
S'excellent'
p2460
I13
tp2461
a(I0
I2489
F1.0
S'best'
p2462
I13
tp2463
a(I0
I2624
F1.0
S'best'
p2464
I13
tp2465
a(I0
I2751
F-0.875
S'cheap'
p2466
I13
tp2467
a(I0
I2882
F1.0
S'best'
p2468
I13
tp2469
a(I0
I2886
F0.875
S'brilliant'
p2470
I13
tp2471
a(I0
I3038
F-0.625
S'sharp'
p2472
I13
tp2473
a(I0
I3081
F0.875
S'great'
p2474
I13
tp2475
a(I0
I3091
F0.875
S'awesome'
p2476
I13
tp2477
a(I0
I3134
I-100
S'goodnd'
p2478
I13
tp2479
a(I0
I3169
F1.0
S'good'
p2480
I13
tp2481
a(I0
I3187
F-0.5
S'broken'
p2482
I13
tp2483
a(I0
I3197
F0.25
S'worth'
p2484
I13
tp2485
a(I0
I3371
F-1.0
S'bad'
p2486
I13
tp2487
a(I0
I3432
I0
S'bright'
p2488
I13
tp2489
a(I0
I3450
I0
S'bright'
p2490
I13
tp2491
a(I0
I3465
F0.875
S'awesome'
p2492
I13
tp2493
a(I0
I3602
I-100
S'highgood'
p2494
I13
tp2495
as(S'feel'
p2496
tp2497
(lp2498
(I0
I564
I0
S'u'
p2499
I10
tp2500
a(I0
I1594
F0.5
S'touch'
p2501
I10
tp2502
a(I0
I2443
F0.875
S'great'
p2503
I10
tp2504
a(I0
I3303
F0.5
S'touch'
p2505
I10
tp2506
as(S'awesome'
p2507
tp2508
(lp2509
(I0
I341
F1.0
S'best'
p2510
I6
tp2511
a(I0
I1758
F0.5
S'touch'
p2512
I6
tp2513
a(I0
I1758
I0
S'screen'
p2514
I6
tp2515
as(S'and'
p2516
S'k3'
p2517
S'note'
p2518
tp2519
(lp2520
(I0
I3570
F1.0
g1495
I0
tp2521
as(S'rear'
p2522
S'camera'
p2523
tp2524
(lp2525
(I0
I515
I0
S'rear'
p2526
I6
tp2527
a(I0
I566
F0.625
g383
I6
tp2528
a(I0
I735
I0
g350
I6
tp2529
a(I0
I913
I0
g354
I6
tp2530
a(I0
I913
F1.0
g356
I6
tp2531
a(I0
I1452
F1.0
g1592
I6
tp2532
a(I0
I1536
I0
g393
I6
tp2533
a(I0
I1608
I0
g360
I6
tp2534
a(I0
I1630
F-0.125
g397
I6
tp2535
a(I0
I1877
F1.0
g364
I6
tp2536
a(I0
I2020
I0
S'rear'
p2537
I6
tp2538
a(I0
I2020
F0.75
S'fair'
p2539
I6
tp2540
a(I0
I2210
F1.0
g401
I6
tp2541
a(I0
I2211
I0
g1605
I6
tp2542
a(I0
I2211
F1.0
g1607
I6
tp2543
a(I0
I2304
F0.875
g1609
I6
tp2544
a(I0
I2776
I0
g2237
I6
tp2545
a(I0
I2776
F1.0
g2239
I6
tp2546
a(I0
I2888
I0
g2244
I6
tp2547
a(I0
I2888
F1.0
g2246
I6
tp2548
a(I0
I3031
F0.625
g416
I6
tp2549
a(I0
I3031
F-0.125
g418
I6
tp2550
a(I0
I3098
F0.875
g1597
I6
tp2551
a(I0
I3134
F0.875
g2113
I6
tp2552
a(I0
I3134
F0.125
g2115
I6
tp2553
a(I0
I3341
F-0.125
g422
I6
tp2554
a(I0
I3397
F0.625
g372
I6
tp2555
a(I0
I3413
I0
g2263
I6
tp2556
as(S'update'
p2557
tp2558
(lp2559
(I0
I154
F0.625
S'select'
p2560
I1
tp2561
a(I0
I803
I-100
S'softwer'
p2562
I1
tp2563
a(I0
I2948
F-0.375
S'same'
p2564
I1
tp2565
as(S'speaker'
p2566
tp2567
(lp2568
(I0
I92
F1.0
S'good'
p2569
I16
tp2570
a(I0
I1208
F-0.625
S'average'
p2571
I16
tp2572
a(I0
I2220
F-0.625
S'average'
p2573
I16
tp2574
a(I0
I2356
F-0.5
S'loud'
p2575
I16
tp2576
a(I0
I2652
I0
S'nt'
p2577
I16
tp2578
a(I0
I2665
F-0.5
S'loud'
p2579
I16
tp2580
a(I0
I2791
F-0.25
S'external'
p2581
I16
tp2582
a(I0
I2791
F-0.5
S'dull'
p2583
I16
tp2584
a(I0
I3008
I0
S'normal'
p2585
I16
tp2586
as(S'value'
p2587
S'for'
p2588
S'money'
p2589
tp2590
(lp2591
(I0
I168
F-0.125
S'immense'
p2592
I4
tp2593
a(I0
I324
F1.0
S'good'
p2594
I4
tp2595
a(I0
I324
F0.75
S'complete'
p2596
I4
tp2597
a(I0
I351
F0.875
S'great'
p2598
I4
tp2599
a(I0
I391
F-0.125
S'overall'
p2600
I4
tp2601
a(I0
I1176
F-0.125
S'overall'
p2602
I4
tp2603
a(I0
I1455
F-0.125
S'overall'
p2604
I4
tp2605
a(I0
I1471
F0.875
S'great'
p2606
I4
tp2607
a(I0
I1500
F0.5
S'ull'
p2608
I4
tp2609
a(I0
I1570
F1.0
S'excellent'
p2610
I4
tp2611
a(I0
I1597
F0.625
S'super'
p2612
I4
tp2613
a(I0
I1608
F0.875
S'great'
p2614
I4
tp2615
a(I0
I2228
F0.625
S'fine'
p2616
I4
tp2617
a(I0
I2249
F-1.0
S'worst'
p2618
I4
tp2619
a(I0
I2610
I-100
S'morevalue'
p2620
I4
tp2621
a(I0
I2610
F0.875
S'nice'
p2622
I4
tp2623
a(I0
I3442
I0
S'user'
p2624
I4
tp2625
a(I0
I168
F-0.125
g2592
I7
tp2626
a(I0
I324
F1.0
g2594
I7
tp2627
a(I0
I324
F0.75
g2596
I7
tp2628
a(I0
I351
F0.875
g2598
I7
tp2629
a(I0
I391
F-0.125
g2600
I7
tp2630
a(I0
I1176
F-0.125
g2602
I7
tp2631
a(I0
I1455
F-0.125
g2604
I7
tp2632
a(I0
I1471
F0.875
g2606
I7
tp2633
a(I0
I1500
F0.5
g2608
I7
tp2634
a(I0
I1570
F1.0
g2610
I7
tp2635
a(I0
I1597
F0.625
g2612
I7
tp2636
a(I0
I1608
F0.875
g2614
I7
tp2637
a(I0
I1646
F1.0
S'good'
p2638
I7
tp2639
a(I0
I2228
F0.625
g2616
I7
tp2640
a(I0
I2249
F-1.0
g2618
I7
tp2641
a(I0
I3034
F0.875
S'great'
p2642
I7
tp2643
a(I0
I3442
I0
g2624
I7
tp2644
a(I0
I3442
I-100
S'friendlybest'
p2645
I7
tp2646
as(S'camera'
p2647
S'not'
p2648
S'good'
p2649
tp2650
(lp2651
(I0
I341
I0
g340
I1
tp2652
a(I0
I341
F0.75
g342
I1
tp2653
a(I0
I417
F1.0
g2154
I1
tp2654
a(I0
I452
F1.0
g2156
I1
tp2655
a(I0
I586
F1.0
g346
I1
tp2656
a(I0
I586
F1.0
g348
I1
tp2657
a(I0
I735
I0
g350
I1
tp2658
a(I0
I1587
F1.0
g2198
I1
tp2659
a(I0
I1699
F1.0
g2101
I1
tp2660
a(I0
I1765
F1.0
g2211
I1
tp2661
a(I0
I1768
F1.0
g2103
I1
tp2662
a(I0
I2570
F1.0
g2227
I1
tp2663
a(I0
I2570
I0
g2229
I1
tp2664
a(I0
I2655
F1.0
g2233
I1
tp2665
a(I0
I2762
F1.0
g2235
I1
tp2666
a(I0
I2805
I0
g366
I1
tp2667
a(I0
I2805
F-0.625
g368
I1
tp2668
a(I0
I2906
F0.75
g2111
I1
tp2669
a(I0
I3134
F0.875
g2113
I1
tp2670
a(I0
I3134
F0.125
g2115
I1
tp2671
a(I0
I3397
F0.625
g372
I1
tp2672
a(I0
I3533
F0.875
g2265
I1
tp2673
a(I0
I3533
F1.0
g2267
I1
tp2674
as(S'front'
p2675
S'and'
p2676
S'back'
p2677
tp2678
(lp2679
(I0
I3685
F1.0
g1617
I3
tp2680
as(S'day'
p2681
S'to'
p2682
S'day'
p2683
tp2684
(lp2685
(I0
I17
F0.5
S'entire'
p2686
I0
tp2687
a(I0
I17
F-0.625
S'moderate'
p2688
I0
tp2689
a(I0
I74
F0.75
S'whole'
p2690
I0
tp2691
a(I0
I98
F-0.5
S'heavy'
p2692
I0
tp2693
a(I0
I341
F1.0
S'good'
p2694
I0
tp2695
a(I0
I359
F0.875
S'great'
p2696
I0
tp2697
a(I0
I401
F0.5
S'sunny'
p2698
I0
tp2699
a(I0
I444
F0.375
S'much'
p2700
I0
tp2701
a(I0
I976
F0.625
S'first'
p2702
I0
tp2703
a(I0
I1019
F0.625
S'fine'
p2704
I0
tp2705
a(I0
I2022
F-0.625
S'moderate'
p2706
I0
tp2707
a(I0
I2119
F0.75
S'whole'
p2708
I0
tp2709
a(I0
I2119
I0
S'impressed'
p2710
I0
tp2711
a(I0
I2805
F1.0
S'good'
p2712
I0
tp2713
as(S'viewing'
p2714
S'angles'
p2715
tp2716
(lp2717
(I0
I122
F1.0
S'good'
p2718
I0
tp2719
a(I0
I394
F0.75
S'fantastic'
p2720
I0
tp2721
as(S'know'
p2722
S'why'
p2723
S'people'
p2724
tp2725
(lp2726
(I0
I714
I0
S'many'
p2727
I0
tp2728
a(I0
I2308
F0.625
S'know'
p2729
I0
tp2730
a(I0
I2354
F0.625
S'know'
p2731
I0
tp2732
a(I0
I537
F0.125
S'mobile'
p2733
I5
tp2734
a(I0
I714
I0
g2727
I5
tp2735
a(I0
I884
I0
S't'
p2736
I5
tp2737
a(I0
I1006
I0
S'most'
p2738
I5
tp2739
a(I0
I1286
I0
S'handed'
p2740
I5
tp2741
a(I0
I1389
I0
S'many'
p2742
I5
tp2743
a(I0
I1613
F0.125
S'amazon'
p2744
I5
tp2745
a(I0
I2026
I0
S'many'
p2746
I5
tp2747
a(I0
I2308
F0.625
g2729
I5
tp2748
a(I0
I2318
F0.375
S'much'
p2749
I5
tp2750
a(I0
I2354
F0.625
g2731
I5
tp2751
as(S'games'
p2752
tp2753
(lp2754
(I0
I249
I-100
S'delicated'
p2755
I5
tp2756
a(I0
I463
F-0.5
S'heavy'
p2757
I5
tp2758
a(I0
I622
F0.375
S'much'
p2759
I5
tp2760
a(I0
I958
I0
S'wen'
p2761
I5
tp2762
a(I0
I1345
F-0.5
S'heavy'
p2763
I5
tp2764
a(I0
I1528
F-0.5
S'heavy'
p2765
I5
tp2766
a(I0
I1763
F-0.5
S'heavy'
p2767
I5
tp2768
a(I0
I2048
F-0.5
S'heavy'
p2769
I5
tp2770
a(I0
I2078
F-0.5
S'heavy'
p2771
I5
tp2772
a(I0
I2641
F0.625
S'certain'
p2773
I5
tp2774
as(S'dead'
p2775
S'trigger'
p2776
tp2777
(lp2778
(I0
I705
I0
S'asphalt'
p2779
I0
tp2780
a(I0
I705
F-0.75
S'dead'
p2781
I0
tp2782
a(I0
I1210
I-100
S'asphalt8'
p2783
I0
tp2784
as(S'issues'
p2785
tp2786
(lp2787
(I0
I239
F-0.625
S'other'
p2788
I4
tp2789
a(I0
I713
I0
S'extreme'
p2790
I4
tp2791
a(I0
I1323
F0.375
S'much'
p2792
I4
tp2793
a(I0
I1610
I0
S's'
p2794
I4
tp2795
a(I0
I1610
F0.75
S'perfect'
p2796
I4
tp2797
a(I0
I1610
F-0.375
S'various'
p2798
I4
tp2799
a(I0
I1630
F-0.125
S'front'
p2800
I4
tp2801
a(I0
I1874
F0.625
S'colour'
p2802
I4
tp2803
a(I0
I2160
I0
S'few'
p2804
I4
tp2805
a(I0
I2538
F-0.125
S'such'
p2806
I4
tp2807
a(I0
I3039
F0.5
S'touch'
p2808
I4
tp2809
as(S'google'
p2810
S'play'
p2811
S'store'
p2812
tp2813
(lp2814
(I0
I698
I0
g1754
I0
tp2815
a(I0
I769
F-0.25
S'google'
p2816
I0
tp2817
a(I0
I772
F-0.25
S'google'
p2818
I0
tp2819
a(I0
I772
F0.25
S'able'
p2820
I0
tp2821
a(I0
I769
F-0.25
g2816
I0
tp2822
a(I0
I772
F-0.25
g2818
I0
tp2823
a(I0
I772
F0.25
g2820
I0
tp2824
a(I0
I2699
F-0.875
S'fake'
p2825
I0
tp2826
a(I0
I694
F-0.25
g1752
I0
tp2827
a(I0
I698
I0
g1754
I0
tp2828
a(I0
I769
F-0.25
g2816
I0
tp2829
a(I0
I772
F-0.25
g2818
I0
tp2830
a(I0
I1816
I0
S'install'
p2831
I0
tp2832
a(I0
I2127
F1.0
S'good'
p2833
I0
tp2834
a(I0
I2713
F-0.625
S'new'
p2835
I0
tp2836
a(I0
I698
I0
g1754
I1
tp2837
a(I0
I1309
I0
S't'
p2838
I1
tp2839
a(I0
I1351
F1.0
S'better'
p2840
I1
tp2841
a(I0
I1687
F-0.625
S'other'
p2842
I1
tp2843
a(I0
I1816
I0
g2831
I1
tp2844
a(I0
I2867
F-0.625
S'other'
p2845
I1
tp2846
a(I0
I3107
F0.25
S'able'
p2847
I1
tp2848
a(I0
I3539
F0.25
S'able'
p2849
I1
tp2850
as(S'great'
p2851
tp2852
(lp2853
(I0
I108
I0
S'build'
p2854
I5
tp2855
a(I0
I352
I0
S'screen'
p2856
I5
tp2857
a(I0
I1031
F0.375
S'much'
p2858
I5
tp2859
a(I0
I1031
F1.0
S'better'
p2860
I5
tp2861
a(I0
I1967
F-0.125
S'overall'
p2862
I5
tp2863
a(I0
I2497
F0.375
S'full'
p2864
I5
tp2865
a(I0
I2561
F0.125
S'mobile'
p2866
I5
tp2867
a(I0
I2723
F-0.875
S'smart'
p2868
I5
tp2869
as(S'meizu'
p2870
S'm2'
p2871
S'note'
p2872
tp2873
(lp2874
(I0
I71
F-0.625
S'last'
p2875
I0
tp2876
a(I0
I155
I0
S'm2'
p2877
I0
tp2878
a(I0
I260
I0
S'm2'
p2879
I0
tp2880
a(I0
I722
F-0.625
S'last'
p2881
I0
tp2882
a(I0
I945
F1.0
S'good'
p2883
I0
tp2884
a(I0
I972
I0
g631
I0
tp2885
a(I0
I1078
I0
S'm2'
p2886
I0
tp2887
a(I0
I1151
I0
S'm2'
p2888
I0
tp2889
a(I0
I1219
I0
S'm2'
p2890
I0
tp2891
a(I0
I1244
I0
g1480
I0
tp2892
a(I0
I1361
F1.0
g1489
I0
tp2893
a(I0
I1361
I0
g1491
I0
tp2894
a(I0
I1441
I0
S'm2'
p2895
I0
tp2896
a(I0
I1451
I0
S'm2'
p2897
I0
tp2898
a(I0
I1587
F0.375
g633
I0
tp2899
a(I0
I1629
F-0.125
g1482
I0
tp2900
a(I0
I2617
I0
S'm2'
p2901
I0
tp2902
a(I0
I2617
I0
S'more'
p2903
I0
tp2904
a(I0
I2771
I0
S'm2'
p2905
I0
tp2906
a(I0
I2930
F0.625
g635
I0
tp2907
a(I0
I2975
I0
S'm2'
p2908
I0
tp2909
a(I0
I3282
I0
S'serious'
p2910
I0
tp2911
a(I0
I3393
I0
S'm2'
p2912
I0
tp2913
a(I0
I3397
I0
S'm2'
p2914
I0
tp2915
a(I0
I3544
F0.25
S'worth'
p2916
I0
tp2917
a(I0
I155
I0
g2877
I0
tp2918
a(I0
I972
I0
g631
I0
tp2919
a(I0
I1151
I0
g2888
I0
tp2920
a(I0
I1587
F0.375
g633
I0
tp2921
a(I0
I2771
I0
g2905
I0
tp2922
a(I0
I2930
F0.625
g635
I0
tp2923
a(I0
I3162
F-0.875
g637
I0
tp2924
a(I0
I3393
I0
g2912
I0
tp2925
a(I0
I3544
F0.25
g2916
I0
tp2926
a(I0
I71
F-0.625
g2875
I0
tp2927
a(I0
I260
I0
g2879
I0
tp2928
a(I0
I323
F1.0
S'best'
p2929
I0
tp2930
a(I0
I454
F0.875
S'awesome'
p2931
I0
tp2932
a(I0
I722
F-0.625
g2881
I0
tp2933
a(I0
I945
F1.0
g2883
I0
tp2934
a(I0
I1078
I0
g2886
I0
tp2935
a(I0
I1219
I0
g2890
I0
tp2936
a(I0
I1244
I0
g1480
I0
tp2937
a(I0
I1361
F1.0
g1489
I0
tp2938
a(I0
I1361
I0
g1491
I0
tp2939
a(I0
I1441
I0
g2895
I0
tp2940
a(I0
I1451
I0
g2897
I0
tp2941
a(I0
I1629
F-0.125
g1482
I0
tp2942
a(I0
I1705
I0
S'm2'
p2943
I0
tp2944
a(I0
I2392
I0
S'm2'
p2945
I0
tp2946
a(I0
I2432
F-0.375
S'same'
p2947
I0
tp2948
a(I0
I2617
I0
g2901
I0
tp2949
a(I0
I2617
I0
g2903
I0
tp2950
a(I0
I2745
I-100
S'improvedbest'
p2951
I0
tp2952
a(I0
I2745
F0.125
S'mobile'
p2953
I0
tp2954
a(I0
I2856
F-0.25
S'i'
p2955
I0
tp2956
a(I0
I2975
I0
g2908
I0
tp2957
a(I0
I3004
I-100
S'openmeizu'
p2958
I0
tp2959
a(I0
I3282
I0
g2910
I0
tp2960
a(I0
I3397
I0
g2914
I0
tp2961
a(I0
I3544
F0.25
g2916
I0
tp2962
a(I0
I71
F-0.625
g2875
I1
tp2963
a(I0
I260
I0
g2879
I1
tp2964
a(I0
I323
F1.0
g2929
I1
tp2965
a(I0
I361
I0
S'm1'
p2966
I1
tp2967
a(I0
I454
F0.875
g2931
I1
tp2968
a(I0
I722
F-0.625
g2881
I1
tp2969
a(I0
I945
F1.0
g2883
I1
tp2970
a(I0
I1078
I0
g2886
I1
tp2971
a(I0
I1219
I0
g2890
I1
tp2972
a(I0
I1244
I0
g1480
I1
tp2973
a(I0
I1361
F1.0
g1489
I1
tp2974
a(I0
I1361
I0
g1491
I1
tp2975
a(I0
I1441
I0
g2895
I1
tp2976
a(I0
I1451
I0
g2897
I1
tp2977
a(I0
I1629
F-0.125
g1482
I1
tp2978
a(I0
I1705
I0
g2943
I1
tp2979
a(I0
I2195
I0
S'm1'
p2980
I1
tp2981
a(I0
I2196
I0
S'm1'
p2982
I1
tp2983
a(I0
I2196
F0.5
S'avid'
p2984
I1
tp2985
a(I0
I2392
I0
g2945
I1
tp2986
a(I0
I2432
F-0.375
g2947
I1
tp2987
a(I0
I2617
I0
g2901
I1
tp2988
a(I0
I2617
I0
g2903
I1
tp2989
a(I0
I2720
F1.0
S'good'
p2990
I1
tp2991
a(I0
I2975
I0
g2908
I1
tp2992
a(I0
I3282
I0
g2910
I1
tp2993
a(I0
I3397
I0
g2914
I1
tp2994
a(I0
I3441
F1.0
g1484
I1
tp2995
a(I0
I67
F-0.125
S'overall'
p2996
I0
tp2997
a(I0
I155
I0
g2877
I0
tp2998
a(I0
I494
F-0.625
S'other'
p2999
I0
tp3000
a(I0
I570
F-0.778
S'common'
p3001
I0
tp3002
a(I0
I972
I0
g631
I0
tp3003
a(I0
I1151
I0
g2888
I0
tp3004
a(I0
I1230
I0
S'n'
p3005
I0
tp3006
a(I0
I1235
I0
S'nt'
p3007
I0
tp3008
a(I0
I1393
F-0.375
S'curious'
p3009
I0
tp3010
a(I0
I1469
I0
S'proprietary'
p3011
I0
tp3012
a(I0
I1513
F1.0
S'good'
p3013
I0
tp3014
a(I0
I1587
F0.375
g633
I0
tp3015
a(I0
I1605
F0.375
S'much'
p3016
I0
tp3017
a(I0
I1825
F1.0
S'good'
p3018
I0
tp3019
a(I0
I1840
F-0.125
S'such'
p3020
I0
tp3021
a(I0
I2261
F0.75
S'white'
p3022
I0
tp3023
a(I0
I2261
I0
S'awful'
p3024
I0
tp3025
a(I0
I2264
F0.375
S'capable'
p3026
I0
tp3027
a(I0
I2771
I0
g2905
I0
tp3028
a(I0
I2930
F0.625
g635
I0
tp3029
a(I0
I3025
F0.125
S'mobile'
p3030
I0
tp3031
a(I0
I3393
I0
g2912
I0
tp3032
a(I0
I3460
F0.875
S'happy'
p3033
I0
tp3034
a(I0
I3594
F0.75
S'proud'
p3035
I0
tp3036
a(I0
I3610
F0.875
S'awesome'
p3037
I0
tp3038
as(S'factory'
p3039
S'reset'
p3040
tp3041
(lp3042
(I0
I3223
I0
S'factory'
p3043
I0
tp3044
as(S'a'
p3045
S'memory'
p3046
S'card'
p3047
tp3048
(lp3049
(I0
I382
F0.5
g1336
I0
tp3050
a(I0
I1118
I0
g1307
I0
tp3051
a(I0
I2524
F0.125
g1365
I0
tp3052
a(I0
I2572
I0
g1636
I0
tp3053
a(I0
I3267
F0.125
g1370
I0
tp3054
a(I0
I3268
F0.5
g1372
I0
tp3055
a(I0
I3600
F-0.5
g1647
I0
tp3056
a(I0
I3639
F0.5
g1379
I0
tp3057
as(S'works'
p3058
tp3059
(lp3060
(I0
I891
I-100
S'finemusic'
p3061
I3
tp3062
a(I0
I1098
F-0.25
S'micro'
p3063
I3
tp3064
a(I0
I2050
F-0.75
S'free'
p3065
I3
tp3066
a(I0
I2335
I0
S'asphalt'
p3067
I3
tp3068
as(S'india'
p3069
tp3070
(lp3071
(I0
I1768
F-0.875
S'low'
p3072
I3
tp3073
as(S'very'
p3074
S'good'
p3075
S'battery'
p3076
tp3077
(lp3078
(I0
I326
F1.0
g1707
I0
tp3079
a(I0
I341
I0
g340
I0
tp3080
a(I0
I341
F0.75
g342
I0
tp3081
a(I0
I1603
F0.875
g2099
I0
tp3082
a(I0
I1759
F1.0
S'good'
p3083
I0
tp3084
a(I0
I2195
I0
g1868
I0
tp3085
a(I0
I2703
F0.125
g1727
I0
tp3086
a(I0
I2703
F0.875
g1729
I0
tp3087
a(I0
I2924
F1.0
g1731
I0
tp3088
a(I0
I3081
F1.0
S'good'
p3089
I0
tp3090
a(I0
I3708
F1.0
S'good'
p3091
I0
tp3092
a(I0
I202
F1.0
g1866
I1
tp3093
a(I0
I326
F1.0
g1707
I1
tp3094
a(I0
I341
I0
g340
I1
tp3095
a(I0
I341
F0.75
g342
I1
tp3096
a(I0
I364
F1.0
S'good'
p3097
I1
tp3098
a(I0
I542
F1.0
g1711
I1
tp3099
a(I0
I759
F1.0
S'excellent'
p3100
I1
tp3101
a(I0
I1085
I0
g1904
I1
tp3102
a(I0
I1085
F0.875
g1906
I1
tp3103
a(I0
I1141
F1.0
g1908
I1
tp3104
a(I0
I1193
F0.875
S'amazing'
p3105
I1
tp3106
a(I0
I1359
F0.875
g1914
I1
tp3107
a(I0
I1402
F-0.125
S'huge'
p3108
I1
tp3109
a(I0
I1402
F1.0
S'good'
p3110
I1
tp3111
a(I0
I1482
F1.0
g1918
I1
tp3112
a(I0
I1537
F1.0
S'good'
p3113
I1
tp3114
a(I0
I1601
F1.0
S'good'
p3115
I1
tp3116
a(I0
I1759
F1.0
g3083
I1
tp3117
a(I0
I1795
F1.0
S'good'
p3118
I1
tp3119
a(I0
I1826
F1.0
S'good'
p3120
I1
tp3121
a(I0
I1826
F1.0
S'good'
p3122
I1
tp3123
a(I0
I1863
F1.0
g1930
I1
tp3124
a(I0
I1970
F1.0
g1721
I1
tp3125
a(I0
I2195
I0
g1868
I1
tp3126
a(I0
I2503
F1.0
g1936
I1
tp3127
a(I0
I2553
F1.0
g1725
I1
tp3128
a(I0
I2655
F1.0
S'excellent'
p3129
I1
tp3130
a(I0
I2655
F1.0
S'excellent'
p3131
I1
tp3132
a(I0
I2703
F0.125
g1727
I1
tp3133
a(I0
I2703
F0.875
g1729
I1
tp3134
a(I0
I2863
I-100
S'excellentgood'
p3135
I1
tp3136
a(I0
I2917
F1.0
S'good'
p3137
I1
tp3138
a(I0
I2924
F1.0
g1731
I1
tp3139
a(I0
I3032
F1.0
S'good'
p3140
I1
tp3141
a(I0
I3081
F1.0
g3089
I1
tp3142
a(I0
I3083
F1.0
S'good'
p3143
I1
tp3144
a(I0
I3090
F1.0
S'good'
p3145
I1
tp3146
a(I0
I3096
F1.0
S'good'
p3147
I1
tp3148
a(I0
I3221
F1.0
S'good'
p3149
I1
tp3150
a(I0
I3221
F0.875
S'decent'
p3151
I1
tp3152
a(I0
I3238
F1.0
S'good'
p3153
I1
tp3154
a(I0
I3397
F0.375
S'ok'
p3155
I1
tp3156
a(I0
I3470
F-1.0
S'bad'
p3157
I1
tp3158
a(I0
I3679
F1.0
g1733
I1
tp3159
a(I0
I3708
F1.0
g3091
I1
tp3160
as(S'and'
p3161
S'sd'
p3162
S'card'
p3163
tp3164
(lp3165
(I0
I761
I0
g1300
I0
tp3166
a(I0
I980
I0
g1386
I0
tp3167
a(I0
I1118
I0
g1307
I0
tp3168
a(I0
I1343
I0
g1310
I0
tp3169
a(I0
I3364
I0
g1329
I0
tp3170
a(I0
I3364
I0
g1331
I0
tp3171
as(S'device'
p3172
tp3173
(lp3174
(I0
I113
F0.75
S'premium'
p3175
I11
tp3176
a(I0
I117
I0
S'light'
p3177
I11
tp3178
a(I0
I153
I0
S'ur'
p3179
I11
tp3180
a(I0
I300
I0
S'ur'
p3181
I11
tp3182
a(I0
I575
F1.0
S'good'
p3183
I11
tp3184
a(I0
I592
I0
S'u'
p3185
I11
tp3186
a(I0
I642
F1.0
S'good'
p3187
I11
tp3188
a(I0
I1605
F0.75
S'wonderful'
p3189
I11
tp3190
a(I0
I2285
F0.875
S'decent'
p3191
I11
tp3192
a(I0
I2295
F0.25
S'able'
p3193
I11
tp3194
a(I0
I2299
F0.875
S'fabulous'
p3195
I11
tp3196
a(I0
I2299
I0
S'big'
p3197
I11
tp3198
a(I0
I2319
F0.875
S'worthy'
p3199
I11
tp3200
a(I0
I2336
F-0.125
S'overall'
p3201
I11
tp3202
a(I0
I2336
F1.0
S'excellent'
p3203
I11
tp3204
a(I0
I2421
F0.875
S'decent'
p3205
I11
tp3206
a(I0
I2592
F-0.125
S'overall'
p3207
I11
tp3208
a(I0
I2592
F0.875
S'awesome'
p3209
I11
tp3210
a(I0
I2751
F0.125
S'mobile'
p3211
I11
tp3212
a(I0
I2763
F-0.25
S'latest'
p3213
I11
tp3214
a(I0
I3081
F0.875
S'great'
p3215
I11
tp3216
a(I0
I3093
F-0.125
S'such'
p3217
I11
tp3218
a(I0
I3422
F0.625
S'friendly'
p3219
I11
tp3220
a(I0
I3422
I0
S'user'
p3221
I11
tp3222
as(S'camera'
p3223
S'quality'
p3224
tp3225
(lp3226
(I0
I220
F1.0
g51
I14
tp3227
a(I0
I537
F0.125
g77
I14
tp3228
a(I0
I537
I0
g79
I14
tp3229
a(I0
I537
F1.0
g2080
I14
tp3230
a(I0
I575
F-0.875
g87
I14
tp3231
a(I0
I641
F-0.875
S'poor'
p3232
I14
tp3233
a(I0
I759
F-0.625
g2169
I14
tp3234
a(I0
I759
F1.0
g91
I14
tp3235
a(I0
I968
F-1.0
S'bad'
p3236
I14
tp3237
a(I0
I1085
F-0.875
g2176
I14
tp3238
a(I0
I1085
I0
g99
I14
tp3239
a(I0
I1098
F-1.0
g101
I14
tp3240
a(I0
I1098
F0.75
g103
I14
tp3241
a(I0
I1205
F0.875
S'superb'
p3242
I14
tp3243
a(I0
I1324
F-0.625
g113
I14
tp3244
a(I0
I1359
F1.0
g115
I14
tp3245
a(I0
I1472
I-100
S'godd'
p3246
I14
tp3247
a(I0
I1575
F0.125
S'mobile'
p3248
I14
tp3249
a(I0
I1575
F0.875
S'nice'
p3250
I14
tp3251
a(I0
I1664
F0.875
g2208
I14
tp3252
a(I0
I1699
F1.0
g119
I14
tp3253
a(I0
I1699
F1.0
g2101
I14
tp3254
a(I0
I1765
F1.0
g2211
I14
tp3255
a(I0
I1768
F1.0
g2103
I14
tp3256
a(I0
I1771
F-0.625
g2214
I14
tp3257
a(I0
I1826
F-1.0
g125
I14
tp3258
a(I0
I2019
F1.0
g135
I14
tp3259
a(I0
I2228
I-100
S'rangebest'
p3260
I14
tp3261
a(I0
I2294
F0.875
S'decent'
p3262
I14
tp3263
a(I0
I2528
I0
g1198
I14
tp3264
a(I0
I2528
F0.75
g1200
I14
tp3265
a(I0
I2528
F0.5
g405
I14
tp3266
a(I0
I2592
F1.0
g2231
I14
tp3267
a(I0
I2592
F0.875
g159
I14
tp3268
a(I0
I2627
F1.0
S'best'
p3269
I14
tp3270
a(I0
I2663
I-100
S'better4'
p3271
I14
tp3272
a(I0
I2707
F1.0
g161
I14
tp3273
a(I0
I2754
F1.0
g163
I14
tp3274
a(I0
I2754
I0
g165
I14
tp3275
a(I0
I2762
F1.0
g2235
I14
tp3276
a(I0
I2805
F1.0
g167
I14
tp3277
a(I0
I2805
I0
g366
I14
tp3278
a(I0
I2805
F-0.625
g368
I14
tp3279
a(I0
I2851
F0.875
S'decent'
p3280
I14
tp3281
a(I0
I2906
F0.75
g2111
I14
tp3282
a(I0
I2906
F0.875
g169
I14
tp3283
a(I0
I2922
F-0.875
S'low'
p3284
I14
tp3285
a(I0
I2938
F1.0
g175
I14
tp3286
a(I0
I3031
F0.625
g416
I14
tp3287
a(I0
I3031
F-0.125
g418
I14
tp3288
a(I0
I3098
F0.875
S'nice'
p3289
I14
tp3290
a(I0
I3318
I0
g187
I14
tp3291
a(I0
I3345
F-0.875
S'poor'
p3292
I14
tp3293
a(I0
I3345
F-0.5
S'disappointed'
p3294
I14
tp3295
a(I0
I3397
F0.625
g372
I14
tp3296
a(I0
I3748
F-1.0
S'bad'
p3297
I14
tp3298
as(S'low'
p3299
S'light'
p3300
tp3301
(lp3302
(I0
I25
F-0.875
S'low'
p3303
I2
tp3304
a(I0
I25
F0.625
S'acceptable'
p3305
I2
tp3306
a(I0
I106
F0.875
S'great'
p3307
I2
tp3308
a(I0
I106
F-0.875
S'low'
p3309
I2
tp3310
a(I0
I1155
F-0.875
S'low'
p3311
I2
tp3312
a(I0
I1356
F-0.875
S'low'
p3313
I2
tp3314
a(I0
I1411
F-0.875
S'low'
p3315
I2
tp3316
a(I0
I1412
F-0.625
S'sharp'
p3317
I2
tp3318
a(I0
I1412
F-0.875
S'low'
p3319
I2
tp3320
a(I0
I1905
F-0.875
S'low'
p3321
I2
tp3322
a(I0
I2492
F-0.875
S'low'
p3323
I2
tp3324
a(I0
I2492
F0.375
S'impressive'
p3325
I2
tp3326
a(I0
I3336
F1.0
S'good'
p3327
I2
tp3328
a(I0
I3336
F-0.875
S'low'
p3329
I2
tp3330
a(I0
I25
F-0.875
g3303
I14
tp3331
a(I0
I25
F0.625
g3305
I14
tp3332
a(I0
I106
F0.875
g3307
I14
tp3333
a(I0
I106
F-0.875
g3309
I14
tp3334
a(I0
I676
F0.875
S'amazing'
p3335
I14
tp3336
a(I0
I1155
F-0.875
g3311
I14
tp3337
a(I0
I1356
F-0.875
g3313
I14
tp3338
a(I0
I1411
F-0.875
g3315
I14
tp3339
a(I0
I1412
F-0.625
g3317
I14
tp3340
a(I0
I1412
F-0.875
g3319
I14
tp3341
a(I0
I1905
F-0.875
g3321
I14
tp3342
a(I0
I2492
F-0.875
g3323
I14
tp3343
a(I0
I2492
F0.375
g3325
I14
tp3344
a(I0
I3336
F1.0
g3327
I14
tp3345
a(I0
I3336
F-0.875
g3329
I14
tp3346
a(I0
I3748
I0
S'bright'
p3347
I14
tp3348
as(S'apps'
p3349
tp3350
(lp3351
(I0
I38
F-0.625
S'other'
p3352
I4
tp3353
a(I0
I134
F0.25
S'required'
p3354
I4
tp3355
a(I0
I171
F-0.75
S'open'
p3356
I4
tp3357
a(I0
I422
I0
S'many'
p3358
I4
tp3359
a(I0
I469
F0.25
S'recent'
p3360
I4
tp3361
a(I0
I472
F-0.625
S'other'
p3362
I4
tp3363
a(I0
I473
I0
S'unnecessary'
p3364
I4
tp3365
a(I0
I735
I-100
S'sucksthe'
p3366
I4
tp3367
a(I0
I735
F0.25
S'recent'
p3368
I4
tp3369
a(I0
I735
I0
S'u'
p3370
I4
tp3371
a(I0
I766
F0.25
S'basic'
p3372
I4
tp3373
a(I0
I794
F1.0
S'good'
p3374
I4
tp3375
a(I0
I835
F0.625
S'smooth'
p3376
I4
tp3377
a(I0
I838
I0
S'latter'
p3378
I4
tp3379
a(I0
I891
F-0.625
S'other'
p3380
I4
tp3381
a(I0
I919
F-0.375
S'various'
p3382
I4
tp3383
a(I0
I1389
F-0.875
S'wrong'
p3384
I4
tp3385
a(I0
I1391
F-0.75
S'open'
p3386
I4
tp3387
a(I0
I1441
I0
S'few'
p3388
I4
tp3389
a(I0
I1441
F-0.5
S'unwanted'
p3390
I4
tp3391
a(I0
I1441
I0
S'chinese'
p3392
I4
tp3393
a(I0
I1635
F-0.5
S'heaviest'
p3394
I4
tp3395
a(I0
I2028
I0
S'launch'
p3396
I4
tp3397
a(I0
I2028
F0.25
S'recent'
p3398
I4
tp3399
a(I0
I2141
I0
S'few'
p3400
I4
tp3401
a(I0
I2162
I0
S'most'
p3402
I4
tp3403
a(I0
I2941
F-0.125
S'such'
p3404
I4
tp3405
a(I0
I3119
F-0.125
S'minimum'
p3406
I4
tp3407
a(I0
I3638
I0
S'few'
p3408
I4
tp3409
a(I0
I3687
F-0.625
S'other'
p3410
I4
tp3411
as(S'amazon'
p3412
tp3413
(lp3414
(I0
I1023
F0.375
S'much'
p3415
I0
tp3416
a(I0
I1887
F1.0
S'good'
p3417
I0
tp3418
a(I0
I1917
I0
S't'
p3419
I0
tp3420
a(I0
I2006
F0.5
S'frank'
p3421
I0
tp3422
a(I0
I2386
F0.875
S'nice'
p3423
I0
tp3424
a(I0
I2386
F0.625
S'super'
p3425
I0
tp3426
as(S'mind'
p3427
S'blowing'
p3428
tp3429
(lp3430
(I0
I732
I-100
S'surb'
p3431
I0
tp3432
a(I0
I1212
I0
S'mind'
p3433
I0
tp3434
as.