(dp0
(S'thanks'
p1
tp2
(lp3
(I0
I357
F0.625
S'interested'
p4
I7
tp5
a(I0
I427
F0.875
S'superb'
p6
I7
tp7
a(I0
I484
I0
S'lags'
p8
I7
tp9
as(S'battery'
p10
S'life'
p11
tp12
(lp13
(I0
I84
F-0.5
S'long'
p14
I3
tp15
a(I0
I246
F-0.625
S'last'
p16
I3
tp17
a(I0
I246
F-0.5
S'long'
p18
I3
tp19
a(I0
I320
F0.875
S'great'
p20
I3
tp21
a(I0
I442
F-0.5
S'weak'
p22
I3
tp23
a(I0
I494
F0.875
S'awesome'
p24
I3
tp25
a(I0
I628
F-0.25
S'battery'
p26
I3
tp27
a(I0
I442
F-0.5
g22
I8
tp28
a(I0
I494
F0.875
g24
I8
tp29
a(I0
I628
F-0.25
g26
I8
tp30
as(S'2'
p31
S'gb'
p32
S'ram'
p33
tp34
(lp35
(I0
I39
I0
S'gb'
p36
I4
tp37
a(I0
I47
F-0.25
S'latest'
p38
I4
tp39
a(I0
I129
I0
S'gb'
p40
I4
tp41
a(I0
I253
F1.0
S'good'
p42
I4
tp43
a(I0
I293
F1.0
S'good'
p44
I4
tp45
a(I0
I417
F1.0
S'good'
p46
I4
tp47
a(I0
I39
I0
g36
I9
tp48
a(I0
I47
F-0.25
g38
I9
tp49
a(I0
I129
I0
g40
I9
tp50
a(I0
I253
F1.0
g42
I9
tp51
a(I0
I293
F1.0
g44
I9
tp52
a(I0
I417
F1.0
g46
I9
tp53
a(I0
I595
I-100
S'hai'
p54
I9
tp55
a(I0
I507
F0.5
S'internal'
p56
I7
tp57
as(S'in'
p58
S'price'
p59
S'range'
p60
tp61
(lp62
(I0
I327
I-100
S'soonbest'
p63
I0
tp64
a(I0
I388
F1.0
S'good'
p65
I0
tp66
a(I0
I388
F1.0
g65
I13
tp67
as(S'gb'
p68
S'internal'
p69
S'memory'
p70
tp71
(lp72
(I0
I103
I0
S'gb'
p73
I0
tp74
a(I0
I103
F0.5
S'internal'
p75
I0
tp76
a(I0
I438
F0.5
S'internal'
p77
I0
tp78
a(I0
I507
F0.5
g56
I0
tp79
a(I0
I577
I0
S'light'
p80
I0
tp81
a(I0
I577
F0.375
S'usage'
p82
I0
tp83
a(I0
I596
F0.5
S'internal'
p84
I0
tp85
a(I0
I609
F0.5
S'internal'
p86
I0
tp87
a(I0
I624
F0.5
S'internal'
p88
I0
tp89
a(I0
I103
I0
g73
I3
tp90
a(I0
I103
F0.5
g75
I3
tp91
a(I0
I438
F0.5
g77
I3
tp92
a(I0
I577
I0
g80
I3
tp93
a(I0
I577
F0.375
g82
I3
tp94
a(I0
I596
F0.5
g84
I3
tp95
a(I0
I609
F0.5
g86
I3
tp96
a(I0
I625
I0
S'more'
p97
I3
tp98
a(I0
I625
F0.5
S'internal'
p99
I3
tp100
a(I0
I103
I0
g73
I10
tp101
a(I0
I103
F0.5
g75
I10
tp102
a(I0
I438
F0.5
g77
I10
tp103
a(I0
I524
I-100
S'iternal'
p104
I10
tp105
a(I0
I524
I0
S'vs'
p106
I10
tp107
a(I0
I596
F0.5
g84
I10
tp108
a(I0
I609
F0.5
g86
I10
tp109
a(I0
I625
I0
g97
I10
tp110
a(I0
I625
F0.5
g99
I10
tp111
a(I0
I577
I0
g80
I10
tp112
a(I0
I577
F0.375
g82
I10
tp113
as(S'dont'
p114
S'buy'
p115
tp116
(lp117
(I0
I9
F-0.5
S'weak'
p118
I8
tp119
a(I0
I190
F0.125
S'mobile'
p120
I8
tp121
as(S'nice'
p122
S'mobile'
p123
tp124
(lp125
(I0
I77
F0.875
S'nice'
p126
I3
tp127
a(I0
I388
F0.125
S'mobile'
p128
I3
tp129
a(I0
I391
F0.875
S'nice'
p130
I3
tp131
a(I0
I513
F0.875
S'nice'
p132
I3
tp133
a(I0
I612
F1.0
S'good'
p134
I3
tp135
as(S'play'
p136
S'games'
p137
tp138
(lp139
(I0
I170
F-0.25
S'i'
p140
I1
tp141
a(I0
I170
I0
S'net'
p142
I1
tp143
as(S'sd'
p144
S'card'
p145
tp146
(lp147
(I0
I453
I0
S'sd'
p148
I0
tp149
as(S'one'
p150
S'month'
p151
tp152
(lp153
(I0
I158
F-0.375
S'half'
p154
I3
tp155
a(I0
I158
F0.125
S'mobile'
p156
I3
tp157
a(I0
I158
F-0.375
g154
I16
tp158
a(I0
I158
F0.125
g156
I16
tp159
a(I0
I301
I-100
S'somethingafter'
p160
I16
tp161
as(S'3'
p162
S'days'
p163
tp164
(lp165
(I0
I573
F-0.5
S'less'
p166
I4
tp167
as(S'display'
p168
tp169
(lp170
(I0
I110
F-0.625
S'fast'
p171
I13
tp172
a(I0
I482
I-100
S'amazonvibrant'
p173
I13
tp174
a(I0
I552
F-0.625
S'blank'
p175
I13
tp176
a(I0
I609
F0.5
S'true'
p177
I13
tp178
as(S'micromax'
p179
S'canvas'
p180
S'juice'
p181
tp182
(lp183
(I0
I246
F-0.25
S'i'
p184
I0
tp185
a(I0
I253
I-100
S'goodmicromax'
p186
I0
tp187
a(I0
I497
I-100
S'useis'
p188
I0
tp189
a(I0
I522
I-100
S'ladiesmicromax'
p190
I0
tp191
a(I0
I605
F0.125
S'mobile'
p192
I0
tp193
a(I0
I246
F-0.25
g184
I0
tp194
a(I0
I545
F0.875
S'lucky'
p195
I0
tp196
a(I0
I246
F-0.25
g184
I1
tp197
a(I0
I545
F0.875
g195
I1
tp198
as(S'micromax'
p199
S'service'
p200
S'center'
p201
tp202
(lp203
(I0
I167
F-0.375
S'same'
p204
I0
tp205
a(I0
I168
F0.25
S'able'
p206
I0
tp207
a(I0
I547
F0.75
S'easy'
p208
I0
tp209
a(I0
I592
F-0.25
S'i'
p210
I0
tp211
a(I0
I167
F-0.375
g204
I5
tp212
a(I0
I168
F0.25
g206
I5
tp213
a(I0
I547
F0.75
g208
I5
tp214
a(I0
I592
F-0.25
g210
I5
tp215
a(I0
I547
F0.75
g208
I0
tp216
a(I0
I589
F-0.5
S'sluggish'
p217
I0
tp218
as(S'low'
p219
S'budget'
p220
tp221
(lp222
(I0
I130
I0
S'al'
p223
I5
tp224
a(I0
I130
F-0.875
S'low'
p225
I5
tp226
a(I0
I502
F-0.875
S'low'
p227
I5
tp228
a(I0
I641
F-0.875
S'low'
p229
I5
tp230
as(S'camera'
p231
S'quality'
p232
tp233
(lp234
(I0
I21
F1.0
S'good'
p235
I14
tp236
a(I0
I139
F1.0
S'good'
p237
I14
tp238
a(I0
I200
F0.75
S'sound'
p239
I14
tp240
a(I0
I291
F1.0
S'good'
p241
I14
tp242
a(I0
I349
F1.0
S'good'
p243
I14
tp244
a(I0
I435
F-0.875
S'poor'
p245
I14
tp246
a(I0
I548
F0.625
S'fine'
p247
I14
tp248
a(I0
I609
I0
S'cheep'
p249
I14
tp250
as(S'value'
p251
S'for'
p252
S'money'
p253
tp254
(lp255
(I0
I295
F1.0
S'best'
p256
I4
tp257
a(I0
I530
I-100
S'moneymobile'
p258
I4
tp259
as(S'performance'
p260
tp261
(lp262
(I0
I232
I-100
S'pathetic4'
p263
I13
tp264
a(I0
I343
F0.5
S'satisfactory'
p265
I13
tp266
a(I0
I412
I0
S'pretty'
p267
I13
tp268
a(I0
I491
I0
S'batter'
p269
I13
tp270
as.