(dp0
(S'times'
p1
tp2
(lp3
(I224
I4
F0.125
S'mobile'
p4
I11
tp5
a(I255
I0
F0.75
S'complete'
p6
I11
tp7
a(I287
I6
I0
S'many'
p8
I11
tp9
a(I305
I0
I0
S'many'
p10
I11
tp11
as(S'looks'
p12
tp13
(lp14
(I62
I1
F-1.0
S'bad'
p15
I14
tp16
a(I141
I0
F0.125
S'mobile'
p17
I14
tp18
a(I141
I0
F1.0
S'good'
p19
I14
tp20
a(I217
I0
F0.5
S'modern'
p21
I14
tp22
a(I256
I3
F0.5
S'rid'
p23
I14
tp24
a(I256
I3
F0.5
S'ready'
p25
I14
tp26
a(I314
I0
F0.75
S'perfect'
p27
I14
tp28
a(I341
I1
F0.5
S'slim'
p29
I14
tp30
a(I341
I1
I0
S'light'
p31
I14
tp32
as(S'higher'
p33
S'specifications'
p34
tp35
(lp36
(I27
I0
F0.5
S'higher'
p37
I4
tp38
a(I44
I3
F0.5
S'higher'
p39
I4
tp40
a(I47
I14
F0.5
S'higher'
p41
I4
tp42
a(I194
I6
F0.5
S'higher'
p43
I4
tp44
as(S'everything'
p45
tp46
(lp47
(I46
I4
F0.625
S'fine'
p48
I8
tp49
a(I75
I0
F0.625
S'fine'
p50
I8
tp51
a(I153
I0
F1.0
S'good'
p52
I8
tp53
a(I265
I3
F-0.875
S'poor'
p54
I8
tp55
a(I276
I0
F-0.5
S'dull'
p56
I8
tp57
a(I316
I0
F1.0
S'good'
p58
I8
tp59
as(S'2'
p60
S'gb'
p61
S'ram'
p62
tp63
(lp64
(I46
I11
F-0.25
S'ram'
p65
I4
tp66
a(I46
I11
F-0.75
S'free'
p67
I4
tp68
a(I63
I10
F1.0
S'good'
p69
I4
tp70
a(I86
I5
I0
S'gb'
p71
I4
tp72
a(I86
I5
F0.5
S'internal'
p73
I4
tp74
a(I94
I0
F0.125
S'enough'
p75
I4
tp76
a(I147
I0
F-0.125
S'ghz'
p77
I4
tp78
a(I176
I5
I0
S'u'
p79
I4
tp80
a(I187
I0
F0.5
S'internal'
p81
I4
tp82
a(I239
I10
F-0.125
S'overall'
p83
I4
tp84
a(I239
I10
F0.875
S'nice'
p85
I4
tp86
a(I46
I11
F-0.25
g65
I9
tp87
a(I46
I11
F-0.75
g67
I9
tp88
a(I63
I10
F1.0
g69
I9
tp89
a(I64
I7
F1.0
S'good'
p90
I9
tp91
a(I64
I7
F0.5
S'internal'
p92
I9
tp93
a(I86
I5
I0
g71
I9
tp94
a(I86
I5
F0.5
g73
I9
tp95
a(I94
I0
F0.125
g75
I9
tp96
a(I147
I0
F-0.125
g77
I9
tp97
a(I176
I5
I0
g79
I9
tp98
a(I187
I0
F0.5
g81
I9
tp99
a(I239
I10
F-0.125
g83
I9
tp100
a(I239
I10
F0.875
g85
I9
tp101
a(I46
I11
F-0.25
g65
I7
tp102
a(I46
I11
F-0.75
g67
I7
tp103
a(I86
I5
F0.5
g73
I7
tp104
a(I187
I0
F0.5
g81
I7
tp105
as(S'heating'
p106
S'problem'
p107
tp108
(lp109
(I278
I9
F-1.0
S'bad'
p110
I6
tp111
a(I295
I1
F-0.5
S'regular'
p112
I6
tp113
a(I348
I5
I0
S'most'
p114
I6
tp115
as(S'memory'
p116
S'card'
p117
tp118
(lp119
(I173
I0
I0
S'sd'
p120
I4
tp121
a(I209
I4
F0.375
S'available'
p122
I4
tp123
a(I347
I0
F-0.25
S'insert'
p124
I4
tp125
a(I347
I0
F0.125
S'mobile'
p126
I4
tp127
a(I46
I10
F1.0
S'good'
p128
I10
tp129
a(I47
I3
F0.5
S'internal'
p130
I10
tp131
a(I135
I5
F-0.25
S'previous'
p132
I10
tp133
a(I135
I5
F0.125
S'mobile'
p134
I10
tp135
a(I135
I5
F0.5
S'internal'
p136
I10
tp137
a(I173
I0
I0
g120
I10
tp138
a(I177
I2
F0.5
S'internal'
p139
I10
tp140
a(I209
I4
F0.375
g122
I10
tp141
a(I347
I0
F-0.25
g124
I10
tp142
as(S'in'
p143
S'price'
p144
S'range'
p145
tp146
(lp147
(I45
I3
F-0.5
S'slow'
p148
I0
tp149
a(I45
I3
F0.625
S'acceptable'
p150
I0
tp151
a(I79
I32
I0
S'more'
p152
I0
tp153
a(I45
I3
F-0.5
g148
I13
tp154
a(I45
I3
F0.625
g150
I13
tp155
a(I79
I32
I0
g152
I13
tp156
a(I121
I8
F1.0
S'good'
p157
I13
tp158
as(S'for'
p159
S'price'
p160
S'range'
p161
tp162
(lp163
(I79
I32
I0
g152
I0
tp164
as(S'service'
p165
S'from'
p166
S'flipkart'
p167
tp168
(lp169
(I64
I6
I0
S'quick'
p170
I2
tp171
a(I313
I1
F-1.0
S'worst'
p172
I2
tp173
a(I313
I6
F1.0
S'excellent'
p174
I2
tp175
a(I316
I0
F0.5
S'thankful'
p176
I2
tp177
a(I316
I0
F1.0
S'good'
p178
I2
tp179
as(S'bad'
p180
S'camera'
p181
tp182
(lp183
(I47
I25
F-1.0
S'bad'
p184
I4
tp185
a(I227
I0
F-1.0
S'bad'
p186
I4
tp187
a(I278
I5
F-1.0
S'bad'
p188
I4
tp189
a(I347
I3
F-1.0
S'bad'
p190
I4
tp191
a(I359
I1
F-1.0
S'bad'
p192
I4
tp193
a(I359
I1
F-1.0
S'bad'
p194
I4
tp195
as(S'charger'
p196
tp197
(lp198
(I79
I9
I0
S'specific'
p199
I16
tp200
a(I121
I5
F-1.0
S'bad'
p201
I16
tp202
a(I155
I0
F-0.5
S'slow'
p203
I16
tp204
a(I286
I0
I0
S'normal'
p205
I16
tp206
as(S'customer'
p207
S'care'
p208
tp209
(lp210
(I44
I5
F-1.0
S'worse'
p211
I12
tp212
a(I303
I8
F0.5
S'technical'
p213
I12
tp214
a(I303
I19
F-0.875
S'poor'
p215
I12
tp216
a(I303
I8
F0.5
g213
I14
tp217
as(S'poor'
p218
S'quality'
p219
tp220
(lp221
(I58
I0
F1.0
S'good'
p222
I6
tp223
a(I61
I0
F0.75
S'sound'
p224
I6
tp225
a(I61
I9
F-0.875
S'poor'
p226
I6
tp227
a(I88
I2
F-0.875
S'poor'
p228
I6
tp229
a(I88
I8
F-0.875
S'poor'
p230
I6
tp231
a(I134
I1
F-0.875
S'poor'
p232
I6
tp233
a(I151
I0
F0.75
S'sound'
p234
I6
tp235
a(I151
I0
F1.0
S'good'
p236
I6
tp237
a(I173
I5
F0.75
S'sound'
p238
I6
tp239
a(I225
I0
F-0.875
S'low'
p240
I6
tp241
a(I264
I0
F0.75
S'sound'
p242
I6
tp243
a(I264
I0
F-0.875
S'poor'
p244
I6
tp245
a(I267
I13
F-0.875
S'poor'
p246
I6
tp247
a(I269
I8
F-0.875
S'poor'
p248
I6
tp249
a(I285
I0
F-0.875
S'poor'
p250
I6
tp251
a(I287
I8
I0
S'build'
p252
I6
tp253
a(I287
I8
F-0.875
S'poor'
p254
I6
tp255
a(I290
I22
F-0.875
S'poor'
p256
I6
tp257
a(I317
I5
F-0.875
S'poor'
p258
I6
tp259
a(I332
I6
F-0.875
S'poor'
p260
I6
tp261
a(I332
I6
F0.5
S'touch'
p262
I6
tp263
a(I332
I6
F0.375
S'much'
p264
I6
tp265
a(I332
I6
F-1.0
S'bad'
p266
I6
tp267
a(I348
I3
F-0.875
S'poor'
p268
I6
tp269
a(I348
I7
F-0.125
S'overall'
p270
I6
tp271
a(I348
I7
F-0.875
S'poor'
p272
I6
tp273
a(I348
I13
F-0.875
S'poor'
p274
I6
tp275
as(S'speaker'
p276
tp277
(lp278
(I129
I0
F1.0
S'good'
p279
I16
tp280
a(I162
I1
F-0.875
S'poor'
p281
I16
tp282
a(I257
I0
F0.125
S'mobile'
p283
I16
tp284
a(I269
I9
I0
S'clear'
p285
I16
tp286
a(I277
I10
F1.0
S'good'
p287
I16
tp288
a(I348
I4
F0.875
S'right'
p289
I16
tp290
as(S'games'
p291
tp292
(lp293
(I121
I4
I0
S'internet'
p294
I5
tp295
a(I348
I0
I0
S'net'
p296
I5
tp297
as(S'month'
p298
tp299
(lp300
(I304
I0
F-0.625
S'last'
p301
I16
tp302
as(S'buy'
p303
S'any'
p304
S'product'
p305
tp306
(lp307
(I294
I1
I0
S't'
p308
I4
tp309
as(S'speed'
p310
tp311
(lp312
(I27
I6
F1.0
S'good'
p313
I14
tp314
a(I27
I6
F1.0
S'good'
p315
I14
tp316
a(I47
I18
I0
S'net'
p317
I14
tp318
a(I47
I18
F1.0
S'good'
p319
I14
tp320
a(I67
I0
F1.0
S'better'
p321
I14
tp322
a(I131
I5
F0.75
S'give'
p323
I14
tp324
a(I156
I9
F-0.625
S'average'
p325
I14
tp326
a(I173
I6
F0.375
S'ok'
p327
I14
tp328
a(I173
I6
F1.0
S'good'
p329
I14
tp330
a(I173
I6
F0.625
S'friendly'
p331
I14
tp332
a(I182
I3
F1.0
S'good'
p333
I14
tp334
a(I182
I3
F1.0
S'good'
p335
I14
tp336
a(I186
I13
F0.5
S'high'
p337
I14
tp338
as(S'quality'
p339
S'display'
p340
tp341
(lp342
(I29
I7
F1.0
S'good'
p343
I0
tp344
a(I87
I7
F1.0
S'good'
p345
I0
tp346
a(I222
I4
F1.0
S'good'
p347
I0
tp348
a(I264
I0
F1.0
S'good'
p349
I0
tp350
a(I264
I0
F0.75
g242
I0
tp351
a(I264
I0
F-0.875
g244
I0
tp352
a(I347
I0
F0.125
S'appropriate'
p353
I0
tp354
a(I29
I7
F1.0
g343
I1
tp355
a(I87
I7
F1.0
g345
I1
tp356
a(I222
I4
F1.0
g347
I1
tp357
a(I264
I0
F1.0
g349
I1
tp358
a(I264
I0
F0.75
g242
I1
tp359
a(I264
I0
F-0.875
g244
I1
tp360
a(I347
I0
F0.125
g353
I1
tp361
a(I29
I7
F1.0
g343
I13
tp362
a(I47
I24
F1.0
S'good'
p363
I13
tp364
a(I69
I0
F-0.875
S'poor'
p365
I13
tp366
a(I87
I7
F1.0
g345
I13
tp367
a(I197
I6
F-0.125
S'overall'
p368
I13
tp369
a(I197
I11
F1.0
S'good'
p370
I13
tp371
a(I217
I0
F0.875
S'great'
p372
I13
tp373
a(I239
I17
F1.0
S'good'
p374
I13
tp375
a(I264
I0
F1.0
g349
I13
tp376
a(I332
I9
F0.375
S'much'
p377
I13
tp378
as(S'price'
p379
S'camera'
p380
tp381
(lp382
(I79
I32
F-0.125
S'front'
p383
I2
tp384
a(I186
I1
F0.5
S'economic'
p385
I2
tp386
a(I186
I5
F0.5
S'economic'
p387
I2
tp388
as(S'best'
p389
S'mobile'
p390
tp391
(lp392
(I68
I0
F1.0
S'best'
p393
I2
tp394
a(I71
I0
F0.125
S'mobile'
p395
I2
tp396
a(I187
I0
F1.0
S'best'
p397
I2
tp398
a(I348
I14
F1.0
S'best'
p399
I2
tp400
as(S'micromax'
p401
S'canvas'
p402
S'xpress'
p403
tp404
(lp405
(I57
I0
F0.125
S'mobile'
p406
I5
tp407
a(I88
I0
F1.0
S'good'
p408
I5
tp409
a(I89
I6
F0.875
S'happy'
p410
I5
tp411
a(I237
I0
F0.125
S'mobile'
p412
I5
tp413
a(I309
I7
F0.875
S'happy'
p414
I5
tp415
a(I57
I0
F0.125
g406
I6
tp416
a(I89
I6
F0.875
g410
I6
tp417
a(I237
I0
F0.125
g412
I6
tp418
a(I309
I7
F0.875
g414
I6
tp419
a(I57
I0
F0.125
g406
I7
tp420
a(I88
I0
F1.0
g408
I7
tp421
a(I349
I13
F1.0
S'good'
p422
I7
tp423
a(I88
I0
F1.0
g408
I13
tp424
a(I57
I0
F0.125
g406
I10
tp425
a(I349
I13
F1.0
g422
I10
tp426
as(S'quality'
p427
S'mobile'
p428
tp429
(lp430
(I19
I7
F-0.875
S'cheap'
p431
I1
tp432
a(I49
I0
F-0.875
S'cheap'
p433
I1
tp434
a(I79
I21
F0.5
S'comparable'
p435
I1
tp436
a(I79
I21
F-0.875
S'low'
p437
I1
tp438
a(I79
I21
F0.5
S'high'
p439
I1
tp440
a(I125
I0
I0
S'photo'
p441
I1
tp442
a(I125
I0
F1.0
S'good'
p443
I1
tp444
a(I173
I5
F0.75
g238
I1
tp445
a(I257
I0
F-1.0
S'bad'
p446
I1
tp447
a(I296
I0
F-0.875
S'cheap'
p448
I1
tp449
a(I316
I0
F-0.625
S'last'
p450
I1
tp451
a(I321
I0
F-0.875
S'cheap'
p452
I1
tp453
a(I347
I0
F0.125
g353
I1
tp454
as(S'good'
p455
S'battery'
p456
tp457
(lp458
(I47
I12
F-0.875
S'poor'
p459
I1
tp460
a(I63
I8
F0.375
S'exhaust'
p461
I1
tp462
a(I72
I1
F1.0
S'good'
p463
I1
tp464
a(I86
I6
F-0.25
S'i'
p465
I1
tp466
a(I104
I0
F1.0
S'good'
p467
I1
tp468
a(I104
I0
F1.0
S'good'
p469
I1
tp470
a(I139
I8
F1.0
S'good'
p471
I1
tp472
a(I256
I9
F-1.0
S'bad'
p473
I1
tp474
a(I329
I0
F0.875
S'nice'
p475
I1
tp476
as(S'average'
p477
tp478
(lp479
(I114
I8
I0
S'below'
p480
I12
tp481
a(I197
I11
I0
S'camera'
p482
I12
tp483
a(I218
I0
I0
S'most'
p484
I12
tp485
as(S'flip'
p486
S'kart'
p487
tp488
(lp489
(I303
I3
F-0.75
S'busy'
p490
I1
tp491
a(I303
I23
F-0.5
S'flip'
p492
I1
tp493
a(I331
I3
F0.125
S'mobile'
p494
I1
tp495
as(S'glass'
p496
tp497
(lp498
(I19
I2
I0
S'tempered'
p499
I10
tp500
a(I56
I0
F1.0
S'good'
p501
I10
tp502
a(I56
I0
F0.875
S'worthy'
p503
I10
tp504
a(I56
I0
I0
S'tampered'
p505
I10
tp506
a(I56
I0
I0
S'tampered'
p507
I10
tp508
a(I347
I10
F-0.5
S'temper'
p509
I10
tp510
as(S'poor'
p511
S'battery'
p512
S'backup'
p513
tp514
(lp515
(I39
I0
F-0.875
S'poor'
p516
I2
tp517
a(I47
I12
F-0.875
g459
I2
tp518
a(I124
I1
F-0.875
S'poor'
p519
I2
tp520
a(I134
I13
F-0.875
S'poor'
p521
I2
tp522
a(I197
I0
F-0.875
S'poor'
p523
I2
tp524
a(I225
I0
F-0.875
S'poor'
p525
I2
tp526
a(I317
I4
F-0.875
S'poor'
p527
I2
tp528
a(I39
I0
F-0.875
g516
I3
tp529
a(I47
I12
F-0.875
g459
I3
tp530
a(I173
I5
F-0.875
S'poor'
p531
I3
tp532
a(I176
I0
F-0.875
S'poor'
p533
I3
tp534
a(I310
I0
F-0.875
S'poor'
p535
I3
tp536
a(I311
I1
F-0.875
S'poor'
p537
I3
tp538
a(I312
I1
F-0.875
S'poor'
p539
I3
tp540
as(S'micro'
p541
S'max'
p542
tp543
(lp544
(I127
I0
F-0.25
S'i'
p545
I5
tp546
a(I240
I0
F1.0
S'good'
p547
I5
tp548
a(I269
I4
F-0.625
S'other'
p549
I5
tp550
a(I277
I10
I0
S'max'
p551
I5
tp552
as(S'cheap'
p553
S'quality'
p554
tp555
(lp556
(I19
I7
F-0.875
g431
I1
tp557
a(I49
I0
F-0.875
g433
I1
tp558
a(I269
I0
F-0.875
S'cheap'
p559
I1
tp560
a(I296
I0
F-0.875
g448
I1
tp561
a(I313
I15
F-0.875
S'cheap'
p562
I1
tp563
a(I321
I0
F-0.875
g452
I1
tp564
as(S'long'
p565
S'time'
p566
tp567
(lp568
(I88
I5
F-0.5
S'long'
p569
I5
tp570
a(I135
I4
F-0.5
S'longer'
p571
I5
tp572
a(I156
I5
F-0.5
S'long'
p573
I5
tp574
a(I197
I0
F-0.5
S'long'
p575
I5
tp576
a(I239
I18
F-0.5
S'long'
p577
I5
tp578
a(I287
I0
F-0.5
S'long'
p579
I5
tp580
as(S'go'
p581
S'for'
p582
S'mobile'
p583
tp584
(lp585
(I72
I0
F1.0
S'good'
p586
I0
tp587
a(I74
I4
F1.0
S'good'
p588
I0
tp589
a(I316
I0
F-0.625
g450
I0
tp590
as(S'good'
p591
S'product'
p592
tp593
(lp594
(I45
I6
F1.0
S'good'
p595
I5
tp596
a(I64
I5
F1.0
S'good'
p597
I5
tp598
a(I74
I0
F1.0
S'good'
p599
I5
tp600
a(I74
I0
F0.5
S'high'
p601
I5
tp602
a(I86
I3
F1.0
S'good'
p603
I5
tp604
a(I114
I0
F1.0
S'good'
p605
I5
tp606
a(I167
I1
F1.0
S'excellent'
p607
I5
tp608
a(I217
I1
F1.0
S'good'
p609
I5
tp610
a(I228
I0
F1.0
S'good'
p611
I5
tp612
a(I232
I0
F1.0
S'good'
p613
I5
tp614
a(I254
I0
F1.0
S'good'
p615
I5
tp616
a(I264
I8
F-1.0
S'bad'
p617
I5
tp618
a(I278
I8
F1.0
S'good'
p619
I5
tp620
a(I315
I6
F1.0
S'good'
p621
I5
tp622
a(I329
I0
F1.0
S'good'
p623
I5
tp624
a(I341
I0
F1.0
S'good'
p625
I5
tp626
as(S'voice'
p627
tp628
(lp629
(I156
I2
F0.375
S'audible'
p630
I7
tp631
a(I256
I7
F0.25
S'worth'
p632
I7
tp633
a(I269
I9
I0
S'clear'
p634
I7
tp635
a(I319
I2
I0
S'clear'
p636
I7
tp637
a(I349
I5
F0.375
S'audible'
p638
I7
tp639
as(S'fast'
p640
S'delivery'
p641
tp642
(lp643
(I2
I4
F-0.625
S'fast'
p644
I4
tp645
a(I26
I1
F-0.625
S'fast'
p646
I4
tp647
a(I135
I6
F1.0
S'good'
p648
I4
tp649
a(I167
I1
F0.125
S'usual'
p650
I4
tp651
a(I167
I1
F-0.625
S'fast'
p652
I4
tp653
as(S'third'
p654
S'class'
p655
tp656
(lp657
(I1
I3
I0
S'third'
p658
I2
tp659
a(I100
I3
I0
S'third'
p660
I2
tp661
a(I197
I1
I0
S'third'
p662
I2
tp663
a(I283
I6
I0
S'third'
p664
I2
tp665
as(S'feel'
p666
tp667
(lp668
(I2
I2
F1.0
S'good'
p669
I10
tp670
a(I101
I2
F1.0
S'good'
p671
I10
tp672
a(I103
I0
F1.0
S'good'
p673
I10
tp674
as(S'worst'
p675
S'camera'
p676
tp677
(lp678
(I140
I0
I0
S'rear'
p679
I1
tp680
a(I173
I9
F-1.0
S'worst'
p681
I1
tp682
a(I352
I0
F-1.0
S'worst'
p683
I1
tp684
as(S'week'
p685
tp686
(lp687
(I289
I0
F-0.625
S'last'
p688
I9
tp689
as(S'low'
p690
S'price'
p691
tp692
(lp693
(I27
I0
F-0.875
S'low'
p694
I7
tp695
a(I44
I3
F-0.875
S'low'
p696
I7
tp697
a(I45
I3
F-0.5
g148
I7
tp698
a(I45
I3
F0.625
g150
I7
tp699
a(I47
I14
F-0.875
S'low'
p700
I7
tp701
a(I80
I1
F-0.875
S'low'
p702
I7
tp703
a(I176
I10
F0.125
S'mobile'
p704
I7
tp705
a(I176
I10
F-0.875
S'low'
p706
I7
tp707
a(I176
I10
F1.0
S'good'
p708
I7
tp709
a(I178
I8
F-0.875
S'low'
p710
I7
tp711
a(I194
I6
F-0.875
S'low'
p712
I7
tp713
as(S'rear'
p714
S'camera'
p715
tp716
(lp717
(I32
I0
I0
S'rear'
p718
I6
tp719
a(I32
I0
F1.0
S'good'
p720
I6
tp721
a(I46
I8
I0
S'rear'
p722
I6
tp723
a(I46
I8
F1.0
S'good'
p724
I6
tp725
a(I140
I0
I0
g679
I6
tp726
a(I173
I9
F-1.0
g681
I6
tp727
a(I290
I5
I0
S'least'
p728
I6
tp729
a(I290
I5
I0
S'rear'
p730
I6
tp731
as(S'experience'
p732
tp733
(lp734
(I73
I0
F0.875
S'awesome'
p735
I12
tp736
a(I173
I2
F-0.875
S'bitter'
p737
I12
tp738
a(I248
I0
F-1.0
S'bad'
p739
I12
tp740
a(I283
I3
F-1.0
S'bad'
p741
I12
tp742
a(I294
I0
I0
S'user'
p743
I12
tp744
a(I313
I5
F-1.0
S'bad'
p745
I12
tp746
a(I313
I5
F-1.0
S'worst'
p747
I12
tp748
a(I319
I3
F-1.0
S'bad'
p749
I12
tp750
as(S'device'
p751
tp752
(lp753
(I19
I3
F1.0
S'good'
p754
I11
tp755
a(I47
I6
F-0.5
S'replaced'
p756
I11
tp757
a(I47
I7
F-0.25
S'previous'
p758
I11
tp759
a(I88
I13
I0
S'dis'
p760
I11
tp761
a(I313
I9
F1.0
S'excellent'
p762
I11
tp763
a(I349
I4
I0
S'serious'
p764
I11
tp765
a(I349
I6
F0.875
S'happy'
p766
I11
tp767
as(S'low'
p768
S'budget'
p769
tp770
(lp771
(I19
I6
F0.125
S'mobile'
p772
I5
tp773
a(I19
I6
F-0.875
S'low'
p774
I5
tp775
a(I68
I0
F-0.875
S'low'
p776
I5
tp777
a(I72
I0
F-0.875
S'low'
p778
I5
tp779
a(I158
I0
F-0.875
S'low'
p780
I5
tp781
a(I257
I11
F-0.875
S'low'
p782
I5
tp783
as(S'service'
p784
S'center'
p785
tp786
(lp787
(I239
I19
F0.75
S'proper'
p788
I5
tp789
a(I277
I10
F-0.5
S'long'
p790
I5
tp791
as(S'front'
p792
S'camera'
p793
tp794
(lp795
(I28
I1
F-0.125
S'front'
p796
I6
tp797
a(I37
I0
F-0.125
S'front'
p798
I6
tp799
a(I37
I0
F-0.875
S'poor'
p800
I6
tp801
a(I79
I32
F-0.125
g383
I6
tp802
a(I140
I0
I0
g679
I6
tp803
a(I173
I9
F-1.0
g681
I6
tp804
a(I173
I9
I0
S'n'
p805
I6
tp806
a(I183
I1
F-0.125
S'front'
p807
I6
tp808
a(I192
I0
F-0.125
S'front'
p809
I6
tp810
a(I192
I0
F1.0
S'good'
p811
I6
tp812
a(I198
I4
F-0.875
S'low'
p813
I6
tp814
a(I209
I1
I0
S'big'
p815
I6
tp816
a(I173
I9
I0
g805
I14
tp817
as(S'16'
p818
S'gb'
p819
tp820
(lp821
(I64
I7
F0.5
g92
I3
tp822
a(I86
I5
F0.5
g73
I3
tp823
a(I187
I0
F0.5
g81
I3
tp824
as(S'camera'
p825
S'quality'
p826
tp827
(lp828
(I1
I5
F-1.0
S'bad'
p829
I14
tp830
a(I18
I5
F-0.625
S'average'
p831
I14
tp832
a(I18
I5
F0.875
S'happy'
p833
I14
tp834
a(I45
I5
F0.625
S'fine'
p835
I14
tp836
a(I56
I4
F-1.0
S'bad'
p837
I14
tp838
a(I61
I0
F-0.875
S'poor'
p839
I14
tp840
a(I61
I0
F0.75
g224
I14
tp841
a(I61
I9
F-0.875
g226
I14
tp842
a(I61
I9
I0
S'u'
p843
I14
tp844
a(I61
I9
F1.0
S'good'
p845
I14
tp846
a(I74
I3
F1.0
S'good'
p847
I14
tp848
a(I79
I33
F-0.875
S'pathetic'
p849
I14
tp850
a(I79
I33
I0
S'screen'
p851
I14
tp852
a(I79
I33
F0.375
S'ok'
p853
I14
tp854
a(I88
I2
F-0.875
g228
I14
tp855
a(I100
I5
F-1.0
S'bad'
p856
I14
tp857
a(I102
I3
F-1.0
S'bad'
p858
I14
tp859
a(I119
I2
F1.0
S'good'
p860
I14
tp861
a(I193
I5
F-0.625
S'average'
p862
I14
tp863
a(I198
I4
F-0.875
g813
I14
tp864
a(I216
I1
F-0.875
S'low'
p865
I14
tp866
a(I264
I10
F-1.0
S'worst'
p867
I14
tp868
a(I267
I13
F-0.875
g246
I14
tp869
a(I269
I8
F-0.875
g248
I14
tp870
a(I278
I5
F-1.0
g188
I14
tp871
a(I285
I0
F-0.875
g250
I14
tp872
a(I317
I5
F-0.875
g258
I14
tp873
a(I347
I0
F0.125
g353
I14
tp874
a(I347
I3
F-1.0
g190
I14
tp875
a(I348
I13
F-0.875
g274
I14
tp876
as(S'handset'
p877
tp878
(lp879
(I171
I0
F0.5
S'costly'
p880
I14
tp881
a(I257
I1
F-0.375
S'same'
p882
I14
tp883
a(I329
I2
F0.875
S'awesome'
p884
I14
tp885
as(S'value'
p886
S'for'
p887
S'money'
p888
tp889
(lp890
(I277
I0
F0.125
S'mobile'
p891
I4
tp892
a(I277
I0
I0
S'durable'
p893
I4
tp894
as(S'fine'
p895
tp896
(lp897
(I46
I0
F-0.375
S'same'
p898
I15
tp899
as(S'light'
p900
tp901
(lp902
(I46
I9
F1.0
S'good'
p903
I14
tp904
a(I46
I9
I0
S'u'
p905
I14
tp906
a(I46
I9
F1.0
S'good'
p907
I14
tp908
a(I61
I10
F-0.5
S'flash'
p909
I14
tp910
a(I61
I10
F-0.875
S'low'
p911
I14
tp912
a(I211
I0
F-0.875
S'low'
p913
I14
tp914
as(S'screen'
p915
S'guard'
p916
tp917
(lp918
(I56
I0
I0
S'screen'
p919
I6
tp920
a(I254
I0
I0
S'screen'
p921
I6
tp922
a(I295
I8
I0
S'screen'
p923
I6
tp924
a(I315
I5
F-0.5
S'broken'
p925
I6
tp926
a(I332
I4
I0
S'screen'
p927
I6
tp928
as(S'internet'
p929
tp930
(lp931
(I30
I0
F1.0
S'good'
p932
I15
tp933
a(I68
I2
F0.375
S'full'
p934
I15
tp935
a(I313
I2
F-0.625
S'new'
p936
I15
tp937
as(S'hours'
p938
tp939
(lp940
(I197
I7
F-0.25
S'i'
p941
I14
tp942
a(I341
I3
I0
S'ten'
p943
I14
tp944
a(I349
I3
I0
S'own'
p945
I14
tp946
a(I349
I3
I0
S'few'
p947
I14
tp948
as(S'good'
p949
S'camera'
p950
tp951
(lp952
(I29
I4
F1.0
S'good'
p953
I3
tp954
a(I32
I0
I0
g718
I3
tp955
a(I32
I0
F1.0
g720
I3
tp956
a(I46
I8
I0
g722
I3
tp957
a(I46
I8
F1.0
g724
I3
tp958
a(I47
I25
F-1.0
g184
I3
tp959
a(I56
I2
F1.0
S'good'
p960
I3
tp961
a(I61
I9
I0
g843
I3
tp962
a(I61
I9
F1.0
g845
I3
tp963
a(I79
I32
F-0.125
g383
I3
tp964
a(I79
I33
F-0.875
g849
I3
tp965
a(I87
I4
F1.0
S'good'
p966
I3
tp967
a(I89
I0
F-0.875
S'poor'
p968
I3
tp969
a(I114
I6
F1.0
S'good'
p970
I3
tp971
a(I120
I0
F0.75
S'easy'
p972
I3
tp973
a(I120
I2
F0.75
S'easy'
p974
I3
tp975
a(I173
I9
F-1.0
g681
I3
tp976
a(I176
I8
F1.0
S'good'
p977
I3
tp978
a(I186
I13
F0.75
S'fantastic'
p979
I3
tp980
a(I186
I13
F1.0
S'good'
p981
I3
tp982
a(I188
I0
F1.0
S'good'
p983
I3
tp984
a(I192
I0
F-0.125
g809
I3
tp985
a(I192
I0
F1.0
g811
I3
tp986
a(I211
I0
F1.0
S'good'
p987
I3
tp988
a(I218
I0
F1.0
S'good'
p989
I3
tp990
a(I264
I7
F1.0
S'good'
p991
I3
tp992
a(I266
I3
F1.0
S'good'
p993
I3
tp994
a(I319
I0
F1.0
S'good'
p995
I3
tp996
a(I332
I5
F1.0
S'good'
p997
I3
tp998
a(I348
I11
F1.0
S'good'
p999
I3
tp1000
as(S'internal'
p1001
S'memory'
p1002
tp1003
(lp1004
(I47
I3
F0.5
g130
I3
tp1005
a(I135
I5
F-0.25
g132
I3
tp1006
a(I135
I5
F0.125
g134
I3
tp1007
a(I135
I5
F0.5
g136
I3
tp1008
a(I177
I2
F0.5
g139
I3
tp1009
as(S'little'
p1010
S'bit'
p1011
tp1012
(lp1013
(I89
I0
F-0.75
S'little'
p1014
I4
tp1015
a(I114
I4
F-0.75
S'little'
p1016
I4
tp1017
as(S'performance'
p1018
tp1019
(lp1020
(I99
I1
F-0.125
S'overall'
p1021
I13
tp1022
a(I99
I1
F1.0
S'good'
p1023
I13
tp1024
a(I155
I1
F1.0
S'good'
p1025
I13
tp1026
a(I156
I4
F-0.875
S'poor'
p1027
I13
tp1028
a(I176
I9
F1.0
S'good'
p1029
I13
tp1030
a(I177
I2
F-0.625
S'faster'
p1031
I13
tp1032
a(I186
I0
F0.875
S'nice'
p1033
I13
tp1034
a(I186
I4
F0.875
S'nice'
p1035
I13
tp1036
a(I197
I2
F1.0
S'good'
p1037
I13
tp1038
a(I261
I0
F-0.875
S'poor'
p1039
I13
tp1040
as(S'sound'
p1041
S'quality'
p1042
tp1043
(lp1044
(I61
I0
F0.75
g224
I5
tp1045
a(I79
I20
F0.75
S'sound'
p1046
I5
tp1047
a(I79
I20
F-0.625
S'average'
p1048
I5
tp1049
a(I151
I0
F0.75
g234
I5
tp1050
a(I151
I0
F0.75
S'proper'
p1051
I5
tp1052
a(I151
I0
F1.0
g236
I5
tp1053
a(I173
I5
F0.75
g238
I5
tp1054
a(I264
I0
F0.75
g242
I5
tp1055
a(I264
I0
F-0.875
g244
I5
tp1056
a(I269
I8
F-0.875
S'poor'
p1057
I5
tp1058
a(I269
I8
F-0.875
g248
I5
tp1059
a(I151
I0
F0.75
g1051
I15
tp1060
a(I189
I0
F-0.875
S'low'
p1061
I15
tp1062
a(I219
I0
F-0.875
S'poor'
p1063
I15
tp1064
a(I246
I1
F-0.875
S'low'
p1065
I15
tp1066
a(I269
I8
F-0.875
g1057
I15
tp1067
a(I290
I17
I0
S'more'
p1068
I15
tp1069
a(I290
I17
F-0.5
S'loud'
p1070
I15
tp1071
a(I290
I17
I0
S'clear'
p1072
I15
tp1073
a(I348
I4
F0.5
S'noise'
p1074
I15
tp1075
as.