(dp0
(S'service'
p1
S'centre'
p2
tp3
(lp4
(I427
I30
F-0.375
S'authorized'
p5
I2
tp6
a(I433
I9
I0
S'n'
p7
I2
tp8
a(I476
I6
F-1.0
S'worst'
p9
I2
tp10
a(I903
I1
F0.25
S'centre'
p11
I2
tp12
a(I1613
I10
I0
S'nearest'
p13
I2
tp14
as(S'quad'
p15
S'core'
p16
S'processor'
p17
tp18
(lp19
(I600
I15
F1.0
S'best'
p20
I0
tp21
a(I951
I2
F1.0
S'good'
p22
I0
tp23
a(I1162
I11
F0.5
S'powerful'
p24
I0
tp25
a(I1325
I1
F1.0
S'good'
p26
I0
tp27
a(I1670
I6
I0
S'quad'
p28
I0
tp29
as(S'2'
p30
S'gb'
p31
S'ram'
p32
tp33
(lp34
(I20
I1
F0.875
S'awesome'
p35
I4
tp36
a(I37
I3
I0
S'gb'
p37
I4
tp38
a(I97
I0
I0
S'gb'
p39
I4
tp40
a(I134
I38
F0.75
S'grand'
p41
I4
tp42
a(I134
I38
F-0.5
S'slow'
p43
I4
tp44
a(I146
I30
F-0.75
S'free'
p45
I4
tp46
a(I187
I26
F0.75
S'due'
p47
I4
tp48
a(I217
I2
F-0.75
S'little'
p49
I4
tp50
a(I217
I2
F-0.75
S'free'
p51
I4
tp52
a(I268
I15
F-0.75
S'sufficient'
p53
I4
tp54
a(I331
I1
I0
S'gb'
p55
I4
tp56
a(I525
I1
F0.875
S'great'
p57
I4
tp58
a(I602
I1
F0.875
S'awesome'
p59
I4
tp60
a(I676
I49
F0.625
S'smoothest'
p61
I4
tp62
a(I781
I0
F-0.5
S'snappy'
p63
I4
tp64
a(I842
I38
F-0.75
S'free'
p65
I4
tp66
a(I927
I0
F-0.625
S'other'
p67
I4
tp68
a(I927
I0
F0.125
S'equivalent'
p69
I4
tp70
a(I1005
I5
F-0.75
S'apt'
p71
I4
tp72
a(I1127
I13
F0.125
S'enough'
p73
I4
tp74
a(I1156
I3
F1.0
S'good'
p75
I4
tp76
a(I1239
I1
F0.625
S'super'
p77
I4
tp78
a(I1282
I0
F-0.25
S'overkill'
p79
I4
tp80
a(I1327
I16
I0
S'gb'
p81
I4
tp82
a(I1352
I5
F0.5
S'recommended'
p83
I4
tp84
a(I1356
I3
I0
S'gb'
p85
I4
tp86
a(I1427
I5
F0.5
S'internal'
p87
I4
tp88
a(I1430
I7
F0.75
S'perfect'
p89
I4
tp90
a(I1587
I2
F0.5
S'powerful'
p91
I4
tp92
a(I1603
I0
I0
S'gb'
p93
I4
tp94
a(I1771
I0
F1.0
S'good'
p95
I4
tp96
a(I1919
I5
F1.0
S'good'
p97
I4
tp98
a(I1919
I5
F0.75
S'wonderful'
p99
I4
tp100
a(I1922
I0
F0.25
S'helpful'
p101
I4
tp102
a(I2019
I0
F-0.25
S'ram'
p103
I4
tp104
a(I20
I1
F0.875
g35
I9
tp105
a(I37
I3
I0
g37
I9
tp106
a(I97
I0
I0
g39
I9
tp107
a(I134
I38
F0.75
g41
I9
tp108
a(I134
I38
F-0.5
g43
I9
tp109
a(I146
I30
F-0.75
g45
I9
tp110
a(I187
I26
F0.75
g47
I9
tp111
a(I217
I2
F-0.75
g49
I9
tp112
a(I217
I2
F-0.75
g51
I9
tp113
a(I225
I5
I0
S'more'
p114
I9
tp115
a(I225
I5
F0.375
S'available'
p116
I9
tp117
a(I225
I5
I0
S'lags'
p118
I9
tp119
a(I268
I15
F-0.75
g53
I9
tp120
a(I331
I1
I0
g55
I9
tp121
a(I525
I1
F0.875
g57
I9
tp122
a(I602
I1
F0.875
g59
I9
tp123
a(I676
I49
F0.625
g61
I9
tp124
a(I781
I0
F-0.5
g63
I9
tp125
a(I842
I38
F-0.75
g65
I9
tp126
a(I927
I0
F-0.625
g67
I9
tp127
a(I927
I0
F0.125
g69
I9
tp128
a(I1005
I5
F-0.75
g71
I9
tp129
a(I1070
I0
I0
S'blah'
p130
I9
tp131
a(I1127
I13
F0.125
g73
I9
tp132
a(I1156
I3
F1.0
g75
I9
tp133
a(I1239
I1
F0.625
g77
I9
tp134
a(I1282
I0
F-0.25
g79
I9
tp135
a(I1327
I16
I0
g81
I9
tp136
a(I1352
I5
F0.5
g83
I9
tp137
a(I1356
I3
I0
g85
I9
tp138
a(I1427
I5
F0.5
g87
I9
tp139
a(I1430
I7
F0.75
g89
I9
tp140
a(I1525
I1
I0
S'more'
p141
I9
tp142
a(I1525
I1
F0.375
S'available'
p143
I9
tp144
a(I1587
I2
F0.5
g91
I9
tp145
a(I1603
I0
I0
g93
I9
tp146
a(I1771
I0
F1.0
g95
I9
tp147
a(I1919
I5
F1.0
g97
I9
tp148
a(I1919
I5
F0.75
g99
I9
tp149
a(I1922
I0
F0.25
g101
I9
tp150
a(I1992
I6
F0.125
S'enough'
p151
I9
tp152
a(I2019
I0
F-0.25
g103
I9
tp153
a(I1020
I18
F-0.75
S'free'
p154
I7
tp155
a(I1268
I9
F-0.75
S'free'
p156
I7
tp157
a(I1352
I5
F0.5
g83
I7
tp158
a(I1899
I14
F0.5
S'internal'
p159
I7
tp160
a(I1899
I14
F0.375
S'available'
p161
I7
tp162
a(I1919
I5
F1.0
g97
I7
tp163
a(I1919
I5
F0.75
g99
I7
tp164
a(I1981
I7
F-0.75
S'free'
p165
I7
tp166
a(I2019
I0
F-0.25
g103
I7
tp167
as(S'motorola'
p168
tp169
(lp170
(I67
I9
F0.625
S'first'
p171
I0
tp172
a(I134
I37
F0.75
S'grand'
p173
I0
tp174
a(I134
I39
F-0.625
S'new'
p175
I0
tp176
a(I433
I10
F-0.25
S'earlier'
p177
I0
tp178
a(I468
I2
F0.375
S'further'
p179
I0
tp180
a(I505
I2
F-0.125
S'such'
p181
I0
tp182
a(I505
I2
I0
S'iconic'
p183
I0
tp184
a(I664
I1
F-0.625
S'last'
p185
I0
tp186
a(I667
I50
F-0.625
S'new'
p187
I0
tp188
a(I668
I17
F0.5
S'second'
p189
I0
tp190
a(I676
I31
F-0.875
S'cheap'
p191
I0
tp192
a(I721
I3
F0.875
S'simple'
p193
I0
tp194
a(I844
I3
F-0.875
S'smart'
p195
I0
tp196
a(I903
I1
F-0.25
S'i'
p197
I0
tp198
a(I912
I1
I0
S'few'
p199
I0
tp200
a(I919
I1
I0
S't'
p201
I0
tp202
a(I932
I5
I0
S'nearest'
p203
I0
tp204
a(I961
I1
F1.0
S'good'
p205
I0
tp206
a(I961
I1
I0
S'additional'
p207
I0
tp208
a(I979
I12
F-0.625
S'surprising'
p209
I0
tp210
a(I1008
I7
F0.75
S'dear'
p211
I0
tp212
a(I1016
I22
F0.5
S'daily'
p213
I0
tp214
a(I1179
I10
I0
S'skeptical'
p215
I0
tp216
a(I1215
I2
F-0.125
S'such'
p217
I0
tp218
a(I1215
I2
I0
S'iconic'
p219
I0
tp220
a(I1621
I10
I0
S'more'
p221
I0
tp222
a(I1631
I1
F0.875
S'agree'
p223
I0
tp224
a(I1662
I4
F-0.875
S'dishonest'
p225
I0
tp226
a(I1677
I37
F-1.0
S'sorry'
p227
I0
tp228
a(I1697
I11
F-0.375
S'same'
p229
I0
tp230
a(I1711
I3
F0.375
S'famous'
p231
I0
tp232
a(I1711
I28
I0
S's'
p233
I0
tp234
a(I2078
I10
F0.875
S'happy'
p235
I0
tp236
a(I2110
I1
F1.0
S'best'
p237
I0
tp238
a(I2122
I2
F0.625
S'trust'
p239
I0
tp240
as(S'flipkart'
p241
S'customer'
p242
S'care'
p243
tp244
(lp245
(I18
I12
F-1.0
S'bad'
p246
I0
tp247
a(I667
I71
F-1.0
S'bad'
p248
I0
tp249
a(I667
I71
I0
S'cs'
p250
I0
tp251
a(I1709
I0
F-0.875
S'tough'
p252
I0
tp253
a(I18
I12
F-1.0
g246
I12
tp254
a(I184
I12
I0
S'cooperative'
p255
I12
tp256
a(I228
I5
I0
S'multiple'
p257
I12
tp258
a(I667
I71
F-1.0
g248
I12
tp259
a(I946
I2
F-1.0
S'worst'
p260
I12
tp261
a(I1022
I6
I0
S'local'
p262
I12
tp263
a(I1660
I10
F-0.625
S'other'
p264
I12
tp265
a(I1709
I0
F-0.875
g252
I12
tp266
as(S'in'
p267
S'moto'
p268
S'g'
p269
tp270
(lp271
(I12
I0
F-0.5
S'original'
p272
I0
tp273
a(I12
I3
F-0.5
S'original'
p274
I0
tp275
a(I33
I7
F-0.75
S'little'
p276
I0
tp277
a(I36
I20
F-0.5
S'heavier'
p278
I0
tp279
a(I36
I20
I0
S'bigger'
p280
I0
tp281
a(I36
I25
F-0.5
S'loud'
p282
I0
tp283
a(I39
I1
F0.75
S'dear'
p284
I0
tp285
a(I48
I0
I0
S'u'
p286
I0
tp287
a(I102
I0
I0
S'clear'
p288
I0
tp289
a(I116
I0
I0
S'identical'
p290
I0
tp291
a(I117
I1
F0.75
S'give'
p292
I0
tp293
a(I146
I15
F-0.375
S'same'
p294
I0
tp295
a(I161
I3
F-0.625
S'new'
p296
I0
tp297
a(I184
I21
F0.375
S'satisfied'
p298
I0
tp299
a(I184
I29
F-0.25
S'previous'
p300
I0
tp301
a(I195
I7
F-0.25
S'previous'
p302
I0
tp303
a(I228
I35
F0.875
S'worthy'
p304
I0
tp305
a(I295
I1
F0.5
S'compare'
p306
I0
tp307
a(I358
I19
I0
S'useful'
p308
I0
tp309
a(I387
I0
F-0.625
S'surprising'
p310
I0
tp311
a(I414
I3
F0.5
S'classic'
p312
I0
tp313
a(I463
I0
F-0.75
S'stupid'
p314
I0
tp315
a(I472
I2
F0.375
S'much'
p316
I0
tp317
a(I532
I5
F0.5
S'come'
p318
I0
tp319
a(I579
I1
F1.0
S'best'
p320
I0
tp321
a(I668
I18
F-0.625
S'last'
p322
I0
tp323
a(I668
I19
F-0.375
S'same'
p324
I0
tp325
a(I676
I15
F0.5
S'assist'
p326
I0
tp327
a(I688
I0
I0
S'third'
p328
I0
tp329
a(I690
I27
F-0.875
S'smart'
p330
I0
tp331
a(I695
I1
I0
S'many'
p332
I0
tp333
a(I724
I2
F-0.375
S'same'
p334
I0
tp335
a(I842
I17
F-0.875
S'smaller'
p336
I0
tp337
a(I871
I7
I0
S'g'
p338
I0
tp339
a(I944
I1
F0.125
S'mobile'
p340
I0
tp341
a(I990
I9
F-0.875
S'poor'
p342
I0
tp343
a(I990
I17
F1.0
S'good'
p344
I0
tp345
a(I990
I41
F-0.25
S'i'
p346
I0
tp347
a(I1008
I21
F0.125
S'mobile'
p348
I0
tp349
a(I1045
I0
I0
S'u'
p350
I0
tp351
a(I1056
I18
F-0.5
S'original'
p352
I0
tp353
a(I1070
I2
I0
S'u'
p354
I0
tp355
a(I1179
I36
F-0.125
S'next'
p356
I0
tp357
a(I1285
I13
F-0.375
S'same'
p358
I0
tp359
a(I1320
I11
I0
S'light'
p360
I0
tp361
a(I1320
I12
F0.75
S'easy'
p362
I0
tp363
a(I1320
I12
F0.75
S'complete'
p364
I0
tp365
a(I1409
I8
F1.0
S'best'
p366
I0
tp367
a(I1462
I0
F0.5
S'stable'
p368
I0
tp369
a(I1607
I2
F-0.375
S'same'
p370
I0
tp371
a(I1638
I0
F-0.625
S'new'
p372
I0
tp373
a(I1643
I0
F-0.875
S'false'
p374
I0
tp375
a(I1711
I2
F0.625
S'first'
p376
I0
tp377
a(I1748
I3
F1.0
S'better'
p378
I0
tp379
a(I1769
I1
F-0.625
S'other'
p380
I0
tp381
a(I1821
I2
F0.375
S'satisfied'
p382
I0
tp383
a(I1875
I4
I0
S'guys'
p384
I0
tp385
a(I1929
I20
F-0.5
S'original'
p386
I0
tp387
a(I1929
I20
F0.5
S'possible'
p388
I0
tp389
as(g269
S'1st'
p390
S'gen'
p391
tp392
(lp393
(I184
I21
F-0.625
S'last'
p394
I0
tp395
a(I786
I2
I0
S'clue'
p396
I0
tp397
a(I1352
I3
I0
S'more'
p398
I0
tp399
a(I1464
I20
F1.0
S'best'
p400
I0
tp401
as(S'and'
p402
S'moto'
p403
g269
tp404
(lp405
(I12
I3
F-0.5
g274
I0
tp406
a(I36
I20
F-0.5
g278
I0
tp407
a(I36
I20
I0
g280
I0
tp408
a(I36
I25
F-0.5
g282
I0
tp409
a(I36
I36
F0.25
S'use'
p410
I0
tp411
a(I48
I0
I0
g286
I0
tp412
a(I102
I0
I0
g288
I0
tp413
a(I116
I0
I0
g290
I0
tp414
a(I358
I19
I0
g308
I0
tp415
a(I406
I5
I0
S'g'
p416
I0
tp417
a(I407
I0
F-0.625
S'new'
p418
I0
tp419
a(I414
I3
F0.5
g312
I0
tp420
a(I579
I1
F1.0
g320
I0
tp421
a(I582
I0
F-0.625
S'new'
p422
I0
tp423
a(I676
I15
F0.5
g326
I0
tp424
a(I724
I2
F-0.375
g334
I0
tp425
a(I754
I8
F-0.625
S'other'
p426
I0
tp427
a(I871
I7
I0
g338
I0
tp428
a(I1008
I21
F0.125
g348
I0
tp429
a(I1035
I4
F0.625
S'first'
p430
I0
tp431
a(I1045
I0
I0
g350
I0
tp432
a(I1070
I2
I0
g354
I0
tp433
a(I1199
I11
F0.875
S'greater'
p434
I0
tp435
a(I1325
I5
F0.5
S'old'
p436
I0
tp437
a(I1462
I0
F0.5
g368
I0
tp438
a(I1710
I1
F0.625
S'first'
p439
I0
tp440
a(I1875
I4
I0
g384
I0
tp441
a(I1910
I1
F-0.375
S'same'
p442
I0
tp443
a(I1910
I1
I0
S'different'
p444
I0
tp445
a(I1929
I20
F-0.5
g386
I0
tp446
a(I1929
I20
F0.5
g388
I0
tp447
as(S'screen'
p448
S'on'
p449
S'time'
p450
tp451
(lp452
(I18
I3
F-0.5
S'long'
p453
I0
tp454
a(I36
I34
F-0.5
S'long'
p455
I0
tp456
a(I202
I4
F0.5
S'second'
p457
I0
tp458
a(I828
I3
F-0.5
S'long'
p459
I0
tp460
a(I884
I3
F-0.5
S'long'
p461
I0
tp462
a(I1019
I7
F0.875
S'decent'
p463
I0
tp464
a(I1298
I4
F0.5
S'touch'
p465
I0
tp466
as(S'mobile'
p467
S'data'
p468
tp469
(lp470
(I13
I19
F-0.625
S'other'
p471
I2
tp472
a(I13
I19
F0.125
S'mobile'
p473
I2
tp474
a(I13
I20
F0.125
S'mobile'
p475
I2
tp476
a(I36
I4
F0.125
S'mobile'
p477
I2
tp478
a(I137
I1
F0.125
S'mobile'
p479
I2
tp480
a(I218
I1
I0
S'quick'
p481
I2
tp482
a(I316
I1
F0.125
S'mobile'
p483
I2
tp484
a(I461
I1
F-0.375
S'disable'
p485
I2
tp486
a(I461
I1
F0.125
S'mobile'
p487
I2
tp488
a(I879
I24
F-0.625
S'other'
p489
I2
tp490
a(I879
I24
F0.125
S'mobile'
p491
I2
tp492
a(I879
I25
F0.125
S'mobile'
p493
I2
tp494
a(I1065
I4
F-0.375
S'disable'
p495
I2
tp496
a(I1065
I4
F0.125
S'mobile'
p497
I2
tp498
a(I1349
I0
F0.125
S'mobile'
p499
I2
tp500
a(I1769
I10
F0.125
S'mobile'
p501
I2
tp502
a(I1769
I10
F0.125
S'mobile'
p503
I2
tp504
a(I1773
I0
F0.125
S'mobile'
p505
I2
tp506
a(I13
I19
F-0.625
g471
I6
tp507
a(I13
I19
F0.125
g473
I6
tp508
a(I13
I20
F0.125
g475
I6
tp509
a(I36
I4
F0.125
g477
I6
tp510
a(I137
I1
F0.125
g479
I6
tp511
a(I266
I5
F0.75
S'easy'
p512
I6
tp513
a(I266
I5
F0.75
S'complete'
p514
I6
tp515
a(I292
I3
I0
S'ur'
p516
I6
tp517
a(I292
I4
I0
S'ur'
p518
I6
tp519
a(I316
I1
F0.125
g483
I6
tp520
a(I386
I7
I0
S'collected'
p521
I6
tp522
a(I413
I6
F-0.625
S'double'
p523
I6
tp524
a(I461
I1
F-0.375
g485
I6
tp525
a(I461
I1
F0.125
g487
I6
tp526
a(I879
I24
F-0.625
g489
I6
tp527
a(I879
I24
F0.125
g491
I6
tp528
a(I879
I25
F0.125
g493
I6
tp529
a(I1014
I9
F-0.5
S'long'
p530
I6
tp531
a(I1014
I9
F-0.875
S'worried'
p532
I6
tp533
a(I1065
I4
F-0.375
g495
I6
tp534
a(I1065
I4
F0.125
g497
I6
tp535
a(I1349
I0
F0.125
g499
I6
tp536
a(I1436
I7
F0.375
S'enable'
p537
I6
tp538
a(I1714
I0
F0.5
S'avail'
p539
I6
tp540
a(I1769
I10
F0.125
g501
I6
tp541
a(I1769
I10
F0.125
g503
I6
tp542
a(I1773
I0
F0.125
g505
I6
tp543
a(I1934
I2
I0
S'cellular'
p544
I6
tp545
as(S'no'
p546
S'led'
p547
S'notification'
p548
tp549
(lp550
(I1353
I14
I0
S'physical'
p551
I0
tp552
a(I1494
I1
F0.25
S'basic'
p553
I0
tp554
a(I1790
I4
F0.625
S'led'
p555
I0
tp556
as(S'of'
p557
S'moto'
p558
S'g3'
p559
tp560
(lp561
(I48
I0
I0
g286
I0
tp562
a(I116
I0
I0
g290
I0
tp563
a(I155
I0
F-0.25
S'i'
p564
I0
tp565
a(I754
I8
F-0.625
g426
I0
tp566
a(I990
I38
F-0.125
S'overall'
p567
I0
tp568
a(I1045
I0
I0
g350
I0
tp569
a(I1055
I0
F-0.75
S'black'
p570
I0
tp571
a(I1313
I13
F0.75
S'due'
p572
I0
tp573
a(I1875
I4
I0
g384
I0
tp574
as(S'modern'
p575
S'combat'
p576
tp577
(lp578
(I685
I0
F0.5
S'modern'
p579
I0
tp580
as(S'excellent'
p581
tp582
(lp583
(I1595
I0
I0
S'advertised'
p584
I4
tp585
a(I2109
I5
F1.0
S'good'
p586
I4
tp587
as(S'well'
p588
tp589
(lp590
(I228
I27
F-0.625
S'new'
p591
I9
tp592
a(I1389
I0
F-0.125
S'overall'
p593
I9
tp594
a(I1564
I1
F-0.625
S'new'
p595
I9
tp596
as(S'watch'
p597
S'movies'
p598
tp599
(lp600
(I146
I18
F1.0
S'better'
p601
I0
tp602
as(S'to'
p603
S'moto'
p604
S'g2'
p605
tp606
(lp607
(I102
I0
I0
g288
I0
tp608
a(I146
I15
F-0.375
g294
I0
tp609
a(I228
I35
F0.875
g304
I0
tp610
a(I724
I2
F-0.375
g334
I0
tp611
a(I728
I2
F-0.75
S'free'
p612
I0
tp613
a(I990
I41
F-0.25
g346
I0
tp614
a(I1013
I1
F0.375
S'much'
p615
I0
tp616
a(I1103
I0
F-0.375
S'same'
p617
I0
tp618
a(I1199
I11
F0.875
g434
I0
tp619
a(I1325
I5
F0.5
g436
I0
tp620
a(I1607
I2
F-0.375
g370
I0
tp621
a(I1875
I4
I0
g384
I0
tp622
a(I1877
I7
F0.375
S'impressive'
p623
I0
tp624
a(I102
I0
I0
g288
I0
tp625
a(I146
I15
F-0.375
g294
I0
tp626
a(I228
I35
F0.875
g304
I0
tp627
a(I724
I2
F-0.375
g334
I0
tp628
a(I728
I2
F-0.75
g612
I0
tp629
a(I990
I41
F-0.25
g346
I0
tp630
a(I1013
I1
F0.375
g615
I0
tp631
a(I1103
I0
F-0.375
g617
I0
tp632
a(I1199
I11
F0.875
g434
I0
tp633
a(I1325
I5
F0.5
g436
I0
tp634
a(I1607
I2
F-0.375
g370
I0
tp635
a(I1875
I4
I0
g384
I0
tp636
a(I1877
I7
F0.375
g623
I0
tp637
as(S'good'
p638
S'in'
p639
S'hand'
p640
tp641
(lp642
(I13
I5
F1.0
S'good'
p643
I0
tp644
a(I425
I10
F1.0
S'good'
p645
I0
tp646
a(I803
I0
F-0.75
S'little'
p647
I0
tp648
a(I803
I0
I0
S'bigger'
p649
I0
tp650
a(I803
I0
F1.0
S'good'
p651
I0
tp652
a(I879
I10
F1.0
S'good'
p653
I0
tp654
as(S'pure'
p655
S'android'
p656
S'experience'
p657
tp658
(lp659
(I112
I1
F-0.75
S'pure'
p660
I0
tp661
a(I112
I1
I0
S'android'
p662
I0
tp663
a(I193
I1
I0
S'many'
p664
I0
tp665
a(I193
I1
F-0.75
S'pure'
p666
I0
tp667
a(I193
I1
I0
S'android'
p668
I0
tp669
a(I217
I1
F-0.75
S'pure'
p670
I0
tp671
a(I217
I1
I0
S'android'
p672
I0
tp673
a(I561
I0
F-0.75
S'pure'
p674
I0
tp675
a(I561
I0
I0
S'android'
p676
I0
tp677
a(I807
I10
F-0.75
S'pure'
p678
I0
tp679
a(I807
I10
F-0.375
S'same'
p680
I0
tp681
a(I1070
I0
F-0.75
S'pure'
p682
I0
tp683
a(I1070
I0
I0
S'android'
p684
I0
tp685
a(I1126
I11
F-0.75
S'pure'
p686
I0
tp687
a(I1126
I11
I0
S'android'
p688
I0
tp689
a(I1313
I13
I0
S'android'
p690
I0
tp691
a(I1327
I11
F-0.75
S'pure'
p692
I0
tp693
a(I1472
I0
F-0.75
S'pure'
p694
I0
tp695
a(I1807
I1
F-0.625
S'fast'
p696
I0
tp697
a(I2030
I3
F-0.75
S'pure'
p698
I0
tp699
a(I2030
I3
I0
S'android'
p700
I0
tp701
a(I134
I15
F0.875
S'great'
p702
I0
tp703
a(I690
I10
F-0.75
S'pure'
p704
I0
tp705
a(I807
I10
F-0.75
g678
I0
tp706
a(I1313
I13
I0
g690
I0
tp707
a(I1327
I11
F-0.75
g692
I0
tp708
a(I1434
I1
F-0.75
S'pure'
p709
I0
tp710
a(I1472
I0
F-0.75
g694
I0
tp711
a(I1712
I1
F0.875
S'happy'
p712
I0
tp713
a(I1807
I1
F-0.625
g696
I0
tp714
a(I2157
I7
I0
S'android'
p715
I0
tp716
as(S'2470'
p717
S'mah'
p718
S'battery'
p719
tp720
(lp721
(I33
I10
I0
S'more'
p722
I0
tp723
a(I600
I5
F1.0
S'good'
p724
I0
tp725
a(I751
I0
I0
S'more'
p726
I0
tp727
a(I1753
I0
F1.0
S'good'
p728
I0
tp729
as(S'happy'
p730
S'with'
p731
S'product'
p732
tp733
(lp734
(I166
I3
F0.875
S'happy'
p735
I0
tp736
a(I885
I32
F0.875
S'happy'
p737
I0
tp738
a(I889
I9
F-0.875
S'unhappy'
p739
I0
tp740
a(I906
I17
F0.875
S'happy'
p741
I0
tp742
a(I1105
I5
F0.875
S'happy'
p743
I0
tp744
a(I1992
I10
F0.875
S'happy'
p745
I0
tp746
as(S'5'
p747
g747
S'battery'
p748
tp749
(lp750
(I118
I0
I0
S'more'
p751
I0
tp752
a(I187
I7
F0.875
S'decent'
p753
I0
tp754
a(I415
I11
F-0.375
S'same'
p755
I0
tp756
a(I552
I0
F1.0
S'good'
p757
I0
tp758
a(I1069
I1
F0.75
S'perfect'
p759
I0
tp760
a(I1154
I1
F-0.625
S'lasting'
p761
I0
tp762
a(I1370
I3
F0.875
S'decent'
p763
I0
tp764
a(I1459
I15
F0.625
S'replaceable'
p765
I0
tp766
a(I1511
I0
I0
S'bigger'
p767
I0
tp768
a(I1585
I2
F-0.25
S'i'
p769
I0
tp770
a(I1677
I55
F1.0
S'good'
p771
I0
tp772
a(I1752
I0
F1.0
S'good'
p773
I0
tp774
as(S'performance'
p775
tp776
(lp777
(I10
I1
F-0.375
S'flawless'
p778
I13
tp779
a(I10
I1
F-0.875
S'low'
p780
I13
tp781
a(I14
I2
F0.625
S'smooth'
p782
I13
tp783
a(I33
I1
F-0.625
S'fast'
p784
I13
tp785
a(I33
I1
F0.375
S'zippy'
p786
I13
tp787
a(I150
I1
F1.0
S'good'
p788
I13
tp789
a(I170
I7
F0.5
S'reasonable'
p790
I13
tp791
a(I170
I12
F0.875
S'decent'
p792
I13
tp793
a(I173
I2
I0
S'build'
p794
I13
tp795
a(I187
I24
F0.875
S'nice'
p796
I13
tp797
a(I196
I11
F0.5
S'touch'
p798
I13
tp799
a(I255
I1
F-0.125
S'overall'
p800
I13
tp801
a(I292
I1
F-0.5
S'heavy'
p802
I13
tp803
a(I305
I2
F-0.25
S'latest'
p804
I13
tp805
a(I320
I13
F1.0
S'better'
p806
I13
tp807
a(I441
I1
F0.875
S'great'
p808
I13
tp809
a(I495
I6
F1.0
S'good'
p810
I13
tp811
a(I547
I19
F-0.5
S'snappy'
p812
I13
tp813
a(I547
I20
F1.0
S'good'
p814
I13
tp815
a(I568
I2
F0.375
S'satisfied'
p816
I13
tp817
a(I577
I1
F0.5
S'high'
p818
I13
tp819
a(I596
I0
F-0.5
S'snappy'
p820
I13
tp821
a(I765
I4
F-0.75
S'free'
p822
I13
tp823
a(I765
I4
I0
S'butter'
p824
I13
tp825
a(I765
I4
F0.625
S'smooth'
p826
I13
tp827
a(I832
I4
F1.0
S'better'
p828
I13
tp829
a(I842
I4
F1.0
S'good'
p830
I13
tp831
a(I863
I1
F1.0
S'good'
p832
I13
tp833
a(I880
I2
F0.625
S'smooth'
p834
I13
tp835
a(I912
I3
F1.0
S'good'
p836
I13
tp837
a(I967
I1
F1.0
S'better'
p838
I13
tp839
a(I970
I9
F0.125
S'mobile'
p840
I13
tp841
a(I970
I9
F1.0
S'good'
p842
I13
tp843
a(I1017
I0
F0.75
S'due'
p844
I13
tp845
a(I1019
I8
I0
S'u'
p846
I13
tp847
a(I1071
I0
F0.875
S'happy'
p848
I13
tp849
a(I1081
I0
F1.0
S'good'
p850
I13
tp851
a(I1081
I0
F-0.625
S'new'
p852
I13
tp853
a(I1099
I3
F1.0
S'good'
p854
I13
tp855
a(I1106
I0
F1.0
S'good'
p856
I13
tp857
a(I1124
I8
F1.0
S'good'
p858
I13
tp859
a(I1172
I1
F-0.625
S'fast'
p860
I13
tp861
a(I1179
I17
I0
S'specs'
p862
I13
tp863
a(I1179
I17
F-0.875
S'poor'
p864
I13
tp865
a(I1198
I2
F0.875
S'great'
p866
I13
tp867
a(I1232
I2
F-0.625
S'absent'
p868
I13
tp869
a(I1235
I10
F-0.125
S'such'
p870
I13
tp871
a(I1249
I1
F-0.125
S'overall'
p872
I13
tp873
a(I1270
I13
F0.375
S'much'
p874
I13
tp875
a(I1284
I23
F0.25
S'read'
p876
I13
tp877
a(I1284
I23
I0
S'write'
p878
I13
tp879
a(I1285
I7
F-0.875
S'low'
p880
I13
tp881
a(I1285
I7
I0
S'light'
p882
I13
tp883
a(I1353
I1
F1.0
S'excellent'
p884
I13
tp885
a(I1355
I0
F-0.125
S'ultimate'
p886
I13
tp887
a(I1430
I15
F-0.125
S'overall'
p888
I13
tp889
a(I1485
I1
F-0.375
S'flawless'
p890
I13
tp891
a(I1485
I1
F-0.875
S'low'
p892
I13
tp893
a(I1538
I1
F1.0
S'good'
p894
I13
tp895
a(I1549
I2
I0
S'more'
p896
I13
tp897
a(I1567
I1
F1.0
S'good'
p898
I13
tp899
a(I1589
I1
F1.0
S'good'
p900
I13
tp901
a(I1613
I14
F-0.5
S'slow'
p902
I13
tp903
a(I1650
I6
F1.0
S'good'
p904
I13
tp905
a(I1689
I0
F1.0
S'better'
p906
I13
tp907
a(I1863
I0
F0.5
S'optimal'
p908
I13
tp909
a(I1874
I1
F1.0
S'good'
p910
I13
tp911
a(I1900
I4
F-1.0
S'bad'
p912
I13
tp913
a(I1966
I3
F-0.75
S'bogus'
p914
I13
tp915
a(I1969
I4
F1.0
S'best'
p916
I13
tp917
a(I1981
I7
I0
S'normal'
p918
I13
tp919
a(I1987
I10
F1.0
S'good'
p920
I13
tp921
a(I1992
I2
F1.0
S'good'
p922
I13
tp923
a(I1992
I3
F1.0
S'good'
p924
I13
tp925
a(I1992
I3
F-0.75
S'free'
p926
I13
tp927
a(I1996
I12
I0
S'standard'
p928
I13
tp929
a(I2010
I13
F1.0
S'excellent'
p930
I13
tp931
a(I2019
I0
F1.0
S'good'
p932
I13
tp933
a(I2031
I7
F1.0
S'better'
p934
I13
tp935
a(I2037
I1
F1.0
S'good'
p936
I13
tp937
a(I2087
I7
F1.0
S'good'
p938
I13
tp939
a(I2093
I1
F1.0
S'better'
p940
I13
tp941
a(I2093
I1
F0.875
S'awesome'
p942
I13
tp943
a(I2114
I0
F0.5
S'stable'
p944
I13
tp945
a(I2153
I5
F1.0
S'good'
p946
I13
tp947
as(S'times'
p948
tp949
(lp950
(I151
I5
F0.625
S'certain'
p951
I11
tp952
a(I153
I1
F-0.25
S'i'
p953
I11
tp954
a(I153
I1
F-0.25
S'i'
p955
I11
tp956
a(I159
I4
F-0.5
S'several'
p957
I11
tp958
a(I476
I2
I0
S'most'
p959
I11
tp960
a(I637
I1
I0
S'multiple'
p961
I11
tp962
a(I639
I2
I0
S'multiple'
p963
I11
tp964
a(I667
I59
I0
S'many'
p965
I11
tp966
a(I675
I2
F-0.5
S'several'
p967
I11
tp968
a(I675
I4
F-0.5
S'several'
p969
I11
tp970
a(I756
I1
I0
S'most'
p971
I11
tp972
a(I931
I6
F-0.25
S'i'
p973
I11
tp974
a(I1087
I0
I0
S'useful'
p975
I11
tp976
a(I1135
I5
I0
S'own'
p977
I11
tp978
a(I1320
I14
F-0.625
S'other'
p979
I11
tp980
a(I1322
I1
F0.125
S'electrical'
p981
I11
tp982
a(I1368
I3
F0.625
S'fine'
p983
I11
tp984
a(I1653
I5
I0
S'few'
p985
I11
tp986
a(I1680
I10
F-0.5
S'several'
p987
I11
tp988
a(I1732
I1
F0.5
S'daily'
p989
I11
tp990
a(I1747
I3
F-0.25
S'i'
p991
I11
tp992
a(I1969
I1
I0
S'many'
p993
I11
tp994
a(I2024
I0
F0.875
S'nice'
p995
I11
tp996
as(S'no'
p997
S'heating'
p998
S'issue'
p999
tp1000
(lp1001
(I268
I42
F0.375
S'heating'
p1002
I0
tp1003
a(I284
I3
F0.375
S'heating'
p1004
I0
tp1005
a(I1020
I37
F0.375
S'heating'
p1006
I0
tp1007
a(I1236
I7
F0.375
S'heating'
p1008
I0
tp1009
a(I1284
I6
F0.375
S'heating'
p1010
I0
tp1011
a(I1429
I0
F-0.75
S'abnormal'
p1012
I0
tp1013
a(I1429
I0
F0.75
S'due'
p1014
I0
tp1015
a(I1640
I12
F0.375
S'heating'
p1016
I0
tp1017
a(I1670
I7
I0
S'lags'
p1018
I0
tp1019
a(I1961
I2
F1.0
S'good'
p1020
I0
tp1021
a(I1964
I5
F0.375
S'heating'
p1022
I0
tp1023
a(I146
I2
F-0.5
S'disappointed'
p1024
I2
tp1025
a(I266
I22
F0.375
S'heating'
p1026
I2
tp1027
a(I266
I22
F0.375
S'much'
p1028
I2
tp1029
a(I266
I25
F0.375
S'heating'
p1030
I2
tp1031
a(I268
I42
F0.375
g1002
I2
tp1032
a(I284
I3
F0.375
g1004
I2
tp1033
a(I395
I1
F-0.5
S'disappointed'
p1034
I2
tp1035
a(I490
I0
F1.0
S'good'
p1036
I2
tp1037
a(I879
I5
F0.375
S'heating'
p1038
I2
tp1039
a(I997
I7
F-0.75
S'warm'
p1040
I2
tp1041
a(I1020
I37
F0.375
g1006
I2
tp1042
a(I1236
I7
F0.375
g1008
I2
tp1043
a(I1284
I6
F0.375
g1010
I2
tp1044
a(I1429
I0
F-0.75
g1012
I2
tp1045
a(I1429
I0
F0.75
g1014
I2
tp1046
a(I1640
I12
F0.375
g1016
I2
tp1047
a(I1668
I2
F0.375
S'heating'
p1048
I2
tp1049
a(I1670
I7
I0
g1018
I2
tp1050
a(I1916
I1
I0
S'internet'
p1051
I2
tp1052
a(I1921
I3
I0
S's'
p1053
I2
tp1054
a(I1961
I2
F1.0
g1020
I2
tp1055
a(I1964
I5
F0.375
g1022
I2
tp1056
as(S'slow'
p1057
S'motion'
p1058
S'video'
p1059
tp1060
(lp1061
(I30
I0
F-0.5
S'slow'
p1062
I0
tp1063
a(I82
I0
F-0.5
S'slow'
p1064
I0
tp1065
a(I82
I0
F0.875
S'awesome'
p1066
I0
tp1067
a(I612
I0
F-0.5
S'slow'
p1068
I0
tp1069
a(I1295
I1
F-0.5
S'slow'
p1070
I0
tp1071
as(S'ipx7'
p1072
S'water'
p1073
S'resistance'
p1074
tp1075
(lp1076
(I879
I2
F-0.625
S'last'
p1077
I0
tp1078
a(I879
I2
F0.875
S'important'
p1079
I0
tp1080
a(I149
I0
I0
S'water'
p1081
I0
tp1082
a(I251
I9
F0.5
S'vulnerable'
p1083
I0
tp1084
a(I821
I23
I0
S'water'
p1085
I0
tp1086
a(I879
I2
F-0.625
g1077
I0
tp1087
a(I879
I2
F0.875
g1079
I0
tp1088
a(I889
I0
I0
S'water'
p1089
I0
tp1090
a(I1176
I2
F0.375
S'pressured'
p1091
I0
tp1092
a(I1298
I1
F1.0
S'good'
p1093
I0
tp1094
a(I1298
I1
F-0.625
S'resistant'
p1095
I0
tp1096
a(I1352
I1
F0.875
S'important'
p1097
I0
tp1098
a(I1588
I0
I0
S'water'
p1099
I0
tp1100
a(I134
I8
F-0.625
S'resistant'
p1101
I1
tp1102
a(I142
I1
F-0.625
S'resistant'
p1103
I1
tp1104
a(I184
I8
I0
S'ft'
p1105
I1
tp1106
a(I228
I32
F0.75
S'due'
p1107
I1
tp1108
a(I251
I9
F0.5
g1083
I1
tp1109
a(I297
I2
F0.25
S'tap'
p1110
I1
tp1111
a(I532
I4
F-0.625
S'resistant'
p1112
I1
tp1113
a(I663
I1
F-0.625
S'resistant'
p1114
I1
tp1115
a(I666
I18
F-0.625
S'resistant'
p1116
I1
tp1117
a(I676
I44
F-0.625
S'new'
p1118
I1
tp1119
a(I676
I44
F-0.625
S'resistant'
p1120
I1
tp1121
a(I683
I0
F-0.75
S'fresh'
p1122
I1
tp1123
a(I756
I0
F-0.625
S'waterproof'
p1124
I1
tp1125
a(I814
I7
I0
S'many'
p1126
I1
tp1127
a(I814
I7
I0
S'more'
p1128
I1
tp1129
a(I814
I7
F-0.625
S'resistant'
p1130
I1
tp1131
a(I843
I4
F-0.625
S'resistant'
p1132
I1
tp1133
a(I879
I2
F-0.625
g1077
I1
tp1134
a(I879
I2
F0.875
g1079
I1
tp1135
a(I948
I3
F-0.625
S'resistant'
p1136
I1
tp1137
a(I1005
I22
F0.375
S'full'
p1138
I1
tp1139
a(I1176
I2
F0.375
g1091
I1
tp1140
a(I1281
I0
F-0.625
S'resistant'
p1141
I1
tp1142
a(I1298
I1
F1.0
g1093
I1
tp1143
a(I1298
I1
F-0.625
g1095
I1
tp1144
a(I1299
I5
F-0.625
S'resistant'
p1145
I1
tp1146
a(I1352
I1
F0.875
g1097
I1
tp1147
a(I1353
I10
F-0.625
S'resistant'
p1148
I1
tp1149
a(I1441
I3
F-0.625
S'resistant'
p1150
I1
tp1151
a(I1547
I2
I0
S'sure'
p1152
I1
tp1153
a(I1547
I2
F-0.125
S'accidental'
p1154
I1
tp1155
a(I1613
I16
I0
S's'
p1156
I1
tp1157
a(I1677
I54
F-0.625
S'resistant'
p1158
I1
tp1159
a(I1684
I17
F1.0
S'better'
p1160
I1
tp1161
a(I1684
I17
F-0.625
S'fast'
p1162
I1
tp1163
a(I1795
I0
F1.0
S'best'
p1164
I1
tp1165
a(I1795
I0
F-0.625
S'resistant'
p1166
I1
tp1167
a(I1892
I3
F0.75
S'due'
p1168
I1
tp1169
a(I1899
I24
F-0.625
S'resistant'
p1170
I1
tp1171
a(I1994
I13
F-0.625
S'resistant'
p1172
I1
tp1173
a(I2150
I6
F-0.625
S'resistant'
p1174
I1
tp1175
as(S'in'
p1176
S'low'
p1177
S'light'
p1178
tp1179
(lp1180
(I59
I2
F-0.875
S'low'
p1181
I2
tp1182
a(I59
I2
F1.0
S'good'
p1183
I2
tp1184
a(I96
I0
F-0.875
S'low'
p1185
I2
tp1186
a(I202
I2
F-0.875
S'low'
p1187
I2
tp1188
a(I206
I2
F-0.875
S'low'
p1189
I2
tp1190
a(I236
I1
F-0.875
S'low'
p1191
I2
tp1192
a(I354
I0
F-0.875
S'low'
p1193
I2
tp1194
a(I358
I7
F-0.875
S'low'
p1195
I2
tp1196
a(I358
I7
F0.875
S'great'
p1197
I2
tp1198
a(I476
I10
F-0.875
S'low'
p1199
I2
tp1200
a(I476
I10
F-0.875
S'poor'
p1201
I2
tp1202
a(I819
I7
F-0.875
S'low'
p1203
I2
tp1204
a(I822
I2
F-0.875
S'low'
p1205
I2
tp1206
a(I822
I2
F1.0
S'good'
p1207
I2
tp1208
a(I832
I9
F-0.875
S'low'
p1209
I2
tp1210
a(I844
I6
F-0.625
S'natural'
p1211
I2
tp1212
a(I844
I6
F-0.75
S'artificial'
p1213
I2
tp1214
a(I898
I1
F-0.875
S'low'
p1215
I2
tp1216
a(I898
I1
F-1.0
S'bad'
p1217
I2
tp1218
a(I931
I21
F-0.875
S'low'
p1219
I2
tp1220
a(I1179
I32
F-0.875
S'low'
p1221
I2
tp1222
a(I1179
I32
F0.375
S'much'
p1223
I2
tp1224
a(I1242
I0
F-0.875
S'low'
p1225
I2
tp1226
a(I1330
I3
F-0.875
S'low'
p1227
I2
tp1228
a(I1348
I1
F-0.875
S'low'
p1229
I2
tp1230
a(I1374
I3
F-0.875
S'low'
p1231
I2
tp1232
a(I1386
I0
F-0.875
S'low'
p1233
I2
tp1234
a(I1666
I3
F-0.875
S'low'
p1235
I2
tp1236
a(I59
I2
F-0.875
g1181
I2
tp1237
a(I59
I2
F1.0
g1183
I2
tp1238
a(I75
I1
F-0.875
S'low'
p1239
I2
tp1240
a(I96
I0
F-0.875
g1185
I2
tp1241
a(I111
I1
F-0.875
S'low'
p1242
I2
tp1243
a(I202
I2
F-0.875
g1187
I2
tp1244
a(I206
I2
F-0.875
g1189
I2
tp1245
a(I236
I1
F-0.875
g1191
I2
tp1246
a(I354
I0
F-0.875
g1193
I2
tp1247
a(I358
I7
F-0.875
g1195
I2
tp1248
a(I358
I7
F0.875
g1197
I2
tp1249
a(I447
I0
F-0.875
S'low'
p1250
I2
tp1251
a(I476
I10
F-0.875
g1199
I2
tp1252
a(I476
I10
F-0.875
g1201
I2
tp1253
a(I819
I7
F-0.875
g1203
I2
tp1254
a(I822
I2
F-0.875
g1205
I2
tp1255
a(I822
I2
F1.0
g1207
I2
tp1256
a(I832
I9
F-0.875
g1209
I2
tp1257
a(I844
I6
F-0.625
g1211
I2
tp1258
a(I844
I6
F-0.75
g1213
I2
tp1259
a(I898
I1
F-0.875
g1215
I2
tp1260
a(I898
I1
F-1.0
g1217
I2
tp1261
a(I931
I21
F-0.875
g1219
I2
tp1262
a(I1023
I1
F1.0
S'good'
p1263
I2
tp1264
a(I1023
I1
F-0.875
S'low'
p1265
I2
tp1266
a(I1179
I32
F-0.875
g1221
I2
tp1267
a(I1179
I32
F0.375
g1223
I2
tp1268
a(I1242
I0
F-0.875
g1225
I2
tp1269
a(I1330
I3
F-0.875
g1227
I2
tp1270
a(I1348
I1
F-0.875
g1229
I2
tp1271
a(I1358
I0
F-1.0
S'worst'
p1272
I2
tp1273
a(I1374
I3
F-0.875
g1231
I2
tp1274
a(I1386
I0
F-0.875
g1233
I2
tp1275
a(I1666
I3
F-0.875
g1235
I2
tp1276
a(I1997
I7
F-0.875
S'low'
p1277
I2
tp1278
as(S'1'
p1279
g1279
S'lollipop'
p1280
tp1281
(lp1282
(I1139
I3
I0
S'most'
p1283
I0
tp1284
as(S'good'
p1285
S'build'
p1286
S'quality'
p1287
tp1288
(lp1289
(I70
I0
F1.0
S'good'
p1290
I0
tp1291
a(I85
I2
F0.875
S'awesome'
p1292
I0
tp1293
a(I187
I5
F0.875
S'nice'
p1294
I0
tp1295
a(I196
I2
F1.0
S'good'
p1296
I0
tp1297
a(I389
I0
F1.0
S'good'
p1298
I0
tp1299
a(I389
I0
F0.5
S'stable'
p1300
I0
tp1301
a(I438
I2
I0
S'build'
p1302
I0
tp1303
a(I438
I2
F1.0
S'good'
p1304
I0
tp1305
a(I438
I2
I0
S'u'
p1306
I0
tp1307
a(I767
I1
F1.0
S'good'
p1308
I0
tp1309
a(I807
I4
F1.0
S'good'
p1310
I0
tp1311
a(I807
I4
F0.625
S'fine'
p1312
I0
tp1313
a(I1032
I18
F1.0
S'good'
p1314
I0
tp1315
a(I1216
I5
F1.0
S'good'
p1316
I0
tp1317
a(I1267
I7
F1.0
S'good'
p1318
I0
tp1319
a(I1305
I1
F1.0
S'good'
p1320
I0
tp1321
a(I1370
I1
F0.875
S'nice'
p1322
I0
tp1323
a(I1409
I3
F1.0
S'good'
p1324
I0
tp1325
a(I1465
I0
F-0.625
S'lasting'
p1326
I0
tp1327
a(I1465
I0
F1.0
S'good'
p1328
I0
tp1329
a(I1465
I0
F-0.875
S'hard'
p1330
I0
tp1331
a(I1670
I7
F1.0
S'good'
p1332
I0
tp1333
a(I1806
I1
F1.0
S'good'
p1334
I0
tp1335
a(I1837
I0
F1.0
S'good'
p1336
I0
tp1337
a(I2055
I0
F1.0
S'good'
p1338
I0
tp1339
a(I2065
I4
F-0.875
S'low'
p1340
I0
tp1341
a(I2065
I4
F-0.125
S'overall'
p1342
I0
tp1343
a(I2065
I4
I0
S'impressed'
p1344
I0
tp1345
a(I2146
I1
F1.0
S'good'
p1346
I0
tp1347
a(I2146
I1
F0.875
S'great'
p1348
I0
tp1349
a(I2150
I1
F1.0
S'good'
p1350
I0
tp1351
a(I2150
I1
F1.0
S'good'
p1352
I0
tp1353
a(I36
I19
I0
S'build'
p1354
I2
tp1355
a(I70
I0
F1.0
g1290
I2
tp1356
a(I85
I2
F0.875
g1292
I2
tp1357
a(I108
I0
I0
S'build'
p1358
I2
tp1359
a(I165
I5
I0
S'build'
p1360
I2
tp1361
a(I165
I19
I0
S'build'
p1362
I2
tp1363
a(I170
I7
I0
S'build'
p1364
I2
tp1365
a(I186
I3
I0
S'build'
p1366
I2
tp1367
a(I187
I5
F0.875
g1294
I2
tp1368
a(I196
I2
F1.0
g1296
I2
tp1369
a(I389
I0
F1.0
g1298
I2
tp1370
a(I389
I0
F0.5
g1300
I2
tp1371
a(I410
I1
I0
S'build'
p1372
I2
tp1373
a(I438
I2
I0
g1302
I2
tp1374
a(I438
I2
F1.0
g1304
I2
tp1375
a(I438
I2
I0
g1306
I2
tp1376
a(I502
I5
I0
S'build'
p1377
I2
tp1378
a(I505
I10
F0.875
S'solid'
p1379
I2
tp1380
a(I639
I0
F0.5
S'elegant'
p1381
I2
tp1382
a(I676
I26
I0
S'build'
p1383
I2
tp1384
a(I767
I1
F1.0
g1308
I2
tp1385
a(I807
I4
F1.0
g1310
I2
tp1386
a(I807
I4
F0.625
g1312
I2
tp1387
a(I889
I17
I0
S'build'
p1388
I2
tp1389
a(I931
I10
F0.75
S'premium'
p1390
I2
tp1391
a(I1032
I18
F1.0
g1314
I2
tp1392
a(I1164
I0
F0.75
S'fantastic'
p1393
I2
tp1394
a(I1212
I11
I0
S'build'
p1395
I2
tp1396
a(I1216
I5
F1.0
g1316
I2
tp1397
a(I1267
I1
F0.375
S'impressive'
p1398
I2
tp1399
a(I1267
I7
F1.0
g1318
I2
tp1400
a(I1270
I9
F0.5
S'sturdy'
p1401
I2
tp1402
a(I1305
I1
F1.0
g1320
I2
tp1403
a(I1352
I1
I0
S'build'
p1404
I2
tp1405
a(I1353
I8
F0.875
S'great'
p1406
I2
tp1407
a(I1353
I8
I0
S'build'
p1408
I2
tp1409
a(I1370
I1
F0.875
g1322
I2
tp1410
a(I1407
I3
I0
S'normal'
p1411
I2
tp1412
a(I1409
I3
F1.0
g1324
I2
tp1413
a(I1465
I0
F-0.625
g1326
I2
tp1414
a(I1465
I0
F1.0
g1328
I2
tp1415
a(I1465
I0
F-0.875
g1330
I2
tp1416
a(I1523
I1
F1.0
S'excellent'
p1417
I2
tp1418
a(I1600
I1
F0.625
S'superior'
p1419
I2
tp1420
a(I1670
I7
F1.0
g1332
I2
tp1421
a(I1722
I12
I0
S'build'
p1422
I2
tp1423
a(I1806
I1
F1.0
g1334
I2
tp1424
a(I1837
I0
F1.0
g1336
I2
tp1425
a(I1899
I21
I0
S'build'
p1426
I2
tp1427
a(I1921
I8
F0.875
S'awesome'
p1428
I2
tp1429
a(I1965
I1
F-0.875
S'strong'
p1430
I2
tp1431
a(I2055
I0
F1.0
g1338
I2
tp1432
a(I2065
I4
F-0.875
g1340
I2
tp1433
a(I2065
I4
F-0.125
g1342
I2
tp1434
a(I2065
I4
I0
g1344
I2
tp1435
a(I2146
I1
F1.0
g1346
I2
tp1436
a(I2146
I1
F0.875
g1348
I2
tp1437
a(I2150
I1
F1.0
g1350
I2
tp1438
a(I2150
I1
F1.0
g1352
I2
tp1439
a(I196
I2
F1.0
g1296
I2
tp1440
a(I389
I0
F1.0
g1298
I2
tp1441
a(I505
I10
F0.875
g1379
I2
tp1442
a(I807
I4
F1.0
g1310
I2
tp1443
a(I1032
I18
F1.0
g1314
I2
tp1444
a(I1252
I0
F0.375
S'classy'
p1445
I2
tp1446
a(I1267
I7
F1.0
g1318
I2
tp1447
a(I1270
I9
F0.5
g1401
I2
tp1448
a(I1305
I1
F1.0
g1320
I2
tp1449
a(I1465
I0
F-0.625
g1326
I2
tp1450
a(I1523
I1
F1.0
g1417
I2
tp1451
a(I1600
I1
F0.625
g1419
I2
tp1452
a(I1670
I7
F1.0
g1332
I2
tp1453
a(I1837
I0
F1.0
g1336
I2
tp1454
a(I1921
I8
F0.875
g1428
I2
tp1455
a(I2055
I0
F1.0
g1338
I2
tp1456
a(I2124
I7
F1.0
S'good'
p1457
I2
tp1458
a(I2137
I0
F1.0
S'good'
p1459
I2
tp1460
a(I2146
I1
F1.0
g1346
I2
tp1461
a(I2150
I1
F1.0
g1352
I2
tp1462
as(S'matte'
p1463
S'finish'
p1464
tp1465
(lp1466
(I321
I1
F0.875
S'great'
p1467
I0
tp1468
a(I321
I1
F0.625
S'finish'
p1469
I0
tp1470
as(S'in'
p1471
S'moto'
p1472
S'g3'
p1473
tp1474
(lp1475
(I48
I0
I0
g286
I0
tp1476
a(I116
I0
I0
g290
I0
tp1477
a(I117
I1
F0.75
g292
I0
tp1478
a(I161
I3
F-0.625
g296
I0
tp1479
a(I295
I1
F0.5
g306
I0
tp1480
a(I389
I6
I0
S'butter'
p1481
I0
tp1482
a(I523
I1
F-0.75
S'free'
p1483
I0
tp1484
a(I532
I5
F0.5
g318
I0
tp1485
a(I814
I1
F-0.25
S'past'
p1486
I0
tp1487
a(I832
I8
I0
S'cool'
p1488
I0
tp1489
a(I977
I1
F0.75
S'perfect'
p1490
I0
tp1491
a(I1045
I0
I0
g350
I0
tp1492
a(I1056
I18
F-0.5
g352
I0
tp1493
a(I1348
I0
F0.75
S'outstanding'
p1494
I0
tp1495
a(I1821
I2
F0.375
g382
I0
tp1496
a(I1875
I4
I0
g384
I0
tp1497
a(I1981
I3
F0.625
S'smooth'
p1498
I0
tp1499
as(S'at'
p1500
S'price'
p1501
S'point'
p1502
tp1503
(lp1504
(I553
I4
F0.5
S'similar'
p1505
I0
tp1506
a(I1259
I25
I0
S'aforementioned'
p1507
I0
tp1508
as(g1279
S'build'
p1509
S'quality'
p1510
tp1511
(lp1512
(I165
I5
I0
g1360
I0
tp1513
a(I889
I17
I0
g1388
I0
tp1514
as(S'back'
p1515
S'panel'
p1516
tp1517
(lp1518
(I37
I0
F-0.125
S'back'
p1519
I0
tp1520
a(I138
I3
F-0.125
S'back'
p1521
I0
tp1522
a(I138
I3
F0.75
S'premium'
p1523
I0
tp1524
a(I186
I1
F-0.125
S'back'
p1525
I0
tp1526
a(I186
I3
F-0.125
S'back'
p1527
I0
tp1528
a(I194
I0
F0.5
S'touch'
p1529
I0
tp1530
a(I214
I1
F-0.125
S'back'
p1531
I0
tp1532
a(I237
I1
F-0.125
S'back'
p1533
I0
tp1534
a(I251
I9
F-0.125
S'back'
p1535
I0
tp1536
a(I251
I9
F0.625
S'uneven'
p1537
I0
tp1538
a(I251
I9
F0.375
S'much'
p1539
I0
tp1540
a(I271
I0
F0.875
S'awesome'
p1541
I0
tp1542
a(I283
I0
F0.5
S'touch'
p1543
I0
tp1544
a(I283
I0
F0.5
S'high'
p1545
I0
tp1546
a(I320
I8
F-0.125
S'back'
p1547
I0
tp1548
a(I413
I8
F-0.125
S'back'
p1549
I0
tp1550
a(I666
I19
F-0.125
S'back'
p1551
I0
tp1552
a(I788
I2
F-0.125
S'back'
p1553
I0
tp1554
a(I807
I5
F0.875
S'awesome'
p1555
I0
tp1556
a(I889
I7
F-0.125
S'back'
p1557
I0
tp1558
a(I945
I0
F-0.125
S'back'
p1559
I0
tp1560
a(I1010
I11
F-0.125
S'back'
p1561
I0
tp1562
a(I1164
I1
F0.875
S'great'
p1563
I0
tp1564
a(I1164
I1
F0.75
S'easy'
p1565
I0
tp1566
a(I1218
I1
F-0.625
S'new'
p1567
I0
tp1568
a(I1239
I3
F-0.125
S'back'
p1569
I0
tp1570
a(I1313
I19
F0.5
S'stylish'
p1571
I0
tp1572
a(I1313
I19
F0.875
S'nice'
p1573
I0
tp1574
a(I1327
I14
F-0.125
S'back'
p1575
I0
tp1576
a(I1356
I0
F-0.125
S'back'
p1577
I0
tp1578
a(I1687
I1
F-0.125
S'back'
p1579
I0
tp1580
a(I1794
I1
F-0.125
S'back'
p1581
I0
tp1582
a(I1877
I5
F-0.875
S'lower'
p1583
I0
tp1584
a(I1877
I5
F0.75
S'upper'
p1585
I0
tp1586
as(S'same'
p1587
S'price'
p1588
S'range'
p1589
tp1590
(lp1591
(I187
I8
F-0.375
S'same'
p1592
I0
tp1593
a(I378
I4
F-0.375
S'same'
p1594
I0
tp1595
a(I378
I4
F-0.75
S'little'
p1596
I0
tp1597
a(I378
I4
F-0.5
S'less'
p1598
I0
tp1599
a(I416
I1
F-0.375
S'same'
p1600
I0
tp1601
a(I970
I2
F-0.375
S'same'
p1602
I0
tp1603
a(I1033
I1
F-0.375
S'same'
p1604
I0
tp1605
a(I1105
I5
F-0.375
S'same'
p1606
I0
tp1607
a(I1105
I5
F-0.875
S'lower'
p1608
I0
tp1609
a(I1299
I2
F-0.375
S'same'
p1610
I0
tp1611
a(I1370
I4
F-0.375
S'same'
p1612
I0
tp1613
a(I1711
I26
F-0.375
S'same'
p1614
I0
tp1615
a(I187
I8
F-0.375
g1592
I13
tp1616
a(I196
I5
F0.625
S'acceptable'
p1617
I13
tp1618
a(I206
I1
I0
S's'
p1619
I13
tp1620
a(I378
I4
F-0.375
g1594
I13
tp1621
a(I378
I4
F-0.75
g1596
I13
tp1622
a(I378
I4
F-0.5
g1598
I13
tp1623
a(I416
I1
F-0.375
g1600
I13
tp1624
a(I577
I0
I0
S'different'
p1625
I13
tp1626
a(I970
I2
F-0.375
g1602
I13
tp1627
a(I1033
I1
F-0.375
g1604
I13
tp1628
a(I1105
I5
F-0.375
g1606
I13
tp1629
a(I1105
I5
F-0.875
g1608
I13
tp1630
a(I1299
I2
F-0.375
g1610
I13
tp1631
a(I1352
I1
F-0.125
S'such'
p1632
I13
tp1633
a(I1370
I4
F-0.375
g1612
I13
tp1634
a(I1470
I0
F1.0
S'best'
p1635
I13
tp1636
a(I1711
I26
F-0.375
g1614
I13
tp1637
a(I2044
I0
F-0.875
S'smart'
p1638
I13
tp1639
as(S'a'
p1640
S'long'
p1641
S'time'
p1642
tp1643
(lp1644
(I18
I3
F-0.5
g453
I0
tp1645
a(I36
I34
F-0.5
g455
I0
tp1646
a(I216
I2
F-0.5
S'long'
p1647
I0
tp1648
a(I290
I0
F-0.5
S'long'
p1649
I0
tp1650
a(I297
I2
F0.625
S'deep'
p1651
I0
tp1652
a(I297
I2
F-0.5
S'long'
p1653
I0
tp1654
a(I828
I3
F-0.5
g459
I0
tp1655
a(I844
I3
F-0.5
S'long'
p1656
I0
tp1657
a(I884
I3
F-0.5
g461
I0
tp1658
a(I1126
I20
F-0.5
S'long'
p1659
I0
tp1660
a(I1126
I20
F-0.875
S'wrong'
p1661
I0
tp1662
a(I1294
I2
F-0.625
S'other'
p1663
I0
tp1664
a(I1346
I0
F-0.5
S'long'
p1665
I0
tp1666
a(I1654
I0
F-0.5
S'long'
p1667
I0
tp1668
a(I1659
I18
F-0.5
S'long'
p1669
I0
tp1670
a(I1728
I4
F-0.5
S'long'
p1671
I0
tp1672
a(I1758
I5
F-0.5
S'long'
p1673
I0
tp1674
a(I1921
I4
F-0.5
S'longer'
p1675
I0
tp1676
a(I2006
I0
F-0.5
S'long'
p1677
I0
tp1678
a(I2088
I4
F-0.125
S'present'
p1679
I0
tp1680
a(I2088
I4
F1.0
S'good'
p1681
I0
tp1682
as(S'pros'
p1683
S'and'
p1684
S'cons'
p1685
tp1686
(lp1687
(I910
I1
F-0.75
S'short'
p1688
I0
tp1689
a(I1929
I30
I0
S'few'
p1690
I0
tp1691
a(I1333
I12
I0
S'many'
p1692
I2
tp1693
a(I2035
I1
F1.0
S'good'
p1694
I2
tp1695
a(I57
I2
I0
S't'
p1696
I8
tp1697
a(I86
I4
F0.375
S'much'
p1698
I8
tp1699
a(I173
I0
I0
S't'
p1700
I8
tp1701
a(I319
I2
I0
S'ros'
p1702
I8
tp1703
a(I319
I2
I0
S'n'
p1704
I8
tp1705
a(I375
I3
F-0.75
S'little'
p1706
I8
tp1707
a(I395
I3
I0
S'many'
p1708
I8
tp1709
a(I821
I13
F-0.125
S'such'
p1710
I8
tp1711
a(I901
I0
F-0.625
S'other'
p1712
I8
tp1713
a(I910
I1
F-0.75
g1688
I8
tp1714
a(I1054
I2
I0
S't'
p1715
I8
tp1716
a(I1229
I0
I0
S'few'
p1717
I8
tp1718
a(I1232
I0
F0.625
S'major'
p1719
I8
tp1720
a(I1561
I4
I0
S'above'
p1721
I8
tp1722
a(I1918
I5
I0
S'pros'
p1723
I8
tp1724
a(I1929
I30
I0
g1690
I8
tp1725
a(I1947
I0
F-0.75
S'single'
p1726
I8
tp1727
a(I1994
I35
I0
S'only'
p1728
I8
tp1729
as(S'replacement'
p1730
tp1731
(lp1732
(I18
I15
I0
S't'
p1733
I14
tp1734
a(I67
I4
F-0.375
S'refused'
p1735
I14
tp1736
a(I158
I4
F0.125
S'mobile'
p1737
I14
tp1738
a(I193
I19
F-0.125
S'next'
p1739
I14
tp1740
a(I251
I15
I0
S'initiated'
p1741
I14
tp1742
a(I251
I21
I0
S'initiated'
p1743
I14
tp1744
a(I395
I2
F0.125
S'mobile'
p1745
I14
tp1746
a(I748
I23
F-0.25
S'i'
p1747
I14
tp1748
a(I1626
I2
F0.875
S'happy'
p1749
I14
tp1750
a(I1899
I3
F-0.625
S'intolerable'
p1751
I14
tp1752
as(S'to'
p1753
S'service'
p1754
S'center'
p1755
tp1756
(lp1757
(I431
I12
F-1.0
S'bad'
p1758
I0
tp1759
a(I476
I18
F1.0
S'good'
p1760
I0
tp1761
a(I476
I18
F-0.5
S'broken'
p1762
I0
tp1763
a(I481
I0
F-0.25
S'i'
p1764
I0
tp1765
a(I481
I3
F0.625
S'major'
p1766
I0
tp1767
a(I667
I1
F-1.0
S'worst'
p1768
I0
tp1769
a(I667
I1
F0.875
S'rude'
p1770
I0
tp1771
a(I1649
I3
F-0.375
S'authorised'
p1772
I0
tp1773
a(I1664
I9
F-0.625
S'nearby'
p1774
I0
tp1775
a(I1722
I16
F-0.375
S'authorised'
p1776
I0
tp1777
a(I367
I8
I0
S'most'
p1778
I5
tp1779
a(I431
I12
F-1.0
g1758
I5
tp1780
a(I432
I0
F-1.0
S'worst'
p1781
I5
tp1782
a(I476
I18
F1.0
g1760
I5
tp1783
a(I476
I18
F-0.5
g1762
I5
tp1784
a(I481
I0
F-0.25
g1764
I5
tp1785
a(I481
I3
F0.625
g1766
I5
tp1786
a(I667
I1
F-1.0
g1768
I5
tp1787
a(I667
I1
F0.875
g1770
I5
tp1788
a(I921
I6
I0
S'many'
p1789
I5
tp1790
a(I931
I6
F0.75
S'give'
p1791
I5
tp1792
a(I1649
I3
F-0.375
g1772
I5
tp1793
a(I1664
I9
F-0.625
g1774
I5
tp1794
a(I1722
I16
F-0.375
g1776
I5
tp1795
as(S'lenovo'
p1796
S'k3'
p1797
S'note'
p1798
tp1799
(lp1800
(I762
I0
F-0.875
S'poor'
p1801
I0
tp1802
a(I762
I0
F-0.25
S'i'
p1803
I0
tp1804
a(I807
I9
F1.0
S'better'
p1805
I0
tp1806
a(I762
I0
F-0.875
g1801
I0
tp1807
a(I662
I1
F1.0
S'good'
p1808
I0
tp1809
a(I762
I0
F-0.875
g1801
I0
tp1810
a(I762
I0
F-0.25
g1803
I0
tp1811
a(I807
I9
F1.0
g1805
I0
tp1812
a(I977
I0
F1.0
S'better'
p1813
I0
tp1814
as(S'no'
p1815
S'heating'
p1816
S'problem'
p1817
tp1818
(lp1819
(I209
I5
F0.125
S'mobile'
p1820
I1
tp1821
a(I268
I49
F0.125
S'frequent'
p1822
I1
tp1823
a(I295
I1
F0.375
S'available'
p1824
I1
tp1825
a(I209
I5
F0.125
g1820
I6
tp1826
a(I268
I49
F0.125
g1822
I6
tp1827
a(I295
I1
F0.375
g1824
I6
tp1828
a(I1241
I0
I0
S'few'
p1829
I6
tp1830
as(S'moto'
p1831
S'e'
p1832
tp1833
(lp1834
(I12
I0
F-0.5
g272
I0
tp1835
a(I12
I3
F-0.5
g274
I0
tp1836
a(I33
I7
F-0.75
g276
I0
tp1837
a(I33
I23
F1.0
S'better'
p1838
I0
tp1839
a(I36
I20
F-0.5
g278
I0
tp1840
a(I36
I20
I0
g280
I0
tp1841
a(I36
I25
F-0.5
g282
I0
tp1842
a(I36
I36
F0.25
g410
I0
tp1843
a(I39
I1
F0.75
g284
I0
tp1844
a(I48
I0
I0
g286
I0
tp1845
a(I82
I1
F0.375
S'much'
p1846
I0
tp1847
a(I102
I0
I0
g288
I0
tp1848
a(I116
I0
I0
g290
I0
tp1849
a(I117
I1
F0.75
g292
I0
tp1850
a(I146
I15
F-0.375
g294
I0
tp1851
a(I161
I3
F-0.625
g296
I0
tp1852
a(I184
I21
F0.375
g298
I0
tp1853
a(I184
I29
F-0.25
g300
I0
tp1854
a(I190
I3
I0
S'normal'
p1855
I0
tp1856
a(I195
I7
F-0.25
g302
I0
tp1857
a(I196
I23
F-0.25
S'previous'
p1858
I0
tp1859
a(I206
I0
F0.5
S'old'
p1860
I0
tp1861
a(I228
I35
F0.875
g304
I0
tp1862
a(I295
I1
F0.5
g306
I0
tp1863
a(I319
I11
F0.625
S'first'
p1864
I0
tp1865
a(I358
I19
I0
g308
I0
tp1866
a(I387
I0
F-0.625
g310
I0
tp1867
a(I405
I11
F1.0
S'better'
p1868
I0
tp1869
a(I406
I5
I0
g416
I0
tp1870
a(I407
I0
F-0.625
g418
I0
tp1871
a(I414
I3
F0.5
g312
I0
tp1872
a(I463
I0
F-0.75
g314
I0
tp1873
a(I472
I2
F0.375
g316
I0
tp1874
a(I532
I5
F0.5
g318
I0
tp1875
a(I536
I7
I0
S'current'
p1876
I0
tp1877
a(I579
I1
F1.0
g320
I0
tp1878
a(I582
I0
F-0.625
g422
I0
tp1879
a(I668
I19
F-0.375
g324
I0
tp1880
a(I668
I23
F0.5
S'old'
p1881
I0
tp1882
a(I676
I15
F0.5
g326
I0
tp1883
a(I686
I2
F-0.75
S'exclusive'
p1884
I0
tp1885
a(I695
I1
I0
g332
I0
tp1886
a(I724
I2
F-0.375
g334
I0
tp1887
a(I754
I8
F-0.625
g426
I0
tp1888
a(I842
I17
F-0.875
g336
I0
tp1889
a(I871
I7
I0
g338
I0
tp1890
a(I921
I0
F0.625
S'okay'
p1891
I0
tp1892
a(I944
I1
F0.125
g340
I0
tp1893
a(I990
I9
F-0.875
g342
I0
tp1894
a(I990
I38
F-0.125
g567
I0
tp1895
a(I990
I41
F-0.25
g346
I0
tp1896
a(I1008
I21
F0.125
g348
I0
tp1897
a(I1020
I44
F0.375
S'much'
p1898
I0
tp1899
a(I1020
I52
F0.875
S'nice'
p1900
I0
tp1901
a(I1020
I52
I0
S'specific'
p1902
I0
tp1903
a(I1035
I4
F0.625
g430
I0
tp1904
a(I1045
I0
I0
g350
I0
tp1905
a(I1056
I18
F-0.5
g352
I0
tp1906
a(I1100
I7
F-0.625
S'other'
p1907
I0
tp1908
a(I1101
I9
F0.5
S'visible'
p1909
I0
tp1910
a(I1101
I9
F-0.625
S'other'
p1911
I0
tp1912
a(I1178
I0
F0.75
S'white'
p1913
I0
tp1914
a(I1178
I0
I0
S'bright'
p1915
I0
tp1916
a(I1179
I36
F-0.125
g356
I0
tp1917
a(I1192
I4
F-0.125
S'overall'
p1918
I0
tp1919
a(I1192
I4
F0.375
S'much'
p1920
I0
tp1921
a(I1199
I11
F0.875
g434
I0
tp1922
a(I1320
I12
F0.75
g364
I0
tp1923
a(I1320
I13
F0.5
S'understood'
p1924
I0
tp1925
a(I1325
I5
F0.5
g436
I0
tp1926
a(I1331
I6
F-0.25
S'previous'
p1927
I0
tp1928
a(I1340
I2
F1.0
S'good'
p1929
I0
tp1930
a(I1392
I0
F-0.125
S'next'
p1931
I0
tp1932
a(I1462
I0
F0.5
g368
I0
tp1933
a(I1574
I0
F-0.625
S'new'
p1934
I0
tp1935
a(I1587
I31
F1.0
S'better'
p1936
I0
tp1937
a(I1607
I2
F-0.375
g370
I0
tp1938
a(I1638
I0
F-0.625
g372
I0
tp1939
a(I1643
I0
F-0.875
g374
I0
tp1940
a(I1661
I0
F0.375
S'available'
p1941
I0
tp1942
a(I1661
I1
I0
S'least'
p1943
I0
tp1944
a(I1710
I1
F0.625
g439
I0
tp1945
a(I1711
I2
F0.625
g376
I0
tp1946
a(I1748
I3
F1.0
g378
I0
tp1947
a(I1769
I1
F-0.625
g380
I0
tp1948
a(I1781
I0
F-0.125
S'present'
p1949
I0
tp1950
a(I1821
I2
F0.375
g382
I0
tp1951
a(I1875
I4
I0
g384
I0
tp1952
a(I1877
I7
F0.375
g623
I0
tp1953
a(I1910
I1
F-0.375
g442
I0
tp1954
a(I1910
I1
I0
g444
I0
tp1955
a(I1929
I20
F-0.5
g386
I0
tp1956
a(I1929
I20
F0.5
g388
I0
tp1957
a(I1994
I4
F0.875
S'happy'
p1958
I0
tp1959
a(I2092
I0
F0.875
S'nice'
p1960
I0
tp1961
as(S'no'
p1962
S'heating'
p1963
S'issues'
p1964
tp1965
(lp1966
(I545
I0
I0
S'normal'
p1967
I0
tp1968
a(I134
I37
F-0.875
S'poor'
p1969
I0
tp1970
a(I545
I0
I0
g1967
I0
tp1971
a(I134
I37
F-0.875
g1969
I4
tp1972
a(I160
I0
I0
S'many'
p1973
I4
tp1974
a(I163
I12
F-0.625
S'other'
p1975
I4
tp1976
a(I389
I14
I0
S'specific'
p1977
I4
tp1978
a(I505
I18
I0
S'lag'
p1979
I4
tp1980
a(I545
I0
I0
g1967
I4
tp1981
a(I655
I0
I0
S'most'
p1982
I4
tp1983
a(I933
I0
F-0.25
S'battery'
p1984
I4
tp1985
a(I946
I10
I0
S'notification'
p1986
I4
tp1987
a(I1035
I4
F0.875
S'happy'
p1988
I4
tp1989
a(I1161
I1
I0
S'u'
p1990
I4
tp1991
a(I1435
I4
F0.875
S'great'
p1992
I4
tp1993
a(I1664
I20
F0.5
S'technical'
p1994
I4
tp1995
a(I1698
I19
F0.5
S'technical'
p1996
I4
tp1997
a(I1794
I11
F0.75
S'due'
p1998
I4
tp1999
a(I2055
I2
I0
S'few'
p2000
I4
tp2001
a(I2085
I1
F0.375
S'much'
p2002
I4
tp2003
as(S'non'
p2004
S'removable'
p2005
S'battery'
p2006
tp2007
(lp2008
(I821
I3
F0.625
S'removable'
p2009
I0
tp2010
a(I997
I6
F-0.625
S'non'
p2011
I0
tp2012
a(I997
I6
F0.625
S'removable'
p2013
I0
tp2014
a(I1020
I22
F-0.625
S'non'
p2015
I0
tp2016
a(I1020
I22
F0.625
S'removable'
p2017
I0
tp2018
a(I1034
I22
F-0.625
S'non'
p2019
I0
tp2020
a(I1034
I22
F0.625
S'removable'
p2021
I0
tp2022
as(S'rear'
p2023
S'and'
p2024
S'front'
p2025
tp2026
(lp2027
(I13
I10
F-0.778
S'mediocre'
p2028
I0
tp2029
a(I96
I0
F0.875
S'awesome'
p2030
I0
tp2031
a(I879
I15
F-0.778
S'mediocre'
p2032
I0
tp2033
a(I1268
I2
F1.0
S'good'
p2034
I0
tp2035
a(I1599
I2
F1.0
S'good'
p2036
I0
tp2037
a(I1609
I6
F1.0
S'good'
p2038
I0
tp2039
a(I13
I10
F-0.778
g2028
I1
tp2040
a(I96
I0
F0.875
g2030
I1
tp2041
a(I879
I15
F-0.778
g2032
I1
tp2042
a(I1268
I2
F1.0
g2034
I1
tp2043
a(I1599
I2
F1.0
g2036
I1
tp2044
a(I1609
I6
F1.0
g2038
I1
tp2045
a(I13
I10
F-0.778
g2028
I7
tp2046
a(I96
I0
F0.875
g2030
I7
tp2047
a(I841
I5
F0.875
S'awesome'
p2048
I7
tp2049
a(I879
I15
F-0.778
g2032
I7
tp2050
a(I1126
I6
F0.125
S'indoor'
p2051
I7
tp2052
a(I1126
I6
I0
S'light'
p2053
I7
tp2054
a(I1184
I6
F1.0
S'excellent'
p2055
I7
tp2056
a(I1184
I6
F-0.125
S'front'
p2057
I7
tp2058
a(I1184
I6
I0
S'normal'
p2059
I7
tp2060
a(I1268
I2
F1.0
g2034
I7
tp2061
a(I111
I1
F1.0
S'better'
p2062
I14
tp2063
a(I117
I0
F-0.5
S'flash'
p2064
I14
tp2065
a(I184
I33
F1.0
S'good'
p2066
I14
tp2067
a(I184
I33
I0
S'main'
p2068
I14
tp2069
a(I236
I1
F1.0
S'good'
p2070
I14
tp2071
a(I771
I15
I0
S'rear'
p2072
I14
tp2073
a(I983
I1
F1.0
S'good'
p2074
I14
tp2075
a(I1131
I0
F-1.0
S'bad'
p2076
I14
tp2077
a(I1131
I0
F0.625
S'fine'
p2078
I14
tp2079
a(I1199
I3
F0.625
S'fine'
p2080
I14
tp2081
a(I1331
I8
F0.875
S'nice'
p2082
I14
tp2083
a(I1353
I12
F-0.5
S'loud'
p2084
I14
tp2085
a(I1353
I12
I0
S'clear'
p2086
I14
tp2087
a(I1585
I11
F1.0
S'good'
p2088
I14
tp2089
a(I1599
I2
F1.0
g2036
I14
tp2090
a(I1609
I6
F1.0
g2038
I14
tp2091
a(I1768
I9
F-0.875
S'low'
p2092
I14
tp2093
a(I1768
I9
F1.0
S'good'
p2094
I14
tp2095
a(I1793
I0
I0
S'nd'
p2096
I14
tp2097
a(I1919
I4
F0.875
S'nice'
p2098
I14
tp2099
a(I1981
I7
F1.0
S'good'
p2100
I14
tp2101
a(I2033
I0
I0
S'rear'
p2102
I14
tp2103
a(I2067
I2
F0.875
S'nice'
p2104
I14
tp2105
a(I2116
I0
F1.0
S'good'
p2106
I14
tp2107
as(S'front'
p2108
S'camera'
p2109
tp2110
(lp2111
(I38
I3
F-0.125
S'front'
p2112
I6
tp2113
a(I85
I1
F-0.125
S'front'
p2114
I6
tp2115
a(I85
I1
F1.0
S'good'
p2116
I6
tp2117
a(I96
I0
F-0.625
S'realistic'
p2118
I6
tp2119
a(I111
I1
F1.0
g2062
I6
tp2120
a(I133
I7
I0
S'rear'
p2121
I6
tp2122
a(I134
I17
F0.625
S'super'
p2123
I6
tp2124
a(I134
I17
I0
S'useful'
p2125
I6
tp2126
a(I170
I11
F1.0
S'good'
p2127
I6
tp2128
a(I170
I11
F-0.125
S'front'
p2129
I6
tp2130
a(I184
I33
F1.0
g2066
I6
tp2131
a(I184
I33
I0
g2068
I6
tp2132
a(I187
I18
I0
S'rear'
p2133
I6
tp2134
a(I196
I26
F0.875
S'decent'
p2135
I6
tp2136
a(I208
I12
F0.875
S'great'
p2137
I6
tp2138
a(I236
I1
F1.0
g2070
I6
tp2139
a(I236
I1
F1.0
S'good'
p2140
I6
tp2141
a(I251
I7
F-0.125
S'front'
p2142
I6
tp2143
a(I251
I7
F0.375
S'ok'
p2144
I6
tp2145
a(I268
I12
F-0.125
S'front'
p2146
I6
tp2147
a(I281
I1
F-0.625
S'average'
p2148
I6
tp2149
a(I392
I6
F-0.125
S'front'
p2150
I6
tp2151
a(I394
I17
F-0.125
S'front'
p2152
I6
tp2153
a(I491
I0
I0
S't'
p2154
I6
tp2155
a(I491
I0
F-0.125
S'front'
p2156
I6
tp2157
a(I491
I0
F-0.125
S'front'
p2158
I6
tp2159
a(I527
I0
F0.875
S'great'
p2160
I6
tp2161
a(I552
I2
F1.0
S'excellent'
p2162
I6
tp2163
a(I552
I2
F1.0
S'excellent'
p2164
I6
tp2165
a(I737
I0
F-0.125
S'front'
p2166
I6
tp2167
a(I747
I7
F0.375
S'ok'
p2168
I6
tp2169
a(I747
I7
F1.0
S'good'
p2170
I6
tp2171
a(I747
I7
I0
S'rear'
p2172
I6
tp2173
a(I747
I7
F-1.0
S'worst'
p2174
I6
tp2175
a(I747
I15
F-0.125
S'front'
p2176
I6
tp2177
a(I747
I15
I0
S'rear'
p2178
I6
tp2179
a(I900
I0
F-0.125
S'front'
p2180
I6
tp2181
a(I900
I0
F1.0
S'good'
p2182
I6
tp2183
a(I983
I1
F1.0
g2074
I6
tp2184
a(I1016
I12
I0
S'rear'
p2185
I6
tp2186
a(I1019
I1
F-0.125
S'front'
p2187
I6
tp2188
a(I1019
I1
F0.375
S'much'
p2189
I6
tp2190
a(I1128
I12
I0
S'rear'
p2191
I6
tp2192
a(I1131
I0
I0
S'rear'
p2193
I6
tp2194
a(I1131
I0
F-1.0
g2076
I6
tp2195
a(I1131
I0
F0.625
g2078
I6
tp2196
a(I1198
I3
F0.75
S'fantastic'
p2197
I6
tp2198
a(I1199
I3
F0.625
g2080
I6
tp2199
a(I1239
I7
F0.875
S'great'
p2200
I6
tp2201
a(I1267
I26
F0.375
S'impressive'
p2202
I6
tp2203
a(I1267
I27
F-0.125
S'front'
p2204
I6
tp2205
a(I1268
I2
F-0.125
S'front'
p2206
I6
tp2207
a(I1295
I2
F-0.125
S'front'
p2208
I6
tp2209
a(I1325
I1
F0.5
S'dual'
p2210
I6
tp2211
a(I1331
I8
F0.875
g2082
I6
tp2212
a(I1342
I0
F1.0
S'good'
p2213
I6
tp2214
a(I1357
I3
F-0.125
S'front'
p2215
I6
tp2216
a(I1359
I0
F-0.125
S'front'
p2217
I6
tp2218
a(I1359
I0
F0.875
S'nice'
p2219
I6
tp2220
a(I1386
I0
F1.0
S'good'
p2221
I6
tp2222
a(I1386
I0
F-0.125
S'back'
p2223
I6
tp2224
a(I1386
I0
F1.0
S'good'
p2225
I6
tp2226
a(I1409
I4
F0.875
S'nice'
p2227
I6
tp2228
a(I1409
I4
F0.5
S'dual'
p2229
I6
tp2230
a(I1444
I0
F1.0
S'good'
p2231
I6
tp2232
a(I1489
I2
F-0.125
S'front'
p2233
I6
tp2234
a(I1497
I2
F1.0
S'good'
p2235
I6
tp2236
a(I1518
I1
I0
S'rear'
p2237
I6
tp2238
a(I1518
I1
F1.0
S'good'
p2239
I6
tp2240
a(I1518
I1
F-0.125
S'front'
p2241
I6
tp2242
a(I1526
I3
F-0.625
S'average'
p2243
I6
tp2244
a(I1698
I14
F-0.125
S'front'
p2245
I6
tp2246
a(I1698
I14
F0.625
S'okay'
p2247
I6
tp2248
a(I1768
I9
F-0.875
g2092
I6
tp2249
a(I1768
I9
F1.0
g2094
I6
tp2250
a(I1768
I9
F1.0
S'good'
p2251
I6
tp2252
a(I1815
I1
F-0.125
S'front'
p2253
I6
tp2254
a(I1815
I1
F0.375
S'impressive'
p2255
I6
tp2256
a(I1815
I1
F-0.625
S'average'
p2257
I6
tp2258
a(I1884
I14
I0
S'rear'
p2259
I6
tp2260
a(I1919
I4
F1.0
S'good'
p2261
I6
tp2262
a(I1919
I4
F0.875
g2098
I6
tp2263
a(I1966
I1
I0
S'clear'
p2264
I6
tp2265
a(I1981
I7
F1.0
g2100
I6
tp2266
a(I1981
I7
I0
S'main'
p2267
I6
tp2268
a(I1992
I16
F-0.125
S'front'
p2269
I6
tp2270
a(I1992
I16
F1.0
S'good'
p2271
I6
tp2272
a(I1992
I18
I0
S'comfortable'
p2273
I6
tp2274
a(I2010
I6
F-0.125
S'front'
p2275
I6
tp2276
a(I2033
I0
I0
g2102
I6
tp2277
a(I2033
I0
F1.0
S'good'
p2278
I6
tp2279
a(I2127
I0
F-0.125
S'front'
p2280
I6
tp2281
a(I2127
I0
F1.0
S'good'
p2282
I6
tp2283
a(I2157
I5
F1.0
S'good'
p2284
I6
tp2285
as(S'looks'
p2286
tp2287
(lp2288
(I268
I21
F0.875
S'great'
p2289
I14
tp2290
a(I427
I4
F1.0
S'good'
p2291
I14
tp2292
a(I843
I4
F-0.5
S'heavy'
p2293
I14
tp2294
a(I843
I4
F0.5
S'stylish'
p2295
I14
tp2296
a(I843
I4
F0.375
S'compact'
p2297
I14
tp2298
a(I885
I10
F0.875
S'solid'
p2299
I14
tp2300
a(I990
I27
F0.5
S'stylish'
p2301
I14
tp2302
a(I1183
I7
F0.875
S'amazing'
p2303
I14
tp2304
a(I1183
I7
F1.0
S'good'
p2305
I14
tp2306
a(I1184
I0
F0.5
S'stylish'
p2307
I14
tp2308
a(I1423
I3
F0.5
S'stylish'
p2309
I14
tp2310
a(I1691
I0
F0.5
S'stylish'
p2311
I14
tp2312
a(I1710
I1
F0.625
S'super'
p2313
I14
tp2314
a(I1975
I1
F1.0
S'good'
p2315
I14
tp2316
a(I2154
I3
F1.0
S'good'
p2317
I14
tp2318
a(I2154
I3
F0.5
S'powerful'
p2319
I14
tp2320
as(S'good'
p2321
S'sound'
p2322
S'quality'
p2323
tp2324
(lp2325
(I8
I4
F1.0
S'good'
p2326
I0
tp2327
a(I8
I4
F-0.5
S'loud'
p2328
I0
tp2329
a(I8
I4
F-0.5
S'loud'
p2330
I0
tp2331
a(I26
I1
F0.75
S'sound'
p2332
I0
tp2333
a(I273
I0
F1.0
S'good'
p2334
I0
tp2335
a(I332
I3
F1.0
S'good'
p2336
I0
tp2337
a(I332
I3
F-0.5
S'loud'
p2338
I0
tp2339
a(I409
I1
F1.0
S'good'
p2340
I0
tp2341
a(I608
I1
F0.75
S'sound'
p2342
I0
tp2343
a(I677
I1
F1.0
S'good'
p2344
I0
tp2345
a(I677
I1
I0
S'clear'
p2346
I0
tp2347
a(I820
I18
F1.0
S'good'
p2348
I0
tp2349
a(I1020
I27
F1.0
S'good'
p2350
I0
tp2351
a(I1020
I27
F1.0
S'good'
p2352
I0
tp2353
a(I1128
I16
F1.0
S'good'
p2354
I0
tp2355
a(I1216
I5
F1.0
g1316
I0
tp2356
a(I1237
I0
F1.0
S'good'
p2357
I0
tp2358
a(I1237
I0
F0.375
S'wearable'
p2359
I0
tp2360
a(I1464
I1
F1.0
S'good'
p2361
I0
tp2362
a(I1483
I4
F1.0
S'good'
p2363
I0
tp2364
a(I1483
I4
F-0.5
S'loud'
p2365
I0
tp2366
a(I1483
I4
F-0.5
S'loud'
p2367
I0
tp2368
a(I1769
I3
F0.75
S'sound'
p2369
I0
tp2370
a(I1956
I1
F0.75
S'sound'
p2371
I0
tp2372
a(I1956
I1
F1.0
S'good'
p2373
I0
tp2374
a(I1966
I2
F0.75
S'sound'
p2375
I0
tp2376
a(I1966
I2
F1.0
S'good'
p2377
I0
tp2378
a(I2139
I2
F1.0
S'good'
p2379
I0
tp2380
a(I8
I4
F1.0
g2326
I5
tp2381
a(I8
I4
F-0.5
g2328
I5
tp2382
a(I8
I4
F-0.5
g2330
I5
tp2383
a(I26
I1
F0.75
g2332
I5
tp2384
a(I140
I1
F0.75
S'sound'
p2385
I5
tp2386
a(I140
I1
F0.5
S'crisp'
p2387
I5
tp2388
a(I140
I1
I0
S'clear'
p2389
I5
tp2390
a(I273
I0
F1.0
g2334
I5
tp2391
a(I305
I4
F0.75
S'sound'
p2392
I5
tp2393
a(I332
I3
F1.0
g2336
I5
tp2394
a(I332
I3
F-0.5
g2338
I5
tp2395
a(I409
I1
F1.0
g2340
I5
tp2396
a(I485
I1
F0.75
S'sound'
p2397
I5
tp2398
a(I485
I1
F0.625
S'fine'
p2399
I5
tp2400
a(I608
I1
F0.75
g2342
I5
tp2401
a(I639
I3
F-0.875
S'poor'
p2402
I5
tp2403
a(I677
I1
F1.0
g2344
I5
tp2404
a(I677
I1
I0
g2346
I5
tp2405
a(I820
I18
F1.0
g2348
I5
tp2406
a(I841
I10
F0.75
S'sound'
p2407
I5
tp2408
a(I890
I11
F0.75
S'sound'
p2409
I5
tp2410
a(I956
I2
F1.0
S'better'
p2411
I5
tp2412
a(I970
I5
F0.5
S'like'
p2413
I5
tp2414
a(I1020
I27
F1.0
g2350
I5
tp2415
a(I1020
I27
F1.0
g2352
I5
tp2416
a(I1128
I16
F1.0
g2354
I5
tp2417
a(I1216
I5
F1.0
g1316
I5
tp2418
a(I1236
I8
F0.75
S'sound'
p2419
I5
tp2420
a(I1237
I0
F1.0
g2357
I5
tp2421
a(I1237
I0
F0.375
g2359
I5
tp2422
a(I1280
I1
F-0.625
S'average'
p2423
I5
tp2424
a(I1296
I0
F0.75
S'sound'
p2425
I5
tp2426
a(I1464
I1
F1.0
g2361
I5
tp2427
a(I1483
I4
F1.0
g2363
I5
tp2428
a(I1483
I4
F-0.5
g2365
I5
tp2429
a(I1483
I4
F-0.5
g2367
I5
tp2430
a(I1519
I0
F-0.875
S'low'
p2431
I5
tp2432
a(I1519
I0
F0.875
S'awesome'
p2433
I5
tp2434
a(I1570
I0
F0.875
S'nice'
p2435
I5
tp2436
a(I1579
I0
F0.75
S'sound'
p2437
I5
tp2438
a(I1585
I14
I0
S'lags'
p2439
I5
tp2440
a(I1585
I14
F0.625
S'fine'
p2441
I5
tp2442
a(I1769
I3
F0.75
g2369
I5
tp2443
a(I1802
I0
F-1.0
S'bad'
p2444
I5
tp2445
a(I1900
I5
F0.75
S'sound'
p2446
I5
tp2447
a(I1900
I5
F-0.875
S'low'
p2448
I5
tp2449
a(I1956
I1
F0.75
g2371
I5
tp2450
a(I1956
I1
F1.0
g2373
I5
tp2451
a(I1966
I2
F0.75
g2375
I5
tp2452
a(I1966
I2
F1.0
g2377
I5
tp2453
a(I2139
I2
F1.0
g2379
I5
tp2454
a(I6
I1
F1.0
S'good'
p2455
I0
tp2456
a(I8
I4
F1.0
g2326
I0
tp2457
a(I8
I4
F-0.5
g2328
I0
tp2458
a(I8
I4
F-0.5
g2330
I0
tp2459
a(I24
I1
F1.0
S'good'
p2460
I0
tp2461
a(I26
I1
F0.75
g2332
I0
tp2462
a(I70
I0
F1.0
g1290
I0
tp2463
a(I85
I2
F0.875
g1292
I0
tp2464
a(I166
I7
F1.0
S'good'
p2465
I0
tp2466
a(I171
I1
F1.0
S'good'
p2467
I0
tp2468
a(I187
I5
F0.875
g1294
I0
tp2469
a(I196
I28
F1.0
S'good'
p2470
I0
tp2471
a(I225
I6
F-0.5
S'call'
p2472
I0
tp2473
a(I259
I1
F1.0
S'good'
p2474
I0
tp2475
a(I273
I0
F1.0
g2334
I0
tp2476
a(I311
I1
I0
S'audio'
p2477
I0
tp2478
a(I311
I1
F1.0
S'good'
p2479
I0
tp2480
a(I320
I1
F1.0
S'good'
p2481
I0
tp2482
a(I332
I3
F1.0
g2336
I0
tp2483
a(I332
I3
F-0.5
g2338
I0
tp2484
a(I350
I2
F1.0
S'good'
p2485
I0
tp2486
a(I355
I0
F-1.0
S'bad'
p2487
I0
tp2488
a(I382
I1
F0.875
S'awesome'
p2489
I0
tp2490
a(I386
I3
I0
S'nexus'
p2491
I0
tp2492
a(I389
I0
F0.5
g1300
I0
tp2493
a(I438
I2
I0
g1302
I0
tp2494
a(I438
I2
F1.0
g1304
I0
tp2495
a(I438
I2
I0
g1306
I0
tp2496
a(I450
I1
F1.0
S'good'
p2497
I0
tp2498
a(I452
I0
F-0.5
S'call'
p2499
I0
tp2500
a(I452
I0
F1.0
S'good'
p2501
I0
tp2502
a(I491
I8
F1.0
S'good'
p2503
I0
tp2504
a(I494
I0
F1.0
S'good'
p2505
I0
tp2506
a(I495
I5
F1.0
S'good'
p2507
I0
tp2508
a(I542
I0
F1.0
S'good'
p2509
I0
tp2510
a(I553
I0
F1.0
S'good'
p2511
I0
tp2512
a(I553
I1
F1.0
S'good'
p2513
I0
tp2514
a(I606
I1
F1.0
S'good'
p2515
I0
tp2516
a(I608
I1
F0.75
g2342
I0
tp2517
a(I674
I13
F1.0
S'good'
p2518
I0
tp2519
a(I676
I16
F1.0
S'good'
p2520
I0
tp2521
a(I676
I25
I0
S'clear'
p2522
I0
tp2523
a(I677
I1
F1.0
g2344
I0
tp2524
a(I677
I1
I0
g2346
I0
tp2525
a(I678
I0
F-0.5
S'call'
p2526
I0
tp2527
a(I678
I0
F1.0
S'good'
p2528
I0
tp2529
a(I767
I1
F1.0
g1308
I0
tp2530
a(I771
I1
F1.0
S'good'
p2531
I0
tp2532
a(I771
I4
F1.0
S'good'
p2533
I0
tp2534
a(I777
I0
F1.0
S'good'
p2535
I0
tp2536
a(I789
I1
F1.0
S'good'
p2537
I0
tp2538
a(I798
I1
F1.0
S'good'
p2539
I0
tp2540
a(I807
I4
F0.625
g1312
I0
tp2541
a(I829
I3
F1.0
S'good'
p2542
I0
tp2543
a(I848
I0
F1.0
S'good'
p2544
I0
tp2545
a(I906
I5
F1.0
S'good'
p2546
I0
tp2547
a(I945
I2
F1.0
S'good'
p2548
I0
tp2549
a(I998
I0
F-0.375
S'same'
p2550
I0
tp2551
a(I1016
I11
F1.0
S'good'
p2552
I0
tp2553
a(I1020
I21
F1.0
S'good'
p2554
I0
tp2555
a(I1020
I27
F1.0
g2350
I0
tp2556
a(I1020
I27
F1.0
g2352
I0
tp2557
a(I1020
I30
F1.0
S'good'
p2558
I0
tp2559
a(I1020
I35
F1.0
S'good'
p2560
I0
tp2561
a(I1020
I38
F1.0
S'good'
p2562
I0
tp2563
a(I1020
I42
F1.0
S'good'
p2564
I0
tp2565
a(I1035
I2
F1.0
S'good'
p2566
I0
tp2567
a(I1101
I15
F0.875
S'music'
p2568
I0
tp2569
a(I1101
I15
F1.0
S'good'
p2570
I0
tp2571
a(I1105
I4
F1.0
S'good'
p2572
I0
tp2573
a(I1128
I16
F1.0
g2354
I0
tp2574
a(I1179
I7
F1.0
S'best'
p2575
I0
tp2576
a(I1179
I14
F1.0
S'good'
p2577
I0
tp2578
a(I1216
I5
F1.0
g1316
I0
tp2579
a(I1236
I3
F-0.875
S'low'
p2580
I0
tp2581
a(I1237
I0
F0.375
g2359
I0
tp2582
a(I1250
I4
F1.0
S'good'
p2583
I0
tp2584
a(I1300
I6
F1.0
S'good'
p2585
I0
tp2586
a(I1300
I6
F0.875
S'great'
p2587
I0
tp2588
a(I1303
I2
F1.0
S'good'
p2589
I0
tp2590
a(I1313
I19
F1.0
S'good'
p2591
I0
tp2592
a(I1370
I1
F0.875
g1322
I0
tp2593
a(I1376
I0
F1.0
S'good'
p2594
I0
tp2595
a(I1409
I3
F1.0
g1324
I0
tp2596
a(I1464
I1
F1.0
g2361
I0
tp2597
a(I1465
I0
F1.0
g1328
I0
tp2598
a(I1465
I0
F-0.875
g1330
I0
tp2599
a(I1481
I1
F1.0
S'good'
p2600
I0
tp2601
a(I1483
I4
F1.0
g2363
I0
tp2602
a(I1483
I4
F-0.5
g2365
I0
tp2603
a(I1483
I4
F-0.5
g2367
I0
tp2604
a(I1503
I0
F1.0
S'good'
p2605
I0
tp2606
a(I1506
I0
F1.0
S'good'
p2607
I0
tp2608
a(I1677
I49
F1.0
S'good'
p2609
I0
tp2610
a(I1722
I2
F1.0
S'good'
p2611
I0
tp2612
a(I1735
I0
F1.0
S'good'
p2613
I0
tp2614
a(I1756
I0
F1.0
S'good'
p2615
I0
tp2616
a(I1769
I3
F0.75
g2369
I0
tp2617
a(I1806
I1
F1.0
g1334
I0
tp2618
a(I1956
I1
F0.75
g2371
I0
tp2619
a(I1956
I1
F1.0
g2373
I0
tp2620
a(I1963
I3
F0.875
S'awesome'
p2621
I0
tp2622
a(I1966
I2
F0.75
g2375
I0
tp2623
a(I1966
I2
F1.0
g2377
I0
tp2624
a(I1984
I1
F1.0
S'good'
p2625
I0
tp2626
a(I1996
I8
F1.0
S'good'
p2627
I0
tp2628
a(I2007
I0
F-0.875
S'poor'
p2629
I0
tp2630
a(I2010
I2
F1.0
S'good'
p2631
I0
tp2632
a(I2048
I0
F1.0
S'good'
p2633
I0
tp2634
a(I2065
I4
F-0.875
g1340
I0
tp2635
a(I2065
I4
F-0.125
g1342
I0
tp2636
a(I2065
I4
I0
g1344
I0
tp2637
a(I2071
I4
F1.0
S'good'
p2638
I0
tp2639
a(I2079
I1
F1.0
S'good'
p2640
I0
tp2641
a(I2083
I0
F1.0
S'good'
p2642
I0
tp2643
a(I2101
I0
F1.0
S'good'
p2644
I0
tp2645
a(I2142
I1
F1.0
S'good'
p2646
I0
tp2647
a(I2146
I1
F0.875
g1348
I0
tp2648
a(I2150
I1
F1.0
g1350
I0
tp2649
a(I8
I5
I0
S'surround'
p2650
I15
tp2651
a(I67
I0
F-0.625
S'horrible'
p2652
I15
tp2653
a(I241
I1
F1.0
S'good'
p2654
I15
tp2655
a(I409
I1
F1.0
g2340
I15
tp2656
a(I427
I4
F1.0
S'good'
p2657
I15
tp2658
a(I471
I0
I0
S'crystal'
p2659
I15
tp2660
a(I471
I0
I0
S'clear'
p2661
I15
tp2662
a(I548
I5
I0
S'light'
p2663
I15
tp2664
a(I600
I7
F-0.5
S'loud'
p2665
I15
tp2666
a(I600
I7
I0
S'clear'
p2667
I15
tp2668
a(I620
I5
F1.0
S'good'
p2669
I15
tp2670
a(I639
I3
F-0.875
g2402
I15
tp2671
a(I676
I17
F-0.75
S'sufficient'
p2672
I15
tp2673
a(I769
I1
F1.0
S'good'
p2674
I15
tp2675
a(I772
I3
F-0.75
S'little'
p2676
I15
tp2677
a(I772
I3
F-0.5
S'less'
p2678
I15
tp2679
a(I820
I18
F1.0
g2348
I15
tp2680
a(I956
I2
F1.0
g2411
I15
tp2681
a(I982
I1
F1.0
S'good'
p2682
I15
tp2683
a(I997
I3
F0.5
S'crisp'
p2684
I15
tp2685
a(I997
I3
F-0.5
S'loud'
p2686
I15
tp2687
a(I1011
I1
I0
S'shatter'
p2688
I15
tp2689
a(I1024
I3
F-1.0
S'bad'
p2690
I15
tp2691
a(I1115
I1
F1.0
S'good'
p2692
I15
tp2693
a(I1237
I0
F1.0
g2357
I15
tp2694
a(I1272
I3
F0.875
S'superb'
p2695
I15
tp2696
a(I1309
I2
F0.5
S'touch'
p2697
I15
tp2698
a(I1309
I2
F-0.875
S'low'
p2699
I15
tp2700
a(I1483
I5
I0
S'surround'
p2701
I15
tp2702
a(I1519
I0
F-0.875
g2431
I15
tp2703
a(I1562
I1
F1.0
S'good'
p2704
I15
tp2705
a(I1585
I14
I0
g2439
I15
tp2706
a(I1987
I19
F-0.875
S'low'
p2707
I15
tp2708
a(I2139
I2
F1.0
g2379
I15
tp2709
as(S'good'
p2710
S'battery'
p2711
S'backup'
p2712
tp2713
(lp2714
(I13
I16
F1.0
S'good'
p2715
I0
tp2716
a(I178
I0
F1.0
S'good'
p2717
I0
tp2718
a(I187
I25
F1.0
S'good'
p2719
I0
tp2720
a(I187
I25
I0
S'wifi'
p2721
I0
tp2722
a(I476
I23
F1.0
S'good'
p2723
I0
tp2724
a(I600
I1
F1.0
S'good'
p2725
I0
tp2726
a(I879
I21
F1.0
S'good'
p2727
I0
tp2728
a(I931
I11
F1.0
S'good'
p2729
I0
tp2730
a(I990
I44
F0.875
S'attractive'
p2731
I0
tp2732
a(I990
I44
F1.0
S'good'
p2733
I0
tp2734
a(I1251
I2
F1.0
S'good'
p2735
I0
tp2736
a(I1261
I7
F1.0
S'good'
p2737
I0
tp2738
a(I1385
I0
F1.0
S'good'
p2739
I0
tp2740
a(I1409
I3
F0.875
S'nice'
p2741
I0
tp2742
a(I1427
I3
F1.0
S'good'
p2743
I0
tp2744
a(I1431
I1
F1.0
S'good'
p2745
I0
tp2746
a(I1677
I55
F1.0
g771
I0
tp2747
a(I1752
I0
F1.0
g773
I0
tp2748
a(I1753
I0
F1.0
g728
I0
tp2749
a(I1799
I0
F1.0
S'good'
p2750
I0
tp2751
a(I1893
I1
F1.0
S'good'
p2752
I0
tp2753
a(I1916
I3
F1.0
S'good'
p2754
I0
tp2755
a(I1919
I5
F1.0
S'good'
p2756
I0
tp2757
a(I1926
I0
F1.0
S'good'
p2758
I0
tp2759
a(I1961
I1
F1.0
S'good'
p2760
I0
tp2761
a(I1992
I2
F-0.75
S'free'
p2762
I0
tp2763
a(I1992
I9
F1.0
S'good'
p2764
I0
tp2765
a(I1992
I9
F-1.0
S'bad'
p2766
I0
tp2767
a(I1992
I17
F1.0
S'good'
p2768
I0
tp2769
a(I2110
I2
F1.0
S'good'
p2770
I0
tp2771
a(I2126
I2
F1.0
S'good'
p2772
I0
tp2773
a(I2145
I2
F1.0
S'good'
p2774
I0
tp2775
as(S'back'
p2776
S'cover'
p2777
tp2778
(lp2779
(I9
I4
F-0.5
S'original'
p2780
I2
tp2781
a(I152
I3
F0.75
S'premium'
p2782
I2
tp2783
a(I171
I0
I0
S'metallic'
p2784
I2
tp2785
a(I184
I32
F-0.125
S'back'
p2786
I2
tp2787
a(I228
I27
F0.75
S'easy'
p2788
I2
tp2789
a(I339
I2
F-0.125
S'back'
p2790
I2
tp2791
a(I339
I2
F1.0
S'good'
p2792
I2
tp2793
a(I358
I10
F-0.75
S'difficult'
p2794
I2
tp2795
a(I523
I1
F-0.125
S'back'
p2796
I2
tp2797
a(I639
I1
F-0.125
S'back'
p2798
I2
tp2799
a(I658
I1
F1.0
S'good'
p2800
I2
tp2801
a(I658
I1
F-0.125
S'back'
p2802
I2
tp2803
a(I767
I1
F0.875
S'attractive'
p2804
I2
tp2805
a(I948
I3
F-0.125
S'back'
p2806
I2
tp2807
a(I1175
I0
F-0.125
S'back'
p2808
I2
tp2809
a(I1175
I0
F-0.75
S'loose'
p2810
I2
tp2811
a(I1192
I6
F0.5
S'slight'
p2812
I2
tp2813
a(I1255
I2
F1.0
S'good'
p2814
I2
tp2815
a(I1299
I4
F-0.125
S'back'
p2816
I2
tp2817
a(I1313
I3
F1.0
S'good'
p2818
I2
tp2819
a(I1327
I22
F-0.25
S'i'
p2820
I2
tp2821
a(I1546
I1
F-0.125
S'back'
p2822
I2
tp2823
a(I1564
I1
F0.75
S'easy'
p2824
I2
tp2825
a(I1899
I24
F-0.125
S'back'
p2826
I2
tp2827
a(I1899
I25
F-0.125
S'back'
p2828
I2
tp2829
a(I1899
I25
F0.75
S'proper'
p2830
I2
tp2831
a(I1899
I30
F0.625
S'fine'
p2832
I2
tp2833
a(I1994
I13
F-0.125
S'back'
p2834
I2
tp2835
a(I9
I4
F-0.5
g2780
I3
tp2836
a(I152
I3
F0.75
g2782
I3
tp2837
a(I171
I0
I0
g2784
I3
tp2838
a(I184
I32
F-0.125
g2786
I3
tp2839
a(I228
I27
F0.75
g2788
I3
tp2840
a(I339
I2
F-0.125
g2790
I3
tp2841
a(I339
I2
F1.0
g2792
I3
tp2842
a(I358
I10
F-0.75
g2794
I3
tp2843
a(I523
I1
F-0.125
g2796
I3
tp2844
a(I536
I3
F-0.625
S'useless'
p2845
I3
tp2846
a(I639
I1
F-0.125
g2798
I3
tp2847
a(I658
I1
F1.0
g2800
I3
tp2848
a(I658
I1
F-0.125
g2802
I3
tp2849
a(I767
I1
F0.875
g2804
I3
tp2850
a(I948
I3
F-0.125
g2806
I3
tp2851
a(I1056
I18
F0.5
S'expensive'
p2852
I3
tp2853
a(I1175
I0
F-0.125
g2808
I3
tp2854
a(I1175
I0
F-0.75
g2810
I3
tp2855
a(I1192
I6
F0.5
g2812
I3
tp2856
a(I1255
I2
F1.0
g2814
I3
tp2857
a(I1299
I4
F-0.125
g2816
I3
tp2858
a(I1313
I3
F1.0
g2818
I3
tp2859
a(I1464
I17
I0
S'big'
p2860
I3
tp2861
a(I1546
I1
F-0.125
g2822
I3
tp2862
a(I1564
I1
F0.75
g2824
I3
tp2863
a(I1833
I1
F0.5
S'high'
p2864
I3
tp2865
a(I1899
I24
F-0.125
g2826
I3
tp2866
a(I1899
I25
F-0.125
g2828
I3
tp2867
a(I1899
I25
F0.75
g2830
I3
tp2868
a(I1899
I26
F0.75
S'fit'
p2869
I3
tp2870
a(I1899
I30
F0.625
g2832
I3
tp2871
a(I1994
I13
F-0.125
g2834
I3
tp2872
as(S'for'
p2873
S'price'
p2874
S'range'
p2875
tp2876
(lp2877
(I196
I5
F0.625
g1617
I0
tp2878
a(I206
I1
I0
g1619
I0
tp2879
a(I378
I4
F-0.375
g1594
I0
tp2880
a(I378
I4
F-0.75
g1596
I0
tp2881
a(I378
I4
F-0.5
g1598
I0
tp2882
a(I416
I1
F-0.375
g1600
I0
tp2883
a(I2044
I0
F-0.875
g1638
I0
tp2884
as(g269
S'3rd'
p2885
S'gen'
p2886
tp2887
(lp2888
(I251
I6
F-0.25
S'i'
p2889
I0
tp2890
a(I318
I2
F-0.625
S'last'
p2891
I0
tp2892
a(I416
I10
F-0.625
S'flat'
p2893
I0
tp2894
a(I505
I0
I0
S'g'
p2895
I0
tp2896
a(I546
I3
I0
S'g'
p2897
I0
tp2898
a(I871
I6
F-0.25
S'previous'
p2899
I0
tp2900
a(I1215
I0
I0
S'g'
p2901
I0
tp2902
a(I1352
I3
I0
g398
I0
tp2903
a(I1573
I0
F-0.5
S'less'
p2904
I0
tp2905
a(I1677
I52
F0.5
S'similar'
p2906
I0
tp2907
as(S'day'
p2908
S'to'
p2909
S'day'
p2910
tp2911
(lp2912
(I33
I10
F-0.875
S'wrong'
p2913
I0
tp2914
a(I134
I6
F-0.375
S'same'
p2915
I0
tp2916
a(I134
I24
F-0.5
S'continuous'
p2917
I0
tp2918
a(I155
I0
F0.625
S'first'
p2919
I0
tp2920
a(I155
I0
F0.625
S'first'
p2921
I0
tp2922
a(I184
I18
F-0.625
S'other'
p2923
I0
tp2924
a(I184
I40
I0
S'launch'
p2925
I0
tp2926
a(I203
I5
F-0.125
S'next'
p2927
I0
tp2928
a(I220
I0
F0.375
S'full'
p2929
I0
tp2930
a(I220
I4
F-0.625
S'last'
p2931
I0
tp2932
a(I230
I6
I0
S'third'
p2933
I0
tp2934
a(I424
I3
F-0.125
S'next'
p2935
I0
tp2936
a(I451
I3
F-0.625
S'last'
p2937
I0
tp2938
a(I451
I3
F0.75
S'whole'
p2939
I0
tp2940
a(I528
I0
F0.75
S'whole'
p2941
I0
tp2942
a(I648
I1
F0.5
S'entire'
p2943
I0
tp2944
a(I656
I0
F0.375
S'much'
p2945
I0
tp2946
a(I656
I0
I0
S'least'
p2947
I0
tp2948
a(I667
I43
F-0.125
S'next'
p2949
I0
tp2950
a(I668
I23
F0.375
S'full'
p2951
I0
tp2952
a(I871
I0
I0
S'third'
p2953
I0
tp2954
a(I876
I0
F-0.75
S'free'
p2955
I0
tp2956
a(I1212
I3
F0.375
S'full'
p2957
I0
tp2958
a(I1212
I3
I0
S'mix'
p2959
I0
tp2960
a(I1219
I1
F0.375
S'full'
p2961
I0
tp2962
a(I1242
I5
I0
S'light'
p2963
I0
tp2964
a(I1320
I6
F-0.125
S'next'
p2965
I0
tp2966
a(I1464
I14
F0.75
S'whole'
p2967
I0
tp2968
a(I1659
I18
F-0.625
S'other'
p2969
I0
tp2970
a(I1659
I34
I0
S'actual'
p2971
I0
tp2972
a(I1669
I18
I0
S'launch'
p2973
I0
tp2974
a(I1684
I43
F0.25
S'able'
p2975
I0
tp2976
a(I1684
I43
F0.375
S'full'
p2977
I0
tp2978
a(I1773
I0
I0
S'more'
p2979
I0
tp2980
as(S'led'
p2981
S'notification'
p2982
S'light'
p2983
tp2984
(lp2985
(I1790
I4
F0.625
g555
I0
tp2986
a(I36
I13
I0
S'useful'
p2987
I14
tp2988
a(I59
I2
F-0.875
g1181
I14
tp2989
a(I59
I2
F1.0
g1183
I14
tp2990
a(I75
I1
F-0.875
g1239
I14
tp2991
a(I96
I0
F-0.875
g1185
I14
tp2992
a(I101
I0
F-0.875
S'smart'
p2993
I14
tp2994
a(I111
I1
F-0.875
g1242
I14
tp2995
a(I165
I12
F0.125
S'mobile'
p2996
I14
tp2997
a(I202
I2
F-0.875
g1187
I14
tp2998
a(I206
I2
F-0.875
g1189
I14
tp2999
a(I236
I1
F-0.875
g1191
I14
tp3000
a(I354
I0
F-0.875
g1193
I14
tp3001
a(I358
I7
F-0.875
g1195
I14
tp3002
a(I358
I7
F0.875
g1197
I14
tp3003
a(I392
I6
F0.375
S'much'
p3004
I14
tp3005
a(I392
I6
F0.5
S'possible'
p3006
I14
tp3007
a(I447
I0
F-0.875
g1250
I14
tp3008
a(I476
I10
F-0.875
g1199
I14
tp3009
a(I476
I10
F-0.875
g1201
I14
tp3010
a(I621
I0
F1.0
S'good'
p3011
I14
tp3012
a(I690
I16
I0
S'normal'
p3013
I14
tp3014
a(I819
I7
F-0.875
g1203
I14
tp3015
a(I822
I2
F-0.875
g1205
I14
tp3016
a(I822
I2
F1.0
g1207
I14
tp3017
a(I832
I9
F-0.875
g1209
I14
tp3018
a(I844
I6
F-0.625
g1211
I14
tp3019
a(I844
I6
F-0.75
g1213
I14
tp3020
a(I898
I1
F-0.875
g1215
I14
tp3021
a(I898
I1
F-1.0
g1217
I14
tp3022
a(I931
I21
F-0.875
g1219
I14
tp3023
a(I952
I1
F-0.625
S'natural'
p3024
I14
tp3025
a(I1005
I3
F-0.625
S'fast'
p3026
I14
tp3027
a(I1010
I9
F1.0
S'soft'
p3028
I14
tp3029
a(I1023
I1
F1.0
g1263
I14
tp3030
a(I1023
I1
F-0.875
g1265
I14
tp3031
a(I1135
I3
F-0.778
S'common'
p3032
I14
tp3033
a(I1158
I0
F-0.75
S'artificial'
p3034
I14
tp3035
a(I1165
I2
F-0.5
S'flash'
p3036
I14
tp3037
a(I1179
I32
F-0.875
g1221
I14
tp3038
a(I1179
I32
F0.375
g1223
I14
tp3039
a(I1242
I0
F-0.875
g1225
I14
tp3040
a(I1284
I15
F-0.5
S'flash'
p3041
I14
tp3042
a(I1330
I3
F-0.875
g1227
I14
tp3043
a(I1348
I1
F-0.875
g1229
I14
tp3044
a(I1374
I3
F-0.875
g1231
I14
tp3045
a(I1386
I0
F-0.875
g1233
I14
tp3046
a(I1489
I2
F-0.5
S'flash'
p3047
I14
tp3048
a(I1666
I3
F-0.875
g1235
I14
tp3049
a(I1794
I6
F0.125
S'display'
p3050
I14
tp3051
a(I1812
I1
F-0.5
S'flash'
p3052
I14
tp3053
a(I1997
I7
F-0.875
g1277
I14
tp3054
as(g30
S'3'
p3055
S'days'
p3056
tp3057
(lp3058
(I295
I1
I0
S'u'
p3059
I0
tp3060
a(I515
I1
F-0.625
S'last'
p3061
I0
tp3062
a(I637
I0
F0.875
S'happy'
p3063
I0
tp3064
a(I146
I0
F-0.5
S'several'
p3065
I4
tp3066
a(I225
I12
F0.375
S'usage'
p3067
I4
tp3068
a(I295
I1
I0
g3059
I4
tp3069
a(I305
I1
F-0.625
S'new'
p3070
I4
tp3071
a(I515
I1
F-0.625
g3061
I4
tp3072
a(I637
I0
F0.875
g3063
I4
tp3073
a(I702
I7
F0.125
S'mobile'
p3074
I4
tp3075
a(I1650
I1
F-0.625
S'last'
p3076
I4
tp3077
a(I230
I8
F-0.25
S'past'
p3078
I2
tp3079
a(I295
I1
I0
g3059
I2
tp3080
a(I515
I1
F-0.625
g3061
I2
tp3081
a(I637
I0
F0.875
g3063
I2
tp3082
a(I930
I1
F0.375
S'full'
p3083
I2
tp3084
a(I930
I1
I0
S'least'
p3085
I2
tp3086
a(I990
I25
F-0.25
S'past'
p3087
I2
tp3088
a(I1009
I1
I0
S'few'
p3089
I2
tp3090
a(I1162
I12
I0
S'more'
p3091
I2
tp3092
a(I1217
I3
I0
S'more'
p3093
I2
tp3094
as(S'bla'
p3095
S'bla'
p3096
tp3097
(lp3098
(I1659
I22
F-0.375
S'same'
p3099
I0
tp3100
as(S'smooth'
p3101
tp3102
(lp3103
(I199
I3
I0
S'butter'
p3104
I3
tp3105
a(I208
I5
I0
S'butter'
p3106
I3
tp3107
a(I208
I5
I0
S'lags'
p3108
I3
tp3109
a(I808
I1
F-0.75
S'absolute'
p3110
I3
tp3111
a(I894
I0
F0.5
S'touch'
p3112
I3
tp3113
a(I946
I8
F0.625
S'super'
p3114
I3
tp3115
a(I1278
I0
I0
S'butter'
p3116
I3
tp3117
a(I1313
I14
F0.625
S'super'
p3118
I3
tp3119
a(I2087
I4
F0.625
S'super'
p3120
I3
tp3121
as(S'good'
p3122
S'battery'
p3123
S'life'
p3124
tp3125
(lp3126
(I5
I1
F1.0
S'good'
p3127
I0
tp3128
a(I23
I1
F1.0
S'good'
p3129
I0
tp3130
a(I200
I1
F1.0
S'good'
p3131
I0
tp3132
a(I409
I1
F0.75
S'easy'
p3133
I0
tp3134
a(I424
I0
F1.0
S'good'
p3135
I0
tp3136
a(I515
I1
F1.0
S'good'
p3137
I0
tp3138
a(I528
I0
F1.0
S'good'
p3139
I0
tp3140
a(I547
I9
F1.0
S'good'
p3141
I0
tp3142
a(I560
I0
F1.0
S'good'
p3143
I0
tp3144
a(I605
I1
F1.0
S'good'
p3145
I0
tp3146
a(I705
I1
F1.0
S'good'
p3147
I0
tp3148
a(I747
I23
F-0.625
S'average'
p3149
I0
tp3150
a(I1033
I0
F1.0
S'good'
p3151
I0
tp3152
a(I1149
I0
F1.0
S'good'
p3153
I0
tp3154
a(I1287
I1
F1.0
S'good'
p3155
I0
tp3156
a(I1480
I1
F1.0
S'good'
p3157
I0
tp3158
a(I1599
I1
F1.0
S'good'
p3159
I0
tp3160
a(I1599
I1
F1.0
S'good'
p3161
I0
tp3162
a(I2065
I4
F1.0
S'good'
p3163
I0
tp3164
a(I2068
I7
F-0.25
S'battery'
p3165
I0
tp3166
a(I2068
I7
F1.0
S'good'
p3167
I0
tp3168
a(I2144
I0
F1.0
S'good'
p3169
I0
tp3170
a(I2161
I0
F1.0
S'good'
p3171
I0
tp3172
a(I13
I16
F1.0
g2715
I1
tp3173
a(I137
I1
F-0.625
S'last'
p3174
I1
tp3175
a(I178
I0
F1.0
g2717
I1
tp3176
a(I196
I21
F1.0
S'good'
p3177
I1
tp3178
a(I417
I6
F1.0
S'good'
p3179
I1
tp3180
a(I424
I0
F1.0
g3135
I1
tp3181
a(I484
I1
F1.0
S'good'
p3182
I1
tp3183
a(I547
I9
F1.0
g3141
I1
tp3184
a(I552
I0
F1.0
g757
I1
tp3185
a(I560
I0
F1.0
g3143
I1
tp3186
a(I600
I5
F1.0
g724
I1
tp3187
a(I747
I23
F-0.625
g3149
I1
tp3188
a(I805
I0
F1.0
S'good'
p3189
I1
tp3190
a(I849
I0
F1.0
S'good'
p3191
I1
tp3192
a(I879
I21
F1.0
g2727
I1
tp3193
a(I990
I44
F0.875
g2731
I1
tp3194
a(I990
I44
F1.0
g2733
I1
tp3195
a(I1020
I24
F1.0
S'good'
p3196
I1
tp3197
a(I1033
I0
F1.0
g3151
I1
tp3198
a(I1076
I0
F1.0
S'good'
p3199
I1
tp3200
a(I1102
I0
F1.0
S'good'
p3201
I1
tp3202
a(I1112
I0
F1.0
S'good'
p3203
I1
tp3204
a(I1149
I0
F1.0
g3153
I1
tp3205
a(I1251
I2
F1.0
g2735
I1
tp3206
a(I1294
I0
F1.0
S'good'
p3207
I1
tp3208
a(I1385
I0
F1.0
g2739
I1
tp3209
a(I1427
I3
F1.0
g2743
I1
tp3210
a(I1431
I1
F1.0
g2745
I1
tp3211
a(I1447
I2
F1.0
S'good'
p3212
I1
tp3213
a(I1587
I28
F1.0
S'good'
p3214
I1
tp3215
a(I1599
I1
F1.0
g3159
I1
tp3216
a(I1640
I9
F1.0
S'good'
p3217
I1
tp3218
a(I1640
I12
F1.0
S'good'
p3219
I1
tp3220
a(I1677
I55
F1.0
g771
I1
tp3221
a(I1698
I11
F1.0
S'good'
p3222
I1
tp3223
a(I1749
I10
F1.0
S'good'
p3224
I1
tp3225
a(I1752
I0
F1.0
g773
I1
tp3226
a(I1753
I0
F1.0
g728
I1
tp3227
a(I1773
I0
F1.0
S'good'
p3228
I1
tp3229
a(I1876
I9
F1.0
S'good'
p3230
I1
tp3231
a(I1877
I10
F-0.125
S'mallow'
p3232
I1
tp3233
a(I1934
I11
F1.0
S'good'
p3234
I1
tp3235
a(I1949
I0
F1.0
S'good'
p3236
I1
tp3237
a(I1987
I8
F1.0
S'good'
p3238
I1
tp3239
a(I1992
I2
F-0.75
g2762
I1
tp3240
a(I2016
I0
F1.0
S'good'
p3241
I1
tp3242
a(I2024
I0
F-0.875
S'poor'
p3243
I1
tp3244
a(I2048
I0
F1.0
S'good'
p3245
I1
tp3246
a(I2126
I2
F1.0
g2772
I1
tp3247
a(I2138
I2
F1.0
S'good'
p3248
I1
tp3249
a(I2143
I2
F1.0
S'good'
p3250
I1
tp3251
a(I2144
I0
F1.0
g3169
I1
tp3252
a(I2145
I2
F1.0
g2774
I1
tp3253
a(I2154
I3
I0
S'durable'
p3254
I1
tp3255
a(I2161
I0
F1.0
g3171
I1
tp3256
a(I5
I1
F1.0
g3127
I3
tp3257
a(I23
I1
F1.0
g3129
I3
tp3258
a(I30
I0
F0.875
S'awesome'
p3259
I3
tp3260
a(I118
I0
I0
g751
I3
tp3261
a(I200
I1
F1.0
g3131
I3
tp3262
a(I220
I4
F-0.625
S'real'
p3263
I3
tp3264
a(I319
I2
F0.875
S'decent'
p3265
I3
tp3266
a(I409
I1
F0.75
g3133
I3
tp3267
a(I424
I0
F1.0
g3135
I3
tp3268
a(I515
I1
F1.0
g3137
I3
tp3269
a(I528
I0
F1.0
g3139
I3
tp3270
a(I547
I9
F1.0
g3141
I3
tp3271
a(I560
I0
F1.0
g3143
I3
tp3272
a(I605
I1
F1.0
g3145
I3
tp3273
a(I612
I0
F0.875
S'awesome'
p3274
I3
tp3275
a(I676
I52
F0.875
S'awesome'
p3276
I3
tp3277
a(I705
I1
F1.0
g3147
I3
tp3278
a(I747
I23
F-0.625
g3149
I3
tp3279
a(I934
I0
F0.25
S'stellar'
p3280
I3
tp3281
a(I1032
I10
F0.875
S'awesome'
p3282
I3
tp3283
a(I1033
I0
F1.0
g3151
I3
tp3284
a(I1149
I0
F1.0
g3153
I3
tp3285
a(I1170
I1
F-0.25
S'battery'
p3286
I3
tp3287
a(I1170
I1
I0
S'freaking'
p3288
I3
tp3289
a(I1179
I22
F0.25
S'stellar'
p3290
I3
tp3291
a(I1206
I1
F0.5
S'large'
p3292
I3
tp3293
a(I1275
I7
F-0.625
S'other'
p3294
I3
tp3295
a(I1287
I1
F1.0
g3155
I3
tp3296
a(I1355
I1
F0.625
S'removable'
p3297
I3
tp3298
a(I1426
I1
F-0.625
S'average'
p3299
I3
tp3300
a(I1480
I1
F1.0
g3157
I3
tp3301
a(I1599
I1
F1.0
g3159
I3
tp3302
a(I1599
I1
F1.0
g3161
I3
tp3303
a(I1684
I42
I0
S'normal'
p3304
I3
tp3305
a(I1763
I2
F-0.875
S'low'
p3306
I3
tp3307
a(I1994
I0
F-0.875
S'poor'
p3308
I3
tp3309
a(I2009
I0
F0.375
S'ok'
p3310
I3
tp3311
a(I2065
I4
F1.0
g3163
I3
tp3312
a(I2068
I7
F-0.25
g3165
I3
tp3313
a(I2068
I7
F1.0
g3167
I3
tp3314
a(I2117
I0
F1.0
S'excellent'
p3315
I3
tp3316
a(I2144
I0
F1.0
g3169
I3
tp3317
a(I2161
I0
F1.0
g3171
I3
tp3318
a(I5
I1
F1.0
g3127
I8
tp3319
a(I23
I1
F1.0
g3129
I8
tp3320
a(I30
I0
F0.875
g3259
I8
tp3321
a(I200
I1
F1.0
g3131
I8
tp3322
a(I220
I4
F-0.625
g3263
I8
tp3323
a(I224
I1
F-0.625
S'real'
p3324
I8
tp3325
a(I409
I1
F0.75
g3133
I8
tp3326
a(I427
I30
F-0.75
S'difficult'
p3327
I8
tp3328
a(I436
I2
F0.75
S'easy'
p3329
I8
tp3330
a(I515
I1
F1.0
g3137
I8
tp3331
a(I528
I0
F1.0
g3139
I8
tp3332
a(I605
I1
F1.0
g3145
I8
tp3333
a(I612
I0
F0.875
g3274
I8
tp3334
a(I676
I52
F0.875
g3276
I8
tp3335
a(I705
I1
F1.0
g3147
I8
tp3336
a(I1032
I10
F0.875
g3282
I8
tp3337
a(I1170
I1
F-0.25
g3286
I8
tp3338
a(I1170
I1
I0
g3288
I8
tp3339
a(I1179
I22
F0.25
g3290
I8
tp3340
a(I1182
I0
I0
S'ur'
p3341
I8
tp3342
a(I1275
I7
F-0.625
g3294
I8
tp3343
a(I1287
I1
F1.0
g3155
I8
tp3344
a(I1480
I1
F1.0
g3157
I8
tp3345
a(I1599
I1
F1.0
g3161
I8
tp3346
a(I1684
I42
I0
g3304
I8
tp3347
a(I1763
I2
F-0.875
g3306
I8
tp3348
a(I1973
I1
F0.625
S'live'
p3349
I8
tp3350
a(I2009
I0
F0.375
g3310
I8
tp3351
a(I2065
I4
F1.0
g3163
I8
tp3352
a(I2068
I7
F-0.25
g3165
I8
tp3353
a(I2068
I7
F1.0
g3167
I8
tp3354
as(S'user'
p3355
tp3356
(lp3357
(I389
I12
F-0.125
S'overall'
p3358
I9
tp3359
a(I389
I12
F1.0
S'good'
p3360
I9
tp3361
a(I417
I5
F-0.625
S'average'
p3362
I9
tp3363
a(I417
I8
F1.0
S'good'
p3364
I9
tp3365
a(I505
I14
I0
S'many'
p3366
I9
tp3367
a(I548
I3
F-0.625
S'moderate'
p3368
I9
tp3369
a(I748
I5
F-0.625
S'moderate'
p3370
I9
tp3371
a(I855
I2
F0.375
S'much'
p3372
I9
tp3373
a(I977
I1
F-0.125
S'ultimate'
p3374
I9
tp3375
a(I1126
I13
I0
S'gaming'
p3376
I9
tp3377
a(I1149
I0
I0
S'light'
p3378
I9
tp3379
a(I1153
I3
I0
S'light'
p3380
I9
tp3381
a(I1153
I19
F1.0
S'good'
p3382
I9
tp3383
a(I1275
I0
F-0.5
S'hassle'
p3384
I9
tp3385
a(I1275
I0
F-0.75
S'free'
p3386
I9
tp3387
a(I1459
I1
I0
S'normal'
p3388
I9
tp3389
a(I1462
I0
F0.5
S'avid'
p3390
I9
tp3391
a(I1722
I11
I0
S'normal'
p3392
I9
tp3393
a(I1794
I6
I0
S'guest'
p3394
I9
tp3395
a(I1799
I0
F0.5
S'applicable'
p3396
I9
tp3397
a(I1799
I0
F-0.5
S'heavy'
p3398
I9
tp3399
a(I1994
I32
I0
S'only'
p3400
I9
tp3401
a(I1994
I32
F-0.75
S'casual'
p3402
I9
tp3403
a(I1994
I32
F-0.5
S'heavy'
p3404
I9
tp3405
a(I1996
I7
F-0.625
S'new'
p3406
I9
tp3407
a(I2009
I0
I0
S'normal'
p3408
I9
tp3409
a(I2108
I9
F0.875
S'awesome'
p3410
I9
tp3411
a(I2108
I9
F0.125
S'mobile'
p3412
I9
tp3413
as(g269
S'2nd'
p3414
S'gen'
p3415
tp3416
(lp3417
(I318
I2
F-0.625
g2891
I0
tp3418
a(I748
I0
F0.125
S'mobile'
p3419
I0
tp3420
a(I1285
I13
F-0.25
S'previous'
p3421
I0
tp3422
a(I1285
I13
F-0.375
g358
I0
tp3423
a(I1749
I2
I0
S'clear'
p3424
I0
tp3425
as(S'very'
p3426
S'good'
p3427
S'camera'
p3428
tp3429
(lp3430
(I208
I11
F1.0
S'good'
p3431
I0
tp3432
a(I382
I1
F1.0
S'good'
p3433
I0
tp3434
a(I447
I0
F1.0
S'excellent'
p3435
I0
tp3436
a(I476
I10
F1.0
S'good'
p3437
I0
tp3438
a(I671
I18
F1.0
S'good'
p3439
I0
tp3440
a(I747
I23
F1.0
S'good'
p3441
I0
tp3442
a(I819
I3
F1.0
S'good'
p3443
I0
tp3444
a(I906
I26
F0.5
S'effective'
p3445
I0
tp3446
a(I1061
I0
F1.0
S'good'
p3447
I0
tp3448
a(I1126
I22
I0
S'rear'
p3449
I0
tp3450
a(I1126
I22
F1.0
S'good'
p3451
I0
tp3452
a(I1141
I1
F1.0
S'good'
p3453
I0
tp3454
a(I1179
I7
F1.0
S'best'
p3455
I0
tp3456
a(I1179
I31
F1.0
S'good'
p3457
I0
tp3458
a(I1295
I0
F1.0
S'better'
p3459
I0
tp3460
a(I1540
I1
I0
S'rear'
p3461
I0
tp3462
a(I1540
I1
F1.0
S'good'
p3463
I0
tp3464
a(I1768
I9
F1.0
g2251
I0
tp3465
a(I1909
I0
F1.0
S'good'
p3466
I0
tp3467
a(I1919
I4
F1.0
g2261
I0
tp3468
a(I1981
I7
I0
g2267
I0
tp3469
a(I1992
I2
F1.0
S'good'
p3470
I0
tp3471
a(I1992
I18
F-0.125
S'overall'
p3472
I0
tp3473
a(I1992
I18
I0
g2273
I0
tp3474
a(I2033
I0
F1.0
g2278
I0
tp3475
a(I2064
I0
F1.0
S'good'
p3476
I0
tp3477
a(I2107
I0
F1.0
S'good'
p3478
I0
tp3479
a(I2125
I2
F1.0
S'good'
p3480
I0
tp3481
a(I2127
I0
F-0.125
g2280
I0
tp3482
a(I2127
I0
F1.0
g2282
I0
tp3483
a(I55
I2
F1.0
S'good'
p3484
I3
tp3485
a(I85
I0
F1.0
S'good'
p3486
I3
tp3487
a(I85
I1
F-0.125
g2114
I3
tp3488
a(I85
I1
F1.0
g2116
I3
tp3489
a(I170
I11
F1.0
g2127
I3
tp3490
a(I170
I11
F-0.125
g2129
I3
tp3491
a(I187
I18
I0
g2133
I3
tp3492
a(I208
I11
F1.0
g3431
I3
tp3493
a(I236
I1
F1.0
g2140
I3
tp3494
a(I251
I6
F1.0
S'good'
p3495
I3
tp3496
a(I303
I1
F1.0
S'good'
p3497
I3
tp3498
a(I309
I1
F1.0
S'good'
p3499
I3
tp3500
a(I382
I1
F1.0
g3433
I3
tp3501
a(I386
I3
F1.0
S'good'
p3502
I3
tp3503
a(I427
I4
F1.0
S'good'
p3504
I3
tp3505
a(I428
I3
F1.0
S'good'
p3506
I3
tp3507
a(I428
I3
F0.875
S'great'
p3508
I3
tp3509
a(I447
I0
F1.0
g3435
I3
tp3510
a(I463
I2
I0
S'u'
p3511
I3
tp3512
a(I470
I1
F1.0
S'good'
p3513
I3
tp3514
a(I476
I10
F1.0
g3437
I3
tp3515
a(I491
I0
I0
g2154
I3
tp3516
a(I491
I0
F-0.125
g2156
I3
tp3517
a(I491
I0
F-0.125
g2158
I3
tp3518
a(I544
I0
F1.0
S'good'
p3519
I3
tp3520
a(I559
I0
F1.0
S'good'
p3521
I3
tp3522
a(I621
I0
F1.0
S'good'
p3523
I3
tp3524
a(I649
I1
F1.0
S'good'
p3525
I3
tp3526
a(I666
I9
F-0.625
S'average'
p3527
I3
tp3528
a(I671
I18
F1.0
g3439
I3
tp3529
a(I747
I7
F0.375
g2168
I3
tp3530
a(I747
I7
F1.0
g2170
I3
tp3531
a(I747
I7
I0
g2172
I3
tp3532
a(I747
I7
F-1.0
g2174
I3
tp3533
a(I747
I23
F1.0
g3441
I3
tp3534
a(I749
I4
F1.0
S'good'
p3535
I3
tp3536
a(I819
I3
F1.0
g3443
I3
tp3537
a(I832
I9
F1.0
S'good'
p3538
I3
tp3539
a(I832
I9
F0.5
S'higher'
p3540
I3
tp3541
a(I832
I9
F1.0
S'good'
p3542
I3
tp3543
a(I844
I5
F1.0
S'good'
p3544
I3
tp3545
a(I845
I1
F1.0
S'good'
p3546
I3
tp3547
a(I889
I25
F0.5
S'higher'
p3548
I3
tp3549
a(I889
I25
F1.0
S'good'
p3550
I3
tp3551
a(I889
I25
F1.0
S'excellent'
p3552
I3
tp3553
a(I898
I1
F1.0
S'good'
p3554
I3
tp3555
a(I900
I0
F-0.125
g2180
I3
tp3556
a(I900
I0
F1.0
g2182
I3
tp3557
a(I906
I26
F0.5
g3445
I3
tp3558
a(I913
I1
F1.0
S'good'
p3559
I3
tp3560
a(I974
I3
F1.0
S'good'
p3561
I3
tp3562
a(I998
I0
F1.0
S'good'
p3563
I3
tp3564
a(I1032
I13
F1.0
S'good'
p3565
I3
tp3566
a(I1038
I2
F1.0
S'good'
p3567
I3
tp3568
a(I1052
I2
F1.0
S'good'
p3569
I3
tp3570
a(I1061
I0
F1.0
g3447
I3
tp3571
a(I1098
I0
I0
S'rear'
p3572
I3
tp3573
a(I1111
I0
F1.0
S'good'
p3574
I3
tp3575
a(I1126
I4
F1.0
S'good'
p3576
I3
tp3577
a(I1126
I22
I0
g3449
I3
tp3578
a(I1126
I22
F1.0
g3451
I3
tp3579
a(I1141
I1
F1.0
g3453
I3
tp3580
a(I1158
I0
F1.0
S'good'
p3581
I3
tp3582
a(I1178
I1
F1.0
S'good'
p3583
I3
tp3584
a(I1179
I7
F1.0
g3455
I3
tp3585
a(I1179
I31
F1.0
g3457
I3
tp3586
a(I1183
I8
F1.0
S'good'
p3587
I3
tp3588
a(I1183
I8
F-0.125
S'overall'
p3589
I3
tp3590
a(I1183
I8
I0
S'light'
p3591
I3
tp3592
a(I1198
I3
F0.75
g2197
I3
tp3593
a(I1236
I3
F1.0
S'good'
p3594
I3
tp3595
a(I1239
I7
F0.875
g2200
I3
tp3596
a(I1267
I24
I0
S'rear'
p3597
I3
tp3598
a(I1267
I24
I0
S'rear'
p3599
I3
tp3600
a(I1267
I24
F0.375
S'much'
p3601
I3
tp3602
a(I1268
I2
F-0.125
g2206
I3
tp3603
a(I1295
I0
F1.0
g3459
I3
tp3604
a(I1325
I1
F0.5
g2210
I3
tp3605
a(I1342
I0
F1.0
g2213
I3
tp3606
a(I1386
I0
F1.0
g2221
I3
tp3607
a(I1386
I0
F-0.125
g2223
I3
tp3608
a(I1386
I0
F1.0
g2225
I3
tp3609
a(I1444
I0
F1.0
g2231
I3
tp3610
a(I1497
I2
F1.0
g2235
I3
tp3611
a(I1518
I1
I0
g2237
I3
tp3612
a(I1518
I1
F1.0
g2239
I3
tp3613
a(I1518
I1
F-0.125
g2241
I3
tp3614
a(I1540
I1
I0
g3461
I3
tp3615
a(I1540
I1
F1.0
g3463
I3
tp3616
a(I1596
I3
F-0.625
S'average'
p3617
I3
tp3618
a(I1596
I3
F1.0
S'good'
p3619
I3
tp3620
a(I1622
I0
F1.0
S'good'
p3621
I3
tp3622
a(I1622
I0
F-0.625
S'other'
p3623
I3
tp3624
a(I1650
I6
F0.75
S'fantastic'
p3625
I3
tp3626
a(I1670
I8
F1.0
S'good'
p3627
I3
tp3628
a(I1677
I49
I0
S'wow'
p3629
I3
tp3630
a(I1727
I0
F1.0
S'good'
p3631
I3
tp3632
a(I1768
I9
F1.0
g2251
I3
tp3633
a(I1839
I0
F1.0
S'good'
p3634
I3
tp3635
a(I1857
I1
F1.0
S'good'
p3636
I3
tp3637
a(I1892
I5
F1.0
S'good'
p3638
I3
tp3639
a(I1909
I0
F1.0
g3466
I3
tp3640
a(I1911
I0
F1.0
S'good'
p3641
I3
tp3642
a(I1919
I4
F1.0
g2261
I3
tp3643
a(I1920
I0
F1.0
S'good'
p3644
I3
tp3645
a(I1955
I1
F1.0
S'good'
p3646
I3
tp3647
a(I1961
I0
F-0.875
S'low'
p3648
I3
tp3649
a(I1961
I1
F1.0
S'good'
p3650
I3
tp3651
a(I1961
I1
F1.0
S'good'
p3652
I3
tp3653
a(I1964
I6
F1.0
S'good'
p3654
I3
tp3655
a(I1981
I7
I0
g2267
I3
tp3656
a(I1992
I2
F1.0
g3470
I3
tp3657
a(I1992
I7
F1.0
S'good'
p3658
I3
tp3659
a(I1992
I16
F-0.125
g2269
I3
tp3660
a(I1992
I16
F1.0
g2271
I3
tp3661
a(I1992
I18
F-0.125
g3472
I3
tp3662
a(I1992
I18
I0
g2273
I3
tp3663
a(I2007
I0
F1.0
S'good'
p3664
I3
tp3665
a(I2010
I9
F0.625
S'fine'
p3666
I3
tp3667
a(I2023
I2
F1.0
S'good'
p3668
I3
tp3669
a(I2023
I2
F1.0
S'good'
p3670
I3
tp3671
a(I2033
I0
F1.0
g2278
I3
tp3672
a(I2035
I1
F1.0
S'good'
p3673
I3
tp3674
a(I2037
I1
F1.0
S'good'
p3675
I3
tp3676
a(I2064
I0
F1.0
g3476
I3
tp3677
a(I2107
I0
F1.0
g3478
I3
tp3678
a(I2117
I3
F1.0
S'good'
p3679
I3
tp3680
a(I2119
I0
F1.0
S'good'
p3681
I3
tp3682
a(I2125
I2
F1.0
g3480
I3
tp3683
a(I2126
I3
F1.0
S'good'
p3684
I3
tp3685
a(I2127
I0
F-0.125
g2280
I3
tp3686
a(I2127
I0
F1.0
g2282
I3
tp3687
a(I2146
I1
F0.875
S'nice'
p3688
I3
tp3689
a(I2147
I8
F1.0
S'good'
p3690
I3
tp3691
a(I2151
I0
F1.0
S'good'
p3692
I3
tp3693
a(I2153
I0
F1.0
S'good'
p3694
I3
tp3695
a(I2153
I0
F1.0
S'better'
p3696
I3
tp3697
a(I2157
I0
F-0.875
S'poor'
p3698
I3
tp3699
a(I2157
I5
F1.0
g2284
I3
tp3700
as(S'feel'
p3701
tp3702
(lp3703
(I34
I2
F-0.75
S'free'
p3704
I10
tp3705
a(I126
I0
I0
S't'
p3706
I10
tp3707
a(I257
I1
I0
S't'
p3708
I10
tp3709
a(I257
I1
I0
S'n'
p3710
I10
tp3711
a(I257
I1
F0.875
S'nice'
p3712
I10
tp3713
a(I268
I28
F0.375
S'much'
p3714
I10
tp3715
a(I278
I1
I0
S't'
p3716
I10
tp3717
a(I517
I1
F0.875
S'nice'
p3718
I10
tp3719
a(I517
I1
F-0.625
S'secure'
p3720
I10
tp3721
a(I749
I7
F1.0
S'good'
p3722
I10
tp3723
a(I775
I2
I0
S't'
p3724
I10
tp3725
a(I775
I2
F-1.0
S'bad'
p3726
I10
tp3727
a(I814
I7
I0
S't'
p3728
I10
tp3729
a(I1035
I5
I0
S'u'
p3730
I10
tp3731
a(I1259
I25
F0.625
S'closest'
p3732
I10
tp3733
a(I1311
I1
F-0.25
S'i'
p3734
I10
tp3735
a(I1355
I0
F0.75
S'premium'
p3736
I10
tp3737
a(I1355
I0
F-0.375
S'top'
p3738
I10
tp3739
a(I1996
I5
F0.875
S'nice'
p3740
I10
tp3741
as(S'for'
p3742
S'moto'
p3743
S'g3'
p3744
tp3745
(lp3746
(I407
I0
F-0.625
g418
I0
tp3747
a(I523
I1
F-0.75
g1483
I0
tp3748
a(I754
I8
F-0.625
g426
I0
tp3749
a(I1056
I18
F-0.5
g352
I0
tp3750
a(I1670
I6
F0.25
S'worth'
p3751
I0
tp3752
a(I1821
I2
F0.375
g382
I0
tp3753
a(I1875
I4
I0
g384
I0
tp3754
as(S'rear'
p3755
S'camera'
p3756
tp3757
(lp3758
(I85
I1
F-0.125
g2114
I6
tp3759
a(I85
I1
F1.0
g2116
I6
tp3760
a(I96
I0
F0.875
g2030
I6
tp3761
a(I96
I0
F-0.625
g2118
I6
tp3762
a(I133
I7
I0
g2121
I6
tp3763
a(I134
I8
I0
S'rear'
p3764
I6
tp3765
a(I187
I18
I0
g2133
I6
tp3766
a(I268
I12
F-0.125
g2146
I6
tp3767
a(I527
I0
F0.875
g2160
I6
tp3768
a(I599
I15
I0
S'nexus'
p3769
I6
tp3770
a(I599
I15
I0
S'rear'
p3771
I6
tp3772
a(I747
I7
F0.375
g2168
I6
tp3773
a(I747
I7
F1.0
g2170
I6
tp3774
a(I747
I7
I0
g2172
I6
tp3775
a(I747
I7
F-1.0
g2174
I6
tp3776
a(I747
I15
F-0.125
g2176
I6
tp3777
a(I747
I15
I0
g2178
I6
tp3778
a(I841
I5
F0.875
g2048
I6
tp3779
a(I871
I1
I0
S'rear'
p3780
I6
tp3781
a(I1016
I12
I0
g2185
I6
tp3782
a(I1098
I0
I0
g3572
I6
tp3783
a(I1126
I22
I0
g3449
I6
tp3784
a(I1126
I22
F1.0
g3451
I6
tp3785
a(I1128
I12
I0
g2191
I6
tp3786
a(I1131
I0
I0
g2193
I6
tp3787
a(I1179
I31
F1.0
g3457
I6
tp3788
a(I1184
I6
F1.0
g2055
I6
tp3789
a(I1184
I6
F-0.125
g2057
I6
tp3790
a(I1184
I6
I0
g2059
I6
tp3791
a(I1198
I3
F0.75
g2197
I6
tp3792
a(I1236
I3
F1.0
g3594
I6
tp3793
a(I1239
I6
I0
S'rear'
p3794
I6
tp3795
a(I1267
I24
I0
g3597
I6
tp3796
a(I1267
I24
I0
g3599
I6
tp3797
a(I1267
I24
F0.375
g3601
I6
tp3798
a(I1268
I2
F1.0
g2034
I6
tp3799
a(I1268
I2
F-0.125
g2206
I6
tp3800
a(I1444
I0
F1.0
g2231
I6
tp3801
a(I1497
I2
F1.0
g2235
I6
tp3802
a(I1510
I0
F1.0
S'better'
p3803
I6
tp3804
a(I1518
I1
I0
g2237
I6
tp3805
a(I1518
I1
F1.0
g2239
I6
tp3806
a(I1518
I1
F-0.125
g2241
I6
tp3807
a(I1525
I5
I0
S'rear'
p3808
I6
tp3809
a(I1540
I1
I0
g3461
I6
tp3810
a(I1540
I1
F1.0
g3463
I6
tp3811
a(I1575
I0
I0
S'rear'
p3812
I6
tp3813
a(I1884
I14
I0
g2259
I6
tp3814
a(I1966
I1
I0
g2264
I6
tp3815
a(I1992
I18
I0
g2273
I6
tp3816
a(I2033
I0
F1.0
g2278
I6
tp3817
a(I2157
I5
F1.0
g2284
I6
tp3818
as(S'with'
p3819
S'2gb'
p3820
S'ram'
p3821
tp3822
(lp3823
(I217
I2
F-0.75
g49
I1
tp3824
a(I217
I2
F-0.75
g51
I1
tp3825
a(I927
I0
F-0.625
g67
I1
tp3826
a(I927
I0
F0.125
g69
I1
tp3827
a(I1005
I5
F-0.75
g71
I1
tp3828
a(I1430
I7
F0.75
g89
I1
tp3829
a(I1587
I2
F0.5
g91
I1
tp3830
as(S'speaker'
p3831
tp3832
(lp3833
(I8
I1
F0.5
S'functional'
p3834
I16
tp3835
a(I8
I3
F-0.375
S'top'
p3836
I16
tp3837
a(I36
I25
F-0.75
S'single'
p3838
I16
tp3839
a(I66
I2
I0
S'grill'
p3840
I16
tp3841
a(I114
I1
F-0.75
S'single'
p3842
I16
tp3843
a(I114
I1
F-0.5
S'louder'
p3844
I16
tp3845
a(I166
I3
F-0.375
S'top'
p3846
I16
tp3847
a(I196
I4
F-0.375
S'top'
p3848
I16
tp3849
a(I338
I1
F-0.5
S'loud'
p3850
I16
tp3851
a(I382
I1
F1.0
S'good'
p3852
I16
tp3853
a(I386
I0
F-0.75
S'single'
p3854
I16
tp3855
a(I531
I0
F-1.0
S'bad'
p3856
I16
tp3857
a(I562
I0
F1.0
S'excellent'
p3858
I16
tp3859
a(I722
I1
F-0.375
S'top'
p3860
I16
tp3861
a(I842
I50
F0.875
S'music'
p3862
I16
tp3863
a(I906
I8
F-0.25
S'external'
p3864
I16
tp3865
a(I906
I11
F-0.25
S'external'
p3866
I16
tp3867
a(I922
I1
F1.0
S'good'
p3868
I16
tp3869
a(I970
I5
F0.875
S'great'
p3870
I16
tp3871
a(I1016
I10
F-0.5
S'loud'
p3872
I16
tp3873
a(I1016
I10
I0
S'clear'
p3874
I16
tp3875
a(I1035
I2
F1.0
S'good'
p3876
I16
tp3877
a(I1035
I2
F0.75
S'primary'
p3878
I16
tp3879
a(I1098
I0
F1.0
S'good'
p3880
I16
tp3881
a(I1179
I15
F-0.75
S'single'
p3882
I16
tp3883
a(I1179
I15
F-0.5
S'loud'
p3884
I16
tp3885
a(I1179
I15
I0
S'clear'
p3886
I16
tp3887
a(I1199
I11
F1.0
S'excellent'
p3888
I16
tp3889
a(I1267
I20
F-0.625
S'other'
p3890
I16
tp3891
a(I1288
I1
F-0.5
S'loud'
p3892
I16
tp3893
a(I1312
I5
F0.375
S'available'
p3894
I16
tp3895
a(I1353
I12
F-0.75
S'single'
p3896
I16
tp3897
a(I1376
I0
F-0.5
S'loud'
p3898
I16
tp3899
a(I1463
I8
F-0.5
S'loud'
p3900
I16
tp3901
a(I1483
I1
F0.5
S'functional'
p3902
I16
tp3903
a(I1483
I3
F-0.375
S'top'
p3904
I16
tp3905
a(I1519
I0
F-0.5
S'loud'
p3906
I16
tp3907
a(I1519
I0
F-0.75
S'single'
p3908
I16
tp3909
a(I1649
I3
F-0.375
S'top'
p3910
I16
tp3911
a(I1696
I6
F-0.5
S'loud'
p3912
I16
tp3913
a(I1698
I1
F-0.375
S'top'
p3914
I16
tp3915
a(I1698
I1
F-0.375
S'bottom'
p3916
I16
tp3917
a(I1698
I5
F-0.375
S'top'
p3918
I16
tp3919
a(I1698
I5
F-0.5
S'loud'
p3920
I16
tp3921
a(I1972
I1
F-0.5
S'loud'
p3922
I16
tp3923
a(I1995
I1
F-0.625
S'average'
p3924
I16
tp3925
a(I2008
I0
F-0.125
S'front'
p3926
I16
tp3927
a(I2008
I0
F-0.75
S'single'
p3928
I16
tp3929
as(S'stock'
p3930
S'android'
p3931
S'experience'
p3932
tp3933
(lp3934
(I187
I17
I0
S'android'
p3935
I0
tp3936
a(I187
I17
F0.875
S'great'
p3937
I0
tp3938
a(I582
I3
F-0.875
S'wrong'
p3939
I0
tp3940
a(I682
I0
F0.625
S'smooth'
p3941
I0
tp3942
a(I682
I0
I0
S'lag'
p3943
I0
tp3944
a(I682
I0
F-0.75
S'free'
p3945
I0
tp3946
a(I1019
I8
I0
S'lag'
p3947
I0
tp3948
a(I1019
I8
I0
S'android'
p3949
I0
tp3950
a(I1284
I10
I0
S'android'
p3951
I0
tp3952
a(I1284
I10
F0.625
S'smooth'
p3953
I0
tp3954
a(I1409
I4
I0
S'handy'
p3955
I0
tp3956
a(I1596
I1
F1.0
S'good'
p3957
I0
tp3958
a(I2153
I2
F1.0
S'good'
p3959
I0
tp3960
a(I36
I11
I0
S'useful'
p3961
I1
tp3962
a(I36
I11
F-0.125
S'such'
p3963
I1
tp3964
a(I42
I15
F0.75
S'due'
p3965
I1
tp3966
a(I48
I0
I0
S'light'
p3967
I1
tp3968
a(I187
I17
I0
g3935
I1
tp3969
a(I335
I15
F0.75
S'due'
p3970
I1
tp3971
a(I417
I9
F0.75
S'beautiful'
p3972
I1
tp3973
a(I577
I4
F-0.75
S'free'
p3974
I1
tp3975
a(I577
I4
F0.25
S'fluid'
p3976
I1
tp3977
a(I582
I3
F-0.875
g3939
I1
tp3978
a(I1005
I1
F0.625
S'closest'
p3979
I1
tp3980
a(I1005
I5
F1.0
S'best'
p3981
I1
tp3982
a(I1019
I8
I0
g3947
I1
tp3983
a(I1019
I8
I0
g3949
I1
tp3984
a(I1045
I0
I0
S'light'
p3985
I1
tp3986
a(I1130
I1
F0.625
S'smooth'
p3987
I1
tp3988
a(I1259
I22
F-0.625
S'non'
p3989
I1
tp3990
a(I1684
I17
F1.0
S'best'
p3991
I1
tp3992
a(I2124
I0
F0.125
S'usual'
p3993
I1
tp3994
a(I2124
I0
F1.0
S'best'
p3995
I1
tp3996
a(I2153
I2
F1.0
g3959
I1
tp3997
a(I87
I0
I0
S'android'
p3998
I0
tp3999
a(I112
I1
F-0.75
g660
I0
tp4000
a(I112
I1
I0
g662
I0
tp4001
a(I187
I17
F0.875
g3937
I0
tp4002
a(I193
I1
I0
g664
I0
tp4003
a(I193
I1
F-0.75
g666
I0
tp4004
a(I193
I1
I0
g668
I0
tp4005
a(I217
I1
F-0.75
g670
I0
tp4006
a(I217
I1
I0
g672
I0
tp4007
a(I325
I4
I0
S'android'
p4008
I0
tp4009
a(I468
I2
F1.0
S'best'
p4010
I0
tp4011
a(I468
I2
I0
S'android'
p4012
I0
tp4013
a(I561
I0
F-0.75
g674
I0
tp4014
a(I561
I0
I0
g676
I0
tp4015
a(I682
I0
F0.625
g3941
I0
tp4016
a(I682
I0
I0
g3943
I0
tp4017
a(I682
I0
F-0.75
g3945
I0
tp4018
a(I775
I16
F0.25
S'virgin'
p4019
I0
tp4020
a(I775
I16
I0
S'android'
p4021
I0
tp4022
a(I775
I16
F0.375
S'much'
p4023
I0
tp4024
a(I782
I2
F0.875
S'clean'
p4025
I0
tp4026
a(I807
I10
F-0.75
g678
I0
tp4027
a(I807
I10
F-0.375
g680
I0
tp4028
a(I953
I2
F1.0
S'good'
p4029
I0
tp4030
a(I953
I2
F0.875
S'great'
p4031
I0
tp4032
a(I1070
I0
F-0.75
g682
I0
tp4033
a(I1070
I0
I0
g684
I0
tp4034
a(I1126
I11
F-0.75
g686
I0
tp4035
a(I1126
I11
I0
g688
I0
tp4036
a(I1284
I10
I0
g3951
I0
tp4037
a(I1284
I10
F0.625
g3953
I0
tp4038
a(I1284
I12
F-0.75
S'little'
p4039
I0
tp4040
a(I1284
I12
F0.75
S'optimistic'
p4041
I0
tp4042
a(I1327
I11
F-0.75
g692
I0
tp4043
a(I1409
I4
I0
g3955
I0
tp4044
a(I1472
I0
F-0.75
g694
I0
tp4045
a(I1585
I13
F1.0
S'best'
p4046
I0
tp4047
a(I1585
I13
I0
S'android'
p4048
I0
tp4049
a(I1596
I1
F1.0
g3957
I0
tp4050
a(I1807
I1
F-0.625
g696
I0
tp4051
a(I2030
I3
F-0.75
g698
I0
tp4052
a(I2030
I3
I0
g700
I0
tp4053
a(I2153
I2
F1.0
g3959
I0
tp4054
a(I42
I15
F0.75
g3965
I1
tp4055
a(I187
I17
I0
g3935
I1
tp4056
a(I335
I15
F0.75
g3970
I1
tp4057
a(I433
I1
F0.375
S'available'
p4058
I1
tp4059
a(I577
I4
F-0.75
g3974
I1
tp4060
a(I577
I4
F0.25
g3976
I1
tp4061
a(I582
I3
F-0.875
g3939
I1
tp4062
a(I629
I1
F-0.25
S'latest'
p4063
I1
tp4064
a(I667
I66
I0
S't'
p4065
I1
tp4066
a(I1005
I1
F0.625
g3979
I1
tp4067
a(I1005
I5
F1.0
g3981
I1
tp4068
a(I1019
I8
I0
g3947
I1
tp4069
a(I1019
I8
I0
g3949
I1
tp4070
a(I1130
I1
F0.625
g3987
I1
tp4071
a(I1259
I22
F-0.625
g3989
I1
tp4072
a(I1684
I17
F1.0
g3991
I1
tp4073
a(I2124
I0
F0.125
g3993
I1
tp4074
a(I36
I26
F-0.5
S'loud'
p4075
I12
tp4076
a(I36
I34
F0.625
S'frustrating'
p4077
I12
tp4078
a(I67
I10
F0.625
S'smooth'
p4079
I12
tp4080
a(I87
I0
I0
g3998
I12
tp4081
a(I112
I1
F-0.75
g660
I12
tp4082
a(I112
I1
I0
g662
I12
tp4083
a(I127
I0
F-0.125
S'overall'
p4084
I12
tp4085
a(I127
I0
F0.875
S'great'
p4086
I12
tp4087
a(I133
I4
F0.625
S'first'
p4088
I12
tp4089
a(I133
I4
F1.0
S'good'
p4090
I12
tp4091
a(I147
I3
I0
S'initial'
p4092
I12
tp4093
a(I158
I6
F0.5
S'personal'
p4094
I12
tp4095
a(I166
I6
F-1.0
S'worst'
p4096
I12
tp4097
a(I187
I17
F0.875
g3937
I12
tp4098
a(I193
I1
I0
g664
I12
tp4099
a(I193
I1
F-0.75
g666
I12
tp4100
a(I193
I1
I0
g668
I12
tp4101
a(I193
I18
F0.75
S'whole'
p4102
I12
tp4103
a(I195
I6
F0.625
S'desired'
p4104
I12
tp4105
a(I195
I6
F0.375
S'usage'
p4106
I12
tp4107
a(I203
I8
F0.875
S'awesome'
p4108
I12
tp4109
a(I216
I8
I0
S'user'
p4110
I12
tp4111
a(I217
I1
F-0.75
g670
I12
tp4112
a(I217
I1
I0
g672
I12
tp4113
a(I224
I1
F1.0
S'good'
p4114
I12
tp4115
a(I266
I41
F-0.5
S'slow'
p4116
I12
tp4117
a(I286
I2
F-0.125
S'overall'
p4118
I12
tp4119
a(I325
I4
I0
g4008
I12
tp4120
a(I363
I3
F-1.0
S'bad'
p4121
I12
tp4122
a(I365
I7
I0
S'user'
p4123
I12
tp4124
a(I365
I9
I0
S'user'
p4125
I12
tp4126
a(I365
I9
F-0.75
S'difficult'
p4127
I12
tp4128
a(I389
I7
F0.75
S'premium'
p4129
I12
tp4130
a(I468
I2
F1.0
g4010
I12
tp4131
a(I468
I2
I0
g4012
I12
tp4132
a(I561
I0
F-0.75
g674
I12
tp4133
a(I561
I0
I0
g676
I12
tp4134
a(I667
I4
F-1.0
S'worst'
p4135
I12
tp4136
a(I667
I34
F-0.875
S'poor'
p4137
I12
tp4138
a(I680
I0
F1.0
S'best'
p4139
I12
tp4140
a(I680
I0
F-0.125
S'overall'
p4141
I12
tp4142
a(I682
I0
F0.625
g3941
I12
tp4143
a(I682
I0
I0
g3943
I12
tp4144
a(I682
I0
F-0.75
g3945
I12
tp4145
a(I775
I13
F-1.0
S'bad'
p4146
I12
tp4147
a(I775
I16
F0.25
g4019
I12
tp4148
a(I775
I16
I0
g4021
I12
tp4149
a(I775
I16
F0.375
g4023
I12
tp4150
a(I775
I21
F0.625
S'smooth'
p4151
I12
tp4152
a(I783
I3
F-0.375
S'same'
p4153
I12
tp4154
a(I807
I10
F-0.375
g680
I12
tp4155
a(I889
I12
F-0.5
S'disappointed'
p4156
I12
tp4157
a(I889
I14
F1.0
S'excellent'
p4158
I12
tp4159
a(I906
I19
F-1.0
S'bad'
p4160
I12
tp4161
a(I953
I2
F1.0
g4029
I12
tp4162
a(I953
I2
F0.875
g4031
I12
tp4163
a(I990
I26
F0.75
S'pleasant'
p4164
I12
tp4165
a(I1034
I12
I0
S'user'
p4166
I12
tp4167
a(I1037
I5
F1.0
S'good'
p4168
I12
tp4169
a(I1037
I5
F0.75
S'due'
p4170
I12
tp4171
a(I1056
I16
F0.875
S'great'
p4172
I12
tp4173
a(I1070
I0
F-0.75
g682
I12
tp4174
a(I1070
I0
I0
g684
I12
tp4175
a(I1126
I11
F-0.75
g686
I12
tp4176
a(I1126
I11
I0
g688
I12
tp4177
a(I1128
I16
F1.0
S'good'
p4178
I12
tp4179
a(I1179
I17
I0
S'user'
p4180
I12
tp4181
a(I1259
I4
F-0.875
S'low'
p4182
I12
tp4183
a(I1267
I3
F0.75
S'premium'
p4184
I12
tp4185
a(I1270
I12
F0.75
S'outstanding'
p4186
I12
tp4187
a(I1284
I10
I0
g3951
I12
tp4188
a(I1284
I10
F0.625
g3953
I12
tp4189
a(I1284
I11
F-0.125
S'overall'
p4190
I12
tp4191
a(I1290
I4
I0
S'user'
p4192
I12
tp4193
a(I1292
I4
I0
S'user'
p4194
I12
tp4195
a(I1293
I6
F0.5
S'comparable'
p4196
I12
tp4197
a(I1409
I4
I0
g3955
I12
tp4198
a(I1466
I3
F0.75
S'whole'
p4199
I12
tp4200
a(I1497
I1
F-0.375
S'flawless'
p4201
I12
tp4202
a(I1585
I13
F1.0
g4046
I12
tp4203
a(I1585
I13
I0
g4048
I12
tp4204
a(I1587
I36
F-0.125
S'overall'
p4205
I12
tp4206
a(I1587
I36
F0.875
S'great'
p4207
I12
tp4208
a(I1596
I1
F1.0
g3957
I12
tp4209
a(I1596
I4
F1.0
S'good'
p4210
I12
tp4211
a(I1617
I13
F-0.75
S'weird'
p4212
I12
tp4213
a(I1660
I0
F-1.0
S'worst'
p4214
I12
tp4215
a(I1664
I21
F-1.0
S'bad'
p4216
I12
tp4217
a(I1680
I16
F-1.0
S'worst'
p4218
I12
tp4219
a(I1680
I26
F-0.875
S'terrible'
p4220
I12
tp4221
a(I1680
I26
F-0.125
S'overall'
p4222
I12
tp4223
a(I1722
I20
F-0.875
S'pathetic'
p4224
I12
tp4225
a(I1794
I9
F0.375
S'much'
p4226
I12
tp4227
a(I1794
I9
F-0.25
S'latest'
p4228
I12
tp4229
a(I1863
I1
F0.75
S'whole'
p4230
I12
tp4231
a(I1869
I2
F1.0
S'better'
p4232
I12
tp4233
a(I1963
I1
F0.875
S'great'
p4234
I12
tp4235
a(I2003
I0
F0.875
S'great'
p4236
I12
tp4237
a(I2030
I3
F-0.75
g698
I12
tp4238
a(I2030
I3
I0
g700
I12
tp4239
a(I2106
I0
F0.875
S'amazing'
p4240
I12
tp4241
a(I2122
I1
F0.875
S'great'
p4242
I12
tp4243
a(I36
I11
I0
g3961
I3
tp4244
a(I36
I11
F-0.125
g3963
I3
tp4245
a(I48
I0
I0
g3967
I3
tp4246
a(I134
I15
F0.875
g702
I3
tp4247
a(I325
I1
F-0.25
S'latest'
p4248
I3
tp4249
a(I332
I0
F-0.25
S'latest'
p4250
I3
tp4251
a(I340
I2
F0.875
S'clean'
p4252
I3
tp4253
a(I417
I9
F0.75
g3972
I3
tp4254
a(I436
I1
F0.5
S'stable'
p4255
I3
tp4256
a(I462
I0
F0.625
S'first'
p4257
I3
tp4258
a(I506
I1
F0.625
S'smooth'
p4259
I3
tp4260
a(I547
I5
F-0.25
S'i'
p4261
I3
tp4262
a(I578
I3
F1.0
S'good'
p4263
I3
tp4264
a(I578
I3
F-0.875
S'low'
p4265
I3
tp4266
a(I690
I10
F-0.75
g704
I3
tp4267
a(I782
I2
F0.875
g4025
I3
tp4268
a(I807
I10
F-0.75
g678
I3
tp4269
a(I876
I1
F1.0
S'best'
p4270
I3
tp4271
a(I933
I0
F-0.25
S'latest'
p4272
I3
tp4273
a(I1045
I0
I0
g3985
I3
tp4274
a(I1144
I2
F-0.375
S'same'
p4275
I3
tp4276
a(I1179
I12
F0.875
S'happier'
p4277
I3
tp4278
a(I1187
I2
F0.625
S'first'
p4279
I3
tp4280
a(I1208
I7
F1.0
S'best'
p4281
I3
tp4282
a(I1275
I1
F0.625
S'first'
p4283
I3
tp4284
a(I1284
I12
F-0.75
g4039
I3
tp4285
a(I1284
I12
F0.75
g4041
I3
tp4286
a(I1300
I5
F-0.75
S'raw'
p4287
I3
tp4288
a(I1327
I11
F-0.75
g692
I3
tp4289
a(I1431
I4
I0
S'updated'
p4290
I3
tp4291
a(I1434
I1
F-0.75
g709
I3
tp4292
a(I1472
I0
F-0.75
g694
I3
tp4293
a(I1487
I2
F1.0
S'good'
p4294
I3
tp4295
a(I1587
I16
F-0.625
S'new'
p4296
I3
tp4297
a(I1587
I16
I0
S'user'
p4298
I3
tp4299
a(I1587
I16
F0.75
S'easy'
p4300
I3
tp4301
a(I1807
I1
F-0.625
g696
I3
tp4302
a(I1909
I0
I0
S'inbuilt'
p4303
I3
tp4304
a(I1932
I1
F-0.75
S'free'
p4305
I3
tp4306
a(I1960
I7
I0
S'most'
p4307
I3
tp4308
a(I1960
I7
I0
S'updated'
p4309
I3
tp4310
a(I2087
I6
F-0.25
S'latest'
p4311
I3
tp4312
a(I2109
I0
F0.625
S'first'
p4313
I3
tp4314
a(I2124
I0
F1.0
g3995
I3
tp4315
a(I2142
I9
F0.5
S'true'
p4316
I3
tp4317
a(I2142
I9
F-0.75
S'little'
p4318
I3
tp4319
a(I2142
I9
F0.125
S'overpriced'
p4320
I3
tp4321
a(I2153
I2
F1.0
g3959
I3
tp4322
as(S'to'
p4323
S'moto'
p4324
S'g3'
p4325
tp4326
(lp4327
(I13
I8
F0.875
S'great'
p4328
I0
tp4329
a(I48
I0
I0
g286
I0
tp4330
a(I93
I1
F0.5
S'unique'
p4331
I0
tp4332
a(I116
I0
I0
g290
I0
tp4333
a(I117
I1
F0.75
g292
I0
tp4334
a(I155
I0
F-0.25
g564
I0
tp4335
a(I161
I3
F-0.625
g296
I0
tp4336
a(I295
I1
F0.5
g306
I0
tp4337
a(I389
I6
I0
g1481
I0
tp4338
a(I407
I0
F-0.625
g418
I0
tp4339
a(I425
I7
F0.875
S'great'
p4340
I0
tp4341
a(I491
I15
I0
S's'
p4342
I0
tp4343
a(I523
I1
F-0.75
g1483
I0
tp4344
a(I524
I1
F0.875
S'awesome'
p4345
I0
tp4346
a(I532
I5
F0.5
g318
I0
tp4347
a(I536
I7
I0
g1876
I0
tp4348
a(I754
I8
F-0.625
g426
I0
tp4349
a(I814
I1
F-0.25
g1486
I0
tp4350
a(I832
I8
I0
g1488
I0
tp4351
a(I879
I13
F0.875
S'great'
p4352
I0
tp4353
a(I977
I1
F0.75
g1490
I0
tp4354
a(I990
I38
F-0.125
g567
I0
tp4355
a(I1045
I0
I0
g350
I0
tp4356
a(I1055
I0
F-0.75
g570
I0
tp4357
a(I1056
I18
F-0.5
g352
I0
tp4358
a(I1100
I7
F-0.625
g1907
I0
tp4359
a(I1101
I9
F0.5
g1909
I0
tp4360
a(I1101
I9
F-0.625
g1911
I0
tp4361
a(I1192
I4
F-0.125
g1918
I0
tp4362
a(I1192
I4
F0.375
g1920
I0
tp4363
a(I1313
I13
F0.75
g572
I0
tp4364
a(I1348
I0
F0.75
g1494
I0
tp4365
a(I1670
I6
F0.25
g3751
I0
tp4366
a(I1821
I2
F0.375
g382
I0
tp4367
a(I1875
I4
I0
g384
I0
tp4368
a(I1981
I3
F0.625
g1498
I0
tp4369
a(I2078
I0
F1.0
S'good'
p4370
I0
tp4371
a(I2092
I0
F0.875
g1960
I0
tp4372
a(I2108
I0
F0.875
S'awesome'
p4373
I0
tp4374
as(S'full'
p4375
S'hd'
p4376
S'display'
p4377
tp4378
(lp4379
(I57
I0
F0.375
S'full'
p4380
I0
tp4381
a(I228
I28
F0.375
S'full'
p4382
I0
tp4383
a(I300
I1
F0.375
S'full'
p4384
I0
tp4385
a(I300
I1
F-0.625
S'other'
p4386
I0
tp4387
a(I416
I1
F-0.375
S'same'
p4388
I0
tp4389
a(I416
I1
F0.375
S'full'
p4390
I0
tp4391
a(I551
I0
F0.375
S'full'
p4392
I0
tp4393
a(I690
I16
F0.375
S'full'
p4394
I0
tp4395
a(I690
I16
F0.875
S'awesome'
p4396
I0
tp4397
a(I690
I18
F0.375
S'full'
p4398
I0
tp4399
a(I1054
I0
F0.375
S'full'
p4400
I0
tp4401
a(I1197
I4
F0.375
S'full'
p4402
I0
tp4403
a(I1259
I34
F0.375
S'full'
p4404
I0
tp4405
a(I1259
I36
F0.375
S'full'
p4406
I0
tp4407
a(I1285
I1
F0.375
S'full'
p4408
I0
tp4409
a(I1320
I21
F0.375
S'full'
p4410
I0
tp4411
a(I1328
I2
F0.375
S'full'
p4412
I0
tp4413
a(I1564
I2
F0.375
S'full'
p4414
I0
tp4415
a(I1584
I12
F1.0
S'excellent'
p4416
I0
tp4417
a(I1686
I5
F-0.625
S'sharp'
p4418
I0
tp4419
a(I1688
I5
F0.375
S'full'
p4420
I0
tp4421
a(I57
I0
F0.375
g4380
I0
tp4422
a(I134
I13
F0.375
S'full'
p4423
I0
tp4424
a(I196
I8
F0.375
S'full'
p4425
I0
tp4426
a(I228
I28
F0.375
g4382
I0
tp4427
a(I268
I28
F0.375
S'full'
p4428
I0
tp4429
a(I268
I42
F0.375
S'full'
p4430
I0
tp4431
a(I300
I1
F0.375
g4384
I0
tp4432
a(I300
I1
F-0.625
g4386
I0
tp4433
a(I416
I1
F0.375
g4390
I0
tp4434
a(I551
I0
F0.375
g4392
I0
tp4435
a(I690
I16
F0.375
g4394
I0
tp4436
a(I690
I18
F0.375
g4398
I0
tp4437
a(I775
I2
F0.375
S'full'
p4438
I0
tp4439
a(I890
I1
F0.375
S'full'
p4440
I0
tp4441
a(I890
I1
F0.375
S'full'
p4442
I0
tp4443
a(I924
I0
F1.0
S'best'
p4444
I0
tp4445
a(I924
I0
F0.375
S'full'
p4446
I0
tp4447
a(I1054
I0
F0.375
g4400
I0
tp4448
a(I1197
I4
F0.375
g4402
I0
tp4449
a(I1259
I34
F0.375
g4404
I0
tp4450
a(I1259
I36
F0.375
g4406
I0
tp4451
a(I1285
I1
F0.375
g4408
I0
tp4452
a(I1320
I21
F0.375
g4410
I0
tp4453
a(I1328
I2
F0.375
g4412
I0
tp4454
a(I1564
I2
F0.375
g4414
I0
tp4455
a(I1584
I12
F1.0
g4416
I0
tp4456
a(I1686
I5
F-0.625
g4418
I0
tp4457
a(I1688
I5
F0.375
g4420
I0
tp4458
a(I36
I11
I0
S'active'
p4459
I13
tp4460
a(I36
I12
I0
S'active'
p4461
I13
tp4462
a(I36
I13
F-0.125
S'overall'
p4463
I13
tp4464
a(I36
I13
I0
S'active'
p4465
I13
tp4466
a(I42
I12
F1.0
S'good'
p4467
I13
tp4468
a(I57
I1
F-0.25
S'i'
p4469
I13
tp4470
a(I57
I1
F0.875
S'right'
p4471
I13
tp4472
a(I58
I8
F1.0
S'good'
p4473
I13
tp4474
a(I146
I20
F1.0
S'good'
p4475
I13
tp4476
a(I196
I9
I0
S'clear'
p4477
I13
tp4478
a(I196
I9
F0.625
S'vibrant'
p4479
I13
tp4480
a(I209
I10
F0.5
S'visible'
p4481
I13
tp4482
a(I209
I10
I0
S'screen'
p4483
I13
tp4484
a(I209
I15
F1.0
S'good'
p4485
I13
tp4486
a(I215
I0
F0.5
S'similar'
p4487
I13
tp4488
a(I274
I0
F1.0
S'good'
p4489
I13
tp4490
a(I335
I12
F1.0
S'good'
p4491
I13
tp4492
a(I344
I2
F0.375
S'available'
p4493
I13
tp4494
a(I384
I1
I0
S'active'
p4495
I13
tp4496
a(I386
I6
F1.0
S'better'
p4497
I13
tp4498
a(I389
I21
F1.0
S'good'
p4499
I13
tp4500
a(I415
I6
F-0.375
S'same'
p4501
I13
tp4502
a(I416
I1
F-0.375
g4388
I13
tp4503
a(I425
I12
F1.0
S'good'
p4504
I13
tp4505
a(I427
I4
F1.0
S'good'
p4506
I13
tp4507
a(I427
I4
F1.0
S'good'
p4508
I13
tp4509
a(I428
I3
F0.5
S'sturdy'
p4510
I13
tp4511
a(I428
I3
F0.875
S'great'
p4512
I13
tp4513
a(I436
I4
F1.0
S'good'
p4514
I13
tp4515
a(I458
I1
F0.875
S'great'
p4516
I13
tp4517
a(I547
I9
F0.875
S'decent'
p4518
I13
tp4519
a(I600
I11
I0
S'handy'
p4520
I13
tp4521
a(I656
I1
F0.875
S'great'
p4522
I13
tp4523
a(I667
I16
F0.75
S'due'
p4524
I13
tp4525
a(I675
I5
F1.0
S'good'
p4526
I13
tp4527
a(I676
I1
I0
S'u'
p4528
I13
tp4529
a(I676
I29
I0
S'more'
p4530
I13
tp4531
a(I676
I29
F0.875
S'happy'
p4532
I13
tp4533
a(I676
I37
F0.75
S'whole'
p4534
I13
tp4535
a(I677
I3
F0.5
S'unique'
p4536
I13
tp4537
a(I687
I0
F0.375
S'ambient'
p4538
I13
tp4539
a(I690
I16
F0.875
g4396
I13
tp4540
a(I775
I3
F0.375
S'satisfied'
p4541
I13
tp4542
a(I814
I7
F0.5
S'sturdy'
p4543
I13
tp4544
a(I821
I35
F1.0
S'good'
p4545
I13
tp4546
a(I842
I5
I0
S'bright'
p4547
I13
tp4548
a(I842
I5
I0
S'clear'
p4549
I13
tp4550
a(I842
I5
I0
S'light'
p4551
I13
tp4552
a(I887
I19
F1.0
S'good'
p4553
I13
tp4554
a(I891
I0
F1.0
S'good'
p4555
I13
tp4556
a(I918
I1
F1.0
S'better'
p4557
I13
tp4558
a(I935
I1
F1.0
S'good'
p4559
I13
tp4560
a(I949
I0
F0.5
S'crisp'
p4561
I13
tp4562
a(I990
I8
F-0.875
S'poor'
p4563
I13
tp4564
a(I1008
I11
F0.875
S'nice'
p4565
I13
tp4566
a(I1018
I0
F1.0
S'good'
p4567
I13
tp4568
a(I1020
I7
I0
S'active'
p4569
I13
tp4570
a(I1025
I1
F0.875
S'nice'
p4571
I13
tp4572
a(I1025
I3
F0.875
S'awesome'
p4573
I13
tp4574
a(I1028
I1
F0.5
S'large'
p4575
I13
tp4576
a(I1034
I22
F-0.625
S'blank'
p4577
I13
tp4578
a(I1054
I1
F-0.25
S'i'
p4579
I13
tp4580
a(I1054
I1
F0.875
S'right'
p4581
I13
tp4582
a(I1100
I3
F-0.625
S'average'
p4583
I13
tp4584
a(I1100
I5
F1.0
S'better'
p4585
I13
tp4586
a(I1100
I7
I0
S'yellowish'
p4587
I13
tp4588
a(I1127
I1
F-1.0
S'worst'
p4589
I13
tp4590
a(I1171
I1
F1.0
S'good'
p4591
I13
tp4592
a(I1171
I1
I0
S'u'
p4593
I13
tp4594
a(I1171
I1
F1.0
S'good'
p4595
I13
tp4596
a(I1179
I14
F-0.625
S'sharp'
p4597
I13
tp4598
a(I1188
I0
F1.0
S'good'
p4599
I13
tp4600
a(I1201
I0
I0
S'big'
p4601
I13
tp4602
a(I1270
I0
F0.875
S'decent'
p4603
I13
tp4604
a(I1353
I17
F0.875
S'great'
p4605
I13
tp4606
a(I1409
I3
F0.75
S'white'
p4607
I13
tp4608
a(I1409
I11
I0
S'active'
p4609
I13
tp4610
a(I1409
I12
F1.0
S'good'
p4611
I13
tp4612
a(I1409
I12
F0.75
S'beautiful'
p4613
I13
tp4614
a(I1459
I3
F1.0
S'good'
p4615
I13
tp4616
a(I1463
I3
I0
S'clear'
p4617
I13
tp4618
a(I1515
I1
F0.5
S'crisp'
p4619
I13
tp4620
a(I1587
I5
F-0.375
S'same'
p4621
I13
tp4622
a(I1649
I3
F0.75
S'whole'
p4623
I13
tp4624
a(I1659
I4
F-0.5
S'dull'
p4625
I13
tp4626
a(I1659
I4
F-0.625
S'other'
p4627
I13
tp4628
a(I1698
I8
F1.0
S'good'
p4629
I13
tp4630
a(I1698
I23
F-0.875
S'bit'
p4631
I13
tp4632
a(I1698
I23
F-0.5
S'dull'
p4633
I13
tp4634
a(I1741
I1
F-0.875
S'smart'
p4635
I13
tp4636
a(I1768
I4
F1.0
S'good'
p4637
I13
tp4638
a(I1876
I9
F1.0
S'good'
p4639
I13
tp4640
a(I1895
I0
F1.0
S'good'
p4641
I13
tp4642
a(I1992
I18
F1.0
S'good'
p4643
I13
tp4644
a(I2010
I14
F1.0
S'good'
p4645
I13
tp4646
a(I2045
I0
F1.0
S'good'
p4647
I13
tp4648
a(I2069
I0
F1.0
S'good'
p4649
I13
tp4650
a(I2082
I3
F1.0
S'good'
p4651
I13
tp4652
a(I2117
I4
F1.0
S'good'
p4653
I13
tp4654
a(I2122
I3
F1.0
S'good'
p4655
I13
tp4656
a(I2122
I3
F0.625
S'vibrant'
p4657
I13
tp4658
as(S'value'
p4659
S'for'
p4660
S'money'
p4661
tp4662
(lp4663
(I457
I1
F0.75
S'complete'
p4664
I4
tp4665
a(I505
I7
F0.875
S'great'
p4666
I4
tp4667
a(I547
I5
F1.0
S'good'
p4668
I4
tp4669
a(I771
I6
F0.5
S'true'
p4670
I4
tp4671
a(I829
I3
F1.0
S'good'
p4672
I4
tp4673
a(I833
I1
F1.0
S'good'
p4674
I4
tp4675
a(I905
I6
F1.0
S'excellent'
p4676
I4
tp4677
a(I1454
I1
F0.875
S'great'
p4678
I4
tp4679
a(I1680
I19
F0.5
S'true'
p4680
I4
tp4681
a(I1875
I4
F0.75
S'complete'
p4682
I4
tp4683
a(I1914
I0
F0.875
S'great'
p4684
I4
tp4685
a(I2038
I0
F1.0
S'good'
p4686
I4
tp4687
as(S'moto'
p4688
S'display'
p4689
tp4690
(lp4691
(I36
I11
I0
g4459
I0
tp4692
a(I36
I13
F-0.125
g4463
I0
tp4693
a(I36
I13
I0
g4465
I0
tp4694
a(I42
I12
F1.0
g4467
I0
tp4695
a(I82
I1
F0.375
g1846
I0
tp4696
a(I215
I0
F0.5
g4487
I0
tp4697
a(I335
I12
F1.0
g4491
I0
tp4698
a(I344
I2
F0.375
g4493
I0
tp4699
a(I384
I1
I0
g4495
I0
tp4700
a(I600
I11
I0
g4520
I0
tp4701
a(I677
I3
F0.5
g4536
I0
tp4702
a(I814
I7
F0.5
g4543
I0
tp4703
a(I842
I17
F-0.875
g336
I0
tp4704
a(I990
I9
F-0.875
g342
I0
tp4705
a(I1020
I44
F0.375
g1898
I0
tp4706
a(I1100
I7
I0
g4587
I0
tp4707
a(I1100
I7
F-0.625
g1907
I0
tp4708
a(I1201
I0
I0
g4601
I0
tp4709
a(I1587
I5
F-0.375
g4621
I0
tp4710
a(I1649
I3
F0.75
g4623
I0
tp4711
a(I1741
I1
F-0.875
g4635
I0
tp4712
a(I1875
I4
I0
g384
I0
tp4713
as(S'months'
p4714
tp4715
(lp4716
(I36
I23
I0
S'many'
p4717
I7
tp4718
a(I52
I0
F-0.25
S'i'
p4719
I7
tp4720
a(I134
I24
I0
S'few'
p4721
I7
tp4722
a(I367
I6
I0
S'n'
p4723
I7
tp4724
a(I367
I6
F-0.375
S'half'
p4725
I7
tp4726
a(I389
I4
I0
S'few'
p4727
I7
tp4728
a(I462
I9
I0
S'more'
p4729
I7
tp4730
a(I463
I2
I0
S'more'
p4731
I7
tp4732
a(I463
I4
I0
S'u'
p4733
I7
tp4734
a(I839
I5
I0
S'more'
p4735
I7
tp4736
a(I871
I8
F-0.375
S'half'
p4737
I7
tp4738
a(I871
I8
F-0.375
S'same'
p4739
I7
tp4740
a(I887
I3
F-0.625
S'last'
p4741
I7
tp4742
a(I979
I16
F-0.25
S'past'
p4743
I7
tp4744
a(I1017
I1
F-0.375
S'half'
p4745
I7
tp4746
a(I1017
I1
F0.375
S'satisfied'
p4747
I7
tp4748
a(I1034
I3
I0
S'more'
p4749
I7
tp4750
a(I1049
I0
F-0.25
S'i'
p4751
I7
tp4752
a(I1320
I29
I0
S'many'
p4753
I7
tp4754
a(I1621
I13
F0.375
S'available'
p4755
I7
tp4756
a(I1621
I14
I0
S'least'
p4757
I7
tp4758
a(I1688
I7
F0.5
S'coming'
p4759
I7
tp4760
a(I1967
I0
F-0.625
S'last'
p4761
I7
tp4762
a(I1982
I4
F0.125
S'mobile'
p4763
I7
tp4764
a(I2077
I1
F-0.625
S'last'
p4765
I7
tp4766
a(I2077
I1
I0
S'n'
p4767
I7
tp4768
a(I2078
I8
F0.875
S'great'
p4769
I7
tp4770
a(I2078
I8
F-0.625
S'last'
p4771
I7
tp4772
a(I2108
I3
F0.875
S'happy'
p4773
I7
tp4774
a(I2149
I1
F0.75
S'beautiful'
p4775
I7
tp4776
as(S'at'
p4777
S'price'
p4778
S'range'
p4779
tp4780
(lp4781
(I206
I1
I0
g1619
I0
tp4782
a(I378
I4
F-0.375
g1594
I0
tp4783
a(I378
I4
F-0.75
g1596
I0
tp4784
a(I378
I4
F-0.5
g1598
I0
tp4785
a(I577
I0
I0
g1625
I0
tp4786
a(I970
I2
F-0.375
g1602
I0
tp4787
a(I1033
I1
F-0.375
g1604
I0
tp4788
a(I1299
I2
F-0.375
g1610
I0
tp4789
a(I1352
I1
F-0.125
g1632
I0
tp4790
a(I1470
I0
F1.0
g1635
I0
tp4791
a(I1711
I26
F-0.375
g1614
I0
tp4792
as(S'pixel'
p4793
S'density'
p4794
tp4795
(lp4796
(I1230
I1
F-0.875
S'low'
p4797
I0
tp4798
a(I1297
I1
F0.125
S'enough'
p4799
I0
tp4800
as(S'good'
p4801
S'call'
p4802
S'quality'
p4803
tp4804
(lp4805
(I59
I3
F1.0
S'good'
p4806
I0
tp4807
a(I171
I1
F1.0
g2467
I0
tp4808
a(I196
I28
F1.0
g2470
I0
tp4809
a(I225
I6
F-0.5
g2472
I0
tp4810
a(I452
I0
F-0.5
g2499
I0
tp4811
a(I452
I0
F1.0
g2501
I0
tp4812
a(I553
I0
F1.0
S'excellent'
p4813
I0
tp4814
a(I553
I0
F1.0
g2511
I0
tp4815
a(I595
I0
F1.0
S'good'
p4816
I0
tp4817
a(I676
I25
F1.0
S'good'
p4818
I0
tp4819
a(I676
I25
I0
g2522
I0
tp4820
a(I678
I0
F-0.5
g2526
I0
tp4821
a(I678
I0
F1.0
g2528
I0
tp4822
a(I822
I3
F1.0
S'good'
p4823
I0
tp4824
a(I1016
I11
F1.0
g2552
I0
tp4825
a(I1020
I35
F1.0
g2560
I0
tp4826
a(I1464
I1
F1.0
g2361
I0
tp4827
a(I2101
I0
F1.0
g2644
I0
tp4828
a(I59
I3
F1.0
g4806
I1
tp4829
a(I134
I25
F0.875
S'superb'
p4830
I1
tp4831
a(I134
I25
I0
S'audio'
p4832
I1
tp4833
a(I140
I1
F0.75
g2385
I1
tp4834
a(I140
I1
F0.5
g2387
I1
tp4835
a(I140
I1
I0
g2389
I1
tp4836
a(I171
I1
F1.0
g2467
I1
tp4837
a(I196
I28
F1.0
g2470
I1
tp4838
a(I225
I6
F-0.5
g2472
I1
tp4839
a(I452
I0
F-0.5
g2499
I1
tp4840
a(I452
I0
F1.0
g2501
I1
tp4841
a(I553
I0
F1.0
g4813
I1
tp4842
a(I553
I0
F1.0
g2511
I1
tp4843
a(I595
I0
F1.0
g4816
I1
tp4844
a(I666
I20
I0
S'crystal'
p4845
I1
tp4846
a(I666
I20
I0
S'clear'
p4847
I1
tp4848
a(I676
I25
F1.0
g4818
I1
tp4849
a(I676
I25
I0
g2522
I1
tp4850
a(I678
I0
F-0.5
g2526
I1
tp4851
a(I678
I0
F1.0
g2528
I1
tp4852
a(I795
I1
F1.0
S'best'
p4853
I1
tp4854
a(I795
I1
F-0.75
S'single'
p4855
I1
tp4856
a(I800
I2
F1.0
S'best'
p4857
I1
tp4858
a(I822
I3
F1.0
g4823
I1
tp4859
a(I1016
I11
F1.0
g2552
I1
tp4860
a(I1020
I35
F1.0
g2560
I1
tp4861
a(I1136
I1
F1.0
S'excellent'
p4862
I1
tp4863
a(I1179
I30
F-0.5
S'call'
p4864
I1
tp4865
a(I1179
I30
F-0.5
S'loud'
p4866
I1
tp4867
a(I1284
I17
F0.875
S'great'
p4868
I1
tp4869
a(I1330
I6
F0.875
S'great'
p4870
I1
tp4871
a(I1464
I1
F1.0
g2361
I1
tp4872
a(I1501
I0
F-0.375
S'exceptional'
p4873
I1
tp4874
a(I2101
I0
F1.0
g2644
I1
tp4875
as(S'in'
p4876
S'price'
p4877
S'range'
p4878
tp4879
(lp4880
(I187
I8
F-0.375
g1592
I0
tp4881
a(I577
I0
I0
g1625
I0
tp4882
a(I970
I2
F-0.375
g1602
I0
tp4883
a(I1033
I1
F-0.375
g1604
I0
tp4884
a(I1299
I2
F-0.375
g1610
I0
tp4885
a(I1352
I1
F-0.125
g1632
I0
tp4886
a(I1370
I4
F-0.375
g1612
I0
tp4887
a(I1470
I0
F1.0
g1635
I0
tp4888
a(I2044
I0
F-0.875
g1638
I0
tp4889
as(S'samsung'
p4890
tp4891
(lp4892
(I136
I5
F0.75
S'grand'
p4893
I1
tp4894
a(I145
I1
F0.625
S'friendly'
p4895
I1
tp4896
a(I306
I0
I0
S'u'
p4897
I1
tp4898
a(I690
I30
F0.5
S'old'
p4899
I1
tp4900
a(I871
I9
F0.5
S'loyal'
p4901
I1
tp4902
a(I1088
I4
F1.0
S'better'
p4903
I1
tp4904
a(I1123
I2
F1.0
S'better'
p4905
I1
tp4906
a(I1331
I11
F1.0
S'better'
p4907
I1
tp4908
a(I1417
I1
F0.5
S'like'
p4909
I1
tp4910
a(I1584
I6
F1.0
S'better'
p4911
I1
tp4912
a(I1700
I1
F0.25
S'usable'
p4913
I1
tp4914
as(S'games'
p4915
tp4916
(lp4917
(I14
I4
I0
S'more'
p4918
I5
tp4919
a(I38
I5
F-0.5
S'heavy'
p4920
I5
tp4921
a(I76
I0
I0
S'most'
p4922
I5
tp4923
a(I206
I5
F0.5
S'large'
p4924
I5
tp4925
a(I282
I0
F-0.875
S'lower'
p4926
I5
tp4927
a(I282
I0
I0
S'end'
p4928
I5
tp4929
a(I282
I0
F-0.625
S'other'
p4930
I5
tp4931
a(I282
I0
F0.875
S'simple'
p4932
I5
tp4933
a(I294
I2
F1.0
S'good'
p4934
I5
tp4935
a(I428
I4
I0
S'occasional'
p4936
I5
tp4937
a(I438
I0
I0
S'lag'
p4938
I5
tp4939
a(I438
I0
F-0.75
S'free'
p4940
I5
tp4941
a(I505
I21
I0
S'more'
p4942
I5
tp4943
a(I551
I5
I0
S'few'
p4944
I5
tp4945
a(I685
I0
F-0.5
S'heavy'
p4946
I5
tp4947
a(I814
I7
F-0.5
S'heavy'
p4948
I5
tp4949
a(I880
I4
I0
S'more'
p4950
I5
tp4951
a(I931
I13
F0.625
S'graphic'
p4952
I5
tp4953
a(I931
I13
F-0.5
S'hungry'
p4954
I5
tp4955
a(I931
I13
F-0.125
S'such'
p4956
I5
tp4957
a(I951
I0
I0
S't'
p4958
I5
tp4959
a(I951
I0
I0
S'big'
p4960
I5
tp4961
a(I999
I1
I0
S'standard'
p4962
I5
tp4963
a(I999
I1
F0.5
S'suitable'
p4964
I5
tp4965
a(I1008
I15
I0
S'most'
p4966
I5
tp4967
a(I1019
I10
I0
S'many'
p4968
I5
tp4969
a(I1019
I10
F0.5
S'intensive'
p4970
I5
tp4971
a(I1019
I10
F0.625
S'playable'
p4972
I5
tp4973
a(I1161
I5
F-0.5
S'heavy'
p4974
I5
tp4975
a(I1172
I2
F0.5
S'high'
p4976
I5
tp4977
a(I1179
I19
I0
S'many'
p4978
I5
tp4979
a(I1267
I18
I0
S'many'
p4980
I5
tp4981
a(I1268
I7
F-0.5
S'heavy'
p4982
I5
tp4983
a(I1284
I5
F0.5
S'intensive'
p4984
I5
tp4985
a(I1284
I32
F0.75
S'due'
p4986
I5
tp4987
a(I1300
I7
F-0.5
S'heavy'
p4988
I5
tp4989
a(I1330
I8
F0.625
S'certain'
p4990
I5
tp4991
a(I1357
I5
F-0.5
S'heavy'
p4992
I5
tp4993
a(I1430
I12
F0.375
S'much'
p4994
I5
tp4995
a(I1459
I11
I0
S'bigger'
p4996
I5
tp4997
a(I1585
I14
F0.625
S'smooth'
p4998
I5
tp4999
a(I1749
I9
F-0.778
S'common'
p5000
I5
tp5001
a(I1930
I2
F0.75
S'due'
p5002
I5
tp5003
a(I1934
I1
I0
S't'
p5004
I5
tp5005
a(I1934
I1
F-0.75
S'warm'
p5006
I5
tp5007
a(I1934
I1
I0
S'hot'
p5008
I5
tp5009
a(I1934
I1
F0.75
S'due'
p5010
I5
tp5011
a(I1934
I1
I0
S'normal'
p5012
I5
tp5013
a(I1934
I1
F0.375
S'usage'
p5014
I5
tp5015
a(I1934
I1
F-0.5
S'heavy'
p5016
I5
tp5017
a(I1961
I1
F1.0
S'good'
p5018
I5
tp5019
a(I2010
I2
F0.5
S'large'
p5020
I5
tp5021
as(S'need'
p5022
tp5023
(lp5024
(I676
I0
I0
S'u'
p5025
I9
tp5026
a(I757
I0
F-0.5
S'long'
p5027
I9
tp5028
a(I757
I0
I0
S'u'
p5029
I9
tp5030
a(I970
I8
F-0.25
S'purpose'
p5031
I9
tp5032
a(I997
I4
F1.0
S'good'
p5033
I9
tp5034
a(I1128
I21
I0
S't'
p5035
I9
tp5036
a(I1422
I5
I0
S'u'
p5037
I9
tp5038
as(S'tamil'
p5039
S'nadu'
p5040
tp5041
(lp5042
(I1310
I2
I0
S'tamil'
p5043
I0
tp5044
a(I1311
I0
I0
S'tamil'
p5045
I0
tp5046
as(g269
S'3rd'
p5047
S'generation'
p5048
tp5049
(lp5050
(I153
I3
F-0.25
S'earliest'
p5051
I0
tp5052
a(I251
I6
F-0.25
g2889
I0
tp5053
a(I1161
I5
F1.0
S'better'
p5054
I0
tp5055
a(I1217
I5
F-0.625
S'last'
p5056
I0
tp5057
a(I1230
I1
F-0.625
S'sharper'
p5058
I0
tp5059
as(g1640
S'full'
p5060
S'charge'
p5061
tp5062
(lp5063
(I9
I9
F0.375
S'full'
p5064
I0
tp5065
a(I13
I17
F0.375
S'full'
p5066
I0
tp5067
a(I30
I0
F0.375
S'full'
p5068
I0
tp5069
a(I83
I0
F0.375
S'full'
p5070
I0
tp5071
a(I254
I4
F0.375
S'full'
p5072
I0
tp5073
a(I301
I2
F0.375
S'full'
p5074
I0
tp5075
a(I394
I2
F0.375
S'full'
p5076
I0
tp5077
a(I408
I5
F0.375
S'full'
p5078
I0
tp5079
a(I612
I0
F0.375
S'full'
p5080
I0
tp5081
a(I775
I20
F0.375
S'full'
p5082
I0
tp5083
a(I879
I22
F0.375
S'full'
p5084
I0
tp5085
a(I921
I4
F0.375
S'full'
p5086
I0
tp5087
a(I1330
I1
F0.375
S'full'
p5088
I0
tp5089
a(I1484
I7
F0.375
S'full'
p5090
I0
tp5091
a(I1622
I2
F0.375
S'full'
p5092
I0
tp5093
a(I1758
I5
F0.375
S'full'
p5094
I0
tp5095
as(S'hours'
p5096
tp5097
(lp5098
(I13
I18
F0.625
S'first'
p5099
I14
tp5100
a(I27
I6
I0
S'more'
p5101
I14
tp5102
a(I83
I0
F0.375
S'available'
p5103
I14
tp5104
a(I137
I1
F1.0
S'good'
p5105
I14
tp5106
a(I498
I0
F-0.5
S'backup'
p5107
I14
tp5108
a(I577
I8
F0.875
S'solid'
p5109
I14
tp5110
a(I609
I6
I0
S'more'
p5111
I14
tp5112
a(I676
I44
F-0.25
S'i'
p5113
I14
tp5114
a(I696
I2
I0
S'more'
p5115
I14
tp5116
a(I748
I11
I0
S'few'
p5117
I14
tp5118
a(I879
I23
F0.625
S'first'
p5119
I14
tp5120
a(I1020
I25
I0
S'more'
p5121
I14
tp5122
a(I1553
I2
I0
S'few'
p5123
I14
tp5124
a(I1573
I0
F-0.75
S'relieved'
p5125
I14
tp5126
a(I1599
I3
F0.875
S'great'
p5127
I14
tp5128
a(I1684
I29
F0.625
S'first'
p5129
I14
tp5130
a(I1884
I2
F0.875
S'simple'
p5131
I14
tp5132
a(I1934
I2
F-0.5
S'long'
p5133
I14
tp5134
as(S'to'
p5135
S'moto'
p5136
g269
tp5137
(lp5138
(I12
I0
F-0.5
g272
I0
tp5139
a(I12
I3
F-0.5
g274
I0
tp5140
a(I33
I7
F-0.75
g276
I0
tp5141
a(I33
I10
F-0.625
S'last'
p5142
I0
tp5143
a(I36
I20
F-0.5
g278
I0
tp5144
a(I36
I20
I0
g280
I0
tp5145
a(I36
I25
F-0.5
g282
I0
tp5146
a(I36
I36
F0.25
g410
I0
tp5147
a(I39
I1
F0.75
g284
I0
tp5148
a(I48
I0
I0
g286
I0
tp5149
a(I102
I0
I0
g288
I0
tp5150
a(I116
I0
I0
g290
I0
tp5151
a(I117
I1
F0.75
g292
I0
tp5152
a(I146
I15
F-0.375
g294
I0
tp5153
a(I161
I3
F-0.625
g296
I0
tp5154
a(I184
I21
F0.375
g298
I0
tp5155
a(I184
I29
F-0.25
g300
I0
tp5156
a(I190
I3
I0
g1855
I0
tp5157
a(I195
I7
F-0.25
g302
I0
tp5158
a(I196
I23
F-0.25
g1858
I0
tp5159
a(I206
I0
F0.5
g1860
I0
tp5160
a(I228
I35
F0.875
g304
I0
tp5161
a(I251
I6
F-0.25
g2889
I0
tp5162
a(I295
I1
F0.5
g306
I0
tp5163
a(I319
I11
F0.625
g1864
I0
tp5164
a(I358
I19
I0
g308
I0
tp5165
a(I387
I0
F-0.625
g310
I0
tp5166
a(I405
I11
F1.0
g1868
I0
tp5167
a(I406
I5
I0
g416
I0
tp5168
a(I407
I0
F-0.625
g418
I0
tp5169
a(I414
I3
F0.5
g312
I0
tp5170
a(I463
I0
F-0.75
g314
I0
tp5171
a(I472
I2
F0.375
g316
I0
tp5172
a(I532
I5
F0.5
g318
I0
tp5173
a(I536
I7
I0
g1876
I0
tp5174
a(I579
I1
F1.0
g320
I0
tp5175
a(I582
I0
F-0.625
g422
I0
tp5176
a(I668
I18
F-0.625
g322
I0
tp5177
a(I668
I19
F-0.375
g324
I0
tp5178
a(I668
I23
F0.5
g1881
I0
tp5179
a(I676
I15
F0.5
g326
I0
tp5180
a(I688
I0
I0
g328
I0
tp5181
a(I690
I27
F-0.875
g330
I0
tp5182
a(I695
I1
I0
g332
I0
tp5183
a(I724
I2
F-0.375
g334
I0
tp5184
a(I754
I8
F-0.625
g426
I0
tp5185
a(I842
I17
F-0.875
g336
I0
tp5186
a(I871
I7
I0
g338
I0
tp5187
a(I921
I0
F0.625
g1891
I0
tp5188
a(I944
I1
F0.125
g340
I0
tp5189
a(I990
I9
F-0.875
g342
I0
tp5190
a(I990
I17
F1.0
g344
I0
tp5191
a(I990
I38
F-0.125
g567
I0
tp5192
a(I990
I41
F-0.25
g346
I0
tp5193
a(I1008
I21
F0.125
g348
I0
tp5194
a(I1035
I4
F0.625
g430
I0
tp5195
a(I1045
I0
I0
g350
I0
tp5196
a(I1056
I18
F-0.5
g352
I0
tp5197
a(I1070
I2
I0
g354
I0
tp5198
a(I1100
I7
F-0.625
g1907
I0
tp5199
a(I1101
I9
F0.5
g1909
I0
tp5200
a(I1101
I9
F-0.625
g1911
I0
tp5201
a(I1178
I0
F0.75
g1913
I0
tp5202
a(I1179
I36
F-0.125
g356
I0
tp5203
a(I1192
I4
F-0.125
g1918
I0
tp5204
a(I1192
I4
F0.375
g1920
I0
tp5205
a(I1199
I11
F0.875
g434
I0
tp5206
a(I1285
I13
F-0.375
g358
I0
tp5207
a(I1320
I11
I0
g360
I0
tp5208
a(I1320
I12
F0.75
g362
I0
tp5209
a(I1320
I12
F0.75
g364
I0
tp5210
a(I1325
I5
F0.5
g436
I0
tp5211
a(I1340
I2
F1.0
g1929
I0
tp5212
a(I1392
I0
F-0.125
g1931
I0
tp5213
a(I1409
I8
F1.0
g366
I0
tp5214
a(I1462
I0
F0.5
g368
I0
tp5215
a(I1574
I0
F-0.625
g1934
I0
tp5216
a(I1587
I31
F1.0
g1936
I0
tp5217
a(I1607
I2
F-0.375
g370
I0
tp5218
a(I1638
I0
F-0.625
g372
I0
tp5219
a(I1643
I0
F-0.875
g374
I0
tp5220
a(I1653
I4
F0.75
S'fantastic'
p5221
I0
tp5222
a(I1661
I1
I0
g1943
I0
tp5223
a(I1710
I1
F0.625
g439
I0
tp5224
a(I1711
I2
F0.625
g376
I0
tp5225
a(I1748
I3
F1.0
g378
I0
tp5226
a(I1769
I1
F-0.625
g380
I0
tp5227
a(I1821
I2
F0.375
g382
I0
tp5228
a(I1875
I4
I0
g384
I0
tp5229
a(I1877
I7
F0.375
g623
I0
tp5230
a(I1910
I1
F-0.375
g442
I0
tp5231
a(I1910
I1
I0
g444
I0
tp5232
a(I1929
I20
F-0.5
g386
I0
tp5233
a(I1929
I20
F0.5
g388
I0
tp5234
a(I1994
I4
F0.875
g1958
I0
tp5235
a(I2092
I0
F0.875
g1960
I0
tp5236
a(I12
I0
F-0.5
g272
I0
tp5237
a(I12
I3
F-0.5
g274
I0
tp5238
a(I33
I7
F-0.75
g276
I0
tp5239
a(I33
I10
F-0.625
g5142
I0
tp5240
a(I36
I20
F-0.5
g278
I0
tp5241
a(I36
I20
I0
g280
I0
tp5242
a(I36
I25
F-0.5
g282
I0
tp5243
a(I36
I36
F0.25
g410
I0
tp5244
a(I39
I1
F0.75
g284
I0
tp5245
a(I48
I0
I0
g286
I0
tp5246
a(I102
I0
I0
g288
I0
tp5247
a(I116
I0
I0
g290
I0
tp5248
a(I117
I1
F0.75
g292
I0
tp5249
a(I146
I15
F-0.375
g294
I0
tp5250
a(I161
I3
F-0.625
g296
I0
tp5251
a(I184
I21
F0.375
g298
I0
tp5252
a(I184
I29
F-0.25
g300
I0
tp5253
a(I190
I3
I0
g1855
I0
tp5254
a(I195
I7
F-0.25
g302
I0
tp5255
a(I196
I23
F-0.25
g1858
I0
tp5256
a(I206
I0
F0.5
g1860
I0
tp5257
a(I228
I35
F0.875
g304
I0
tp5258
a(I251
I6
F-0.25
g2889
I0
tp5259
a(I295
I1
F0.5
g306
I0
tp5260
a(I319
I11
F0.625
g1864
I0
tp5261
a(I358
I19
I0
g308
I0
tp5262
a(I387
I0
F-0.625
g310
I0
tp5263
a(I405
I11
F1.0
g1868
I0
tp5264
a(I406
I5
I0
g416
I0
tp5265
a(I407
I0
F-0.625
g418
I0
tp5266
a(I414
I3
F0.5
g312
I0
tp5267
a(I463
I0
F-0.75
g314
I0
tp5268
a(I472
I2
F0.375
g316
I0
tp5269
a(I532
I5
F0.5
g318
I0
tp5270
a(I536
I7
I0
g1876
I0
tp5271
a(I579
I1
F1.0
g320
I0
tp5272
a(I582
I0
F-0.625
g422
I0
tp5273
a(I668
I18
F-0.625
g322
I0
tp5274
a(I668
I19
F-0.375
g324
I0
tp5275
a(I668
I23
F0.5
g1881
I0
tp5276
a(I676
I15
F0.5
g326
I0
tp5277
a(I688
I0
I0
g328
I0
tp5278
a(I690
I27
F-0.875
g330
I0
tp5279
a(I695
I1
I0
g332
I0
tp5280
a(I724
I2
F-0.375
g334
I0
tp5281
a(I754
I8
F-0.625
g426
I0
tp5282
a(I842
I17
F-0.875
g336
I0
tp5283
a(I871
I7
I0
g338
I0
tp5284
a(I921
I0
F0.625
g1891
I0
tp5285
a(I944
I1
F0.125
g340
I0
tp5286
a(I990
I9
F-0.875
g342
I0
tp5287
a(I990
I17
F1.0
g344
I0
tp5288
a(I990
I38
F-0.125
g567
I0
tp5289
a(I990
I41
F-0.25
g346
I0
tp5290
a(I1008
I21
F0.125
g348
I0
tp5291
a(I1035
I4
F0.625
g430
I0
tp5292
a(I1045
I0
I0
g350
I0
tp5293
a(I1056
I18
F-0.5
g352
I0
tp5294
a(I1070
I2
I0
g354
I0
tp5295
a(I1100
I7
F-0.625
g1907
I0
tp5296
a(I1101
I9
F0.5
g1909
I0
tp5297
a(I1101
I9
F-0.625
g1911
I0
tp5298
a(I1178
I0
F0.75
g1913
I0
tp5299
a(I1179
I36
F-0.125
g356
I0
tp5300
a(I1192
I4
F-0.125
g1918
I0
tp5301
a(I1192
I4
F0.375
g1920
I0
tp5302
a(I1199
I11
F0.875
g434
I0
tp5303
a(I1285
I13
F-0.375
g358
I0
tp5304
a(I1320
I11
I0
g360
I0
tp5305
a(I1320
I12
F0.75
g362
I0
tp5306
a(I1320
I12
F0.75
g364
I0
tp5307
a(I1325
I5
F0.5
g436
I0
tp5308
a(I1340
I2
F1.0
g1929
I0
tp5309
a(I1392
I0
F-0.125
g1931
I0
tp5310
a(I1409
I8
F1.0
g366
I0
tp5311
a(I1462
I0
F0.5
g368
I0
tp5312
a(I1574
I0
F-0.625
g1934
I0
tp5313
a(I1587
I31
F1.0
g1936
I0
tp5314
a(I1607
I2
F-0.375
g370
I0
tp5315
a(I1638
I0
F-0.625
g372
I0
tp5316
a(I1643
I0
F-0.875
g374
I0
tp5317
a(I1653
I4
F0.75
g5221
I0
tp5318
a(I1661
I1
I0
g1943
I0
tp5319
a(I1710
I1
F0.625
g439
I0
tp5320
a(I1711
I2
F0.625
g376
I0
tp5321
a(I1748
I3
F1.0
g378
I0
tp5322
a(I1769
I1
F-0.625
g380
I0
tp5323
a(I1821
I2
F0.375
g382
I0
tp5324
a(I1875
I4
I0
g384
I0
tp5325
a(I1877
I7
F0.375
g623
I0
tp5326
a(I1910
I1
F-0.375
g442
I0
tp5327
a(I1910
I1
I0
g444
I0
tp5328
a(I1929
I20
F-0.5
g386
I0
tp5329
a(I1929
I20
F0.5
g388
I0
tp5330
a(I1994
I4
F0.875
g1958
I0
tp5331
a(I2092
I0
F0.875
g1960
I0
tp5332
as(S'very'
p5333
S'good'
p5334
S'mobile'
p5335
tp5336
(lp5337
(I36
I27
F1.0
S'good'
p5338
I0
tp5339
a(I166
I2
F1.0
S'good'
p5340
I0
tp5341
a(I985
I7
F1.0
S'good'
p5342
I0
tp5343
a(I985
I12
F1.0
S'good'
p5344
I0
tp5345
a(I1081
I0
F1.0
S'good'
p5346
I0
tp5347
a(I1368
I8
F1.0
S'good'
p5348
I0
tp5349
a(I1953
I1
F1.0
S'good'
p5350
I0
tp5351
a(I2011
I5
F1.0
S'good'
p5352
I0
tp5353
a(I2076
I0
F0.75
S'wonderful'
p5354
I0
tp5355
as(S'usage'
p5356
tp5357
(lp5358
(I13
I17
F-0.5
S'heavy'
p5359
I8
tp5360
a(I18
I3
I0
S'normal'
p5361
I8
tp5362
a(I33
I11
F-0.375
S'same'
p5363
I8
tp5364
a(I72
I0
I0
S'normal'
p5365
I8
tp5366
a(I72
I1
F-0.5
S'heavy'
p5367
I8
tp5368
a(I74
I0
F-0.5
S'continuous'
p5369
I8
tp5370
a(I74
I0
I0
S'most'
p5371
I8
tp5372
a(I187
I25
I0
S'normal'
p5373
I8
tp5374
a(I220
I0
F-0.5
S'heavy'
p5375
I8
tp5376
a(I535
I2
I0
S'normal'
p5377
I8
tp5378
a(I547
I25
I0
S'handy'
p5379
I8
tp5380
a(I547
I25
F0.5
S'everyday'
p5381
I8
tp5382
a(I552
I0
F-0.25
S'mixed'
p5383
I8
tp5384
a(I577
I9
F-0.5
S'heavy'
p5385
I8
tp5386
a(I648
I1
F0.5
S'high'
p5387
I8
tp5388
a(I666
I12
F-0.5
S'heavy'
p5389
I8
tp5390
a(I668
I23
F-0.625
S'last'
p5391
I8
tp5392
a(I696
I1
F-0.625
S'moderate'
p5393
I8
tp5394
a(I749
I13
F-0.625
S'moderate'
p5395
I8
tp5396
a(I783
I10
I0
S'light'
p5397
I8
tp5398
a(I817
I4
F-0.875
S'low'
p5399
I8
tp5400
a(I817
I4
I0
S'internet'
p5401
I8
tp5402
a(I828
I3
I0
S'normal'
p5403
I8
tp5404
a(I834
I2
F-0.625
S'moderate'
p5405
I8
tp5406
a(I842
I28
F-0.625
S'moderate'
p5407
I8
tp5408
a(I879
I22
F-0.5
S'heavy'
p5409
I8
tp5410
a(I884
I3
I0
S'normal'
p5411
I8
tp5412
a(I887
I6
F-0.5
S'heavy'
p5413
I8
tp5414
a(I978
I6
F-0.625
S'moderate'
p5415
I8
tp5416
a(I1020
I25
F-0.5
S'long'
p5417
I8
tp5418
a(I1020
I25
F-0.625
S'last'
p5419
I8
tp5420
a(I1020
I26
F-0.5
S'heavy'
p5421
I8
tp5422
a(I1041
I1
I0
S'normal'
p5423
I8
tp5424
a(I1124
I5
F-0.625
S'moderate'
p5425
I8
tp5426
a(I1179
I22
F-0.625
S'moderate'
p5427
I8
tp5428
a(I1199
I5
F-0.5
S'continuous'
p5429
I8
tp5430
a(I1275
I8
F-0.25
S'medium'
p5431
I8
tp5432
a(I1284
I1
F-0.625
S'moderate'
p5433
I8
tp5434
a(I1294
I2
F-0.75
S'minor'
p5435
I8
tp5436
a(I1306
I2
F-0.625
S'moderate'
p5437
I8
tp5438
a(I1395
I0
F-0.625
S'moderate'
p5439
I8
tp5440
a(I1399
I0
F-0.5
S'heavy'
p5441
I8
tp5442
a(I1431
I1
F-0.625
S'moderate'
p5443
I8
tp5444
a(I1487
I1
F0.375
S'satisfied'
p5445
I8
tp5446
a(I1491
I1
F-0.5
S'continuous'
p5447
I8
tp5448
a(I1491
I1
F-0.625
S'last'
p5449
I8
tp5450
a(I1549
I2
F-0.25
S'ram'
p5451
I8
tp5452
a(I1549
I2
F-0.25
S'battery'
p5453
I8
tp5454
a(I1550
I7
I0
S'more'
p5455
I8
tp5456
a(I1622
I2
F-0.625
S'moderate'
p5457
I8
tp5458
a(I1622
I2
F-0.875
S'low'
p5459
I8
tp5460
a(I1933
I1
I0
S'normal'
p5461
I8
tp5462
a(I1934
I2
F-0.5
S'continuous'
p5463
I8
tp5464
a(I1994
I9
F1.0
S'good'
p5465
I8
tp5466
a(I1994
I9
F-0.875
S'rough'
p5467
I8
tp5468
as(S'social'
p5469
S'networking'
p5470
tp5471
(lp5472
(I187
I14
F0.375
S'fluent'
p5473
I0
tp5474
a(I187
I14
F0.25
S'basic'
p5475
I0
tp5476
a(I187
I14
F-0.25
S'social'
p5477
I0
tp5478
a(I515
I1
F-0.25
S'social'
p5479
I0
tp5480
a(I1698
I10
F0.375
S'fluent'
p5481
I0
tp5482
a(I1698
I10
F0.25
S'basic'
p5483
I0
tp5484
a(I1698
I10
F-0.25
S'social'
p5485
I0
tp5486
as(S'water'
p5487
S'proof'
p5488
tp5489
(lp5490
(I756
I0
F-0.625
g1124
I0
tp5491
a(I1005
I22
F0.375
g1138
I0
tp5492
a(I1471
I0
F-0.375
S'dust'
p5493
I0
tp5494
a(I1684
I17
F1.0
g1160
I0
tp5495
a(I1684
I17
F-0.625
g1162
I0
tp5496
a(I1958
I1
F1.0
S'good'
p5497
I0
tp5498
a(I2111
I5
F1.0
S'best'
p5499
I0
tp5500
as(S'thanks'
p5501
S'to'
p5502
S'flipkart'
p5503
tp5504
(lp5505
(I667
I61
I0
S'many'
p5506
I1
tp5507
a(I1183
I6
F-0.125
S'such'
p5508
I1
tp5509
a(I1419
I1
I0
S'nd'
p5510
I1
tp5511
a(I1622
I15
F0.875
S'happy'
p5512
I1
tp5513
a(I1996
I10
F0.25
S'special'
p5514
I1
tp5515
a(I64
I0
I0
S'screen'
p5516
I7
tp5517
a(I406
I4
F-0.625
S'fast'
p5518
I7
tp5519
a(I667
I61
I0
g5506
I7
tp5520
a(I676
I3
F0.5
S'august'
p5521
I7
tp5522
a(I827
I0
I0
S'screen'
p5523
I7
tp5524
a(I931
I15
F0.625
S'smooth'
p5525
I7
tp5526
a(I1216
I6
I0
S'big'
p5527
I7
tp5528
a(I1268
I15
F-0.75
S'warm'
p5529
I7
tp5530
a(I1622
I15
F0.875
g5512
I7
tp5531
a(I1965
I1
F0.75
S'premium'
p5532
I7
tp5533
a(I1996
I10
F0.25
g5514
I7
tp5534
as(S'water'
p5535
S'resistant'
p5536
tp5537
(lp5538
(I134
I8
F-0.625
g1101
I0
tp5539
a(I142
I1
F-0.625
g1103
I0
tp5540
a(I532
I4
F-0.625
g1112
I0
tp5541
a(I663
I1
F-0.625
g1114
I0
tp5542
a(I666
I18
F-0.625
g1116
I0
tp5543
a(I676
I44
F-0.625
g1118
I0
tp5544
a(I676
I44
F-0.625
g1120
I0
tp5545
a(I814
I7
I0
g1126
I0
tp5546
a(I814
I7
I0
g1128
I0
tp5547
a(I814
I7
F-0.625
g1130
I0
tp5548
a(I843
I4
F-0.625
g1132
I0
tp5549
a(I948
I3
F-0.625
g1136
I0
tp5550
a(I1281
I0
F-0.625
g1141
I0
tp5551
a(I1298
I1
F1.0
g1093
I0
tp5552
a(I1298
I1
F-0.625
g1095
I0
tp5553
a(I1299
I5
F-0.625
g1145
I0
tp5554
a(I1353
I10
F-0.625
g1148
I0
tp5555
a(I1441
I3
F-0.625
g1150
I0
tp5556
a(I1613
I16
I0
g1156
I0
tp5557
a(I1677
I54
F-0.625
g1158
I0
tp5558
a(I1795
I0
F1.0
g1164
I0
tp5559
a(I1795
I0
F-0.625
g1166
I0
tp5560
a(I1892
I3
F0.75
g1168
I0
tp5561
a(I1899
I24
F-0.625
g1170
I0
tp5562
a(I1994
I13
F-0.625
g1172
I0
tp5563
a(I2150
I6
F-0.625
g1174
I0
tp5564
as(S'and'
p5565
S'moto'
p5566
S'g3'
p5567
tp5568
(lp5569
(I48
I0
I0
g286
I0
tp5570
a(I116
I0
I0
g290
I0
tp5571
a(I155
I0
F-0.25
g564
I0
tp5572
a(I389
I6
I0
g1481
I0
tp5573
a(I407
I0
F-0.625
g418
I0
tp5574
a(I523
I1
F-0.75
g1483
I0
tp5575
a(I754
I8
F-0.625
g426
I0
tp5576
a(I977
I1
F0.75
g1490
I0
tp5577
a(I1045
I0
I0
g350
I0
tp5578
a(I1313
I13
F0.75
g572
I0
tp5579
a(I1348
I0
F0.75
g1494
I0
tp5580
a(I1670
I6
F0.25
g3751
I0
tp5581
a(I1875
I4
I0
g384
I0
tp5582
as(S'though'
p5583
tp5584
(lp5585
(I522
I1
F1.0
S'good'
p5586
I4
tp5587
a(I1928
I0
F0.5
S'upgrade'
p5588
I4
tp5589
a(I1928
I0
F0.5
S'marginal'
p5590
I4
tp5591
as(S'device'
p5592
tp5593
(lp5594
(I18
I3
F-0.25
S'i'
p5595
I11
tp5596
a(I40
I5
F-0.875
S'fault'
p5597
I11
tp5598
a(I40
I5
F-0.75
S'free'
p5599
I11
tp5600
a(I170
I6
F1.0
S'good'
p5601
I11
tp5602
a(I251
I18
F-0.25
S'i'
p5603
I11
tp5604
a(I251
I18
F0.5
S'second'
p5605
I11
tp5606
a(I251
I22
F0.375
S'used'
p5607
I11
tp5608
a(I252
I0
F0.625
S'fine'
p5609
I11
tp5610
a(I252
I0
F0.625
S'smooth'
p5611
I11
tp5612
a(I266
I40
F-0.625
S'other'
p5613
I11
tp5614
a(I275
I0
F0.625
S'okay'
p5615
I11
tp5616
a(I286
I2
F-0.625
S'average'
p5617
I11
tp5618
a(I350
I3
F-0.625
S'average'
p5619
I11
tp5620
a(I358
I6
F1.0
S'good'
p5621
I11
tp5622
a(I502
I1
F-0.25
S'i'
p5623
I11
tp5624
a(I548
I0
F-0.125
S'overall'
p5625
I11
tp5626
a(I548
I0
F0.75
S'wonderful'
p5627
I11
tp5628
a(I578
I4
I0
S'spec'
p5629
I11
tp5630
a(I620
I2
F1.0
S'good'
p5631
I11
tp5632
a(I620
I2
F0.5
S'compatible'
p5633
I11
tp5634
a(I660
I6
F-0.625
S'independent'
p5635
I11
tp5636
a(I676
I36
F0.25
S'particular'
p5637
I11
tp5638
a(I676
I36
F0.625
S'successful'
p5639
I11
tp5640
a(I748
I6
F1.0
S'good'
p5641
I11
tp5642
a(I748
I17
F-0.5
S'disappointed'
p5643
I11
tp5644
a(I780
I0
F0.375
S'much'
p5645
I11
tp5646
a(I782
I1
F0.375
S'much'
p5647
I11
tp5648
a(I782
I1
I0
S'android'
p5649
I11
tp5650
a(I791
I0
F1.0
S'good'
p5651
I11
tp5652
a(I828
I3
F-0.25
S'i'
p5653
I11
tp5654
a(I835
I1
I0
S'hot'
p5655
I11
tp5656
a(I842
I23
F-0.625
S'other'
p5657
I11
tp5658
a(I843
I4
I0
S'wish'
p5659
I11
tp5660
a(I863
I2
F0.75
S'perfect'
p5661
I11
tp5662
a(I884
I3
F-0.25
S'i'
p5663
I11
tp5664
a(I997
I0
F0.375
S'satisfied'
p5665
I11
tp5666
a(I1008
I19
F0.125
S'mobile'
p5667
I11
tp5668
a(I1021
I1
F0.875
S'awesome'
p5669
I11
tp5670
a(I1021
I1
F1.0
S'best'
p5671
I11
tp5672
a(I1094
I1
F-0.625
S'last'
p5673
I11
tp5674
a(I1113
I0
F0.875
S'awesome'
p5675
I11
tp5676
a(I1126
I9
F0.875
S'awesome'
p5677
I11
tp5678
a(I1126
I24
F0.5
S'dual'
p5679
I11
tp5680
a(I1126
I26
F1.0
S'excellent'
p5681
I11
tp5682
a(I1134
I4
F1.0
S'good'
p5683
I11
tp5684
a(I1142
I1
F-0.25
S'previous'
p5685
I11
tp5686
a(I1153
I3
F0.875
S'great'
p5687
I11
tp5688
a(I1179
I0
F0.625
S'first'
p5689
I11
tp5690
a(I1179
I0
I0
S'android'
p5691
I11
tp5692
a(I1183
I3
F0.625
S'reliable'
p5693
I11
tp5694
a(I1192
I2
F-0.625
S'average'
p5695
I11
tp5696
a(I1212
I7
F-0.25
S'i'
p5697
I11
tp5698
a(I1283
I0
F0.75
S'premium'
p5699
I11
tp5700
a(I1315
I14
F-0.875
S'painful'
p5701
I11
tp5702
a(I1320
I1
F0.625
S'reliable'
p5703
I11
tp5704
a(I1320
I1
F0.875
S'important'
p5705
I11
tp5706
a(I1389
I0
F0.875
S'decent'
p5707
I11
tp5708
a(I1435
I3
F0.875
S'great'
p5709
I11
tp5710
a(I1436
I23
F-0.125
S'overall'
p5711
I11
tp5712
a(I1436
I23
F1.0
S'good'
p5713
I11
tp5714
a(I1584
I2
I0
S'handy'
p5715
I11
tp5716
a(I1584
I4
F0.5
S'slim'
p5717
I11
tp5718
a(I1585
I4
F0.375
S'available'
p5719
I11
tp5720
a(I1585
I4
F0.75
S'due'
p5721
I11
tp5722
a(I1585
I12
F0.25
S'worth'
p5723
I11
tp5724
a(I1585
I12
I0
S'handy'
p5725
I11
tp5726
a(I1587
I1
F1.0
S'better'
p5727
I11
tp5728
a(I1587
I1
F-0.625
S'last'
p5729
I11
tp5730
a(I1587
I2
F-0.125
S'such'
p5731
I11
tp5732
a(I1587
I3
F-0.625
S'other'
p5733
I11
tp5734
a(I1623
I1
F-0.625
S'new'
p5735
I11
tp5736
a(I1626
I0
F0.625
S'fine'
p5737
I11
tp5738
a(I1670
I9
F1.0
S'good'
p5739
I11
tp5740
a(I1722
I12
I0
S'handy'
p5741
I11
tp5742
a(I1736
I3
F0.875
S'awesome'
p5743
I11
tp5744
a(I1934
I9
F0.875
S'amazing'
p5745
I11
tp5746
a(I1991
I7
F-0.625
S'last'
p5747
I11
tp5748
as(S'delivery'
p5749
S'by'
p5750
S'flipkart'
p5751
tp5752
(lp5753
(I58
I5
F1.0
S'good'
p5754
I0
tp5755
a(I58
I5
F0.125
S'usual'
p5756
I0
tp5757
a(I797
I1
F0.875
S'awesome'
p5758
I0
tp5759
a(I887
I16
F1.0
S'good'
p5760
I0
tp5761
a(I887
I16
F0.125
S'usual'
p5762
I0
tp5763
a(I1208
I5
F0.875
S'great'
p5764
I0
tp5765
a(I1684
I22
F-1.0
S'bad'
p5766
I0
tp5767
as(S'and'
p5768
S'build'
p5769
S'quality'
p5770
tp5771
(lp5772
(I36
I19
I0
g1354
I0
tp5773
a(I108
I0
I0
g1358
I0
tp5774
a(I165
I5
I0
g1360
I0
tp5775
a(I170
I7
I0
g1364
I0
tp5776
a(I186
I3
I0
g1366
I0
tp5777
a(I187
I5
F0.875
g1294
I0
tp5778
a(I196
I2
F1.0
g1296
I0
tp5779
a(I389
I0
F1.0
g1298
I0
tp5780
a(I389
I0
F0.5
g1300
I0
tp5781
a(I410
I1
I0
g1372
I0
tp5782
a(I438
I2
I0
g1302
I0
tp5783
a(I438
I2
F1.0
g1304
I0
tp5784
a(I438
I2
I0
g1306
I0
tp5785
a(I502
I5
I0
g1377
I0
tp5786
a(I767
I1
F1.0
g1308
I0
tp5787
a(I889
I17
I0
g1388
I0
tp5788
a(I931
I10
F0.75
g1390
I0
tp5789
a(I1032
I18
F1.0
g1314
I0
tp5790
a(I1212
I11
I0
g1395
I0
tp5791
a(I1216
I5
F1.0
g1316
I0
tp5792
a(I1352
I1
I0
g1404
I0
tp5793
a(I1353
I8
F0.875
g1406
I0
tp5794
a(I1353
I8
I0
g1408
I0
tp5795
a(I1370
I1
F0.875
g1322
I0
tp5796
a(I1465
I0
F-0.625
g1326
I0
tp5797
a(I1465
I0
F1.0
g1328
I0
tp5798
a(I1465
I0
F-0.875
g1330
I0
tp5799
a(I1600
I1
F0.625
g1419
I0
tp5800
a(I1670
I7
F1.0
g1332
I0
tp5801
a(I1722
I12
I0
g1422
I0
tp5802
a(I1806
I1
F1.0
g1334
I0
tp5803
a(I1899
I21
I0
g1426
I0
tp5804
a(I1921
I8
F0.875
g1428
I0
tp5805
a(I1965
I1
F-0.875
g1430
I0
tp5806
a(I2150
I1
F1.0
g1350
I0
tp5807
a(I2150
I1
F1.0
g1352
I0
tp5808
as(S'camera'
p5809
S'quality'
p5810
tp5811
(lp5812
(I6
I1
F1.0
g2455
I14
tp5813
a(I24
I1
F1.0
g2460
I14
tp5814
a(I133
I7
I0
g2121
I14
tp5815
a(I133
I7
F0.875
S'great'
p5816
I14
tp5817
a(I165
I5
I0
g1360
I14
tp5818
a(I187
I5
F0.875
g1294
I14
tp5819
a(I259
I1
F1.0
g2474
I14
tp5820
a(I266
I2
F0.75
S'perfect'
p5821
I14
tp5822
a(I277
I0
F0.625
S'okay'
p5823
I14
tp5824
a(I305
I4
F0.75
g2392
I14
tp5825
a(I309
I1
F1.0
g3499
I14
tp5826
a(I320
I1
F1.0
g2481
I14
tp5827
a(I350
I2
F1.0
g2485
I14
tp5828
a(I355
I0
F-1.0
g2487
I14
tp5829
a(I382
I1
F1.0
g3433
I14
tp5830
a(I382
I1
F0.875
g2489
I14
tp5831
a(I386
I3
I0
g2491
I14
tp5832
a(I386
I3
F1.0
g3502
I14
tp5833
a(I428
I3
F1.0
g3506
I14
tp5834
a(I428
I3
F0.875
g3508
I14
tp5835
a(I494
I0
F1.0
g2505
I14
tp5836
a(I505
I19
F0.5
S'high'
p5837
I14
tp5838
a(I542
I0
F1.0
g2509
I14
tp5839
a(I599
I15
I0
g3769
I14
tp5840
a(I599
I15
I0
g3771
I14
tp5841
a(I606
I1
F1.0
g2515
I14
tp5842
a(I671
I3
F0.875
S'amazing'
p5843
I14
tp5844
a(I676
I16
F1.0
g2520
I14
tp5845
a(I676
I50
F0.5
S'high'
p5846
I14
tp5847
a(I747
I23
F1.0
g3441
I14
tp5848
a(I747
I26
F-0.875
S'poor'
p5849
I14
tp5850
a(I747
I29
F0.875
S'awesome'
p5851
I14
tp5852
a(I771
I1
F1.0
g2531
I14
tp5853
a(I771
I4
F1.0
g2533
I14
tp5854
a(I789
I1
F1.0
g2537
I14
tp5855
a(I798
I1
F1.0
g2539
I14
tp5856
a(I807
I4
F0.625
g1312
I14
tp5857
a(I906
I5
F1.0
g2546
I14
tp5858
a(I906
I24
I0
S'n'
p5859
I14
tp5860
a(I946
I12
F0.875
S'great'
p5861
I14
tp5862
a(I948
I7
F-0.875
S'poor'
p5863
I14
tp5864
a(I970
I5
F0.5
g2413
I14
tp5865
a(I998
I0
F1.0
g3563
I14
tp5866
a(I998
I0
F-0.375
g2550
I14
tp5867
a(I1008
I16
F0.875
S'awesome'
p5868
I14
tp5869
a(I1032
I2
F0.875
S'awesome'
p5870
I14
tp5871
a(I1091
I0
F-0.625
S'average'
p5872
I14
tp5873
a(I1124
I1
F1.0
S'excellent'
p5874
I14
tp5875
a(I1127
I4
F-0.875
S'low'
p5876
I14
tp5877
a(I1131
I0
I0
g2193
I14
tp5878
a(I1153
I5
F-0.875
S'low'
p5879
I14
tp5880
a(I1162
I4
F1.0
S'excellent'
p5881
I14
tp5882
a(I1179
I7
F1.0
g3455
I14
tp5883
a(I1179
I7
F1.0
g2575
I14
tp5884
a(I1216
I5
F1.0
g1316
I14
tp5885
a(I1236
I3
F1.0
g3594
I14
tp5886
a(I1236
I3
F-0.875
g2580
I14
tp5887
a(I1237
I1
F0.875
S'nice'
p5888
I14
tp5889
a(I1242
I0
F-0.875
S'poor'
p5890
I14
tp5891
a(I1267
I24
I0
g3597
I14
tp5892
a(I1267
I24
I0
g3599
I14
tp5893
a(I1267
I24
F0.375
g3601
I14
tp5894
a(I1268
I2
F-0.125
g2206
I14
tp5895
a(I1299
I9
F0.75
S'perfect'
p5896
I14
tp5897
a(I1300
I6
F1.0
g2585
I14
tp5898
a(I1300
I6
F0.875
g2587
I14
tp5899
a(I1313
I19
F1.0
g2591
I14
tp5900
a(I1352
I1
I0
g1404
I14
tp5901
a(I1363
I0
F-0.625
S'average'
p5902
I14
tp5903
a(I1370
I1
F0.875
g1322
I14
tp5904
a(I1374
I1
F0.75
S'outstanding'
p5905
I14
tp5906
a(I1374
I2
F-0.125
S'back'
p5907
I14
tp5908
a(I1407
I3
I0
g1411
I14
tp5909
a(I1481
I1
F1.0
g2600
I14
tp5910
a(I1506
I0
F1.0
g2607
I14
tp5911
a(I1518
I0
F-0.625
S'average'
p5912
I14
tp5913
a(I1533
I0
F-0.875
S'low'
p5914
I14
tp5915
a(I1533
I0
I0
S'light'
p5916
I14
tp5917
a(I1587
I31
F0.75
S'primary'
p5918
I14
tp5919
a(I1677
I49
I0
g3629
I14
tp5920
a(I1677
I49
F1.0
g2609
I14
tp5921
a(I1712
I4
F-0.875
S'poor'
p5922
I14
tp5923
a(I1727
I0
F1.0
g3631
I14
tp5924
a(I1749
I1
F-0.875
S'poor'
p5925
I14
tp5926
a(I1758
I3
F-0.125
S'back'
p5927
I14
tp5928
a(I1884
I10
F-0.625
S'other'
p5929
I14
tp5930
a(I1884
I14
I0
g2259
I14
tp5931
a(I1929
I26
F0.5
S'high'
p5932
I14
tp5933
a(I1961
I0
F-0.875
g3648
I14
tp5934
a(I1963
I3
F0.875
g2621
I14
tp5935
a(I1981
I7
I0
g2267
I14
tp5936
a(I1984
I1
F1.0
g2625
I14
tp5937
a(I1992
I2
F1.0
g3470
I14
tp5938
a(I1993
I1
F0.875
S'awesome'
p5939
I14
tp5940
a(I1993
I1
F-0.75
S'secondary'
p5941
I14
tp5942
a(I2007
I0
F1.0
g3664
I14
tp5943
a(I2007
I0
F-0.875
g2629
I14
tp5944
a(I2010
I2
F1.0
g2631
I14
tp5945
a(I2035
I1
F1.0
g3673
I14
tp5946
a(I2048
I0
F1.0
g2633
I14
tp5947
a(I2079
I1
F1.0
g2640
I14
tp5948
a(I2109
I3
F0.875
S'awesome'
p5949
I14
tp5950
a(I2142
I1
F1.0
g2646
I14
tp5951
a(I2145
I12
F0.875
S'awesome'
p5952
I14
tp5953
a(I2146
I1
F0.875
g1348
I14
tp5954
a(I2146
I1
F0.875
g3688
I14
tp5955
a(I2147
I8
F1.0
g3690
I14
tp5956
a(I2150
I1
F1.0
g1350
I14
tp5957
a(I2157
I5
F1.0
g2284
I14
tp5958
as(S'candy'
p5959
S'crush'
p5960
tp5961
(lp5962
(I1789
I3
I0
S'hot'
p5963
I0
tp5964
as(S'with'
p5965
S'moto'
p5966
S'g3'
p5967
tp5968
(lp5969
(I116
I0
I0
g290
I0
tp5970
a(I161
I3
F-0.625
g296
I0
tp5971
a(I977
I1
F0.75
g1490
I0
tp5972
a(I1100
I7
F-0.625
g1907
I0
tp5973
a(I1101
I9
F0.5
g1909
I0
tp5974
a(I1101
I9
F-0.625
g1911
I0
tp5975
a(I1192
I4
F-0.125
g1918
I0
tp5976
a(I1192
I4
F0.375
g1920
I0
tp5977
a(I1670
I6
F0.25
g3751
I0
tp5978
a(I1821
I2
F0.375
g382
I0
tp5979
a(I1981
I3
F0.625
g1498
I0
tp5980
a(I13
I8
F0.875
g4328
I0
tp5981
a(I48
I0
I0
g286
I0
tp5982
a(I93
I1
F0.5
g4331
I0
tp5983
a(I116
I0
I0
g290
I0
tp5984
a(I117
I1
F0.75
g292
I0
tp5985
a(I155
I0
F-0.25
g564
I0
tp5986
a(I161
I3
F-0.625
g296
I0
tp5987
a(I295
I1
F0.5
g306
I0
tp5988
a(I389
I6
I0
g1481
I0
tp5989
a(I407
I0
F-0.625
g418
I0
tp5990
a(I425
I7
F0.875
g4340
I0
tp5991
a(I491
I15
I0
g4342
I0
tp5992
a(I523
I1
F-0.75
g1483
I0
tp5993
a(I524
I1
F0.875
g4345
I0
tp5994
a(I532
I5
F0.5
g318
I0
tp5995
a(I536
I7
I0
g1876
I0
tp5996
a(I754
I8
F-0.625
g426
I0
tp5997
a(I814
I1
F-0.25
g1486
I0
tp5998
a(I832
I8
I0
g1488
I0
tp5999
a(I879
I13
F0.875
g4352
I0
tp6000
a(I977
I1
F0.75
g1490
I0
tp6001
a(I990
I38
F-0.125
g567
I0
tp6002
a(I1045
I0
I0
g350
I0
tp6003
a(I1055
I0
F-0.75
g570
I0
tp6004
a(I1056
I18
F-0.5
g352
I0
tp6005
a(I1100
I7
F-0.625
g1907
I0
tp6006
a(I1101
I9
F0.5
g1909
I0
tp6007
a(I1101
I9
F-0.625
g1911
I0
tp6008
a(I1192
I4
F-0.125
g1918
I0
tp6009
a(I1192
I4
F0.375
g1920
I0
tp6010
a(I1313
I13
F0.75
g572
I0
tp6011
a(I1348
I0
F0.75
g1494
I0
tp6012
a(I1670
I6
F0.25
g3751
I0
tp6013
a(I1821
I2
F0.375
g382
I0
tp6014
a(I1875
I4
I0
g384
I0
tp6015
a(I1981
I3
F0.625
g1498
I0
tp6016
a(I2078
I0
F1.0
g4370
I0
tp6017
a(I2092
I0
F0.875
g1960
I0
tp6018
a(I2108
I0
F0.875
g4373
I0
tp6019
a(I12
I0
F-0.5
g272
I0
tp6020
a(I12
I3
F-0.5
g274
I0
tp6021
a(I33
I7
F-0.75
g276
I0
tp6022
a(I33
I23
F1.0
g1838
I0
tp6023
a(I36
I20
F-0.5
g278
I0
tp6024
a(I36
I20
I0
g280
I0
tp6025
a(I36
I25
F-0.5
g282
I0
tp6026
a(I36
I36
F0.25
g410
I0
tp6027
a(I39
I1
F0.75
g284
I0
tp6028
a(I48
I0
I0
g286
I0
tp6029
a(I82
I1
F0.375
g1846
I0
tp6030
a(I102
I0
I0
g288
I0
tp6031
a(I116
I0
I0
g290
I0
tp6032
a(I117
I1
F0.75
g292
I0
tp6033
a(I146
I15
F-0.375
g294
I0
tp6034
a(I161
I3
F-0.625
g296
I0
tp6035
a(I184
I21
F0.375
g298
I0
tp6036
a(I184
I29
F-0.25
g300
I0
tp6037
a(I190
I3
I0
g1855
I0
tp6038
a(I195
I7
F-0.25
g302
I0
tp6039
a(I196
I23
F-0.25
g1858
I0
tp6040
a(I206
I0
F0.5
g1860
I0
tp6041
a(I228
I35
F0.875
g304
I0
tp6042
a(I295
I1
F0.5
g306
I0
tp6043
a(I319
I11
F0.625
g1864
I0
tp6044
a(I358
I19
I0
g308
I0
tp6045
a(I387
I0
F-0.625
g310
I0
tp6046
a(I405
I11
F1.0
g1868
I0
tp6047
a(I406
I5
I0
g416
I0
tp6048
a(I407
I0
F-0.625
g418
I0
tp6049
a(I414
I3
F0.5
g312
I0
tp6050
a(I463
I0
F-0.75
g314
I0
tp6051
a(I472
I2
F0.375
g316
I0
tp6052
a(I505
I1
F0.875
S'fab'
p6053
I0
tp6054
a(I532
I5
F0.5
g318
I0
tp6055
a(I536
I7
I0
g1876
I0
tp6056
a(I579
I1
F1.0
g320
I0
tp6057
a(I582
I0
F-0.625
g422
I0
tp6058
a(I668
I19
F-0.375
g324
I0
tp6059
a(I668
I23
F0.5
g1881
I0
tp6060
a(I676
I15
F0.5
g326
I0
tp6061
a(I686
I2
F-0.75
g1884
I0
tp6062
a(I695
I1
I0
g332
I0
tp6063
a(I724
I2
F-0.375
g334
I0
tp6064
a(I754
I8
F-0.625
g426
I0
tp6065
a(I842
I17
F-0.875
g336
I0
tp6066
a(I871
I7
I0
g338
I0
tp6067
a(I921
I0
F0.625
g1891
I0
tp6068
a(I944
I1
F0.125
g340
I0
tp6069
a(I990
I9
F-0.875
g342
I0
tp6070
a(I990
I38
F-0.125
g567
I0
tp6071
a(I990
I41
F-0.25
g346
I0
tp6072
a(I1008
I21
F0.125
g348
I0
tp6073
a(I1020
I44
F0.375
g1898
I0
tp6074
a(I1020
I52
F0.875
g1900
I0
tp6075
a(I1020
I52
I0
g1902
I0
tp6076
a(I1035
I4
F0.625
g430
I0
tp6077
a(I1045
I0
I0
g350
I0
tp6078
a(I1056
I18
F-0.5
g352
I0
tp6079
a(I1100
I7
F-0.625
g1907
I0
tp6080
a(I1101
I9
F0.5
g1909
I0
tp6081
a(I1101
I9
F-0.625
g1911
I0
tp6082
a(I1178
I0
F0.75
g1913
I0
tp6083
a(I1179
I36
F-0.125
g356
I0
tp6084
a(I1192
I4
F-0.125
g1918
I0
tp6085
a(I1192
I4
F0.375
g1920
I0
tp6086
a(I1199
I11
F0.875
g434
I0
tp6087
a(I1215
I1
F0.875
S'fab'
p6088
I0
tp6089
a(I1320
I12
F0.75
g364
I0
tp6090
a(I1320
I13
F0.5
g1924
I0
tp6091
a(I1325
I5
F0.5
g436
I0
tp6092
a(I1331
I6
F-0.25
g1927
I0
tp6093
a(I1340
I2
F1.0
g1929
I0
tp6094
a(I1392
I0
F-0.125
g1931
I0
tp6095
a(I1462
I0
F0.5
g368
I0
tp6096
a(I1574
I0
F-0.625
g1934
I0
tp6097
a(I1587
I31
F1.0
g1936
I0
tp6098
a(I1607
I2
F-0.375
g370
I0
tp6099
a(I1638
I0
F-0.625
g372
I0
tp6100
a(I1643
I0
F-0.875
g374
I0
tp6101
a(I1661
I0
F0.375
g1941
I0
tp6102
a(I1661
I1
I0
g1943
I0
tp6103
a(I1710
I1
F0.625
g439
I0
tp6104
a(I1711
I2
F0.625
g376
I0
tp6105
a(I1748
I3
F1.0
g378
I0
tp6106
a(I1769
I1
F-0.625
g380
I0
tp6107
a(I1781
I0
F-0.125
g1949
I0
tp6108
a(I1821
I2
F0.375
g382
I0
tp6109
a(I1875
I4
I0
g384
I0
tp6110
a(I1877
I7
F0.375
g623
I0
tp6111
a(I1910
I1
F-0.375
g442
I0
tp6112
a(I1910
I1
I0
g444
I0
tp6113
a(I1929
I20
F-0.5
g386
I0
tp6114
a(I1929
I20
F0.5
g388
I0
tp6115
a(I1994
I4
F0.875
g1958
I0
tp6116
a(I2092
I0
F0.875
g1960
I0
tp6117
as(S'review'
p6118
tp6119
(lp6120
(I12
I13
I0
S'useful'
p6121
I8
tp6122
a(I27
I3
F-1.0
S'bad'
p6123
I8
tp6124
a(I134
I5
F0.625
S'first'
p6125
I8
tp6126
a(I147
I3
F0.5
S'detailed'
p6127
I8
tp6128
a(I193
I16
F-0.125
S'next'
p6129
I8
tp6130
a(I266
I7
I0
S't'
p6131
I8
tp6132
a(I266
I7
I0
S'write'
p6133
I8
tp6134
a(I266
I7
F-0.375
S'generic'
p6135
I8
tp6136
a(I284
I1
I0
S'many'
p6137
I8
tp6138
a(I365
I12
F0.25
S'helpful'
p6139
I8
tp6140
a(I548
I11
F0.75
S'honest'
p6141
I8
tp6142
a(I576
I0
F-0.125
S'next'
p6143
I8
tp6144
a(I609
I3
F-1.0
S'bad'
p6145
I8
tp6146
a(I676
I44
F0.75
S'honest'
p6147
I8
tp6148
a(I701
I0
F0.75
S'honest'
p6149
I8
tp6150
a(I747
I5
I0
S'updated'
p6151
I8
tp6152
a(I748
I10
F0.375
S'further'
p6153
I8
tp6154
a(I814
I15
I0
S'big'
p6155
I8
tp6156
a(I821
I18
F0.25
S'helpful'
p6157
I8
tp6158
a(I910
I0
F0.5
S'detailed'
p6159
I8
tp6160
a(I919
I5
F0.5
S'detailed'
p6161
I8
tp6162
a(I919
I6
F0.5
S'detailed'
p6163
I8
tp6164
a(I970
I3
I0
S'sure'
p6165
I8
tp6166
a(I1080
I0
F-0.625
S'final'
p6167
I8
tp6168
a(I1154
I0
F0.75
S'honest'
p6169
I8
tp6170
a(I1244
I0
I0
S'more'
p6171
I8
tp6172
a(I1485
I12
I0
S'u'
p6173
I8
tp6174
a(I1526
I4
I0
S'comprehensive'
p6175
I8
tp6176
a(I1554
I2
F-0.875
S'small'
p6177
I8
tp6178
a(I1626
I4
F0.375
S'full'
p6179
I8
tp6180
a(I1680
I20
F0.375
S'focused'
p6181
I8
tp6182
a(I1684
I16
F0.75
S'honest'
p6183
I8
tp6184
a(I1684
I28
F0.625
S'first'
p6185
I8
tp6186
a(I1696
I0
F-0.875
S'negative'
p6187
I8
tp6188
a(I1934
I9
I0
S's'
p6189
I8
tp6190
as(S'form'
p6191
S'factor'
p6192
tp6193
(lp6194
(I551
I2
F1.0
S'better'
p6195
I0
tp6196
as(S'corning'
p6197
S'gorilla'
p6198
S'glass'
p6199
tp6200
(lp6201
(I379
I3
F0.5
S'sturdy'
p6202
I0
tp6203
a(I1722
I12
I0
S'inch'
p6204
I0
tp6205
a(I161
I2
F-0.778
S'common'
p6206
I2
tp6207
a(I246
I9
I0
S'gorilla'
p6208
I2
tp6209
a(I343
I1
F0.25
S'helpful'
p6210
I2
tp6211
a(I363
I4
I0
S'gorilla'
p6212
I2
tp6213
a(I367
I7
F-0.5
S'called'
p6214
I2
tp6215
a(I379
I3
F0.5
g6202
I2
tp6216
a(I813
I9
F-0.625
S'non'
p6217
I2
tp6218
a(I813
I9
F-0.5
S'breakable'
p6219
I2
tp6220
a(I813
I9
F-0.75
S'damage'
p6221
I2
tp6222
a(I813
I9
F-0.75
S'free'
p6223
I2
tp6224
a(I903
I1
F-0.875
S'hard'
p6225
I2
tp6226
a(I938
I1
I0
S'cool'
p6227
I2
tp6228
a(I1163
I13
I0
S't'
p6229
I2
tp6230
a(I1164
I2
I0
S'gorilla'
p6231
I2
tp6232
a(I1292
I1
F1.0
S'good'
p6233
I2
tp6234
a(I1332
I1
I0
S'gorilla'
p6235
I2
tp6236
a(I1409
I4
F-0.125
S'front'
p6237
I2
tp6238
a(I1874
I0
F1.0
S'good'
p6239
I2
tp6240
a(I1929
I4
F1.0
S'good'
p6241
I2
tp6242
a(I1994
I29
F0.5
S'second'
p6243
I2
tp6244
a(I1994
I29
F-0.625
S'fragile'
p6245
I2
tp6246
a(I1994
I29
F0.875
S'brilliant'
p6247
I2
tp6248
a(I161
I2
F-0.778
g6206
I10
tp6249
a(I166
I6
I0
S'tempered'
p6250
I10
tp6251
a(I169
I0
I0
S'tempered'
p6252
I10
tp6253
a(I246
I9
I0
g6208
I10
tp6254
a(I343
I1
F0.25
g6210
I10
tp6255
a(I359
I0
I0
S'total'
p6256
I10
tp6257
a(I359
I0
F-0.875
S'unsatisfied'
p6258
I10
tp6259
a(I363
I4
I0
g6212
I10
tp6260
a(I379
I3
F0.5
g6202
I10
tp6261
a(I690
I17
F1.0
S'good'
p6262
I10
tp6263
a(I813
I9
F-0.625
g6217
I10
tp6264
a(I813
I9
F-0.5
g6219
I10
tp6265
a(I813
I9
F-0.75
g6221
I10
tp6266
a(I813
I9
F-0.75
g6223
I10
tp6267
a(I813
I10
F0.5
S'touch'
p6268
I10
tp6269
a(I903
I1
F-0.875
g6225
I10
tp6270
a(I938
I1
I0
g6227
I10
tp6271
a(I1163
I13
I0
g6229
I10
tp6272
a(I1164
I2
I0
g6231
I10
tp6273
a(I1292
I1
F1.0
g6233
I10
tp6274
a(I1332
I1
I0
g6235
I10
tp6275
a(I1408
I3
F-0.875
S'cheap'
p6276
I10
tp6277
a(I1722
I2
I0
S'tempered'
p6278
I10
tp6279
a(I1722
I2
F0.625
S'fine'
p6280
I10
tp6281
a(I1874
I0
F1.0
g6239
I10
tp6282
a(I1929
I4
F1.0
g6241
I10
tp6283
a(I1994
I29
F0.5
g6243
I10
tp6284
a(I1994
I29
F-0.625
g6245
I10
tp6285
as(S'apps'
p6286
tp6287
(lp6288
(I33
I3
F-0.5
S'snappier'
p6289
I4
tp6290
a(I116
I1
F-0.625
S'other'
p6291
I4
tp6292
a(I146
I30
I0
S'many'
p6293
I4
tp6294
a(I294
I2
F-0.5
S'heavy'
p6295
I4
tp6296
a(I294
I2
I0
S'n'
p6297
I4
tp6298
a(I302
I4
F-0.5
S'heavy'
p6299
I4
tp6300
a(I302
I4
F-0.75
S'sufficient'
p6301
I4
tp6302
a(I448
I1
F-0.5
S'extra'
p6303
I4
tp6304
a(I550
I2
I0
S'multiple'
p6305
I4
tp6306
a(I681
I0
I0
S'unnecessary'
p6307
I4
tp6308
a(I791
I1
F-0.625
S'other'
p6309
I4
tp6310
a(I835
I1
F-0.5
S'heavy'
p6311
I4
tp6312
a(I931
I0
F-0.625
S'other'
p6313
I4
tp6314
a(I931
I0
F0.75
S'easy'
p6315
I4
tp6316
a(I1067
I1
F0.375
S'much'
p6317
I4
tp6318
a(I1067
I1
F0.25
S'basic'
p6319
I4
tp6320
a(I1101
I4
F0.25
S'able'
p6321
I4
tp6322
a(I1125
I0
F-0.25
S'i'
p6323
I4
tp6324
a(I1153
I12
I0
S'more'
p6325
I4
tp6326
a(I1179
I5
I0
S'more'
p6327
I4
tp6328
a(I1207
I4
F-0.375
S'various'
p6329
I4
tp6330
a(I1250
I1
F0.625
S'smooth'
p6331
I4
tp6332
a(I1250
I1
I0
S'least'
p6333
I4
tp6334
a(I1250
I1
F-0.5
S'cluttered'
p6335
I4
tp6336
a(I1270
I10
F0.25
S'helpful'
p6337
I4
tp6338
a(I1282
I1
I0
S'simultaneous'
p6339
I4
tp6340
a(I1320
I20
F-0.75
S'open'
p6341
I4
tp6342
a(I1320
I28
I0
S'few'
p6343
I4
tp6344
a(I1321
I1
I0
S'few'
p6345
I4
tp6346
a(I1621
I6
F-0.75
S'open'
p6347
I4
tp6348
a(I1640
I5
I0
S'more'
p6349
I4
tp6350
a(I1677
I53
F0.625
S'smooth'
p6351
I4
tp6352
a(I1684
I17
F-0.625
S'useless'
p6353
I4
tp6354
a(I1994
I8
F0.875
S'great'
p6355
I4
tp6356
a(I2016
I0
F1.0
S'good'
p6357
I4
tp6358
a(I2016
I0
F1.0
S'better'
p6359
I4
tp6360
a(I2125
I1
I0
S'many'
p6361
I4
tp6362
as(S'13'
p6363
S'mp'
p6364
tp6365
(lp6366
(I146
I21
F0.75
S'primary'
p6367
I0
tp6368
a(I146
I21
F-0.125
S'front'
p6369
I0
tp6370
a(I476
I2
F0.5
S'like'
p6371
I0
tp6372
a(I690
I20
F1.0
S'good'
p6373
I0
tp6374
a(I774
I1
F-0.125
S'front'
p6375
I0
tp6376
a(I955
I0
F1.0
S'good'
p6377
I0
tp6378
a(I1325
I1
F-0.125
S'front'
p6379
I0
tp6380
a(I1876
I7
I0
S'useful'
p6381
I0
tp6382
as.