(dp0
(S'front'
p1
S'camera'
p2
tp3
(lp4
(I1
I1
F1.0
S'good'
p5
I6
tp6
a(I3
I15
F1.0
S'good'
p7
I6
tp8
a(I14
I5
F1.0
S'good'
p9
I6
tp10
as(S'camera'
p11
S'quality'
p12
tp13
(lp14
(I3
I10
F1.0
S'good'
p15
I14
tp16
a(I6
I1
F1.0
S'good'
p17
I14
tp18
as(S'oppo'
p19
tp20
(lp21
(I18
I3
F-0.625
S'fast'
p22
I0
tp23
as.