(dp0
(S'every'
p1
tp2
(lp3
(I250
I32
F-0.75
S'single'
p4
I16
tp5
a(I1761
I3
F0.5
S'high'
p6
I16
tp7
as(S'in'
p8
S'balanced'
p9
S'mode'
p10
tp11
(lp12
(I44
I0
F0.125
S'balanced'
p13
I0
tp14
a(I53
I2
F0.125
S'balanced'
p15
I0
tp16
a(I238
I33
F0.125
S'balanced'
p17
I0
tp18
a(I324
I4
F0.125
S'balanced'
p19
I0
tp20
a(I385
I17
F0.125
S'balanced'
p21
I0
tp22
a(I418
I4
F0.125
S'balanced'
p23
I0
tp24
a(I418
I4
F-0.5
S'sluggish'
p25
I0
tp26
a(I692
I0
F0.125
S'balanced'
p27
I0
tp28
a(I878
I47
F0.125
S'balanced'
p29
I0
tp30
a(I1275
I0
F0.125
S'balanced'
p31
I0
tp32
as(S'2'
p33
S'gb'
p34
S'ram'
p35
tp36
(lp37
(I512
I9
F0.375
S'available'
p38
I4
tp39
a(I512
I9
I0
S't'
p40
I4
tp41
a(I522
I24
F-0.625
S'fast'
p42
I4
tp43
a(I930
I0
F0.375
S'available'
p44
I4
tp45
a(I973
I2
I0
S'more'
p46
I4
tp47
a(I987
I34
F0.25
S'worth'
p48
I4
tp49
a(I1016
I5
F-0.75
S'free'
p50
I4
tp51
a(I1186
I14
F0.375
S'available'
p52
I4
tp53
a(I1776
I1
I0
S'more'
p54
I4
tp55
a(I2086
I14
F1.0
S'good'
p56
I4
tp57
a(I749
I7
F0.375
S'available'
p58
I7
tp59
a(I930
I0
F0.375
g44
I7
tp60
a(I1263
I0
F0.375
S'available'
p61
I7
tp62
a(I1305
I49
F0.5
S'dual'
p63
I7
tp64
a(I1550
I0
F0.75
S'complete'
p65
I7
tp66
a(I1589
I5
F0.375
S'available'
p67
I7
tp68
a(I2086
I14
F1.0
g56
I7
tp69
as(S'high'
p70
S'end'
p71
S'games'
p72
tp73
(lp74
(I917
I1
F0.5
S'high'
p75
I0
tp76
a(I1263
I0
F0.5
S'high'
p77
I0
tp78
a(I1759
I1
F0.5
S'high'
p79
I0
tp80
a(I1788
I8
F0.5
S'high'
p81
I0
tp82
a(I1788
I17
F0.5
S'high'
p83
I0
tp84
a(I2117
I0
F0.5
S'high'
p85
I0
tp86
a(I126
I3
F0.5
S'higher'
p87
I0
tp88
a(I152
I24
F0.5
S'high'
p89
I0
tp90
a(I329
I1
F0.5
S'high'
p91
I0
tp92
a(I348
I0
F0.5
S'high'
p93
I0
tp94
a(I411
I7
F0.5
S'high'
p95
I0
tp96
a(I452
I1
F0.5
S'high'
p97
I0
tp98
a(I611
I10
F0.5
S'high'
p99
I0
tp100
a(I684
I16
F1.0
S'good'
p101
I0
tp102
a(I684
I16
F0.5
S'high'
p103
I0
tp104
a(I778
I15
F0.5
S'high'
p105
I0
tp106
a(I825
I22
F0.5
S'high'
p107
I0
tp108
a(I917
I1
F0.5
g75
I0
tp109
a(I1009
I24
F0.375
S'available'
p110
I0
tp111
a(I1009
I24
I0
S'most'
p112
I0
tp113
a(I1009
I24
F0.5
S'high'
p114
I0
tp115
a(I1009
I51
F0.5
S'high'
p116
I0
tp117
a(I1172
I1
F0.5
S'high'
p118
I0
tp119
a(I1263
I0
F0.5
g77
I0
tp120
a(I1284
I9
F0.5
S'high'
p121
I0
tp122
a(I1325
I0
F0.5
S'high'
p123
I0
tp124
a(I1362
I4
I0
S'most'
p125
I0
tp126
a(I1362
I4
F0.5
S'high'
p127
I0
tp128
a(I1487
I9
F0.5
S'high'
p129
I0
tp130
a(I1487
I10
F0.5
S'high'
p131
I0
tp132
a(I1619
I31
F0.5
S'high'
p133
I0
tp134
a(I1759
I1
F0.5
g79
I0
tp135
a(I1788
I8
F0.5
g81
I0
tp136
a(I1788
I17
F0.5
g83
I0
tp137
a(I2117
I0
F0.5
g85
I0
tp138
a(I104
I2
I0
S't'
p139
I5
tp140
a(I117
I2
F-0.5
S'heavy'
p141
I5
tp142
a(I152
I2
F0.5
S'intensive'
p143
I5
tp144
a(I208
I34
F-0.875
S'small'
p145
I5
tp146
a(I208
I45
F-0.5
S'heavy'
p147
I5
tp148
a(I230
I1
F-0.625
S'new'
p149
I5
tp150
a(I282
I0
I0
S'installed'
p151
I5
tp152
a(I282
I0
I0
S't'
p153
I5
tp154
a(I324
I5
F-0.5
S'heavy'
p155
I5
tp156
a(I324
I5
F0.125
S'mobile'
p157
I5
tp158
a(I370
I13
I0
S'play'
p159
I5
tp160
a(I391
I13
F0.375
S'much'
p161
I5
tp162
a(I411
I11
F0.625
S'graphic'
p163
I5
tp164
a(I494
I13
F-0.5
S'heavy'
p165
I5
tp166
a(I522
I5
I0
S'total'
p167
I5
tp168
a(I523
I24
F-0.125
S'such'
p169
I5
tp170
a(I523
I68
F0.5
S'intense'
p171
I5
tp172
a(I787
I1
F-0.5
S'heavy'
p173
I5
tp174
a(I794
I1
I0
S'more'
p175
I5
tp176
a(I794
I1
I0
S'big'
p177
I5
tp178
a(I878
I7
F0.5
S'higher'
p179
I5
tp180
a(I878
I7
F0.625
S'graphic'
p181
I5
tp182
a(I878
I7
F-0.625
S'real'
p183
I5
tp184
a(I891
I20
F0.5
S'intensive'
p185
I5
tp186
a(I892
I2
F-0.5
S'slow'
p187
I5
tp188
a(I947
I13
I0
S'hot'
p189
I5
tp190
a(I971
I2
F-0.5
S'heavier'
p191
I5
tp192
a(I1152
I5
F0.625
S'graphic'
p193
I5
tp194
a(I1152
I5
F0.375
S'extensive'
p195
I5
tp196
a(I1201
I0
F-0.75
S'little'
p197
I5
tp198
a(I1207
I42
F-0.5
S'heavy'
p199
I5
tp200
a(I1260
I1
F-0.125
S'such'
p201
I5
tp202
a(I1260
I1
I0
S'asphalt'
p203
I5
tp204
a(I1286
I11
F0.625
S'graphic'
p205
I5
tp206
a(I1286
I11
F0.5
S'intensive'
p207
I5
tp208
a(I1299
I1
I0
S'least'
p209
I5
tp210
a(I1450
I27
I0
S'few'
p211
I5
tp212
a(I1627
I5
F0.5
S'high'
p213
I5
tp214
a(I1627
I5
F0.625
S'graphic'
p215
I5
tp216
a(I1688
I1
F0.125
S'mobile'
p217
I5
tp218
a(I1744
I29
F0.625
S'graphic'
p219
I5
tp220
a(I1744
I29
F0.5
S'intensive'
p221
I5
tp222
a(I1758
I6
I0
S'few'
p223
I5
tp224
a(I1927
I1
F-0.125
S'such'
p225
I5
tp226
a(I1966
I23
F0.5
S'similar'
p227
I5
tp228
a(I1987
I0
F-0.5
S'heavy'
p229
I5
tp230
a(I2137
I3
I0
S'many'
p231
I5
tp232
as(S'scanned'
p233
S'copy'
p234
tp235
(lp236
(I357
I2
F0.375
S'scanned'
p237
I0
tp238
a(I358
I0
F0.375
S'scanned'
p239
I0
tp240
a(I359
I0
F0.375
S'scanned'
p241
I0
tp242
as(S'call'
p243
S'quality'
p244
tp245
(lp246
(I159
I14
I0
S'screen'
p247
I1
tp248
a(I239
I5
F1.0
S'good'
p249
I1
tp250
a(I239
I5
I0
S'earpiece'
p251
I1
tp252
a(I282
I11
F0.5
S'high'
p253
I1
tp254
a(I293
I2
F1.0
S'good'
p255
I1
tp256
a(I332
I1
F0.5
S'crisp'
p257
I1
tp258
a(I332
I1
I0
S'clear'
p259
I1
tp260
a(I376
I3
F0.75
S'due'
p261
I1
tp262
a(I385
I20
F0.75
S'sound'
p263
I1
tp264
a(I385
I20
F1.0
S'good'
p265
I1
tp266
a(I463
I1
F1.0
S'good'
p267
I1
tp268
a(I472
I1
F0.75
S'sound'
p269
I1
tp270
a(I523
I53
F0.875
S'great'
p271
I1
tp272
a(I726
I10
F1.0
S'good'
p273
I1
tp274
a(I726
I10
F0.875
S'awesome'
p275
I1
tp276
a(I726
I10
I0
S'crystal'
p277
I1
tp278
a(I726
I10
I0
S'clear'
p279
I1
tp280
a(I891
I2
F-0.5
S'call'
p281
I1
tp282
a(I1120
I4
I0
S'below'
p283
I1
tp284
a(I1120
I4
F-0.625
S'average'
p285
I1
tp286
a(I1120
I4
I0
S'sure'
p287
I1
tp288
a(I1305
I18
F1.0
S'good'
p289
I1
tp290
a(I1348
I0
F0.75
S'sound'
p291
I1
tp292
a(I1394
I18
F0.875
S'great'
p293
I1
tp294
a(I1570
I0
F-0.5
S'call'
p295
I1
tp296
a(I1570
I0
F1.0
S'good'
p297
I1
tp298
a(I1638
I10
I0
S'build'
p299
I1
tp300
a(I1659
I0
F1.0
S'good'
p301
I1
tp302
a(I1708
I0
F1.0
S'excellent'
p303
I1
tp304
a(I1718
I19
F1.0
S'good'
p305
I1
tp306
a(I1795
I1
F0.875
S'nice'
p307
I1
tp308
a(I1975
I2
F1.0
S'good'
p309
I1
tp310
as(S'update'
p311
tp312
(lp313
(I58
I5
F1.0
S'better'
p314
I1
tp315
a(I81
I9
F-0.625
S'new'
p316
I1
tp317
a(I81
I9
F-0.125
S'os'
p318
I1
tp319
a(I117
I4
F0.625
S'fine'
p320
I1
tp321
a(I193
I23
I0
S'sure'
p322
I1
tp323
a(I482
I0
F0.375
S'available'
p324
I1
tp325
a(I496
I3
I0
S't'
p326
I1
tp327
a(I640
I1
F-0.125
S'next'
p328
I1
tp329
a(I710
I27
F-0.25
S'latest'
p330
I1
tp331
a(I784
I3
F-0.25
S'i'
p332
I1
tp333
a(I878
I42
I0
S'immediate'
p334
I1
tp335
a(I981
I0
F-0.25
S'latest'
p336
I1
tp337
a(I1046
I0
F-0.25
S'latest'
p338
I1
tp339
a(I1185
I3
F-0.125
S'next'
p340
I1
tp341
a(I1207
I34
F-0.25
S'latest'
p342
I1
tp343
a(I1223
I4
F-0.125
S'next'
p344
I1
tp345
a(I1237
I53
F0.25
S'recent'
p346
I1
tp347
a(I1259
I5
F-0.25
S'latest'
p348
I1
tp349
a(I1259
I5
F0.5
S'stable'
p350
I1
tp351
a(I1259
I5
F0.375
S'available'
p352
I1
tp353
a(I1266
I5
I0
S'many'
p354
I1
tp355
a(I1286
I11
I0
S'hot'
p356
I1
tp357
a(I1286
I11
F-0.25
S'latest'
p358
I1
tp359
a(I1305
I24
F0.5
S'stable'
p360
I1
tp361
a(I1357
I0
F0.25
S'recent'
p362
I1
tp363
a(I1391
I29
F-0.625
S'last'
p364
I1
tp365
a(I1404
I1
F0.25
S'recent'
p366
I1
tp367
a(I1438
I0
F-0.25
S'latest'
p368
I1
tp369
a(I1477
I4
F-0.625
S'new'
p370
I1
tp371
a(I1559
I4
F-0.625
S'new'
p372
I1
tp373
a(I1975
I17
F-0.125
S'next'
p374
I1
tp375
a(I1975
I38
F0.625
S'first'
p376
I1
tp377
a(I1975
I45
F-0.125
S'huge'
p378
I1
tp379
a(I1975
I45
F0.625
S'first'
p380
I1
tp381
a(I1994
I7
F-0.25
S'latest'
p382
I1
tp383
a(I1994
I7
F0.5
S'recommended'
p384
I1
tp385
as(S'good'
p386
S'front'
p387
S'camera'
p388
tp389
(lp390
(I117
I9
F1.0
S'good'
p391
I0
tp392
a(I197
I4
F1.0
S'good'
p393
I0
tp394
a(I461
I1
F1.0
S'good'
p395
I0
tp396
a(I711
I1
F1.0
S'good'
p397
I0
tp398
a(I744
I0
F1.0
S'good'
p399
I0
tp400
a(I796
I1
F1.0
S'good'
p401
I0
tp402
a(I841
I1
F1.0
S'good'
p403
I0
tp404
a(I959
I3
F1.0
S'good'
p405
I0
tp406
a(I1106
I1
F-0.125
S'front'
p407
I0
tp408
a(I1247
I0
F-0.625
S'last'
p409
I0
tp410
a(I1247
I0
F1.0
S'good'
p411
I0
tp412
a(I1325
I6
F1.0
S'good'
p413
I0
tp414
a(I1332
I0
F1.0
S'good'
p415
I0
tp416
a(I1352
I5
F1.0
S'good'
p417
I0
tp418
a(I1381
I0
I0
S'rear'
p419
I0
tp420
a(I1381
I0
F1.0
S'good'
p421
I0
tp422
a(I1511
I1
F1.0
S'good'
p423
I0
tp424
a(I1683
I0
I0
S'vii'
p425
I0
tp426
a(I1683
I0
F1.0
S'good'
p427
I0
tp428
a(I1698
I1
F1.0
S'good'
p429
I0
tp430
a(I1698
I2
F-0.125
S'front'
p431
I0
tp432
a(I1698
I2
F1.0
S'good'
p433
I0
tp434
a(I1748
I1
F1.0
S'good'
p435
I0
tp436
a(I1789
I7
F1.0
S'good'
p437
I0
tp438
a(I1789
I7
I0
S'rear'
p439
I0
tp440
a(I1799
I1
F0.875
S'awesome'
p441
I0
tp442
a(I1799
I1
F1.0
S'good'
p443
I0
tp444
a(I1926
I34
I0
S'rear'
p445
I0
tp446
a(I1926
I34
F1.0
S'good'
p447
I0
tp448
a(I1926
I34
F-0.125
S'front'
p449
I0
tp450
a(I1974
I8
F1.0
S'good'
p451
I0
tp452
a(I2012
I17
F1.0
S'good'
p453
I0
tp454
a(I2122
I6
F-0.125
S'front'
p455
I0
tp456
a(I2122
I6
F1.0
S'good'
p457
I0
tp458
a(I2161
I1
F1.0
S'good'
p459
I0
tp460
a(I101
I0
F1.0
S'good'
p461
I3
tp462
a(I117
I9
F1.0
g391
I3
tp463
a(I138
I6
F1.0
S'good'
p464
I3
tp465
a(I158
I0
F1.0
S'good'
p466
I3
tp467
a(I158
I0
F0.75
S'primary'
p468
I3
tp469
a(I158
I0
F-0.75
S'secondary'
p470
I3
tp471
a(I171
I0
F1.0
S'good'
p472
I3
tp473
a(I180
I6
I0
S'descent'
p474
I3
tp475
a(I186
I0
F1.0
S'good'
p476
I3
tp477
a(I197
I4
F1.0
g393
I3
tp478
a(I208
I21
F1.0
S'good'
p479
I3
tp480
a(I239
I3
F1.0
S'good'
p481
I3
tp482
a(I320
I1
F1.0
S'good'
p483
I3
tp484
a(I324
I9
F1.0
S'good'
p485
I3
tp486
a(I334
I3
F1.0
S'good'
p487
I3
tp488
a(I377
I6
F1.0
S'good'
p489
I3
tp490
a(I435
I0
F1.0
S'good'
p491
I3
tp492
a(I474
I1
F1.0
S'good'
p493
I3
tp494
a(I494
I7
F1.0
S'good'
p495
I3
tp496
a(I522
I17
F0.75
S'primary'
p497
I3
tp498
a(I522
I17
F1.0
S'good'
p499
I3
tp500
a(I522
I17
F-0.75
S'secondary'
p501
I3
tp502
a(I522
I17
F1.0
S'good'
p503
I3
tp504
a(I523
I69
F1.0
S'good'
p505
I3
tp506
a(I525
I8
F1.0
S'good'
p507
I3
tp508
a(I559
I0
F1.0
S'good'
p509
I3
tp510
a(I591
I0
I0
S'rear'
p511
I3
tp512
a(I591
I0
F1.0
S'good'
p513
I3
tp514
a(I610
I13
F1.0
S'good'
p515
I3
tp516
a(I620
I2
F1.0
S'good'
p517
I3
tp518
a(I711
I1
F1.0
g397
I3
tp519
a(I712
I0
F1.0
S'good'
p520
I3
tp521
a(I726
I10
F0.875
S'great'
p522
I3
tp523
a(I744
I0
F1.0
g399
I3
tp524
a(I796
I1
F1.0
g401
I3
tp525
a(I798
I1
F1.0
S'good'
p526
I3
tp527
a(I799
I1
F1.0
S'good'
p528
I3
tp529
a(I799
I1
I0
S'big'
p530
I3
tp531
a(I825
I9
F1.0
S'good'
p532
I3
tp533
a(I841
I1
F1.0
g403
I3
tp534
a(I875
I0
F1.0
S'good'
p535
I3
tp536
a(I916
I2
I0
S'rear'
p537
I3
tp538
a(I916
I2
F1.0
S'good'
p539
I3
tp540
a(I938
I0
F1.0
S'good'
p541
I3
tp542
a(I976
I0
F0.125
S'mobile'
p543
I3
tp544
a(I982
I0
F1.0
S'good'
p545
I3
tp546
a(I987
I17
F1.0
S'good'
p547
I3
tp548
a(I1005
I12
F0.875
S'nice'
p549
I3
tp550
a(I1078
I4
I0
S'clear'
p551
I3
tp552
a(I1098
I0
F1.0
S'good'
p553
I3
tp554
a(I1106
I1
F-0.125
g407
I3
tp555
a(I1111
I2
F1.0
S'good'
p556
I3
tp557
a(I1122
I0
F1.0
S'good'
p558
I3
tp559
a(I1140
I0
F1.0
S'good'
p560
I3
tp561
a(I1162
I12
F0.875
S'awesome'
p562
I3
tp563
a(I1195
I12
F1.0
S'good'
p564
I3
tp565
a(I1207
I43
F1.0
S'good'
p566
I3
tp567
a(I1207
I43
I0
S'clear'
p568
I3
tp569
a(I1214
I1
F1.0
S'good'
p570
I3
tp571
a(I1219
I0
F0.75
S'outstanding'
p572
I3
tp573
a(I1231
I3
F1.0
S'good'
p574
I3
tp575
a(I1235
I1
F1.0
S'good'
p576
I3
tp577
a(I1247
I0
F-0.625
g409
I3
tp578
a(I1247
I0
F1.0
g411
I3
tp579
a(I1286
I24
F1.0
S'good'
p580
I3
tp581
a(I1309
I14
F1.0
S'good'
p582
I3
tp583
a(I1325
I4
F1.0
S'good'
p584
I3
tp585
a(I1325
I6
F1.0
g413
I3
tp586
a(I1332
I0
F1.0
g415
I3
tp587
a(I1336
I0
F1.0
S'good'
p588
I3
tp589
a(I1342
I2
F1.0
S'good'
p590
I3
tp591
a(I1347
I0
F1.0
S'good'
p592
I3
tp593
a(I1352
I5
F1.0
g417
I3
tp594
a(I1381
I0
I0
g419
I3
tp595
a(I1381
I0
F1.0
g421
I3
tp596
a(I1391
I39
F1.0
S'good'
p597
I3
tp598
a(I1391
I39
F-0.25
S'i'
p599
I3
tp600
a(I1402
I27
F1.0
S'good'
p601
I3
tp602
a(I1402
I28
F1.0
S'good'
p603
I3
tp604
a(I1423
I1
F1.0
S'good'
p605
I3
tp606
a(I1478
I0
F1.0
S'good'
p607
I3
tp608
a(I1551
I9
F1.0
S'good'
p609
I3
tp610
a(I1573
I4
F1.0
S'good'
p611
I3
tp612
a(I1588
I19
F1.0
S'good'
p613
I3
tp614
a(I1621
I0
F1.0
S'good'
p615
I3
tp616
a(I1627
I0
F1.0
S'good'
p617
I3
tp618
a(I1627
I20
F1.0
S'good'
p619
I3
tp620
a(I1687
I0
F1.0
S'good'
p621
I3
tp622
a(I1698
I1
F1.0
g429
I3
tp623
a(I1698
I2
F-0.125
g431
I3
tp624
a(I1698
I2
F1.0
g433
I3
tp625
a(I1744
I28
F1.0
S'good'
p626
I3
tp627
a(I1748
I1
F1.0
g435
I3
tp628
a(I1782
I15
F1.0
S'good'
p629
I3
tp630
a(I1786
I1
F1.0
S'good'
p631
I3
tp632
a(I1789
I7
F1.0
g437
I3
tp633
a(I1799
I1
F0.875
g441
I3
tp634
a(I1844
I10
F1.0
S'good'
p635
I3
tp636
a(I1856
I3
F1.0
S'good'
p637
I3
tp638
a(I1892
I12
I0
S'wow'
p639
I3
tp640
a(I1892
I12
F1.0
S'good'
p641
I3
tp642
a(I1926
I34
I0
g445
I3
tp643
a(I1926
I34
F1.0
g447
I3
tp644
a(I1926
I34
F-0.125
g449
I3
tp645
a(I1966
I5
F1.0
S'good'
p646
I3
tp647
a(I1974
I8
F1.0
g451
I3
tp648
a(I1997
I1
F1.0
S'good'
p649
I3
tp650
a(I2009
I10
F1.0
S'good'
p651
I3
tp652
a(I2012
I17
F1.0
g453
I3
tp653
a(I2045
I5
F1.0
S'good'
p654
I3
tp655
a(I2052
I2
F0.875
S'decent'
p656
I3
tp657
a(I2069
I27
F1.0
S'good'
p658
I3
tp659
a(I2093
I0
F1.0
S'good'
p660
I3
tp661
a(I2093
I0
I0
S'light'
p662
I3
tp663
a(I2102
I7
F1.0
S'good'
p664
I3
tp665
a(I2122
I6
F-0.125
g455
I3
tp666
a(I2122
I6
F1.0
g457
I3
tp667
a(I2129
I0
F0.125
S'mobile'
p668
I3
tp669
a(I2129
I0
F1.0
S'good'
p670
I3
tp671
a(I2132
I1
F1.0
S'good'
p672
I3
tp673
a(I2161
I1
F1.0
g459
I3
tp674
a(I2184
I2
F1.0
S'good'
p675
I3
tp676
a(I2187
I0
F1.0
S'good'
p677
I3
tp678
a(I2198
I10
F1.0
S'good'
p679
I3
tp680
a(I2198
I10
F1.0
S'good'
p681
I3
tp682
a(I2199
I0
F1.0
S'good'
p683
I3
tp684
a(I9
I1
F1.0
S'best'
p685
I6
tp686
a(I59
I7
F-0.125
S'front'
p687
I6
tp688
a(I59
I7
F1.0
S'better'
p689
I6
tp690
a(I81
I2
F-0.75
S'single'
p691
I6
tp692
a(I81
I2
F0.875
S'great'
p693
I6
tp694
a(I104
I1
I0
S'hot'
p695
I6
tp696
a(I117
I9
F1.0
g391
I6
tp697
a(I197
I4
F1.0
g393
I6
tp698
a(I235
I10
F-0.125
S'front'
p699
I6
tp700
a(I297
I0
F1.0
S'excellent'
p701
I6
tp702
a(I388
I32
F0.875
S'awesome'
p703
I6
tp704
a(I388
I32
F-0.125
S'front'
p705
I6
tp706
a(I388
I32
F1.0
S'excellent'
p707
I6
tp708
a(I391
I0
F0.875
S'awesome'
p709
I6
tp710
a(I415
I2
F0.375
S'impressive'
p711
I6
tp712
a(I461
I1
F1.0
g395
I6
tp713
a(I478
I0
F-0.125
S'front'
p714
I6
tp715
a(I591
I1
F-0.125
S'front'
p716
I6
tp717
a(I639
I1
F0.875
S'great'
p718
I6
tp719
a(I669
I0
F-0.125
S'front'
p720
I6
tp721
a(I669
I0
F0.625
S'extraordinary'
p722
I6
tp723
a(I711
I1
F1.0
g397
I6
tp724
a(I744
I0
F1.0
g399
I6
tp725
a(I779
I2
F-0.125
S'front'
p726
I6
tp727
a(I796
I1
F1.0
g401
I6
tp728
a(I841
I1
F1.0
g403
I6
tp729
a(I874
I1
F-0.625
S'useless'
p730
I6
tp731
a(I876
I15
F-0.125
S'front'
p732
I6
tp733
a(I891
I9
F-0.125
S'front'
p734
I6
tp735
a(I926
I17
F1.0
S'best'
p736
I6
tp737
a(I926
I17
F-0.125
S'front'
p738
I6
tp739
a(I956
I5
F-0.125
S'front'
p740
I6
tp741
a(I959
I3
F1.0
g405
I6
tp742
a(I959
I8
F-0.125
S'front'
p743
I6
tp744
a(I959
I19
F-0.125
S'front'
p745
I6
tp746
a(I1100
I3
F1.0
S'best'
p747
I6
tp748
a(I1106
I1
F-0.125
g407
I6
tp749
a(I1139
I0
F-0.125
S'front'
p750
I6
tp751
a(I1150
I2
F-0.125
S'front'
p752
I6
tp753
a(I1150
I2
F0.875
S'awesome'
p754
I6
tp755
a(I1164
I28
F-0.125
S'front'
p756
I6
tp757
a(I1186
I17
F0.875
S'awesome'
p758
I6
tp759
a(I1186
I17
F0.375
S'much'
p760
I6
tp761
a(I1237
I38
F-0.125
S'back'
p762
I6
tp763
a(I1247
I0
F-0.625
g409
I6
tp764
a(I1247
I0
F1.0
g411
I6
tp765
a(I1292
I1
F0.375
S'full'
p766
I6
tp767
a(I1325
I6
F1.0
g413
I6
tp768
a(I1332
I0
F1.0
g415
I6
tp769
a(I1352
I5
F1.0
g417
I6
tp770
a(I1381
I0
I0
g419
I6
tp771
a(I1381
I0
F1.0
g421
I6
tp772
a(I1402
I12
F-0.125
S'front'
p773
I6
tp774
a(I1423
I2
F-0.125
S'front'
p775
I6
tp776
a(I1450
I45
F-0.125
S'front'
p777
I6
tp778
a(I1490
I1
F1.0
S'excellent'
p779
I6
tp780
a(I1511
I1
F1.0
g423
I6
tp781
a(I1514
I9
F0.875
S'great'
p782
I6
tp783
a(I1668
I6
F-0.125
S'front'
p784
I6
tp785
a(I1668
I6
F1.0
S'better'
p786
I6
tp787
a(I1683
I0
I0
g425
I6
tp788
a(I1683
I0
F1.0
g427
I6
tp789
a(I1698
I1
F1.0
g429
I6
tp790
a(I1698
I2
F-0.125
g431
I6
tp791
a(I1698
I2
F1.0
g433
I6
tp792
a(I1748
I1
F1.0
g435
I6
tp793
a(I1789
I7
F1.0
g437
I6
tp794
a(I1789
I7
I0
g439
I6
tp795
a(I1799
I1
F0.875
g441
I6
tp796
a(I1799
I1
F1.0
g443
I6
tp797
a(I1827
I2
F1.0
S'better'
p798
I6
tp799
a(I1926
I7
F-0.125
S'front'
p800
I6
tp801
a(I1926
I8
F0.5
S'magnificent'
p802
I6
tp803
a(I1926
I34
I0
g445
I6
tp804
a(I1926
I34
F1.0
g447
I6
tp805
a(I1926
I34
F-0.125
g449
I6
tp806
a(I1974
I8
F1.0
g451
I6
tp807
a(I2012
I17
F1.0
g453
I6
tp808
a(I2122
I4
I0
S'rear'
p809
I6
tp810
a(I2122
I6
F-0.125
g455
I6
tp811
a(I2122
I6
F1.0
g457
I6
tp812
a(I2161
I1
F1.0
g459
I6
tp813
a(I101
I0
F1.0
g461
I0
tp814
a(I117
I9
F1.0
g391
I0
tp815
a(I138
I6
F1.0
g464
I0
tp816
a(I158
I0
F1.0
g466
I0
tp817
a(I158
I0
F0.75
g468
I0
tp818
a(I158
I0
F-0.75
g470
I0
tp819
a(I171
I0
F1.0
g472
I0
tp820
a(I180
I6
I0
g474
I0
tp821
a(I186
I0
F1.0
g476
I0
tp822
a(I197
I4
F1.0
g393
I0
tp823
a(I208
I21
F1.0
g479
I0
tp824
a(I239
I3
F1.0
g481
I0
tp825
a(I320
I1
F1.0
g483
I0
tp826
a(I324
I9
F1.0
g485
I0
tp827
a(I334
I3
F1.0
g487
I0
tp828
a(I377
I6
F1.0
g489
I0
tp829
a(I435
I0
F1.0
g491
I0
tp830
a(I474
I1
F1.0
g493
I0
tp831
a(I494
I7
F1.0
g495
I0
tp832
a(I522
I17
F0.75
g497
I0
tp833
a(I522
I17
F1.0
g499
I0
tp834
a(I522
I17
F-0.75
g501
I0
tp835
a(I522
I17
F1.0
g503
I0
tp836
a(I523
I69
F1.0
g505
I0
tp837
a(I525
I8
F1.0
g507
I0
tp838
a(I559
I0
F1.0
g509
I0
tp839
a(I591
I0
I0
g511
I0
tp840
a(I591
I0
F1.0
g513
I0
tp841
a(I610
I13
F1.0
g515
I0
tp842
a(I620
I2
F1.0
g517
I0
tp843
a(I711
I1
F1.0
g397
I0
tp844
a(I712
I0
F1.0
g520
I0
tp845
a(I726
I10
F0.875
g522
I0
tp846
a(I744
I0
F1.0
g399
I0
tp847
a(I796
I1
F1.0
g401
I0
tp848
a(I798
I1
F1.0
g526
I0
tp849
a(I799
I1
F1.0
g528
I0
tp850
a(I799
I1
I0
g530
I0
tp851
a(I825
I9
F1.0
g532
I0
tp852
a(I841
I1
F1.0
g403
I0
tp853
a(I875
I0
F1.0
g535
I0
tp854
a(I916
I2
I0
g537
I0
tp855
a(I916
I2
F1.0
g539
I0
tp856
a(I938
I0
F1.0
g541
I0
tp857
a(I976
I0
F0.125
g543
I0
tp858
a(I982
I0
F1.0
g545
I0
tp859
a(I987
I17
F1.0
g547
I0
tp860
a(I1005
I12
F0.875
g549
I0
tp861
a(I1078
I4
I0
g551
I0
tp862
a(I1098
I0
F1.0
g553
I0
tp863
a(I1106
I1
F-0.125
g407
I0
tp864
a(I1111
I2
F1.0
g556
I0
tp865
a(I1122
I0
F1.0
g558
I0
tp866
a(I1140
I0
F1.0
g560
I0
tp867
a(I1162
I12
F0.875
g562
I0
tp868
a(I1195
I12
F1.0
g564
I0
tp869
a(I1207
I43
F1.0
g566
I0
tp870
a(I1207
I43
I0
g568
I0
tp871
a(I1214
I1
F1.0
g570
I0
tp872
a(I1219
I0
F0.75
g572
I0
tp873
a(I1231
I3
F1.0
g574
I0
tp874
a(I1235
I1
F1.0
g576
I0
tp875
a(I1247
I0
F-0.625
g409
I0
tp876
a(I1247
I0
F1.0
g411
I0
tp877
a(I1286
I24
F1.0
g580
I0
tp878
a(I1309
I14
F1.0
g582
I0
tp879
a(I1325
I4
F1.0
g584
I0
tp880
a(I1325
I6
F1.0
g413
I0
tp881
a(I1332
I0
F1.0
g415
I0
tp882
a(I1336
I0
F1.0
g588
I0
tp883
a(I1342
I2
F1.0
g590
I0
tp884
a(I1347
I0
F1.0
g592
I0
tp885
a(I1352
I5
F1.0
g417
I0
tp886
a(I1381
I0
I0
g419
I0
tp887
a(I1381
I0
F1.0
g421
I0
tp888
a(I1391
I39
F1.0
g597
I0
tp889
a(I1391
I39
F-0.25
g599
I0
tp890
a(I1402
I27
F1.0
g601
I0
tp891
a(I1402
I28
F1.0
g603
I0
tp892
a(I1423
I1
F1.0
g605
I0
tp893
a(I1478
I0
F1.0
g607
I0
tp894
a(I1551
I9
F1.0
g609
I0
tp895
a(I1573
I4
F1.0
g611
I0
tp896
a(I1588
I19
F1.0
g613
I0
tp897
a(I1621
I0
F1.0
g615
I0
tp898
a(I1627
I0
F1.0
g617
I0
tp899
a(I1627
I20
F1.0
g619
I0
tp900
a(I1687
I0
F1.0
g621
I0
tp901
a(I1698
I1
F1.0
g429
I0
tp902
a(I1698
I2
F-0.125
g431
I0
tp903
a(I1698
I2
F1.0
g433
I0
tp904
a(I1744
I28
F1.0
g626
I0
tp905
a(I1748
I1
F1.0
g435
I0
tp906
a(I1782
I15
F1.0
g629
I0
tp907
a(I1786
I1
F1.0
g631
I0
tp908
a(I1789
I7
F1.0
g437
I0
tp909
a(I1799
I1
F0.875
g441
I0
tp910
a(I1844
I10
F1.0
g635
I0
tp911
a(I1856
I3
F1.0
g637
I0
tp912
a(I1892
I12
I0
g639
I0
tp913
a(I1892
I12
F1.0
g641
I0
tp914
a(I1926
I34
I0
g445
I0
tp915
a(I1926
I34
F1.0
g447
I0
tp916
a(I1926
I34
F-0.125
g449
I0
tp917
a(I1966
I5
F1.0
g646
I0
tp918
a(I1974
I8
F1.0
g451
I0
tp919
a(I1997
I1
F1.0
g649
I0
tp920
a(I2009
I10
F1.0
g651
I0
tp921
a(I2012
I17
F1.0
g453
I0
tp922
a(I2045
I5
F1.0
g654
I0
tp923
a(I2052
I2
F0.875
g656
I0
tp924
a(I2069
I27
F1.0
g658
I0
tp925
a(I2093
I0
F1.0
g660
I0
tp926
a(I2093
I0
I0
g662
I0
tp927
a(I2102
I7
F1.0
g664
I0
tp928
a(I2122
I6
F-0.125
g455
I0
tp929
a(I2122
I6
F1.0
g457
I0
tp930
a(I2129
I0
F0.125
g668
I0
tp931
a(I2129
I0
F1.0
g670
I0
tp932
a(I2132
I1
F1.0
g672
I0
tp933
a(I2161
I1
F1.0
g459
I0
tp934
a(I2184
I2
F1.0
g675
I0
tp935
a(I2187
I0
F1.0
g677
I0
tp936
a(I2198
I10
F1.0
g679
I0
tp937
a(I2198
I10
F1.0
g681
I0
tp938
a(I2199
I0
F1.0
g683
I0
tp939
a(I9
I1
F1.0
g685
I14
tp940
a(I208
I72
I0
S'rear'
p941
I14
tp942
a(I224
I0
I0
S'u'
p943
I14
tp944
a(I224
I0
F0.875
S'awesome'
p945
I14
tp946
a(I224
I0
I0
S'hot'
p947
I14
tp948
a(I411
I1
F0.375
S'full'
p949
I14
tp950
a(I411
I1
F-0.75
S'black'
p951
I14
tp952
a(I461
I1
F1.0
g395
I14
tp953
a(I916
I3
F1.0
S'good'
p954
I14
tp955
a(I959
I3
F1.0
g405
I14
tp956
a(I1305
I36
F-0.625
S'impeccable'
p957
I14
tp958
a(I1391
I7
I0
S'n'
p959
I14
tp960
a(I1511
I1
F1.0
g423
I14
tp961
a(I1539
I1
I0
S'cool'
p962
I14
tp963
a(I1683
I0
I0
g425
I14
tp964
a(I1683
I0
F1.0
g427
I14
tp965
a(I1789
I7
I0
g439
I14
tp966
a(I1799
I1
F1.0
g443
I14
tp967
as(S'playing'
p968
S'games'
p969
tp970
(lp971
(I208
I45
F-0.5
g147
I1
tp972
a(I230
I1
F-0.625
g149
I1
tp973
a(I370
I13
I0
g159
I1
tp974
a(I794
I1
I0
g175
I1
tp975
a(I794
I1
I0
g177
I1
tp976
a(I947
I13
I0
g189
I1
tp977
a(I1201
I0
F-0.75
g197
I1
tp978
a(I1299
I1
I0
g209
I1
tp979
a(I1744
I29
F0.625
g219
I1
tp980
a(I1744
I29
F0.5
g221
I1
tp981
a(I1759
I2
F0.5
S'high'
p982
I1
tp983
a(I1927
I1
F-0.125
g225
I1
tp984
a(I1987
I0
F-0.5
g229
I1
tp985
as(S'look'
p986
S'and'
p987
S'feel'
p988
tp989
(lp990
(I394
I1
I0
S'handy'
p991
I0
tp992
a(I1009
I20
F0.875
S'solid'
p993
I0
tp994
a(I1078
I4
F1.0
S'good'
p995
I0
tp996
a(I1078
I4
F1.0
S'good'
p997
I0
tp998
a(I1207
I36
F0.75
S'premium'
p999
I0
tp1000
a(I1572
I2
F0.875
S'amazing'
p1001
I0
tp1002
a(I34
I0
I0
S't'
p1003
I10
tp1004
a(I122
I0
F1.0
S'good'
p1005
I10
tp1006
a(I412
I9
F0.875
S'awesome'
p1007
I10
tp1008
a(I412
I9
F0.5
S'grateful'
p1009
I10
tp1010
a(I471
I12
I0
S't'
p1011
I10
tp1012
a(I471
I12
F-0.875
S'low'
p1013
I10
tp1014
a(I523
I36
I0
S't'
p1015
I10
tp1016
a(I523
I36
F0.75
S'proud'
p1017
I10
tp1018
a(I737
I6
F0.125
S'mobile'
p1019
I10
tp1020
a(I1078
I4
F1.0
g997
I10
tp1021
a(I1087
I1
F0.875
S'great'
p1022
I10
tp1023
a(I1207
I36
F0.75
g999
I10
tp1024
a(I1272
I0
F1.0
S'good'
p1025
I10
tp1026
a(I1284
I4
F0.5
S'touch'
p1027
I10
tp1028
a(I1284
I4
F1.0
S'good'
p1029
I10
tp1030
a(I1572
I2
F0.875
g1001
I10
tp1031
a(I1668
I2
I0
S't'
p1032
I10
tp1033
a(I1668
I4
I0
S't'
p1034
I10
tp1035
a(I1788
I5
F0.75
S'premium'
p1036
I10
tp1037
a(I1844
I7
F1.0
S'good'
p1038
I10
tp1039
a(I1937
I8
F1.0
S'good'
p1040
I10
tp1041
as(S'worth'
p1042
S'for'
p1043
S'money'
p1044
tp1045
(lp1046
(I107
I8
F0.25
S'worth'
p1047
I0
tp1048
a(I412
I5
F0.25
S'worth'
p1049
I0
tp1050
a(I2182
I1
F0.25
S'worth'
p1051
I0
tp1052
as(S'less'
p1053
tp1054
(lp1055
(I683
I1
F0.5
S'weight'
p1056
I16
tp1057
a(I1402
I4
F-0.875
S'cheaper'
p1058
I16
tp1059
as(S'no'
p1060
S'expandable'
p1061
S'memory'
p1062
tp1063
(lp1064
(I229
I2
F0.5
S'expandable'
p1065
I0
tp1066
a(I509
I10
F0.5
S'expandable'
p1067
I0
tp1068
a(I561
I41
F0.5
S'expandable'
p1069
I0
tp1070
a(I710
I57
F0.5
S'expandable'
p1071
I0
tp1072
a(I737
I9
F0.5
S'expandable'
p1073
I0
tp1074
a(I748
I1
F0.5
S'expandable'
p1075
I0
tp1076
a(I1054
I1
F0.5
S'expandable'
p1077
I0
tp1078
a(I1225
I4
F0.5
S'expandable'
p1079
I0
tp1080
a(I1297
I0
F-0.5
S'extra'
p1081
I0
tp1082
a(I1297
I0
F0.5
S'expandable'
p1083
I0
tp1084
a(I1357
I1
F0.5
S'expandable'
p1085
I0
tp1086
a(I1418
I1
F0.5
S'expandable'
p1087
I0
tp1088
a(I1551
I17
F0.5
S'expandable'
p1089
I0
tp1090
a(I1621
I4
F0.5
S'expandable'
p1091
I0
tp1092
a(I1711
I0
F0.5
S'expandable'
p1093
I0
tp1094
a(I1797
I0
F0.5
S'expandable'
p1095
I0
tp1096
a(I1991
I4
F0.5
S'expandable'
p1097
I0
tp1098
a(I2060
I0
F0.5
S'expandable'
p1099
I0
tp1100
a(I2157
I2
F0.5
S'expandable'
p1101
I0
tp1102
a(I2183
I1
F0.5
S'expandable'
p1103
I0
tp1104
a(I229
I2
F0.5
g1065
I0
tp1105
a(I509
I10
F0.5
g1067
I0
tp1106
a(I561
I41
F0.5
g1069
I0
tp1107
a(I710
I57
F0.5
g1071
I0
tp1108
a(I737
I9
F0.5
g1073
I0
tp1109
a(I748
I1
F0.5
g1075
I0
tp1110
a(I956
I3
F0.5
S'expandable'
p1111
I0
tp1112
a(I1036
I1
I-100
S'inexpandable'
p1113
I0
tp1114
a(I1054
I1
F0.5
g1077
I0
tp1115
a(I1225
I4
F0.5
g1079
I0
tp1116
a(I1297
I0
F-0.5
g1081
I0
tp1117
a(I1297
I0
F0.5
g1083
I0
tp1118
a(I1357
I1
F0.5
g1085
I0
tp1119
a(I1418
I1
F0.5
g1087
I0
tp1120
a(I1551
I17
F0.5
g1089
I0
tp1121
a(I1621
I4
F0.5
g1091
I0
tp1122
a(I1711
I0
F0.5
g1093
I0
tp1123
a(I1941
I1
F0.5
S'expandable'
p1124
I0
tp1125
a(I1952
I12
F0.5
S'expandable'
p1126
I0
tp1127
a(I1991
I4
F0.5
g1097
I0
tp1128
a(I2001
I10
F0.5
S'expandable'
p1129
I0
tp1130
a(I2060
I0
F0.5
g1099
I0
tp1131
a(I2157
I2
F0.5
g1101
I0
tp1132
a(I2183
I1
F0.5
g1103
I0
tp1133
as(S'experience'
p1134
tp1135
(lp1136
(I80
I7
F0.25
S'behavior'
p1137
I12
tp1138
a(I82
I5
F0.625
S'smoother'
p1139
I12
tp1140
a(I114
I0
F-0.125
S'overall'
p1141
I12
tp1142
a(I147
I8
F-1.0
S'bad'
p1143
I12
tp1144
a(I184
I5
F0.875
S'amazing'
p1145
I12
tp1146
a(I224
I3
F0.5
S'touch'
p1147
I12
tp1148
a(I224
I6
F0.875
S'great'
p1149
I12
tp1150
a(I225
I6
I0
S'user'
p1151
I12
tp1152
a(I250
I14
F-0.625
S'nightmarish'
p1153
I12
tp1154
a(I360
I4
F0.625
S'interested'
p1155
I12
tp1156
a(I370
I38
F-1.0
S'bad'
p1157
I12
tp1158
a(I391
I5
F1.0
S'good'
p1159
I12
tp1160
a(I391
I5
F0.75
S'due'
p1161
I12
tp1162
a(I515
I36
F0.75
S'pleasant'
p1163
I12
tp1164
a(I523
I70
F0.625
S'first'
p1165
I12
tp1166
a(I573
I2
F1.0
S'good'
p1167
I12
tp1168
a(I611
I7
F0.875
S'great'
p1169
I12
tp1170
a(I611
I7
F0.625
S'smooth'
p1171
I12
tp1172
a(I707
I1
F1.0
S'best'
p1173
I12
tp1174
a(I798
I1
I0
S'big'
p1175
I12
tp1176
a(I912
I1
F-0.625
S'horrible'
p1177
I12
tp1178
a(I947
I8
F-0.875
S'pathetic'
p1179
I12
tp1180
a(I969
I4
F0.75
S'fantastic'
p1181
I12
tp1182
a(I987
I40
F-1.0
S'bad'
p1183
I12
tp1184
a(I1029
I0
I0
S'user'
p1185
I12
tp1186
a(I1166
I2
F0.875
S'awesome'
p1187
I12
tp1188
a(I1186
I24
F-0.875
S'bitter'
p1189
I12
tp1190
a(I1208
I6
F1.0
S'better'
p1191
I12
tp1192
a(I1227
I16
I0
S'own'
p1193
I12
tp1194
a(I1227
I16
F0.5
S'personal'
p1195
I12
tp1196
a(I1227
I26
I0
S'own'
p1197
I12
tp1198
a(I1227
I26
F0.5
S'personal'
p1199
I12
tp1200
a(I1227
I27
F0.75
S'pleasant'
p1201
I12
tp1202
a(I1257
I14
F0.75
S'whole'
p1203
I12
tp1204
a(I1390
I6
F0.5
S'refreshing'
p1205
I12
tp1206
a(I1402
I11
F-1.0
S'bad'
p1207
I12
tp1208
a(I1433
I3
F1.0
S'good'
p1209
I12
tp1210
a(I1585
I1
F-0.5
S'heavy'
p1211
I12
tp1212
a(I1585
I1
F0.375
S'usage'
p1213
I12
tp1214
a(I1585
I1
F1.0
S'good'
p1215
I12
tp1216
a(I1606
I7
F0.875
S'great'
p1217
I12
tp1218
a(I1606
I7
I0
S'user'
p1219
I12
tp1220
a(I1700
I0
I0
S'user'
p1221
I12
tp1222
a(I1892
I7
F-0.125
S'present'
p1223
I12
tp1224
a(I1897
I32
F-1.0
S'worst'
p1225
I12
tp1226
a(I1913
I17
F0.5
S'second'
p1227
I12
tp1228
a(I1913
I17
F-1.0
S'worst'
p1229
I12
tp1230
a(I1921
I3
F-0.875
S'bitter'
p1231
I12
tp1232
a(I2031
I3
F0.875
S'important'
p1233
I12
tp1234
a(I2200
I3
I0
S'mi'
p1235
I12
tp1236
as(S'root'
p1237
S'access'
p1238
tp1239
(lp1240
(I1132
I7
F0.875
S'great'
p1241
I0
tp1242
a(I1606
I14
I0
S'root'
p1243
I0
tp1244
as(S'software'
p1245
tp1246
(lp1247
(I115
I2
I0
S'few'
p1248
I2
tp1249
a(I123
I6
F0.875
S'superb'
p1250
I2
tp1251
a(I249
I32
F0.375
S'available'
p1252
I2
tp1253
a(I291
I4
I0
S'update'
p1254
I2
tp1255
a(I293
I14
F1.0
S'good'
p1256
I2
tp1257
a(I311
I3
F0.375
S'available'
p1258
I2
tp1259
a(I370
I31
I0
S'update'
p1260
I2
tp1261
a(I388
I35
F-0.25
S'i'
p1262
I2
tp1263
a(I388
I35
F0.5
S'high'
p1264
I2
tp1265
a(I528
I1
F-0.625
S'new'
p1266
I2
tp1267
a(I535
I10
F0.625
S'fine'
p1268
I2
tp1269
a(I561
I10
I0
S'update'
p1270
I2
tp1271
a(I778
I23
F-0.5
S'several'
p1272
I2
tp1273
a(I844
I3
I0
S'lag'
p1274
I2
tp1275
a(I844
I3
F-0.75
S'free'
p1276
I2
tp1277
a(I844
I4
F0.875
S'amazing'
p1278
I2
tp1279
a(I884
I6
I0
S'update'
p1280
I2
tp1281
a(I899
I1
F-0.625
S'buggy'
p1282
I2
tp1283
a(I1226
I6
I0
S'few'
p1284
I2
tp1285
a(I1226
I6
F-0.625
S'other'
p1286
I2
tp1287
a(I1226
I6
F-0.875
S'small'
p1288
I2
tp1289
a(I1614
I1
F-0.75
S'crappy'
p1290
I2
tp1291
a(I1668
I5
F0.875
S'great'
p1292
I2
tp1293
a(I1763
I1
F-0.875
S'negative'
p1294
I2
tp1295
a(I1763
I1
F-0.875
S'small'
p1296
I2
tp1297
a(I1780
I3
F0.875
S'superb'
p1298
I2
tp1299
a(I1937
I5
F-0.25
S'i'
p1300
I2
tp1301
a(I2030
I1
F0.125
S'mobile'
p1302
I2
tp1303
a(I2031
I25
I0
S'android'
p1304
I2
tp1305
a(I2031
I26
F0.25
S'future'
p1306
I2
tp1307
a(I2101
I2
F1.0
S'good'
p1308
I2
tp1309
as(S'waste'
p1310
S'of'
p1311
S'money'
p1312
tp1313
(lp1314
(I66
I9
I0
S'total'
p1315
I5
tp1316
a(I221
I17
I0
S'total'
p1317
I5
tp1318
a(I1137
I2
F1.0
S'good'
p1319
I5
tp1320
a(I1790
I5
I0
S'total'
p1321
I5
tp1322
a(I2031
I34
I0
S'total'
p1323
I5
tp1324
as(S'gaming'
p1325
tp1326
(lp1327
(I181
I1
F0.375
S'ok'
p1328
I5
tp1329
a(I391
I26
F-0.5
S'heavy'
p1330
I5
tp1331
a(I611
I11
F0.125
S'mobile'
p1332
I5
tp1333
a(I664
I21
F-0.125
S'overall'
p1334
I5
tp1335
a(I664
I21
F0.625
S'smooth'
p1336
I5
tp1337
a(I834
I1
F0.875
S'decent'
p1338
I5
tp1339
a(I889
I1
F-0.75
S'casual'
p1340
I5
tp1341
a(I1013
I1
I0
S'serious'
p1342
I5
tp1343
a(I1114
I11
F0.75
S'constant'
p1344
I5
tp1345
a(I1114
I11
F-0.625
S'last'
p1346
I5
tp1347
a(I1178
I9
F0.875
S'great'
p1348
I5
tp1349
a(I1563
I0
F-0.5
S'heavy'
p1350
I5
tp1351
a(I1588
I3
F-0.875
S'hard'
p1352
I5
tp1353
a(I1588
I3
F-0.625
S'natural'
p1354
I5
tp1355
a(I1644
I2
F0.625
S'acceptable'
p1356
I5
tp1357
a(I1671
I10
F0.125
S'mobile'
p1358
I5
tp1359
a(I1787
I2
F-0.5
S'heavy'
p1360
I5
tp1361
as(S'for'
p1362
S'first'
p1363
S'time'
p1364
tp1365
(lp1366
(I186
I2
F0.625
S'first'
p1367
I1
tp1368
a(I209
I3
F0.625
S'first'
p1369
I1
tp1370
a(I294
I2
F0.625
S'first'
p1371
I1
tp1372
a(I311
I3
F0.625
S'first'
p1373
I1
tp1374
a(I487
I0
F0.625
S'first'
p1375
I1
tp1376
a(I507
I0
F0.625
S'first'
p1377
I1
tp1378
a(I527
I2
F0.625
S'first'
p1379
I1
tp1380
a(I527
I2
F0.375
S'impressive'
p1381
I1
tp1382
a(I527
I2
F1.0
S'good'
p1383
I1
tp1384
a(I1009
I47
F0.625
S'first'
p1385
I1
tp1386
a(I1627
I15
F0.625
S'first'
p1387
I1
tp1388
as(S'easy'
p1389
S'to'
p1390
S'use'
p1391
tp1392
(lp1393
(I740
I0
F0.5
S'slim'
p1394
I0
tp1395
a(I1562
I1
I0
S'n'
p1396
I0
tp1397
as(S'in'
p1398
S'performance'
p1399
S'mode'
p1400
tp1401
(lp1402
(I57
I1
F0.125
S'balanced'
p1403
I0
tp1404
a(I190
I4
F0.125
S'balanced'
p1405
I0
tp1406
a(I249
I27
F0.125
S'balanced'
p1407
I0
tp1408
a(I324
I4
F0.125
g19
I0
tp1409
a(I370
I5
I0
S'normal'
p1410
I0
tp1411
a(I370
I5
F-0.5
S'slow'
p1412
I0
tp1413
a(I370
I5
F1.0
S'better'
p1414
I0
tp1415
a(I686
I1
F1.0
S'good'
p1416
I0
tp1417
a(I692
I0
F0.125
g27
I0
tp1418
a(I878
I47
F-0.875
S'low'
p1419
I0
tp1420
a(I878
I47
F0.125
g29
I0
tp1421
a(I1275
I0
F0.125
g31
I0
tp1422
a(I1455
I4
F0.5
S'high'
p1423
I0
tp1424
a(I57
I1
F0.125
g1403
I0
tp1425
a(I190
I4
F0.125
g1405
I0
tp1426
a(I249
I27
F0.125
g1407
I0
tp1427
a(I324
I4
F0.125
g19
I0
tp1428
a(I370
I5
I0
g1410
I0
tp1429
a(I370
I5
F-0.5
g1412
I0
tp1430
a(I370
I5
F1.0
g1414
I0
tp1431
a(I686
I1
F1.0
g1416
I0
tp1432
a(I692
I0
F0.125
g27
I0
tp1433
a(I878
I47
F-0.875
g1419
I0
tp1434
a(I878
I47
F0.125
g29
I0
tp1435
a(I1275
I0
F0.125
g31
I0
tp1436
a(I1455
I4
F0.5
g1423
I0
tp1437
a(I1718
I14
F-0.625
S'other'
p1438
I0
tp1439
a(I57
I0
F1.0
S'good'
p1440
I13
tp1441
a(I57
I1
F0.125
g1403
I13
tp1442
a(I65
I9
F1.0
S'best'
p1443
I13
tp1444
a(I123
I5
I0
S'cool'
p1445
I13
tp1446
a(I159
I14
F-0.375
S'same'
p1447
I13
tp1448
a(I175
I0
F0.125
S'mobile'
p1449
I13
tp1450
a(I175
I0
F1.0
S'good'
p1451
I13
tp1452
a(I186
I0
F0.875
S'nice'
p1453
I13
tp1454
a(I190
I4
F0.125
g1405
I13
tp1455
a(I212
I2
F0.5
S'high'
p1456
I13
tp1457
a(I212
I2
I0
S'lags'
p1458
I13
tp1459
a(I224
I2
I0
S'specs'
p1460
I13
tp1461
a(I224
I2
F0.875
S'great'
p1462
I13
tp1463
a(I238
I7
F0.625
S'acceptable'
p1464
I13
tp1465
a(I239
I12
F1.0
S'good'
p1466
I13
tp1467
a(I249
I27
F0.125
g1407
I13
tp1468
a(I323
I5
F-0.625
S'average'
p1469
I13
tp1470
a(I323
I9
F-0.125
S'overall'
p1471
I13
tp1472
a(I323
I9
F-0.5
S'sluggish'
p1473
I13
tp1474
a(I366
I4
F0.625
S'smooth'
p1475
I13
tp1476
a(I370
I5
F-0.5
g1412
I13
tp1477
a(I370
I5
F1.0
g1414
I13
tp1478
a(I412
I9
I0
S'par'
p1479
I13
tp1480
a(I537
I0
F0.625
S'major'
p1481
I13
tp1482
a(I597
I3
F1.0
S'good'
p1483
I13
tp1484
a(I605
I0
F0.5
S'high'
p1485
I13
tp1486
a(I616
I0
F1.0
S'good'
p1487
I13
tp1488
a(I620
I0
F1.0
S'good'
p1489
I13
tp1490
a(I648
I1
F0.625
S'extraordinary'
p1491
I13
tp1492
a(I686
I1
F1.0
g1416
I13
tp1493
a(I710
I4
I0
S'handy'
p1494
I13
tp1495
a(I710
I4
F0.625
S'sexy'
p1496
I13
tp1497
a(I759
I4
F1.0
S'good'
p1498
I13
tp1499
a(I771
I3
F-0.125
S'overall'
p1500
I13
tp1501
a(I787
I0
F0.875
S'great'
p1502
I13
tp1503
a(I845
I9
I-100
S'hifi'
p1504
I13
tp1505
a(I850
I0
F0.125
S'impact'
p1506
I13
tp1507
a(I876
I12
F-0.125
S'overall'
p1508
I13
tp1509
a(I878
I47
F-0.875
g1419
I13
tp1510
a(I883
I4
F0.375
S'satisfied'
p1511
I13
tp1512
a(I969
I3
F-0.125
S'overall'
p1513
I13
tp1514
a(I993
I6
F-0.875
S'poor'
p1515
I13
tp1516
a(I1073
I0
F1.0
S'good'
p1517
I13
tp1518
a(I1086
I1
F0.875
S'great'
p1519
I13
tp1520
a(I1114
I10
F1.0
S'good'
p1521
I13
tp1522
a(I1125
I0
F0.875
S'decent'
p1523
I13
tp1524
a(I1152
I1
F0.875
S'great'
p1525
I13
tp1526
a(I1162
I14
I-100
S'wowww'
p1527
I13
tp1528
a(I1164
I9
F1.0
S'excellent'
p1529
I13
tp1530
a(I1172
I1
F0.25
S'able'
p1531
I13
tp1532
a(I1189
I0
F1.0
S'good'
p1533
I13
tp1534
a(I1195
I16
I0
S'n'
p1535
I13
tp1536
a(I1246
I0
F-0.625
S'last'
p1537
I13
tp1538
a(I1246
I0
I0
S'least'
p1539
I13
tp1540
a(I1390
I0
F1.0
S'good'
p1541
I13
tp1542
a(I1391
I38
F0.75
S'wonderful'
p1543
I13
tp1544
a(I1450
I42
I-100
S'uber'
p1545
I13
tp1546
a(I1450
I42
F0.875
S'great'
p1547
I13
tp1548
a(I1455
I4
F0.5
g1423
I13
tp1549
a(I1587
I1
F1.0
S'excellent'
p1550
I13
tp1551
a(I1606
I8
F1.0
S'better'
p1552
I13
tp1553
a(I1606
I11
F0.875
S'nice'
p1554
I13
tp1555
a(I1619
I6
F1.0
S'good'
p1556
I13
tp1557
a(I1619
I10
F-0.125
S'overall'
p1558
I13
tp1559
a(I1619
I10
F0.625
S'super'
p1560
I13
tp1561
a(I1619
I13
F1.0
S'excellent'
p1562
I13
tp1563
a(I1619
I19
F0.75
S'sound'
p1564
I13
tp1565
a(I1619
I19
F0.875
S'great'
p1566
I13
tp1567
a(I1669
I7
F1.0
S'good'
p1568
I13
tp1569
a(I1669
I10
F-0.5
S'heavy'
p1570
I13
tp1571
a(I1688
I3
F0.375
S'much'
p1572
I13
tp1573
a(I1744
I1
F0.875
S'nice'
p1574
I13
tp1575
a(I1747
I1
F1.0
S'good'
p1576
I13
tp1577
a(I1788
I18
F-0.125
S'such'
p1578
I13
tp1579
a(I1844
I10
F1.0
S'excellent'
p1580
I13
tp1581
a(I1844
I10
F0.75
S'tremendous'
p1582
I13
tp1583
a(I1847
I2
F1.0
S'good'
p1584
I13
tp1585
a(I1927
I0
F-0.5
S'disappointed'
p1586
I13
tp1587
a(I1929
I13
F1.0
S'good'
p1588
I13
tp1589
a(I1951
I0
F-1.0
S'worst'
p1590
I13
tp1591
a(I2013
I4
F1.0
S'good'
p1592
I13
tp1593
a(I2019
I13
F0.875
S'great'
p1594
I13
tp1595
a(I2045
I7
F0.875
S'happy'
p1596
I13
tp1597
a(I2069
I3
F0.875
S'awesome'
p1598
I13
tp1599
a(I2069
I17
F-0.375
S'flawless'
p1600
I13
tp1601
a(I2114
I1
F1.0
S'good'
p1602
I13
tp1603
a(I2137
I1
I0
S'ni'
p1604
I13
tp1605
a(I2157
I3
F1.0
S'best'
p1606
I13
tp1607
a(I2170
I4
F1.0
S'good'
p1608
I13
tp1609
a(I2187
I1
F1.0
S'good'
p1610
I13
tp1611
a(I44
I0
F0.125
g13
I13
tp1612
a(I53
I2
F0.125
g15
I13
tp1613
a(I60
I7
F-0.625
S'silent'
p1614
I13
tp1615
a(I152
I20
F0.25
S'able'
p1616
I13
tp1617
a(I193
I15
F0.125
S'balanced'
p1618
I13
tp1619
a(I220
I8
F0.5
S'effective'
p1620
I13
tp1621
a(I238
I33
F0.125
g17
I13
tp1622
a(I282
I13
F0.125
S'mobile'
p1623
I13
tp1624
a(I324
I4
F0.125
g19
I13
tp1625
a(I360
I2
I0
S'prepaid'
p1626
I13
tp1627
a(I370
I5
I0
g1410
I13
tp1628
a(I385
I17
F0.125
g21
I13
tp1629
a(I390
I8
F0.125
S'balanced'
p1630
I13
tp1631
a(I391
I0
F0.5
S'beautify'
p1632
I13
tp1633
a(I418
I4
F0.125
g23
I13
tp1634
a(I418
I4
F-0.5
g25
I13
tp1635
a(I536
I10
F-0.375
S'manual'
p1636
I13
tp1637
a(I572
I5
F0.25
S'standby'
p1638
I13
tp1639
a(I692
I0
F0.125
g27
I13
tp1640
a(I703
I14
F-0.375
S'manual'
p1641
I13
tp1642
a(I706
I4
F-0.375
S'manual'
p1643
I13
tp1644
a(I706
I4
F-0.375
S'manual'
p1645
I13
tp1646
a(I878
I3
F0.125
S'balanced'
p1647
I13
tp1648
a(I878
I47
F0.125
g29
I13
tp1649
a(I1078
I2
F0.25
S'standby'
p1650
I13
tp1651
a(I1183
I2
F-0.375
S'lock'
p1652
I13
tp1653
a(I1275
I0
F0.125
g31
I13
tp1654
a(I1504
I2
F0.875
S'superb'
p1655
I13
tp1656
a(I1718
I14
F-0.625
g1438
I13
tp1657
a(I1723
I8
I0
S'normal'
p1658
I13
tp1659
a(I1789
I14
F0.5
S'efficient'
p1660
I13
tp1661
a(I1966
I28
I0
S'active'
p1662
I13
tp1663
a(I1975
I29
F0.5
S'classic'
p1664
I13
tp1665
a(I2020
I1
I0
S'online'
p1666
I13
tp1667
as(S'octa'
p1668
S'core'
p1669
S'processor'
p1670
tp1671
(lp1672
(I1471
I7
F0.5
S'dual'
p1673
I0
tp1674
a(I2081
I1
F-0.5
S'slow'
p1675
I0
tp1676
as(S'volume'
p1677
tp1678
(lp1679
(I117
I28
F0.375
S'full'
p1680
I2
tp1681
a(I184
I2
F-0.875
S'low'
p1682
I2
tp1683
a(I220
I7
F-0.75
S'dead'
p1684
I2
tp1685
a(I220
I7
F-0.875
S'low'
p1686
I2
tp1687
a(I231
I1
F-0.875
S'low'
p1688
I2
tp1689
a(I237
I4
F-0.875
S'low'
p1690
I2
tp1691
a(I239
I5
F-0.75
S'little'
p1692
I2
tp1693
a(I239
I5
I0
S'more'
p1694
I2
tp1695
a(I293
I4
F-0.5
S'loud'
p1696
I2
tp1697
a(I303
I0
F-0.625
S'average'
p1698
I2
tp1699
a(I303
I0
F-0.5
S'loud'
p1700
I2
tp1701
a(I323
I11
F-0.125
S'overall'
p1702
I2
tp1703
a(I323
I11
F-0.875
S'low'
p1704
I2
tp1705
a(I469
I1
F-0.875
S'low'
p1706
I2
tp1707
a(I479
I3
F-0.5
S'negligible'
p1708
I2
tp1709
a(I710
I6
F-0.875
S'low'
p1710
I2
tp1711
a(I710
I7
F0.5
S'highest'
p1712
I2
tp1713
a(I710
I7
F0.125
S'mobile'
p1714
I2
tp1715
a(I726
I12
F-0.5
S'disappointed'
p1716
I2
tp1717
a(I726
I12
F-0.5
S'less'
p1718
I2
tp1719
a(I726
I12
F0.75
S'sound'
p1720
I2
tp1721
a(I746
I0
F-0.875
S'low'
p1722
I2
tp1723
a(I746
I1
F-0.875
S'low'
p1724
I2
tp1725
a(I747
I0
F1.0
S'good'
p1726
I2
tp1727
a(I805
I15
F-0.875
S'low'
p1728
I2
tp1729
a(I955
I1
F-0.875
S'low'
p1730
I2
tp1731
a(I967
I1
F1.0
S'good'
p1732
I2
tp1733
a(I1184
I1
F-0.5
S'less'
p1734
I2
tp1735
a(I1186
I1
F-0.75
S'unable'
p1736
I2
tp1737
a(I1186
I4
F-0.75
S'sufficient'
p1738
I2
tp1739
a(I1187
I5
F-0.875
S'low'
p1740
I2
tp1741
a(I1232
I8
F-0.875
S'low'
p1742
I2
tp1743
a(I1286
I2
F-0.875
S'low'
p1744
I2
tp1745
a(I1286
I3
F-0.875
S'low'
p1746
I2
tp1747
a(I1286
I6
F1.0
S'good'
p1748
I2
tp1749
a(I1305
I30
F-0.25
S'd'
p1750
I2
tp1751
a(I1348
I0
F-0.875
S'pathetic'
p1752
I2
tp1753
a(I1374
I1
F-0.875
S'low'
p1754
I2
tp1755
a(I1429
I1
F0.5
S'high'
p1756
I2
tp1757
a(I1436
I0
F0.125
S'ring'
p1758
I2
tp1759
a(I1436
I0
F-0.875
S'low'
p1760
I2
tp1761
a(I1501
I10
F-0.875
S'down'
p1762
I2
tp1763
a(I1589
I3
F-0.5
S'louder'
p1764
I2
tp1765
a(I1647
I0
F-0.875
S'low'
p1766
I2
tp1767
a(I1788
I15
F-0.875
S'low'
p1768
I2
tp1769
a(I1907
I11
F-0.875
S'low'
p1770
I2
tp1771
a(I1917
I3
F-0.875
S'low'
p1772
I2
tp1773
a(I1917
I3
F-0.875
S'low'
p1774
I2
tp1775
a(I1917
I3
F0.375
S'audible'
p1776
I2
tp1777
a(I1991
I8
F0.125
S'key'
p1778
I2
tp1779
a(I2029
I0
I0
S'clear'
p1780
I2
tp1781
a(I2034
I1
F-0.875
S'low'
p1782
I2
tp1783
a(I2069
I20
I0
S'clear'
p1784
I2
tp1785
a(I2069
I20
F0.375
S'audible'
p1786
I2
tp1787
as(S'service'
p1788
S'of'
p1789
S'flipkart'
p1790
tp1791
(lp1792
(I387
I1
F-0.625
S'last'
p1793
I0
tp1794
a(I514
I12
F0.875
S'happy'
p1795
I0
tp1796
a(I846
I0
F-0.875
S'poor'
p1797
I0
tp1798
a(I975
I2
I0
S'quick'
p1799
I0
tp1800
a(I1121
I7
F1.0
S'best'
p1801
I0
tp1802
a(I1912
I26
F-1.0
S'bad'
p1803
I0
tp1804
a(I1912
I29
F0.25
S'hype'
p1805
I0
tp1806
as(S'no'
p1807
S'heating'
p1808
S'issue'
p1809
tp1810
(lp1811
(I58
I3
I0
S'big'
p1812
I0
tp1813
a(I93
I23
I0
S'least'
p1814
I0
tp1815
a(I93
I23
F-0.25
S'i'
p1816
I0
tp1817
a(I93
I23
F0.375
S'heating'
p1818
I0
tp1819
a(I114
I13
I0
S'many'
p1820
I0
tp1821
a(I114
I13
F0.375
S'heating'
p1822
I0
tp1823
a(I117
I1
F0.375
S'extensive'
p1824
I0
tp1825
a(I150
I7
F-0.625
S'other'
p1826
I0
tp1827
a(I150
I7
I0
S'biggest'
p1828
I0
tp1829
a(I224
I14
F-0.625
S'new'
p1830
I0
tp1831
a(I324
I5
F-0.5
S'heavy'
p1832
I0
tp1833
a(I466
I1
I0
S'update'
p1834
I0
tp1835
a(I515
I5
F0.75
S'due'
p1836
I0
tp1837
a(I742
I0
F0.375
S'heating'
p1838
I0
tp1839
a(I794
I1
I0
S'big'
p1840
I0
tp1841
a(I850
I0
F-0.778
S'common'
p1842
I0
tp1843
a(I956
I2
I0
S'lag'
p1844
I0
tp1845
a(I956
I2
F-0.75
S'free'
p1846
I0
tp1847
a(I1066
I0
F0.375
S'heating'
p1848
I0
tp1849
a(I1066
I0
F1.0
S'good'
p1850
I0
tp1851
a(I1157
I1
F-0.25
S'i'
p1852
I0
tp1853
a(I1309
I15
F0.375
S'heating'
p1854
I0
tp1855
a(I1357
I0
F-0.75
S'little'
p1856
I0
tp1857
a(I1357
I0
I0
S'update'
p1858
I0
tp1859
a(I1394
I15
F0.375
S'heating'
p1860
I0
tp1861
a(I1456
I2
F0.25
S'worth'
p1862
I0
tp1863
a(I1456
I2
F0.375
S'heating'
p1864
I0
tp1865
a(I1471
I21
F0.375
S'heating'
p1866
I0
tp1867
a(I1539
I0
I0
S't'
p1868
I0
tp1869
a(I1576
I7
F0.625
S'major'
p1870
I0
tp1871
a(I1620
I2
F0.375
S'heating'
p1872
I0
tp1873
a(I1718
I24
F-0.75
S'minor'
p1874
I0
tp1875
a(I1778
I1
F-0.125
S'such'
p1876
I0
tp1877
a(I1778
I1
F0.375
S'heating'
p1878
I0
tp1879
a(I1797
I2
F0.375
S'heating'
p1880
I0
tp1881
a(I1797
I5
F-0.625
S'other'
p1882
I0
tp1883
a(I1797
I5
F0.375
S'heating'
p1884
I0
tp1885
a(I1824
I10
F-0.875
S'bit'
p1886
I0
tp1887
a(I1824
I10
I0
S'big'
p1888
I0
tp1889
a(I1912
I30
F0.125
S'mobile'
p1890
I0
tp1891
a(I1912
I30
F0.125
S'mobile'
p1892
I0
tp1893
a(I1975
I43
F0.5
S'second'
p1894
I0
tp1895
a(I1975
I43
I0
S'update'
p1896
I0
tp1897
a(I1975
I43
F-0.625
S'overheating'
p1898
I0
tp1899
a(I58
I3
I0
g1812
I2
tp1900
a(I65
I0
F-0.5
S'heavy'
p1901
I2
tp1902
a(I65
I7
F0.375
S'heating'
p1903
I2
tp1904
a(I93
I23
I0
g1814
I2
tp1905
a(I93
I23
F-0.25
g1816
I2
tp1906
a(I93
I23
F0.375
g1818
I2
tp1907
a(I114
I13
I0
g1820
I2
tp1908
a(I114
I13
F0.375
g1822
I2
tp1909
a(I117
I1
F0.375
g1824
I2
tp1910
a(I150
I7
F-0.625
g1826
I2
tp1911
a(I150
I7
I0
g1828
I2
tp1912
a(I224
I14
F-0.625
g1830
I2
tp1913
a(I324
I5
F-0.5
g1832
I2
tp1914
a(I458
I4
F-0.625
S'moderate'
p1915
I2
tp1916
a(I466
I1
I0
g1834
I2
tp1917
a(I479
I3
I0
S'serious'
p1918
I2
tp1919
a(I496
I3
F0.375
S'heating'
p1920
I2
tp1921
a(I515
I5
F0.75
g1836
I2
tp1922
a(I523
I57
F-0.625
S'unbearable'
p1923
I2
tp1924
a(I551
I5
F-0.75
S'little'
p1925
I2
tp1926
a(I713
I11
F-0.125
S'such'
p1927
I2
tp1928
a(I713
I11
F0.375
S'heating'
p1929
I2
tp1930
a(I742
I0
F0.375
g1838
I2
tp1931
a(I794
I1
I0
g1840
I2
tp1932
a(I825
I10
F0.375
S'heating'
p1933
I2
tp1934
a(I840
I2
I0
S'big'
p1935
I2
tp1936
a(I850
I0
F-0.778
g1842
I2
tp1937
a(I884
I3
F0.625
S'major'
p1938
I2
tp1939
a(I901
I8
I0
S't'
p1940
I2
tp1941
a(I901
I8
F0.375
S'much'
p1942
I2
tp1943
a(I956
I2
I0
g1844
I2
tp1944
a(I956
I2
F-0.75
g1846
I2
tp1945
a(I1066
I0
F0.375
g1848
I2
tp1946
a(I1066
I0
F1.0
g1850
I2
tp1947
a(I1157
I1
F-0.25
g1852
I2
tp1948
a(I1164
I37
F-0.5
S'called'
p1949
I2
tp1950
a(I1185
I4
F-0.25
S'latest'
p1951
I2
tp1952
a(I1188
I1
I0
S'update'
p1953
I2
tp1954
a(I1188
I1
F0.375
S'heating'
p1955
I2
tp1956
a(I1207
I21
F0.375
S'heating'
p1957
I2
tp1958
a(I1281
I3
I0
S'many'
p1959
I2
tp1960
a(I1309
I15
F0.375
g1854
I2
tp1961
a(I1357
I0
F-0.75
g1856
I2
tp1962
a(I1357
I0
I0
g1858
I2
tp1963
a(I1394
I2
F0.375
S'heating'
p1964
I2
tp1965
a(I1394
I15
F0.375
g1860
I2
tp1966
a(I1408
I4
F-0.25
S'i'
p1967
I2
tp1968
a(I1408
I4
I0
S'talked'
p1969
I2
tp1970
a(I1456
I2
F0.25
g1862
I2
tp1971
a(I1456
I2
F0.375
g1864
I2
tp1972
a(I1471
I21
F0.375
g1866
I2
tp1973
a(I1516
I17
F0.375
S'much'
p1974
I2
tp1975
a(I1516
I17
I0
S'un'
p1976
I2
tp1977
a(I1516
I17
F-0.75
S'bearable'
p1978
I2
tp1979
a(I1539
I0
I0
g1868
I2
tp1980
a(I1566
I12
F0.375
S'heating'
p1981
I2
tp1982
a(I1566
I12
F0.375
S'heating'
p1983
I2
tp1984
a(I1576
I7
F0.625
g1870
I2
tp1985
a(I1620
I2
F0.375
g1872
I2
tp1986
a(I1620
I10
F0.375
S'heating'
p1987
I2
tp1988
a(I1637
I0
F-0.125
S'overall'
p1989
I2
tp1990
a(I1718
I24
F-0.75
g1874
I2
tp1991
a(I1762
I3
F0.375
S'heating'
p1992
I2
tp1993
a(I1778
I1
F-0.125
g1876
I2
tp1994
a(I1778
I1
F0.375
g1878
I2
tp1995
a(I1782
I15
I0
S'snapdragon'
p1996
I2
tp1997
a(I1789
I13
F-0.625
S'real'
p1998
I2
tp1999
a(I1797
I2
F0.375
g1880
I2
tp2000
a(I1797
I5
F-0.625
g1882
I2
tp2001
a(I1797
I5
F0.375
g1884
I2
tp2002
a(I1824
I10
F-0.875
g1886
I2
tp2003
a(I1824
I10
I0
g1888
I2
tp2004
a(I1907
I5
F-0.125
S'present'
p2005
I2
tp2006
a(I1912
I30
F0.125
g1890
I2
tp2007
a(I1912
I30
F0.125
g1892
I2
tp2008
a(I1913
I9
F-0.875
S'poor'
p2009
I2
tp2010
a(I1933
I8
I0
S'big'
p2011
I2
tp2012
a(I1968
I1
F0.625
S'major'
p2013
I2
tp2014
a(I1975
I43
F0.5
g1894
I2
tp2015
a(I1975
I43
I0
g1896
I2
tp2016
a(I1975
I43
F-0.625
g1898
I2
tp2017
a(I1975
I59
I0
S'serious'
p2018
I2
tp2019
a(I2015
I0
F1.0
S'good'
p2020
I2
tp2021
a(I2015
I0
I0
S'big'
p2022
I2
tp2023
a(I2093
I5
F0.5
S'similar'
p2024
I2
tp2025
a(I2199
I0
F0.625
S'fine'
p2026
I2
tp2027
a(I2201
I2
F-0.75
S'little'
p2028
I2
tp2029
as(S'no'
p2030
S'screen'
p2031
S'guard'
p2032
tp2033
(lp2034
(I495
I5
F-0.75
S'free'
p2035
I0
tp2036
a(I495
I5
I0
S'screen'
p2037
I0
tp2038
a(I536
I1
F-0.75
S'unofficial'
p2039
I0
tp2040
a(I536
I1
F-0.75
S'unresponsive'
p2041
I0
tp2042
a(I770
I1
I0
S'screen'
p2043
I0
tp2044
a(I1207
I47
F-0.75
S'free'
p2045
I0
tp2046
a(I1824
I11
I0
S'screen'
p2047
I0
tp2048
a(I1824
I11
F0.375
S'available'
p2049
I0
tp2050
a(I1952
I11
I0
S'screen'
p2051
I0
tp2052
a(I1966
I7
I0
S'screen'
p2053
I0
tp2054
a(I2008
I3
I0
S'screen'
p2055
I0
tp2056
a(I495
I5
F-0.75
g2035
I6
tp2057
a(I495
I5
I0
g2037
I6
tp2058
a(I514
I13
I0
S'screen'
p2059
I6
tp2060
a(I536
I1
F-0.75
g2039
I6
tp2061
a(I536
I1
F-0.75
g2041
I6
tp2062
a(I536
I2
F-0.5
S'original'
p2063
I6
tp2064
a(I703
I12
I0
S'screen'
p2065
I6
tp2066
a(I770
I1
I0
g2043
I6
tp2067
a(I1207
I47
F-0.75
g2045
I6
tp2068
a(I1541
I10
F-0.75
S'free'
p2069
I6
tp2070
a(I1568
I1
I0
S'screen'
p2071
I6
tp2072
a(I1824
I11
I0
g2047
I6
tp2073
a(I1824
I11
F0.375
g2049
I6
tp2074
a(I1952
I11
I0
g2051
I6
tp2075
a(I1966
I7
I0
g2053
I6
tp2076
a(I1975
I53
I0
S'screen'
p2077
I6
tp2078
a(I2008
I3
I0
g2055
I6
tp2079
as(S'in'
p2080
S'low'
p2081
S'light'
p2082
tp2083
(lp2084
(I117
I11
F-0.875
S'low'
p2085
I2
tp2086
a(I123
I0
I0
S'bright'
p2087
I2
tp2088
a(I180
I6
F-0.875
S'low'
p2089
I2
tp2090
a(I324
I9
F-0.875
S'poor'
p2091
I2
tp2092
a(I324
I9
F-0.875
S'low'
p2093
I2
tp2094
a(I324
I9
F-0.75
S'dim'
p2095
I2
tp2096
a(I411
I6
F1.0
S'good'
p2097
I2
tp2098
a(I411
I6
F-0.875
S'low'
p2099
I2
tp2100
a(I525
I4
F-0.875
S'low'
p2101
I2
tp2102
a(I536
I10
F-0.875
S'low'
p2103
I2
tp2104
a(I1082
I2
F-0.875
S'low'
p2105
I2
tp2106
a(I1114
I7
F-0.875
S'low'
p2107
I2
tp2108
a(I1272
I0
I0
S'bright'
p2109
I2
tp2110
a(I1283
I10
I0
S'bright'
p2111
I2
tp2112
a(I1283
I10
F-0.875
S'low'
p2113
I2
tp2114
a(I1573
I5
F-0.875
S'low'
p2115
I2
tp2116
a(I1573
I5
F1.0
S'good'
p2117
I2
tp2118
a(I1621
I3
F-0.875
S'low'
p2119
I2
tp2120
a(I1966
I5
F-0.875
S'low'
p2121
I2
tp2122
a(I1974
I6
F-0.875
S'low'
p2123
I2
tp2124
a(I1974
I6
F0.5
S'visible'
p2125
I2
tp2126
a(I2032
I4
F-0.875
S'low'
p2127
I2
tp2128
a(I2032
I4
F0.125
S'equal'
p2129
I2
tp2130
a(I117
I11
F-0.875
g2085
I2
tp2131
a(I123
I0
I0
g2087
I2
tp2132
a(I180
I6
F-0.875
g2089
I2
tp2133
a(I324
I9
F-0.875
g2091
I2
tp2134
a(I324
I9
F-0.875
g2093
I2
tp2135
a(I324
I9
F-0.75
g2095
I2
tp2136
a(I411
I6
F1.0
g2097
I2
tp2137
a(I411
I6
F-0.875
g2099
I2
tp2138
a(I525
I4
F-0.875
g2101
I2
tp2139
a(I536
I10
F-0.875
g2103
I2
tp2140
a(I1082
I2
F-0.875
g2105
I2
tp2141
a(I1114
I7
F-0.875
g2107
I2
tp2142
a(I1272
I0
I0
g2109
I2
tp2143
a(I1283
I10
I0
g2111
I2
tp2144
a(I1283
I10
F-0.875
g2113
I2
tp2145
a(I1573
I5
F-0.875
g2115
I2
tp2146
a(I1573
I5
F1.0
g2117
I2
tp2147
a(I1621
I3
F-0.875
g2119
I2
tp2148
a(I1687
I1
F-0.875
S'low'
p2149
I2
tp2150
a(I1966
I5
F-0.875
g2121
I2
tp2151
a(I1974
I6
F-0.875
g2123
I2
tp2152
a(I1974
I6
F0.5
g2125
I2
tp2153
a(I2032
I4
F-0.875
g2127
I2
tp2154
a(I2032
I4
F0.125
g2129
I2
tp2155
a(I54
I9
F0.375
S'much'
p2156
I14
tp2157
a(I117
I11
F-0.875
g2085
I14
tp2158
a(I123
I0
I0
g2087
I14
tp2159
a(I180
I6
F-0.875
g2089
I14
tp2160
a(I208
I22
F-0.375
S'adequate'
p2161
I14
tp2162
a(I324
I2
F-0.125
S'torch'
p2163
I14
tp2164
a(I324
I9
F-0.875
g2091
I14
tp2165
a(I324
I9
F-0.875
g2093
I14
tp2166
a(I324
I9
F-0.75
g2095
I14
tp2167
a(I411
I6
F1.0
g2097
I14
tp2168
a(I411
I6
F-0.875
g2099
I14
tp2169
a(I523
I52
F0.5
S'powerful'
p2170
I14
tp2171
a(I525
I4
F-0.875
g2101
I14
tp2172
a(I536
I10
F-0.875
g2103
I14
tp2173
a(I786
I1
I0
S'bright'
p2174
I14
tp2175
a(I812
I1
F1.0
S'good'
p2176
I14
tp2177
a(I878
I35
F0.5
S'stable'
p2178
I14
tp2179
a(I1082
I2
F-0.875
g2105
I14
tp2180
a(I1114
I7
F-0.875
g2107
I14
tp2181
a(I1272
I0
I0
g2109
I14
tp2182
a(I1283
I8
F-0.625
S'natural'
p2183
I14
tp2184
a(I1283
I8
I0
S'bright'
p2185
I14
tp2186
a(I1283
I10
I0
g2111
I14
tp2187
a(I1283
I10
F-0.875
g2113
I14
tp2188
a(I1573
I5
F-0.875
g2115
I14
tp2189
a(I1573
I5
F1.0
g2117
I14
tp2190
a(I1621
I3
F-0.875
g2119
I14
tp2191
a(I1687
I1
F-0.875
g2149
I14
tp2192
a(I1743
I1
F0.875
S'awesome'
p2193
I14
tp2194
a(I1926
I22
F0.375
S'sleek'
p2195
I14
tp2196
a(I1966
I5
F-0.875
g2121
I14
tp2197
a(I1974
I6
F-0.875
g2123
I14
tp2198
a(I1974
I6
F0.5
g2125
I14
tp2199
a(I2032
I4
F-0.875
g2127
I14
tp2200
a(I2032
I4
F0.125
g2129
I14
tp2201
a(I2117
I0
F1.0
S'good'
p2202
I14
tp2203
as(S'customer'
p2204
S'care'
p2205
tp2206
(lp2207
(I359
I1
F-0.375
S'same'
p2208
I12
tp2209
a(I365
I2
F-0.875
S'poor'
p2210
I12
tp2211
a(I1167
I2
I0
S'nearest'
p2212
I12
tp2213
a(I1893
I29
F0.25
S'able'
p2214
I12
tp2215
as(S'wallet'
p2216
S'balance'
p2217
tp2218
(lp2219
(I360
I0
I0
S'promotional'
p2220
I0
tp2221
as(S'heats'
p2222
tp2223
(lp2224
(I1619
I18
F-0.25
S'i'
p2225
I8
tp2226
as(S'a'
p2227
S'little'
p2228
S'bit'
p2229
tp2230
(lp2231
(I54
I8
F-0.75
S'little'
p2232
I0
tp2233
a(I59
I11
F-0.75
S'little'
p2234
I0
tp2235
a(I117
I2
F-0.75
S'little'
p2236
I0
tp2237
a(I117
I2
I0
S'normal'
p2238
I0
tp2239
a(I176
I0
F-0.75
S'little'
p2240
I0
tp2241
a(I176
I0
F0.375
S'heating'
p2242
I0
tp2243
a(I412
I3
F-0.75
S'little'
p2244
I0
tp2245
a(I412
I3
F-0.75
S'warm'
p2246
I0
tp2247
a(I705
I0
F-0.75
S'little'
p2248
I0
tp2249
a(I737
I3
F-0.75
S'little'
p2250
I0
tp2251
a(I737
I3
F-0.5
S'less'
p2252
I0
tp2253
a(I781
I10
F-0.75
S'little'
p2254
I0
tp2255
a(I850
I0
F-0.75
S'little'
p2256
I0
tp2257
a(I1443
I0
F-0.75
S'little'
p2258
I0
tp2259
a(I1443
I0
F0.5
S'similar'
p2260
I0
tp2261
a(I1450
I13
F-0.75
S'little'
p2262
I0
tp2263
a(I1787
I2
F-0.75
S'little'
p2264
I0
tp2265
as(S'build'
p2266
S'quality'
p2267
tp2268
(lp2269
(I81
I2
F0.875
S'great'
p2270
I2
tp2271
a(I81
I2
I0
S'build'
p2272
I2
tp2273
a(I125
I3
I0
S'build'
p2274
I2
tp2275
a(I208
I53
I0
S'build'
p2276
I2
tp2277
a(I208
I53
F1.0
S'good'
p2278
I2
tp2279
a(I211
I1
I0
S'build'
p2280
I2
tp2281
a(I211
I1
I0
S'ergonomic'
p2282
I2
tp2283
a(I237
I33
F0.25
S'shocked'
p2284
I2
tp2285
a(I237
I33
I0
S'build'
p2286
I2
tp2287
a(I356
I4
F-0.375
S'generic'
p2288
I2
tp2289
a(I456
I0
F0.75
S'premium'
p2290
I2
tp2291
a(I456
I0
I0
S'build'
p2292
I2
tp2293
a(I523
I67
F1.0
S'good'
p2294
I2
tp2295
a(I535
I6
F1.0
S'good'
p2296
I2
tp2297
a(I672
I0
I0
S'build'
p2298
I2
tp2299
a(I711
I0
F1.0
S'good'
p2300
I2
tp2301
a(I727
I1
F0.875
S'nice'
p2302
I2
tp2303
a(I884
I1
F0.5
S'slim'
p2304
I2
tp2305
a(I973
I4
F1.0
S'good'
p2306
I2
tp2307
a(I1009
I21
F0.5
S'high'
p2308
I2
tp2309
a(I1015
I2
I0
S'build'
p2310
I2
tp2311
a(I1015
I2
F0.875
S'great'
p2312
I2
tp2313
a(I1031
I1
F0.875
S'awesome'
p2314
I2
tp2315
a(I1108
I4
F1.0
S'good'
p2316
I2
tp2317
a(I1124
I0
F-0.125
S'overall'
p2318
I2
tp2319
a(I1124
I0
F1.0
S'good'
p2320
I2
tp2321
a(I1128
I6
F0.875
S'awesome'
p2322
I2
tp2323
a(I1143
I0
I0
S'build'
p2324
I2
tp2325
a(I1284
I0
F0.875
S'great'
p2326
I2
tp2327
a(I1298
I0
I0
S'build'
p2328
I2
tp2329
a(I1305
I1
F1.0
S'good'
p2330
I2
tp2331
a(I1324
I2
F-0.75
S'little'
p2332
I2
tp2333
a(I1324
I2
F0.5
S'doubtful'
p2334
I2
tp2335
a(I1394
I10
F1.0
S'excellent'
p2336
I2
tp2337
a(I1400
I2
F-0.125
S'overall'
p2338
I2
tp2339
a(I1402
I12
I0
S'build'
p2340
I2
tp2341
a(I1402
I12
F-1.0
S'bad'
p2342
I2
tp2343
a(I1402
I19
I0
S'build'
p2344
I2
tp2345
a(I1404
I3
F1.0
S'good'
p2346
I2
tp2347
a(I1514
I8
F0.5
S'slim'
p2348
I2
tp2349
a(I1514
I8
F0.75
S'easy'
p2350
I2
tp2351
a(I1606
I7
F0.5
S'high'
p2352
I2
tp2353
a(I1627
I16
F1.0
S'good'
p2354
I2
tp2355
a(I1627
I16
F0.375
S'compact'
p2356
I2
tp2357
a(I1638
I10
I0
g299
I2
tp2358
a(I1643
I0
F1.0
S'good'
p2359
I2
tp2360
a(I1643
I0
F1.0
S'excellent'
p2361
I2
tp2362
a(I1730
I1
I0
S'build'
p2363
I2
tp2364
a(I1730
I1
F0.875
S'awesome'
p2365
I2
tp2366
a(I1733
I0
F1.0
S'excellent'
p2367
I2
tp2368
a(I1744
I16
I0
S'build'
p2369
I2
tp2370
a(I1782
I12
I0
S'build'
p2371
I2
tp2372
a(I1782
I12
F1.0
S'good'
p2373
I2
tp2374
a(I2027
I4
F-0.875
S'low'
p2375
I2
tp2376
a(I2086
I8
I0
S'build'
p2377
I2
tp2378
a(I2086
I8
F1.0
S'good'
p2379
I2
tp2380
as(S'well'
p2381
tp2382
(lp2383
(I1237
I45
F0.625
S'first'
p2384
I9
tp2385
as(S'camera'
p2386
S'and'
p2387
S'battery'
p2388
tp2389
(lp2390
(I382
I0
F1.0
S'excellent'
p2391
I0
tp2392
a(I382
I0
F1.0
S'excellent'
p2393
I0
tp2394
a(I561
I24
F0.875
S'decent'
p2395
I0
tp2396
a(I611
I1
F0.875
S'nice'
p2397
I0
tp2398
a(I611
I1
I0
S'more'
p2399
I0
tp2400
a(I799
I1
F1.0
g528
I0
tp2401
a(I799
I1
I0
g530
I0
tp2402
a(I1314
I2
F0.875
S'awesome'
p2403
I0
tp2404
a(I1730
I0
F-0.875
S'low'
p2405
I0
tp2406
a(I1730
I0
F0.75
S'due'
p2407
I0
tp2408
a(I2198
I10
F1.0
g679
I0
tp2409
a(I2198
I10
F1.0
g681
I0
tp2410
a(I2198
I10
F1.0
S'good'
p2411
I0
tp2412
as(S'design'
p2413
tp2414
(lp2415
(I81
I3
F0.5
S'material'
p2416
I4
tp2417
a(I117
I42
I0
S'minimal'
p2418
I4
tp2419
a(I224
I3
F0.5
S'slim'
p2420
I4
tp2421
a(I224
I3
F0.875
S'brilliant'
p2422
I4
tp2423
a(I239
I10
F0.375
S'compact'
p2424
I4
tp2425
a(I385
I5
F0.375
S'sleek'
p2426
I4
tp2427
a(I385
I5
I0
S'light'
p2428
I4
tp2429
a(I391
I20
F0.375
S'sleek'
p2430
I4
tp2431
a(I411
I1
F0.375
S'sleek'
p2432
I4
tp2433
a(I411
I1
F0.625
S'smooth'
p2434
I4
tp2435
a(I413
I0
I0
S'metallic'
p2436
I4
tp2437
a(I522
I10
I0
S'looks'
p2438
I4
tp2439
a(I603
I0
F1.0
S'best'
p2440
I4
tp2441
a(I639
I0
F0.625
S'slick'
p2442
I4
tp2443
a(I683
I3
F0.875
S'happy'
p2444
I4
tp2445
a(I684
I12
F1.0
S'best'
p2446
I4
tp2447
a(I921
I0
F-0.625
S'average'
p2448
I4
tp2449
a(I997
I0
F1.0
S'good'
p2450
I4
tp2451
a(I1072
I0
F1.0
S'good'
p2452
I4
tp2453
a(I1154
I0
F1.0
S'soft'
p2454
I4
tp2455
a(I1171
I4
F0.25
S'able'
p2456
I4
tp2457
a(I1172
I6
F-0.5
S'disappointed'
p2458
I4
tp2459
a(I1207
I10
I0
S'pretty'
p2460
I4
tp2461
a(I1207
I10
F0.5
S'slim'
p2462
I4
tp2463
a(I1267
I12
F0.875
S'decent'
p2464
I4
tp2465
a(I1287
I1
F0.75
S'beautiful'
p2466
I4
tp2467
a(I1437
I0
F0.5
S'elegant'
p2468
I4
tp2469
a(I1741
I1
F1.0
S'best'
p2470
I4
tp2471
a(I1744
I16
I-100
S'sleeky'
p2472
I4
tp2473
a(I1772
I6
F-0.625
S'new'
p2474
I4
tp2475
a(I1856
I3
F0.875
S'awesome'
p2476
I4
tp2477
a(I1926
I3
I0
S'stunning'
p2478
I4
tp2479
a(I2088
I0
F0.875
S'nice'
p2480
I4
tp2481
a(I2174
I0
F1.0
S'good'
p2482
I4
tp2483
a(I2184
I1
F0.375
S'sleek'
p2484
I4
tp2485
a(I2184
I1
I0
S'cool'
p2486
I4
tp2487
a(I2188
I0
F0.5
S'elegant'
p2488
I4
tp2489
a(I2192
I0
F1.0
S'good'
p2490
I4
tp2491
a(I2194
I4
F1.0
S'good'
p2492
I4
tp2493
as(S'available'
p2494
S'in'
p2495
S'market'
p2496
tp2497
(lp2498
(I221
I7
F0.75
S'proper'
p2499
I0
tp2500
a(I221
I7
F0.375
S'available'
p2501
I0
tp2502
a(I2009
I4
F0.375
S'available'
p2503
I0
tp2504
as(S'for'
p2505
g33
S'days'
p2506
tp2507
(lp2508
(I382
I6
F0.5
S'vigorous'
p2509
I0
tp2510
a(I1207
I3
I0
S'odd'
p2511
I0
tp2512
a(I1907
I0
I0
S'few'
p2513
I0
tp2514
a(I1952
I9
I0
S'replacement'
p2515
I0
tp2516
a(I6
I0
F-0.875
S'fake'
p2517
I2
tp2518
a(I83
I2
F0.375
S'full'
p2519
I2
tp2520
a(I382
I6
F0.5
g2509
I2
tp2521
a(I847
I0
I0
S'more'
p2522
I2
tp2523
a(I926
I0
F0.125
S'mobile'
p2524
I2
tp2525
a(I1081
I2
I0
S't'
p2526
I2
tp2527
a(I1081
I2
F-0.625
S'last'
p2528
I2
tp2529
a(I1081
I2
F0.375
S'full'
p2530
I2
tp2531
a(I1207
I3
I0
g2511
I2
tp2532
a(I1907
I0
I0
g2513
I2
tp2533
a(I1952
I9
I0
g2515
I2
tp2534
as(S'sd'
p2535
S'card'
p2536
S'slot'
p2537
tp2538
(lp2539
(I454
I1
F-0.25
S'external'
p2540
I0
tp2541
a(I609
I0
F0.125
S'card'
p2542
I0
tp2543
a(I387
I4
I0
S'n'
p2544
I0
tp2545
a(I417
I5
F0.5
S'beware'
p2546
I0
tp2547
a(I609
I0
F0.125
g2542
I0
tp2548
a(I2018
I0
F-0.5
S'excess'
p2549
I0
tp2550
a(I2103
I1
F-0.25
S'external'
p2551
I0
tp2552
a(I2103
I1
F-0.625
S'surprising'
p2553
I0
tp2554
as(S'pros'
p2555
S'and'
p2556
S'cons'
p2557
tp2558
(lp2559
(I224
I7
F0.625
S'major'
p2560
I0
tp2561
a(I326
I0
F1.0
S'better'
p2562
I0
tp2563
a(I1627
I19
F0.5
S'elegant'
p2564
I2
tp2565
a(I159
I18
F0.625
S'major'
p2566
I8
tp2567
a(I224
I7
F0.625
g2560
I8
tp2568
a(I282
I18
F-0.5
S'less'
p2569
I8
tp2570
a(I324
I0
F0.125
S'mobile'
p2571
I8
tp2572
a(I324
I0
F0.625
S'certain'
p2573
I8
tp2574
a(I326
I0
F1.0
g2562
I8
tp2575
a(I523
I33
I0
S'own'
p2576
I8
tp2577
as(S'replacement'
p2578
tp2579
(lp2580
(I224
I13
F-0.625
S'new'
p2581
I14
tp2582
a(I238
I12
I0
S'nd'
p2583
I14
tp2584
a(I238
I32
I0
S'update'
p2585
I14
tp2586
a(I357
I4
F-0.625
S'new'
p2587
I14
tp2588
a(I362
I3
F-0.625
S'new'
p2589
I14
tp2590
a(I388
I40
F-0.25
S'i'
p2591
I14
tp2592
a(I408
I2
F-0.75
S'defective'
p2593
I14
tp2594
a(I534
I12
I0
S'immediate'
p2595
I14
tp2596
a(I561
I7
I0
S't'
p2597
I14
tp2598
a(I912
I2
F-0.25
S'post'
p2599
I14
tp2600
a(I1476
I9
I0
S'only'
p2601
I14
tp2602
a(I1898
I7
F0.5
S'ready'
p2603
I14
tp2604
a(I1903
I1
F-0.75
S'unable'
p2605
I14
tp2606
a(I1918
I5
I0
S't'
p2607
I14
tp2608
as(S'to'
p2609
S'service'
p2610
S'center'
p2611
tp2612
(lp2613
(I68
I13
I0
S'local'
p2614
I0
tp2615
a(I68
I20
F-0.625
S'new'
p2616
I0
tp2617
a(I68
I20
F0.125
S'mobile'
p2618
I0
tp2619
a(I111
I1
I0
S'rs'
p2620
I0
tp2621
a(I388
I13
I0
S'hot'
p2622
I0
tp2623
a(I956
I7
F0.125
S'mobile'
p2624
I0
tp2625
a(I1090
I7
F-0.25
S'i'
p2626
I0
tp2627
a(I1186
I23
F0.5
S'suitable'
p2628
I0
tp2629
a(I1933
I15
F-0.25
S'past'
p2630
I0
tp2631
a(I1966
I37
F0.75
S'proper'
p2632
I0
tp2633
a(I1971
I3
I0
S'local'
p2634
I0
tp2635
a(I68
I13
I0
g2614
I5
tp2636
a(I68
I16
I0
S'many'
p2637
I5
tp2638
a(I68
I20
F-0.625
g2616
I5
tp2639
a(I68
I20
F0.125
g2618
I5
tp2640
a(I111
I1
I0
g2620
I5
tp2641
a(I381
I0
I0
S'few'
p2642
I5
tp2643
a(I388
I13
I0
g2622
I5
tp2644
a(I388
I18
I0
S'serious'
p2645
I5
tp2646
a(I956
I7
F0.125
g2624
I5
tp2647
a(I959
I15
I0
S'nearest'
p2648
I5
tp2649
a(I1090
I7
F-0.25
g2626
I5
tp2650
a(I1186
I23
F0.5
g2628
I5
tp2651
a(I1757
I7
I0
S'chennai'
p2652
I5
tp2653
a(I1757
I7
I-100
S'heactic'
p2654
I5
tp2655
a(I1933
I15
F-0.25
g2630
I5
tp2656
a(I1966
I37
F0.75
g2632
I5
tp2657
a(I1971
I3
I0
g2634
I5
tp2658
as(S'no'
p2659
S'heating'
p2660
S'problem'
p2661
tp2662
(lp2663
(I1011
I0
F0.875
S'happy'
p2664
I1
tp2665
a(I1054
I3
I0
S'serious'
p2666
I1
tp2667
a(I1207
I34
I0
S'solve'
p2668
I1
tp2669
a(I1471
I14
F0.375
S'much'
p2670
I1
tp2671
a(I1913
I0
F-0.375
S'same'
p2672
I1
tp2673
a(I1913
I0
F0.125
S'mobile'
p2674
I1
tp2675
a(I2108
I6
I0
S'serious'
p2676
I1
tp2677
a(I123
I4
I0
S'u'
p2678
I6
tp2679
a(I148
I0
F0.375
S'much'
p2680
I6
tp2681
a(I737
I11
F-0.75
S'little'
p2682
I6
tp2683
a(I825
I16
F-0.25
S'i'
p2684
I6
tp2685
a(I825
I16
I0
S't'
p2686
I6
tp2687
a(I913
I7
I0
S'many'
p2688
I6
tp2689
a(I974
I0
F-0.875
S'small'
p2690
I6
tp2691
a(I1011
I0
F0.875
g2664
I6
tp2692
a(I1054
I3
I0
g2666
I6
tp2693
a(I1112
I0
F0.625
S'major'
p2694
I6
tp2695
a(I1207
I34
I0
g2668
I6
tp2696
a(I1305
I17
F0.5
S'technical'
p2697
I6
tp2698
a(I1471
I14
F0.375
g2670
I6
tp2699
a(I1501
I11
I0
S'mad'
p2700
I6
tp2701
a(I1606
I9
F0.5
S'slight'
p2702
I6
tp2703
a(I1606
I9
I0
S'more'
p2704
I6
tp2705
a(I1665
I1
F0.625
S'major'
p2706
I6
tp2707
a(I1690
I15
F-0.5
S'heavy'
p2708
I6
tp2709
a(I1723
I5
F1.0
S'good'
p2710
I6
tp2711
a(I1889
I1
F0.125
S'mobile'
p2712
I6
tp2713
a(I1913
I0
F-0.375
g2672
I6
tp2714
a(I1913
I0
F0.125
g2674
I6
tp2715
a(I2015
I0
F1.0
g2020
I6
tp2716
a(I2016
I0
F-0.5
S'less'
p2717
I6
tp2718
a(I2016
I0
F-0.5
S'less'
p2719
I6
tp2720
a(I2027
I1
F-0.25
S'i'
p2721
I6
tp2722
a(I2027
I1
F-0.875
S'wrong'
p2723
I6
tp2724
a(I2031
I39
F0.75
S'upper'
p2725
I6
tp2726
a(I2108
I6
I0
g2676
I6
tp2727
as(S'no'
p2728
S'heating'
p2729
S'issues'
p2730
tp2731
(lp2732
(I117
I1
F0.375
g1824
I0
tp2733
a(I224
I14
F-0.625
g1830
I0
tp2734
a(I224
I14
F-0.375
S'various'
p2735
I0
tp2736
a(I224
I14
F-0.625
S'other'
p2737
I0
tp2738
a(I224
I14
F-0.875
S'small'
p2739
I0
tp2740
a(I1541
I0
F0.375
S'usage'
p2741
I0
tp2742
a(I1541
I4
I0
S'nil'
p2743
I0
tp2744
a(I117
I1
F0.375
g1824
I0
tp2745
a(I224
I14
F-0.625
g1830
I0
tp2746
a(I224
I14
F-0.375
g2735
I0
tp2747
a(I224
I14
F-0.625
g2737
I0
tp2748
a(I224
I14
F-0.875
g2739
I0
tp2749
a(I683
I3
I0
S'many'
p2750
I0
tp2751
a(I1408
I4
F-0.25
g1967
I0
tp2752
a(I1408
I4
I0
g1969
I0
tp2753
a(I1541
I0
F0.375
g2741
I0
tp2754
a(I1541
I4
I0
g2743
I0
tp2755
a(I1671
I7
F0.125
S'signal'
p2756
I0
tp2757
a(I1671
I12
F0.125
S'signal'
p2758
I0
tp2759
a(I1718
I38
F-0.5
S'disappointed'
p2760
I0
tp2761
a(I1718
I38
I0
S'many'
p2762
I0
tp2763
a(I1913
I9
F-0.875
g2009
I0
tp2764
a(I2201
I2
F-0.75
g2028
I0
tp2765
a(I193
I6
I0
S'most'
p2766
I4
tp2767
a(I224
I13
F-0.375
S'same'
p2768
I4
tp2769
a(I224
I14
F-0.375
g2735
I4
tp2770
a(I224
I14
F-0.625
g2737
I4
tp2771
a(I224
I14
F-0.875
g2739
I4
tp2772
a(I248
I8
I0
S'more'
p2773
I4
tp2774
a(I419
I2
I0
S'many'
p2775
I4
tp2776
a(I664
I13
F0.125
S'following'
p2777
I4
tp2778
a(I683
I3
I0
g2750
I4
tp2779
a(I710
I36
I0
S'critical'
p2780
I4
tp2781
a(I1010
I3
F-0.5
S'less'
p2782
I4
tp2783
a(I1186
I3
F-0.625
S'other'
p2784
I4
tp2785
a(I1298
I4
F0.625
S'major'
p2786
I4
tp2787
a(I1402
I16
F-0.375
S'same'
p2788
I4
tp2789
a(I1541
I0
F0.375
g2741
I4
tp2790
a(I1541
I4
I0
g2743
I4
tp2791
a(I1671
I7
F0.125
g2756
I4
tp2792
a(I1671
I12
F0.125
g2758
I4
tp2793
a(I1718
I38
F-0.5
g2760
I4
tp2794
a(I1718
I38
I0
g2762
I4
tp2795
a(I1884
I1
I0
S'many'
p2796
I4
tp2797
a(I1884
I2
I0
S'different'
p2798
I4
tp2799
a(I1894
I18
F0.625
S'major'
p2800
I4
tp2801
a(I1897
I23
I0
S'many'
p2802
I4
tp2803
a(I1897
I23
F-0.625
S'other'
p2804
I4
tp2805
a(I2031
I38
I0
S'multiple'
p2806
I4
tp2807
a(I2102
I10
I-100
S'inf'
p2808
I4
tp2809
a(I2102
I10
F0.625
S'taking'
p2810
I4
tp2811
a(I2102
I10
F0.375
S'available'
p2812
I4
tp2813
a(I2118
I0
F-0.375
S'various'
p2814
I4
tp2815
a(I2132
I11
F0.625
S'major'
p2816
I4
tp2817
a(I2132
I11
F-0.75
S'minor'
p2818
I4
tp2819
a(I2157
I5
F1.0
S'good'
p2820
I4
tp2821
as(S'excellent'
p2822
S'battery'
p2823
S'backup'
p2824
tp2825
(lp2826
(I95
I0
F1.0
S'excellent'
p2827
I0
tp2828
a(I336
I1
F1.0
S'excellent'
p2829
I0
tp2830
a(I429
I0
F1.0
S'excellent'
p2831
I0
tp2832
a(I515
I37
F1.0
S'excellent'
p2833
I0
tp2834
a(I553
I0
F1.0
S'excellent'
p2835
I0
tp2836
a(I626
I1
F1.0
S'excellent'
p2837
I0
tp2838
a(I1092
I0
F1.0
S'excellent'
p2839
I0
tp2840
a(I1271
I0
F1.0
S'excellent'
p2841
I0
tp2842
a(I1780
I2
F-0.125
S'overall'
p2843
I4
tp2844
as(S'sound'
p2845
S'quality'
p2846
tp2847
(lp2848
(I63
I1
F-0.875
S'poor'
p2849
I5
tp2850
a(I63
I1
F0.75
S'sound'
p2851
I5
tp2852
a(I63
I1
F-0.875
S'poor'
p2853
I5
tp2854
a(I80
I13
F0.75
S'sound'
p2855
I5
tp2856
a(I80
I13
F-0.875
S'poor'
p2857
I5
tp2858
a(I109
I11
F0.75
S'sound'
p2859
I5
tp2860
a(I109
I11
F-1.0
S'bad'
p2861
I5
tp2862
a(I117
I29
F0.75
S'sound'
p2863
I5
tp2864
a(I117
I29
F-1.0
S'bad'
p2865
I5
tp2866
a(I117
I30
F-0.875
S'poor'
p2867
I5
tp2868
a(I117
I30
F0.75
S'sound'
p2869
I5
tp2870
a(I117
I30
I0
S'isn'
p2871
I5
tp2872
a(I117
I31
F0.75
S'sound'
p2873
I5
tp2874
a(I117
I31
F0.875
S'great'
p2875
I5
tp2876
a(I117
I31
F-1.0
S'bad'
p2877
I5
tp2878
a(I145
I0
F0.75
S'sound'
p2879
I5
tp2880
a(I149
I4
F0.75
S'sound'
p2881
I5
tp2882
a(I149
I4
F-0.875
S'poor'
p2883
I5
tp2884
a(I235
I5
F-0.875
S'pathetic'
p2885
I5
tp2886
a(I376
I3
F-0.875
S'low'
p2887
I5
tp2888
a(I385
I20
F0.75
g263
I5
tp2889
a(I385
I20
F1.0
g265
I5
tp2890
a(I472
I1
F0.75
g269
I5
tp2891
a(I532
I8
F0.75
S'sound'
p2892
I5
tp2893
a(I532
I8
F-0.125
S'such'
p2894
I5
tp2895
a(I532
I8
F-0.875
S'low'
p2896
I5
tp2897
a(I532
I8
F0.375
S'full'
p2898
I5
tp2899
a(I532
I11
F0.75
S'sound'
p2900
I5
tp2901
a(I536
I15
F0.375
S'sleek'
p2902
I5
tp2903
a(I536
I15
F0.75
S'sound'
p2904
I5
tp2905
a(I620
I2
F0.75
S'sound'
p2906
I5
tp2907
a(I620
I2
F0.625
S'fine'
p2908
I5
tp2909
a(I787
I4
F0.75
S'sound'
p2910
I5
tp2911
a(I883
I7
F0.75
S'sound'
p2912
I5
tp2913
a(I883
I7
F1.0
S'good'
p2914
I5
tp2915
a(I920
I0
F-0.625
S'average'
p2916
I5
tp2917
a(I920
I0
F0.75
S'sound'
p2918
I5
tp2919
a(I973
I4
F1.0
g2306
I5
tp2920
a(I1032
I9
F0.75
S'sound'
p2921
I5
tp2922
a(I1032
I9
I0
S'clear'
p2923
I5
tp2924
a(I1032
I9
F1.0
S'good'
p2925
I5
tp2926
a(I1135
I6
F-1.0
S'worst'
p2927
I5
tp2928
a(I1164
I43
F0.75
S'sound'
p2929
I5
tp2930
a(I1164
I43
F0.5
S'crisp'
p2931
I5
tp2932
a(I1186
I16
F0.75
S'sound'
p2933
I5
tp2934
a(I1186
I16
F1.0
S'good'
p2935
I5
tp2936
a(I1189
I4
F0.75
S'sound'
p2937
I5
tp2938
a(I1189
I4
F1.0
S'good'
p2939
I5
tp2940
a(I1348
I0
F0.75
g291
I5
tp2941
a(I1433
I0
F0.75
S'sound'
p2942
I5
tp2943
a(I1523
I0
F0.75
S'sound'
p2944
I5
tp2945
a(I1627
I22
F0.75
S'sound'
p2946
I5
tp2947
a(I1627
I22
F-0.875
S'poor'
p2948
I5
tp2949
a(I1647
I0
I0
S'audio'
p2950
I5
tp2951
a(I1647
I0
F-0.778
S'mediocre'
p2952
I5
tp2953
a(I1700
I4
F-0.875
S'poor'
p2954
I5
tp2955
a(I1700
I4
F0.75
S'sound'
p2956
I5
tp2957
a(I1782
I14
F0.875
S'happy'
p2958
I5
tp2959
a(I1782
I14
F0.75
S'sound'
p2960
I5
tp2961
a(I1789
I6
F0.75
S'sound'
p2962
I5
tp2963
a(I1789
I6
F0.375
S'much'
p2964
I5
tp2965
a(I2018
I1
F0.75
S'sound'
p2966
I5
tp2967
a(I2018
I1
F1.0
S'good'
p2968
I5
tp2969
a(I2018
I1
F1.0
S'good'
p2970
I5
tp2971
a(I2031
I18
F1.0
S'good'
p2972
I5
tp2973
a(I2052
I2
F1.0
S'good'
p2974
I5
tp2975
a(I2096
I0
F1.0
S'good'
p2976
I5
tp2977
a(I38
I0
F0.875
S'great'
p2978
I15
tp2979
a(I38
I0
F0.375
S'ok'
p2980
I15
tp2981
a(I56
I1
I0
S'odd'
p2982
I15
tp2983
a(I89
I0
F-0.625
S'average'
p2984
I15
tp2985
a(I109
I13
F-0.875
S'poor'
p2986
I15
tp2987
a(I110
I1
F-0.25
S'i'
p2988
I15
tp2989
a(I117
I28
F-0.5
S'less'
p2990
I15
tp2991
a(I128
I10
F-0.875
S'low'
p2992
I15
tp2993
a(I179
I2
I0
S'clear'
p2994
I15
tp2995
a(I235
I6
F0.5
S'maximum'
p2996
I15
tp2997
a(I248
I7
F-0.875
S'low'
p2998
I15
tp2999
a(I249
I48
F-0.875
S'low'
p3000
I15
tp3001
a(I324
I6
F1.0
S'good'
p3002
I15
tp3003
a(I376
I3
F-0.875
g2887
I15
tp3004
a(I391
I7
F0.375
S'ok'
p3005
I15
tp3006
a(I401
I4
I0
S'clear'
p3007
I15
tp3008
a(I515
I14
F-0.875
S'low'
p3009
I15
tp3010
a(I515
I15
F-0.875
S'low'
p3011
I15
tp3012
a(I532
I8
F-0.875
g2896
I15
tp3013
a(I532
I8
F0.375
g2898
I15
tp3014
a(I539
I7
F-0.875
S'low'
p3015
I15
tp3016
a(I544
I1
F-0.875
S'low'
p3017
I15
tp3018
a(I572
I1
F-0.625
S'quiet'
p3019
I15
tp3020
a(I572
I1
F-0.875
S'low'
p3021
I15
tp3022
a(I598
I1
F-0.125
S'cant'
p3023
I15
tp3024
a(I684
I21
F1.0
S'good'
p3025
I15
tp3026
a(I709
I1
F0.375
S'full'
p3027
I15
tp3028
a(I776
I0
F-0.875
S'poor'
p3029
I15
tp3030
a(I875
I0
I0
S'clear'
p3031
I15
tp3032
a(I901
I6
I-100
S'execllent'
p3033
I15
tp3034
a(I976
I0
F1.0
S'good'
p3035
I15
tp3036
a(I976
I0
F0.875
S'decent'
p3037
I15
tp3038
a(I987
I55
F-0.5
S'slow'
p3039
I15
tp3040
a(I1041
I0
F-0.875
S'low'
p3041
I15
tp3042
a(I1088
I4
F-0.875
S'low'
p3043
I15
tp3044
a(I1165
I2
F-0.875
S'low'
p3045
I15
tp3046
a(I1307
I2
I0
S'n'
p3047
I15
tp3048
a(I1307
I2
F1.0
S'good'
p3049
I15
tp3050
a(I1383
I0
F1.0
S'good'
p3051
I15
tp3052
a(I1429
I2
F1.0
S'good'
p3053
I15
tp3054
a(I1433
I1
F-0.875
S'pathetic'
p3055
I15
tp3056
a(I1450
I18
F0.5
S'higher'
p3057
I15
tp3058
a(I1452
I0
F-0.875
S'low'
p3059
I15
tp3060
a(I1516
I5
F1.0
S'best'
p3061
I15
tp3062
a(I1620
I9
F-0.875
S'low'
p3063
I15
tp3064
a(I1703
I4
F-0.875
S'low'
p3065
I15
tp3066
a(I1744
I23
F-0.875
S'low'
p3067
I15
tp3068
a(I1813
I2
F1.0
S'good'
p3069
I15
tp3070
a(I1813
I3
I0
S'crystal'
p3071
I15
tp3072
a(I1813
I3
I0
S'clear'
p3073
I15
tp3074
a(I1926
I16
F-0.5
S'loud'
p3075
I15
tp3076
a(I1959
I0
F-0.875
S'low'
p3077
I15
tp3078
a(I1986
I0
I0
S'clear'
p3079
I15
tp3080
a(I2031
I18
F1.0
g2972
I15
tp3081
a(I2052
I2
F1.0
g2974
I15
tp3082
a(I2096
I0
F1.0
g2976
I15
tp3083
as(S'finger'
p3084
S'print'
p3085
tp3086
(lp3087
(I68
I0
I0
S'finger'
p3088
I0
tp3089
a(I745
I0
I0
S'finger'
p3090
I0
tp3091
as(S'mi4i'
p3092
tp3093
(lp3094
(I5
I0
F0.125
S'mobile'
p3095
I0
tp3096
a(I110
I14
F-0.625
S'new'
p3097
I0
tp3098
a(I110
I14
I0
S'few'
p3099
I0
tp3100
a(I159
I15
F1.0
S'good'
p3101
I0
tp3102
a(I276
I3
F0.375
S'reachable'
p3103
I0
tp3104
a(I324
I0
F0.875
S'awesome'
p3105
I0
tp3106
a(I324
I18
F-0.125
S'overall'
p3107
I0
tp3108
a(I356
I0
F-0.625
S'new'
p3109
I0
tp3110
a(I494
I26
F1.0
S'good'
p3111
I0
tp3112
a(I791
I0
F0.125
S'mobile'
p3113
I0
tp3114
a(I852
I0
F0.75
S'proud'
p3115
I0
tp3116
a(I884
I0
F0.875
S'awesome'
p3117
I0
tp3118
a(I987
I8
F0.125
S'equal'
p3119
I0
tp3120
a(I1004
I4
I0
S'screen'
p3121
I0
tp3122
a(I1189
I11
F1.0
S'better'
p3123
I0
tp3124
a(I1195
I18
F-0.375
S'same'
p3125
I0
tp3126
a(I1220
I2
F0.875
S'simple'
p3127
I0
tp3128
a(I1221
I1
F0.75
S'fantastic'
p3129
I0
tp3130
a(I1221
I1
F1.0
S'good'
p3131
I0
tp3132
a(I1286
I14
F0.875
S'happy'
p3133
I0
tp3134
a(I1391
I36
I0
S'light'
p3135
I0
tp3136
a(I1450
I19
F0.875
S'awesome'
p3137
I0
tp3138
a(I1450
I23
F1.0
S'good'
p3139
I0
tp3140
a(I1450
I27
I0
S'more'
p3141
I0
tp3142
a(I1455
I0
F0.5
S'dual'
p3143
I0
tp3144
a(I1493
I6
F0.875
S'superb'
p3145
I0
tp3146
a(I1552
I0
F0.25
S'use'
p3147
I0
tp3148
a(I1584
I0
F1.0
S'better'
p3149
I0
tp3150
a(I1788
I13
I0
S'more'
p3151
I0
tp3152
a(I1856
I5
F-0.125
S'overall'
p3153
I0
tp3154
a(I1856
I5
F0.25
S'worth'
p3155
I0
tp3156
a(I1874
I6
I-100
S'filpkart'
p3157
I0
tp3158
a(I1874
I6
F0.375
S'available'
p3159
I0
tp3160
a(I1875
I3
F-0.375
S'same'
p3161
I0
tp3162
a(I1894
I17
F-0.5
S'negligent'
p3163
I0
tp3164
a(I1975
I36
F0.625
S'first'
p3165
I0
tp3166
a(I1975
I36
I0
S'update'
p3167
I0
tp3168
a(I2019
I13
F0.875
S'great'
p3169
I0
tp3170
a(I2031
I5
F1.0
S'good'
p3171
I0
tp3172
a(I2069
I7
F0.625
S'live'
p3173
I0
tp3174
a(I2102
I9
F1.0
S'best'
p3175
I0
tp3176
a(I2102
I9
F1.0
S'good'
p3177
I0
tp3178
as(S'looks'
p3179
tp3180
(lp3181
(I126
I5
I0
S'cool'
p3182
I14
tp3183
a(I239
I16
F0.75
S'beautiful'
p3184
I14
tp3185
a(I514
I8
F1.0
S'good'
p3186
I14
tp3187
a(I594
I0
F0.5
S'elegant'
p3188
I14
tp3189
a(I653
I4
F0.875
S'amazing'
p3190
I14
tp3191
a(I713
I18
F0.5
S'slim'
p3192
I14
tp3193
a(I713
I18
F-0.625
S'average'
p3194
I14
tp3195
a(I737
I8
I-100
S'stilish'
p3196
I14
tp3197
a(I759
I2
F0.875
S'great'
p3198
I14
tp3199
a(I781
I2
F0.375
S'compact'
p3200
I14
tp3201
a(I781
I2
F0.5
S'thin'
p3202
I14
tp3203
a(I825
I18
F0.125
S'mobile'
p3204
I14
tp3205
a(I1009
I21
F0.75
S'premium'
p3206
I14
tp3207
a(I1015
I0
F0.75
S'premium'
p3208
I14
tp3209
a(I1130
I11
F1.0
S'good'
p3210
I14
tp3211
a(I1207
I39
F-0.125
S'overall'
p3212
I14
tp3213
a(I1284
I3
F0.875
S'awesome'
p3214
I14
tp3215
a(I1309
I3
F1.0
S'good'
p3216
I14
tp3217
a(I1454
I0
F-0.125
S'overall'
p3218
I14
tp3219
a(I1510
I2
F0.875
S'nice'
p3220
I14
tp3221
a(I1744
I16
F0.75
S'outstanding'
p3222
I14
tp3223
a(I1892
I20
F0.875
S'nice'
p3224
I14
tp3225
a(I1892
I20
I0
S'impressed'
p3226
I14
tp3227
a(I1951
I0
F1.0
S'good'
p3228
I14
tp3229
as(S'after'
p3230
S'sale'
p3231
S'service'
p3232
tp3233
(lp3234
(I68
I15
F-0.875
S'pathetic'
p3235
I0
tp3236
a(I778
I4
I0
S'most'
p3237
I0
tp3238
a(I899
I5
F-0.875
S'worried'
p3239
I0
tp3240
a(I1690
I11
F-0.375
S'flawless'
p3241
I0
tp3242
as(S'warm'
p3243
S'during'
p3244
S'browsing'
p3245
tp3246
(lp3247
(I97
I0
I0
S'light'
p3248
I0
tp3249
a(I97
I0
F-0.25
S'i'
p3250
I0
tp3251
a(I98
I0
F0.5
S'checked'
p3252
I0
tp3253
a(I555
I0
I0
S'light'
p3254
I0
tp3255
a(I556
I0
F0.5
S'checked'
p3256
I0
tp3257
a(I1094
I0
I0
S'light'
p3258
I0
tp3259
a(I1094
I0
F-0.25
S'i'
p3260
I0
tp3261
a(I1095
I0
F0.5
S'checked'
p3262
I0
tp3263
as(S'service'
p3264
S'by'
p3265
S'flipkart'
p3266
tp3267
(lp3268
(I147
I1
F0.125
S'usual'
p3269
I0
tp3270
a(I147
I1
F0.875
S'great'
p3271
I0
tp3272
a(I514
I12
F0.875
g1795
I0
tp3273
a(I1450
I21
F1.0
S'excellent'
p3274
I0
tp3275
a(I2009
I10
F0.875
S'great'
p3276
I0
tp3277
as(S'first'
p3278
S'flash'
p3279
S'sale'
p3280
tp3281
(lp3282
(I155
I11
F0.625
S'first'
p3283
I0
tp3284
a(I238
I37
F0.625
S'first'
p3285
I0
tp3286
a(I238
I37
F-0.5
S'flash'
p3287
I0
tp3288
a(I535
I7
F0.625
S'first'
p3289
I0
tp3290
a(I535
I7
F-0.5
S'flash'
p3291
I0
tp3292
a(I729
I4
F-0.5
S'flash'
p3293
I0
tp3294
a(I845
I2
F0.625
S'first'
p3295
I0
tp3296
a(I1219
I0
F0.625
S'first'
p3297
I0
tp3298
a(I1219
I0
F-0.5
S'flash'
p3299
I0
tp3300
a(I1519
I0
F0.625
S'first'
p3301
I0
tp3302
a(I1606
I4
F0.625
S'first'
p3303
I0
tp3304
a(I1606
I4
F-0.5
S'flash'
p3305
I0
tp3306
a(I1639
I0
F0.625
S'first'
p3307
I0
tp3308
a(I1639
I0
F-0.5
S'flash'
p3309
I0
tp3310
a(I1723
I3
F-0.5
S'flash'
p3311
I0
tp3312
a(I1848
I1
F-0.5
S'flash'
p3313
I0
tp3314
a(I1913
I0
F-0.5
S'flash'
p3315
I0
tp3316
a(I1978
I1
F0.625
S'first'
p3317
I0
tp3318
a(I1978
I1
F-0.5
S'flash'
p3319
I0
tp3320
a(I1978
I1
F-0.25
S'i'
p3321
I0
tp3322
a(I1978
I1
F0.25
S'able'
p3323
I0
tp3324
a(I1978
I1
F-0.5
S'flash'
p3325
I0
tp3326
a(I116
I0
I0
S'third'
p3327
I0
tp3328
a(I116
I0
F-0.5
S'flash'
p3329
I0
tp3330
a(I155
I11
F0.625
g3283
I0
tp3331
a(I238
I37
F0.625
g3285
I0
tp3332
a(I238
I37
F-0.5
g3287
I0
tp3333
a(I250
I11
F-0.5
S'flash'
p3334
I0
tp3335
a(I284
I3
F-0.5
S'flash'
p3336
I0
tp3337
a(I318
I0
F0.75
S'white'
p3338
I0
tp3339
a(I318
I0
F0.375
S'available'
p3340
I0
tp3341
a(I318
I0
F-0.5
S'flash'
p3342
I0
tp3343
a(I388
I29
F-0.5
S'flash'
p3344
I0
tp3345
a(I455
I1
F-0.25
S'latest'
p3346
I0
tp3347
a(I455
I1
F-0.5
S'flash'
p3348
I0
tp3349
a(I494
I29
F-0.5
S'flash'
p3350
I0
tp3351
a(I534
I13
F0.5
S'second'
p3352
I0
tp3353
a(I534
I13
F-0.5
S'flash'
p3354
I0
tp3355
a(I535
I7
F0.625
g3289
I0
tp3356
a(I535
I7
F-0.5
g3291
I0
tp3357
a(I712
I16
F-0.5
S'flash'
p3358
I0
tp3359
a(I729
I4
F-0.5
g3293
I0
tp3360
a(I749
I2
F-0.5
S'flash'
p3361
I0
tp3362
a(I845
I2
F0.625
g3295
I0
tp3363
a(I1079
I3
F-0.5
S'flash'
p3364
I0
tp3365
a(I1171
I3
F-0.5
S'flash'
p3366
I0
tp3367
a(I1219
I0
F0.625
g3297
I0
tp3368
a(I1219
I0
F-0.5
g3299
I0
tp3369
a(I1453
I6
F-0.5
S'flash'
p3370
I0
tp3371
a(I1453
I6
F-0.875
S'unfortunately'
p3372
I0
tp3373
a(I1457
I2
F-0.5
S'flash'
p3374
I0
tp3375
a(I1519
I0
F0.625
g3301
I0
tp3376
a(I1606
I4
F0.625
g3303
I0
tp3377
a(I1606
I4
F-0.5
g3305
I0
tp3378
a(I1627
I18
F-0.5
S'flash'
p3379
I0
tp3380
a(I1639
I0
F0.625
g3307
I0
tp3381
a(I1639
I0
F-0.5
g3309
I0
tp3382
a(I1723
I3
F-0.5
g3311
I0
tp3383
a(I1757
I8
F-0.5
S'flash'
p3384
I0
tp3385
a(I1848
I1
F-0.5
g3313
I0
tp3386
a(I1913
I0
F-0.5
g3315
I0
tp3387
a(I1913
I8
F-0.5
S'flash'
p3388
I0
tp3389
a(I1978
I1
F0.625
g3317
I0
tp3390
a(I1978
I1
F-0.5
g3319
I0
tp3391
a(I1978
I1
F-0.25
g3321
I0
tp3392
a(I1978
I1
F0.25
g3323
I0
tp3393
a(I1978
I1
F-0.5
g3325
I0
tp3394
a(I2009
I6
F0.5
S'second'
p3395
I0
tp3396
a(I2009
I6
F-0.5
S'flash'
p3397
I0
tp3398
a(I6
I1
F-0.75
S'open'
p3399
I0
tp3400
a(I110
I2
F0.625
S'first'
p3401
I0
tp3402
a(I116
I0
I0
g3327
I0
tp3403
a(I116
I0
F-0.5
g3329
I0
tp3404
a(I238
I37
F0.625
g3285
I0
tp3405
a(I238
I37
F-0.5
g3287
I0
tp3406
a(I250
I11
F-0.5
g3334
I0
tp3407
a(I284
I3
F-0.5
g3336
I0
tp3408
a(I318
I0
F0.75
g3338
I0
tp3409
a(I318
I0
F0.375
g3340
I0
tp3410
a(I318
I0
F-0.5
g3342
I0
tp3411
a(I388
I29
F-0.5
g3344
I0
tp3412
a(I391
I16
F-0.125
S'next'
p3413
I0
tp3414
a(I447
I0
F0.25
S'recent'
p3415
I0
tp3416
a(I455
I1
F-0.25
g3346
I0
tp3417
a(I455
I1
F-0.5
g3348
I0
tp3418
a(I494
I29
F-0.5
g3350
I0
tp3419
a(I534
I13
F0.5
g3352
I0
tp3420
a(I534
I13
F-0.5
g3354
I0
tp3421
a(I535
I7
F0.625
g3289
I0
tp3422
a(I535
I7
F-0.5
g3291
I0
tp3423
a(I607
I1
F0.625
S'first'
p3424
I0
tp3425
a(I654
I4
F0.75
S'due'
p3426
I0
tp3427
a(I688
I0
F0.625
S'first'
p3428
I0
tp3429
a(I689
I0
F0.625
S'first'
p3430
I0
tp3431
a(I712
I16
F-0.5
g3358
I0
tp3432
a(I729
I4
F-0.5
g3293
I0
tp3433
a(I749
I2
F-0.5
g3361
I0
tp3434
a(I899
I5
F-0.875
g3239
I0
tp3435
a(I1079
I3
F-0.5
g3364
I0
tp3436
a(I1171
I3
F-0.5
g3366
I0
tp3437
a(I1219
I0
F0.625
g3297
I0
tp3438
a(I1219
I0
F-0.5
g3299
I0
tp3439
a(I1305
I20
F-0.75
S'open'
p3440
I0
tp3441
a(I1324
I0
F0.625
S'first'
p3442
I0
tp3443
a(I1377
I15
F0.625
S'first'
p3444
I0
tp3445
a(I1450
I7
F-0.625
S'last'
p3446
I0
tp3447
a(I1453
I6
F-0.5
g3370
I0
tp3448
a(I1453
I6
F-0.875
g3372
I0
tp3449
a(I1457
I2
F-0.5
g3374
I0
tp3450
a(I1583
I3
F-0.125
S'next'
p3451
I0
tp3452
a(I1606
I4
F0.625
g3303
I0
tp3453
a(I1606
I4
F-0.5
g3305
I0
tp3454
a(I1627
I2
F0.625
S'first'
p3455
I0
tp3456
a(I1627
I2
F0.5
S'second'
p3457
I0
tp3458
a(I1627
I3
F0.625
S'first'
p3459
I0
tp3460
a(I1627
I18
F-0.5
g3379
I0
tp3461
a(I1639
I0
F0.625
g3307
I0
tp3462
a(I1639
I0
F-0.5
g3309
I0
tp3463
a(I1667
I10
F0.625
S'first'
p3464
I0
tp3465
a(I1690
I12
F-0.625
S'last'
p3466
I0
tp3467
a(I1691
I0
F0.625
S'first'
p3468
I0
tp3469
a(I1723
I3
F-0.5
g3311
I0
tp3470
a(I1757
I8
F-0.5
g3384
I0
tp3471
a(I1848
I1
F-0.5
g3313
I0
tp3472
a(I1873
I5
F0.5
S'possible'
p3473
I0
tp3474
a(I1875
I3
I-100
S'diwali'
p3475
I0
tp3476
a(I1875
I4
I0
S'discounted'
p3477
I0
tp3478
a(I1913
I0
F-0.5
g3315
I0
tp3479
a(I1913
I8
F-0.5
g3388
I0
tp3480
a(I1966
I39
I-100
S'dhamaka'
p3481
I0
tp3482
a(I1978
I1
F0.625
g3317
I0
tp3483
a(I1978
I1
F-0.5
g3319
I0
tp3484
a(I1978
I1
F-0.25
g3321
I0
tp3485
a(I1978
I1
F0.25
g3323
I0
tp3486
a(I1978
I1
F-0.5
g3325
I0
tp3487
a(I2009
I6
F0.5
g3395
I0
tp3488
a(I2009
I6
F-0.5
g3397
I0
tp3489
as(S'good'
p3490
S'battery'
p3491
S'life'
p3492
tp3493
(lp3494
(I28
I0
F1.0
S'good'
p3495
I0
tp3496
a(I190
I1
F1.0
S'good'
p3497
I0
tp3498
a(I224
I5
F1.0
S'good'
p3499
I0
tp3500
a(I291
I0
F1.0
S'good'
p3501
I0
tp3502
a(I515
I12
F1.0
S'good'
p3503
I0
tp3504
a(I572
I8
F1.0
S'good'
p3505
I0
tp3506
a(I849
I1
F1.0
S'good'
p3507
I0
tp3508
a(I849
I1
I0
S't'
p3509
I0
tp3510
a(I863
I1
F1.0
S'good'
p3511
I0
tp3512
a(I1214
I3
F1.0
S'good'
p3513
I0
tp3514
a(I1408
I9
F-0.875
S'poor'
p3515
I0
tp3516
a(I1749
I1
F1.0
S'good'
p3517
I0
tp3518
a(I1929
I3
F1.0
S'good'
p3519
I0
tp3520
a(I1937
I13
F1.0
S'good'
p3521
I0
tp3522
a(I2084
I0
F1.0
S'good'
p3523
I0
tp3524
a(I2084
I0
F1.0
S'good'
p3525
I0
tp3526
a(I2177
I0
F1.0
S'good'
p3527
I0
tp3528
a(I2196
I0
F1.0
S'good'
p3529
I0
tp3530
a(I28
I0
F1.0
g3495
I1
tp3531
a(I190
I1
F1.0
g3497
I1
tp3532
a(I291
I0
F1.0
g3501
I1
tp3533
a(I371
I0
F1.0
S'good'
p3534
I1
tp3535
a(I387
I3
F1.0
S'good'
p3536
I1
tp3537
a(I388
I17
F1.0
S'good'
p3538
I1
tp3539
a(I388
I17
F-1.0
S'bad'
p3540
I1
tp3541
a(I458
I3
F1.0
S'good'
p3542
I1
tp3543
a(I514
I6
F1.0
S'good'
p3544
I1
tp3545
a(I515
I12
F1.0
g3503
I1
tp3546
a(I530
I2
F1.0
S'good'
p3547
I1
tp3548
a(I536
I15
F-0.5
S'long'
p3549
I1
tp3550
a(I794
I3
F-0.625
S'real'
p3551
I1
tp3552
a(I794
I3
F1.0
S'good'
p3553
I1
tp3554
a(I798
I1
F1.0
S'good'
p3555
I1
tp3556
a(I849
I1
F1.0
g3507
I1
tp3557
a(I863
I1
F1.0
g3511
I1
tp3558
a(I871
I2
F1.0
S'good'
p3559
I1
tp3560
a(I891
I19
F1.0
S'good'
p3561
I1
tp3562
a(I961
I3
F1.0
S'good'
p3563
I1
tp3564
a(I995
I0
F1.0
S'good'
p3565
I1
tp3566
a(I1010
I7
F1.0
S'good'
p3567
I1
tp3568
a(I1066
I0
F1.0
S'good'
p3569
I1
tp3570
a(I1074
I0
F1.0
S'good'
p3571
I1
tp3572
a(I1081
I1
F1.0
S'good'
p3573
I1
tp3574
a(I1123
I0
F1.0
S'good'
p3575
I1
tp3576
a(I1231
I1
F1.0
S'good'
p3577
I1
tp3578
a(I1237
I23
F0.625
S'first'
p3579
I1
tp3580
a(I1237
I23
F1.0
S'good'
p3581
I1
tp3582
a(I1243
I1
F0.5
S'expensive'
p3583
I1
tp3584
a(I1333
I0
F1.0
S'good'
p3585
I1
tp3586
a(I1345
I0
F0.375
S'ok'
p3587
I1
tp3588
a(I1345
I0
F1.0
S'good'
p3589
I1
tp3590
a(I1345
I0
F-1.0
S'bad'
p3591
I1
tp3592
a(I1384
I0
F1.0
S'good'
p3593
I1
tp3594
a(I1619
I7
F1.0
S'good'
p3595
I1
tp3596
a(I1623
I0
F1.0
S'good'
p3597
I1
tp3598
a(I1665
I4
F0.875
S'great'
p3599
I1
tp3600
a(I1665
I4
F1.0
S'good'
p3601
I1
tp3602
a(I1668
I8
F1.0
S'good'
p3603
I1
tp3604
a(I1668
I8
I0
S'few'
p3605
I1
tp3606
a(I1749
I1
F1.0
g3517
I1
tp3607
a(I1850
I4
F1.0
S'good'
p3608
I1
tp3609
a(I1868
I0
F1.0
S'good'
p3610
I1
tp3611
a(I1883
I33
F1.0
S'good'
p3612
I1
tp3613
a(I2051
I0
F1.0
S'good'
p3614
I1
tp3615
a(I2084
I0
F1.0
g3523
I1
tp3616
a(I2084
I0
F1.0
g3525
I1
tp3617
a(I2086
I2
F1.0
S'good'
p3618
I1
tp3619
a(I2093
I0
F1.0
S'good'
p3620
I1
tp3621
a(I2119
I0
F1.0
S'good'
p3622
I1
tp3623
a(I2121
I0
F1.0
S'good'
p3624
I1
tp3625
a(I2133
I0
F1.0
S'good'
p3626
I1
tp3627
a(I2160
I1
F1.0
S'good'
p3628
I1
tp3629
a(I2170
I4
F0.5
S'high'
p3630
I1
tp3631
a(I2172
I0
F0.875
S'nice'
p3632
I1
tp3633
a(I2177
I0
F1.0
g3527
I1
tp3634
a(I2189
I1
F1.0
S'good'
p3635
I1
tp3636
a(I2194
I8
I0
S'light'
p3637
I1
tp3638
a(I2194
I8
F1.0
S'good'
p3639
I1
tp3640
a(I2198
I10
F1.0
g2411
I1
tp3641
a(I28
I0
F1.0
g3495
I3
tp3642
a(I93
I19
F0.875
S'great'
p3643
I3
tp3644
a(I190
I1
F1.0
g3497
I3
tp3645
a(I190
I4
F1.0
S'better'
p3646
I3
tp3647
a(I208
I56
F1.0
S'excellent'
p3648
I3
tp3649
a(I224
I5
F1.0
g3499
I3
tp3650
a(I291
I0
F1.0
g3501
I3
tp3651
a(I382
I0
F1.0
g2391
I3
tp3652
a(I382
I0
F1.0
S'excellent'
p3653
I3
tp3654
a(I391
I24
F0.875
S'brilliant'
p3655
I3
tp3656
a(I397
I1
F0.875
S'great'
p3657
I3
tp3658
a(I515
I12
F1.0
g3503
I3
tp3659
a(I522
I1
F1.0
S'excellent'
p3660
I3
tp3661
a(I561
I24
F0.875
g2395
I3
tp3662
a(I561
I24
I0
S'more'
p3663
I3
tp3664
a(I572
I8
F1.0
g3505
I3
tp3665
a(I611
I1
F0.5
S'touch'
p3666
I3
tp3667
a(I849
I1
F1.0
g3507
I3
tp3668
a(I849
I1
I0
g3509
I3
tp3669
a(I863
I1
F1.0
g3511
I3
tp3670
a(I987
I21
F0.375
S'satisfied'
p3671
I3
tp3672
a(I1047
I1
F0.875
S'awesome'
p3673
I3
tp3674
a(I1176
I0
F1.0
S'excellent'
p3675
I3
tp3676
a(I1214
I3
F1.0
g3513
I3
tp3677
a(I1408
I9
F-0.875
g3515
I3
tp3678
a(I1643
I5
F-0.125
S'overall'
p3679
I3
tp3680
a(I1643
I5
F0.5
S'satisfactory'
p3681
I3
tp3682
a(I1687
I9
F0.875
S'nice'
p3683
I3
tp3684
a(I1697
I0
F-0.25
S'battery'
p3685
I3
tp3686
a(I1749
I1
F1.0
g3517
I3
tp3687
a(I1785
I1
F0.875
S'great'
p3688
I3
tp3689
a(I1929
I3
F1.0
g3519
I3
tp3690
a(I1933
I12
F-0.75
S'hopeless'
p3691
I3
tp3692
a(I1937
I13
F1.0
g3521
I3
tp3693
a(I2084
I0
F1.0
g3523
I3
tp3694
a(I2084
I0
F1.0
g3525
I3
tp3695
a(I2092
I3
F-0.25
S'battery'
p3696
I3
tp3697
a(I2092
I3
F0.875
S'nice'
p3698
I3
tp3699
a(I2177
I0
F1.0
g3527
I3
tp3700
a(I2196
I0
F1.0
g3529
I3
tp3701
a(I114
I5
I-100
S'batteruy'
p3702
I8
tp3703
a(I208
I56
F1.0
g3648
I8
tp3704
a(I224
I5
F1.0
g3499
I8
tp3705
a(I237
I18
I0
S'ur'
p3706
I8
tp3707
a(I382
I0
F1.0
g3653
I8
tp3708
a(I522
I1
F1.0
g3660
I8
tp3709
a(I561
I24
I0
g3663
I8
tp3710
a(I572
I8
F1.0
g3505
I8
tp3711
a(I611
I1
F0.5
g3666
I8
tp3712
a(I849
I1
I0
g3509
I8
tp3713
a(I1047
I1
F0.875
g3673
I8
tp3714
a(I1214
I3
F1.0
g3513
I8
tp3715
a(I1408
I9
F-0.875
g3515
I8
tp3716
a(I1560
I8
F0.5
S'true'
p3717
I8
tp3718
a(I1643
I5
F0.5
g3681
I8
tp3719
a(I1687
I9
F0.875
g3683
I8
tp3720
a(I1697
I0
F-0.25
g3685
I8
tp3721
a(I1785
I1
F0.875
g3688
I8
tp3722
a(I1929
I3
F1.0
g3519
I8
tp3723
a(I1933
I12
F-0.75
g3691
I8
tp3724
a(I1937
I13
F1.0
g3521
I8
tp3725
a(I2092
I3
F-0.25
g3696
I8
tp3726
a(I2092
I3
F0.875
g3698
I8
tp3727
a(I2196
I0
F1.0
g3529
I8
tp3728
as(g2227
S'deal'
p3729
S'breaker'
p3730
tp3731
(lp3732
(I104
I5
I0
S'deal'
p3733
I0
tp3734
as(S'front'
p3735
S'and'
p3736
S'back'
p3737
tp3738
(lp3739
(I411
I1
F0.375
g949
I3
tp3740
a(I411
I1
F-0.75
g951
I3
tp3741
a(I959
I3
F1.0
g405
I3
tp3742
a(I1227
I20
F1.0
S'good'
p3743
I3
tp3744
a(I1539
I1
I0
g962
I3
tp3745
a(I1850
I15
F-0.125
S'front'
p3746
I3
tp3747
as(S'user'
p3748
tp3749
(lp3750
(I114
I7
F-0.5
S'heavy'
p3751
I9
tp3752
a(I185
I3
I0
S'normal'
p3753
I9
tp3754
a(I193
I26
F0.375
S'available'
p3755
I9
tp3756
a(I237
I17
I0
S'more'
p3757
I9
tp3758
a(I611
I2
F-0.5
S'heavy'
p3759
I9
tp3760
a(I878
I33
F0.75
S'wonderful'
p3761
I9
tp3762
a(I881
I8
F-0.625
S'moderate'
p3763
I9
tp3764
a(I987
I22
F-0.625
S'moderate'
p3765
I9
tp3766
a(I987
I48
F-0.625
S'moderate'
p3767
I9
tp3768
a(I1009
I31
I0
S'normal'
p3769
I9
tp3770
a(I1028
I1
F-0.75
S'casual'
p3771
I9
tp3772
a(I1114
I8
F-0.625
S'moderate'
p3773
I9
tp3774
a(I1170
I0
I0
S't'
p3775
I9
tp3776
a(I1177
I1
F-0.75
S'casual'
p3777
I9
tp3778
a(I1195
I11
F0.375
S'much'
p3779
I9
tp3780
a(I1195
I11
F-0.625
S'fast'
p3781
I9
tp3782
a(I1267
I3
F-0.625
S'moderate'
p3783
I9
tp3784
a(I1284
I6
F-0.5
S'heavy'
p3785
I9
tp3786
a(I1325
I2
F-0.375
S'flawless'
p3787
I9
tp3788
a(I1375
I1
I0
S'hot'
p3789
I9
tp3790
a(I1375
I1
F0.25
S'basic'
p3791
I9
tp3792
a(I1606
I12
F0.625
S'rich'
p3793
I9
tp3794
a(I1876
I4
F-0.625
S'new'
p3795
I9
tp3796
a(I1975
I20
F0.375
S'works'
p3797
I9
tp3798
a(I1975
I20
F0.75
S'fantastic'
p3799
I9
tp3800
a(I2028
I2
F0.75
S'easy'
p3801
I9
tp3802
a(I2028
I2
I0
S'standard'
p3803
I9
tp3804
as(S'great'
p3805
tp3806
(lp3807
(I691
I0
I0
S'build'
p3808
I5
tp3809
a(I825
I11
I0
S'build'
p3810
I5
tp3811
a(I825
I12
F-0.125
S'overall'
p3812
I5
tp3813
a(I2109
I0
F0.125
S'mobile'
p3814
I5
tp3815
as(S'and'
p3816
S'light'
p3817
S'weight'
p3818
tp3819
(lp3820
(I54
I9
F0.375
g2156
I0
tp3821
a(I137
I0
I0
S'light'
p3822
I0
tp3823
a(I137
I0
I0
S'many'
p3824
I0
tp3825
a(I188
I5
I0
S'light'
p3826
I0
tp3827
a(I195
I11
I0
S'light'
p3828
I0
tp3829
a(I529
I0
I0
S'light'
p3830
I0
tp3831
a(I529
I0
I0
S'pretty'
p3832
I0
tp3833
a(I532
I10
I0
S'light'
p3834
I0
tp3835
a(I535
I6
I0
S'light'
p3836
I0
tp3837
a(I573
I4
I0
S'light'
p3838
I0
tp3839
a(I573
I4
F-0.875
S'smaller'
p3840
I0
tp3841
a(I726
I10
I0
S'light'
p3842
I0
tp3843
a(I882
I14
F0.5
S'slim'
p3844
I0
tp3845
a(I882
I14
F0.375
S'sleek'
p3846
I0
tp3847
a(I882
I14
I0
S'light'
p3848
I0
tp3849
a(I1015
I0
I0
S'light'
p3850
I0
tp3851
a(I1034
I1
I0
S'light'
p3852
I0
tp3853
a(I1083
I1
I0
S'light'
p3854
I0
tp3855
a(I1370
I1
I0
S'light'
p3856
I0
tp3857
a(I1566
I23
I0
S'light'
p3858
I0
tp3859
a(I1566
I23
F0.875
S'great'
p3860
I0
tp3861
a(I1693
I1
I0
S'light'
p3862
I0
tp3863
a(I2103
I0
I0
S'light'
p3864
I0
tp3865
a(I2200
I2
I0
S'light'
p3866
I0
tp3867
a(I10
I0
I0
S'light'
p3868
I0
tp3869
a(I54
I9
F0.375
g2156
I0
tp3870
a(I137
I0
I0
g3822
I0
tp3871
a(I137
I0
I0
g3824
I0
tp3872
a(I188
I5
I0
g3826
I0
tp3873
a(I195
I11
I0
g3828
I0
tp3874
a(I197
I2
I0
S'light'
p3875
I0
tp3876
a(I217
I0
I0
S'light'
p3877
I0
tp3878
a(I290
I10
I0
S'light'
p3879
I0
tp3880
a(I453
I0
I0
S'light'
p3881
I0
tp3882
a(I515
I11
I0
S'light'
p3883
I0
tp3884
a(I529
I0
I0
g3830
I0
tp3885
a(I529
I0
I0
g3832
I0
tp3886
a(I532
I10
I0
g3834
I0
tp3887
a(I535
I6
I0
g3836
I0
tp3888
a(I561
I39
I0
S'light'
p3889
I0
tp3890
a(I561
I39
F0.875
S'great'
p3891
I0
tp3892
a(I573
I4
I0
g3838
I0
tp3893
a(I573
I4
F-0.875
g3840
I0
tp3894
a(I593
I0
I0
S'light'
p3895
I0
tp3896
a(I638
I3
I0
S'light'
p3897
I0
tp3898
a(I726
I10
I0
g3842
I0
tp3899
a(I731
I1
I0
S'light'
p3900
I0
tp3901
a(I737
I6
F-0.125
S'such'
p3902
I0
tp3903
a(I737
I6
I0
S'light'
p3904
I0
tp3905
a(I812
I1
F1.0
g2176
I0
tp3906
a(I867
I1
I0
S'light'
p3907
I0
tp3908
a(I877
I3
I0
S'light'
p3909
I0
tp3910
a(I882
I14
F0.5
g3844
I0
tp3911
a(I882
I14
F0.375
g3846
I0
tp3912
a(I882
I14
I0
g3848
I0
tp3913
a(I892
I9
I0
S'light'
p3914
I0
tp3915
a(I904
I0
I0
S'light'
p3916
I0
tp3917
a(I950
I1
I0
S'light'
p3918
I0
tp3919
a(I979
I0
I0
S'light'
p3920
I0
tp3921
a(I996
I0
I0
S'light'
p3922
I0
tp3923
a(I1015
I0
I0
g3850
I0
tp3924
a(I1034
I1
I0
g3852
I0
tp3925
a(I1083
I1
I0
g3854
I0
tp3926
a(I1116
I0
I0
S'light'
p3927
I0
tp3928
a(I1182
I1
I0
S'light'
p3929
I0
tp3930
a(I1227
I17
I0
S'light'
p3931
I0
tp3932
a(I1230
I1
I0
S'light'
p3933
I0
tp3934
a(I1267
I9
I0
S'light'
p3935
I0
tp3936
a(I1288
I1
I0
S'light'
p3937
I0
tp3938
a(I1305
I9
I0
S'light'
p3939
I0
tp3940
a(I1305
I9
F-0.5
S'less'
p3941
I0
tp3942
a(I1309
I2
I0
S'light'
p3943
I0
tp3944
a(I1370
I1
I0
g3856
I0
tp3945
a(I1404
I6
I0
S'lighter'
p3946
I0
tp3947
a(I1566
I23
I0
g3858
I0
tp3948
a(I1566
I23
F0.875
g3860
I0
tp3949
a(I1582
I2
I0
S'light'
p3950
I0
tp3951
a(I1586
I1
I0
S'light'
p3952
I0
tp3953
a(I1693
I1
I0
g3862
I0
tp3954
a(I1708
I1
I0
S'light'
p3955
I0
tp3956
a(I1734
I0
I0
S'light'
p3957
I0
tp3958
a(I1850
I13
I0
S'light'
p3959
I0
tp3960
a(I1998
I5
I0
S'light'
p3961
I0
tp3962
a(I2054
I0
I0
S'light'
p3963
I0
tp3964
a(I2103
I0
I0
g3864
I0
tp3965
a(I2200
I2
I0
g3866
I0
tp3966
a(I10
I0
I0
g3868
I4
tp3967
a(I137
I0
I0
g3822
I4
tp3968
a(I137
I0
I0
g3824
I4
tp3969
a(I188
I5
I0
g3826
I4
tp3970
a(I195
I11
I0
g3828
I4
tp3971
a(I197
I2
I0
g3875
I4
tp3972
a(I217
I0
I0
g3877
I4
tp3973
a(I290
I10
I0
g3879
I4
tp3974
a(I453
I0
I0
g3881
I4
tp3975
a(I515
I11
I0
g3883
I4
tp3976
a(I529
I0
I0
g3830
I4
tp3977
a(I529
I0
I0
g3832
I4
tp3978
a(I532
I10
I0
g3834
I4
tp3979
a(I535
I6
I0
g3836
I4
tp3980
a(I561
I39
I0
g3889
I4
tp3981
a(I561
I39
F0.875
g3891
I4
tp3982
a(I573
I4
I0
g3838
I4
tp3983
a(I573
I4
F-0.875
g3840
I4
tp3984
a(I593
I0
I0
g3895
I4
tp3985
a(I638
I3
I0
g3897
I4
tp3986
a(I726
I10
I0
g3842
I4
tp3987
a(I731
I1
I0
g3900
I4
tp3988
a(I737
I6
F-0.125
g3902
I4
tp3989
a(I737
I6
I0
g3904
I4
tp3990
a(I867
I1
I0
g3907
I4
tp3991
a(I877
I3
I0
g3909
I4
tp3992
a(I877
I18
F-0.5
S'original'
p3993
I4
tp3994
a(I882
I14
F0.5
g3844
I4
tp3995
a(I882
I14
F0.375
g3846
I4
tp3996
a(I882
I14
I0
g3848
I4
tp3997
a(I892
I9
I0
g3914
I4
tp3998
a(I904
I0
I0
g3916
I4
tp3999
a(I950
I1
I0
g3918
I4
tp4000
a(I979
I0
I0
g3920
I4
tp4001
a(I996
I0
I0
g3922
I4
tp4002
a(I1015
I0
I0
g3850
I4
tp4003
a(I1034
I1
I0
g3852
I4
tp4004
a(I1083
I1
I0
g3854
I4
tp4005
a(I1116
I0
I0
g3927
I4
tp4006
a(I1132
I5
F-0.5
S'less'
p4007
I4
tp4008
a(I1171
I8
F-0.5
S'less'
p4009
I4
tp4010
a(I1182
I1
I0
g3929
I4
tp4011
a(I1227
I17
I0
g3931
I4
tp4012
a(I1230
I1
I0
g3933
I4
tp4013
a(I1267
I9
I0
g3935
I4
tp4014
a(I1288
I1
I0
g3937
I4
tp4015
a(I1305
I9
I0
g3939
I4
tp4016
a(I1305
I9
F-0.5
g3941
I4
tp4017
a(I1309
I2
I0
g3943
I4
tp4018
a(I1370
I1
I0
g3856
I4
tp4019
a(I1404
I6
I0
g3946
I4
tp4020
a(I1566
I23
I0
g3858
I4
tp4021
a(I1566
I23
F0.875
g3860
I4
tp4022
a(I1582
I2
I0
g3950
I4
tp4023
a(I1586
I1
I0
g3952
I4
tp4024
a(I1693
I1
I0
g3862
I4
tp4025
a(I1708
I1
I0
g3955
I4
tp4026
a(I1734
I0
I0
g3957
I4
tp4027
a(I1850
I13
I0
g3959
I4
tp4028
a(I1892
I11
F-0.5
S'less'
p4029
I4
tp4030
a(I1998
I5
I0
g3961
I4
tp4031
a(I2054
I0
I0
g3963
I4
tp4032
a(I2103
I0
I0
g3864
I4
tp4033
a(I2200
I2
I0
g3866
I4
tp4034
as(S'calls'
p4035
tp4036
(lp4037
(I109
I13
I0
S'many'
p4038
I9
tp4039
a(I109
I13
F0.75
S'due'
p4040
I9
tp4041
a(I266
I1
F-0.25
S'i'
p4042
I9
tp4043
a(I266
I1
I0
S'many'
p4044
I9
tp4045
a(I370
I8
F-0.375
S'tolerable'
p4046
I9
tp4047
a(I513
I2
I0
S'most'
p4048
I9
tp4049
a(I523
I50
F-0.5
S'long'
p4050
I9
tp4051
a(I611
I3
F0.625
S'smooth'
p4052
I9
tp4053
a(I713
I2
F-0.625
S'missed'
p4054
I9
tp4055
a(I769
I8
F-0.625
S'missed'
p4056
I9
tp4057
a(I843
I2
F-0.875
S'tough'
p4058
I9
tp4059
a(I843
I2
F-0.5
S'long'
p4060
I9
tp4061
a(I1166
I8
F0.5
S'slight'
p4062
I9
tp4063
a(I1348
I0
I0
S'u'
p4064
I9
tp4065
a(I1514
I3
I0
S'u'
p4066
I9
tp4067
a(I1671
I10
F-0.5
S'long'
p4068
I9
tp4069
a(I1671
I10
F0.375
S'ok'
p4070
I9
tp4071
a(I1671
I11
F-0.875
S'rare'
p4072
I9
tp4073
a(I1671
I11
F-0.5
S'long'
p4074
I9
tp4075
a(I1966
I11
F-0.625
S'missed'
p4076
I9
tp4077
a(I2037
I4
F-0.375
S'same'
p4078
I9
tp4079
a(I2037
I4
F-0.625
S'missed'
p4080
I9
tp4081
as(S'rear'
p4082
S'camera'
p4083
tp4084
(lp4085
(I197
I4
F1.0
g393
I6
tp4086
a(I468
I1
I0
S'rear'
p4087
I6
tp4088
a(I562
I14
F0.875
S'superb'
p4089
I6
tp4090
a(I591
I0
I0
g511
I6
tp4091
a(I591
I0
F1.0
g513
I6
tp4092
a(I712
I0
F1.0
g520
I6
tp4093
a(I761
I0
F0.875
S'great'
p4094
I6
tp4095
a(I761
I0
I0
S'rear'
p4096
I6
tp4097
a(I761
I0
F0.875
S'great'
p4098
I6
tp4099
a(I795
I3
F1.0
S'good'
p4100
I6
tp4101
a(I841
I1
F1.0
g403
I6
tp4102
a(I916
I2
I0
g537
I6
tp4103
a(I916
I2
F1.0
g539
I6
tp4104
a(I1078
I4
F1.0
S'good'
p4105
I6
tp4106
a(I1078
I4
I0
g551
I6
tp4107
a(I1100
I3
F1.0
g747
I6
tp4108
a(I1362
I2
I0
S'rear'
p4109
I6
tp4110
a(I1381
I0
I0
g419
I6
tp4111
a(I1381
I0
F1.0
g421
I6
tp4112
a(I1490
I1
F1.0
g779
I6
tp4113
a(I1698
I1
F-0.125
S'front'
p4114
I6
tp4115
a(I1698
I1
F1.0
g429
I6
tp4116
a(I1748
I1
F1.0
g435
I6
tp4117
a(I1748
I1
F-0.125
S'front'
p4118
I6
tp4119
a(I1761
I0
F0.625
S'extraordinary'
p4120
I6
tp4121
a(I1761
I0
F1.0
S'good'
p4122
I6
tp4123
a(I1789
I7
F1.0
g437
I6
tp4124
a(I1926
I34
I0
g445
I6
tp4125
a(I1926
I34
F1.0
g447
I6
tp4126
a(I1926
I34
F-0.125
g449
I6
tp4127
a(I2031
I9
I0
S'rear'
p4128
I6
tp4129
a(I2122
I4
I0
g809
I6
tp4130
a(I2189
I2
F1.0
S'good'
p4131
I6
tp4132
as(S'external'
p4133
S'memory'
p4134
S'card'
p4135
tp4136
(lp4137
(I116
I1
F-0.625
S'missing'
p4138
I0
tp4139
a(I116
I1
F-0.25
S'external'
p4140
I0
tp4141
a(I117
I22
F-0.25
S'external'
p4142
I0
tp4143
a(I117
I22
F0.125
S'enough'
p4144
I0
tp4145
a(I340
I1
F-0.25
S'external'
p4146
I0
tp4147
a(I340
I1
F0.5
S'internal'
p4148
I0
tp4149
a(I849
I0
F0.5
S'internal'
p4150
I0
tp4151
a(I849
I0
F-0.25
S'external'
p4152
I0
tp4153
a(I900
I2
F-0.25
S'external'
p4154
I0
tp4155
a(I2122
I7
F-0.25
S'external'
p4156
I0
tp4157
as(S'xiaomi'
p4158
tp4159
(lp4160
(I59
I11
F-0.875
S'hard'
p4161
I0
tp4162
a(I67
I0
I0
S'7th'
p4163
I0
tp4164
a(I93
I2
I0
S'sure'
p4165
I0
tp4166
a(I115
I9
I0
S'sure'
p4167
I0
tp4168
a(I115
I11
I0
S't'
p4169
I0
tp4170
a(I115
I11
F-0.25
S'i'
p4171
I0
tp4172
a(I388
I36
F0.125
S'please'
p4173
I0
tp4174
a(I512
I0
F-0.625
S'willing'
p4175
I0
tp4176
a(I535
I1
F1.0
S'best'
p4177
I0
tp4178
a(I535
I1
F1.0
S'best'
p4179
I0
tp4180
a(I710
I14
F-0.125
S'such'
p4181
I0
tp4182
a(I969
I4
F0.5
S'elegant'
p4183
I0
tp4184
a(I969
I4
F0.75
S'white'
p4185
I0
tp4186
a(I1300
I2
F-0.625
S'other'
p4187
I0
tp4188
a(I1305
I40
I0
S'n'
p4189
I0
tp4190
a(I1402
I3
I0
S'only'
p4191
I0
tp4192
a(I1606
I17
I0
S'guys'
p4193
I0
tp4194
a(I1620
I0
F0.375
S'much'
p4195
I0
tp4196
a(I1638
I20
F0.625
S'first'
p4197
I0
tp4198
a(I1772
I2
F0.625
S'first'
p4199
I0
tp4200
a(I1772
I11
I0
S'update'
p4201
I0
tp4202
a(I1797
I21
F-0.625
S'new'
p4203
I0
tp4204
a(I1844
I0
F0.625
S'first'
p4205
I0
tp4206
a(I1926
I9
F-0.625
S'other'
p4207
I0
tp4208
a(I1926
I20
I0
S's'
p4209
I0
tp4210
as(S'speaker'
p4211
tp4212
(lp4213
(I38
I0
F-0.5
S'loud'
p4214
I16
tp4215
a(I51
I0
F-0.5
S'loud'
p4216
I16
tp4217
a(I59
I12
F-0.625
S'average'
p4218
I16
tp4219
a(I66
I3
F-0.875
S'poor'
p4220
I16
tp4221
a(I249
I49
F-0.5
S'loud'
p4222
I16
tp4223
a(I282
I3
F-0.5
S'loud'
p4224
I16
tp4225
a(I323
I10
F-0.5
S'loud'
p4226
I16
tp4227
a(I351
I0
F-0.625
S'average'
p4228
I16
tp4229
a(I513
I2
I0
S'rear'
p4230
I16
tp4231
a(I536
I15
F1.0
S'good'
p4232
I16
tp4233
a(I536
I15
F-0.5
S'loud'
p4234
I16
tp4235
a(I598
I1
F-0.875
S'low'
p4236
I16
tp4237
a(I686
I4
F-0.75
S'little'
p4238
I16
tp4239
a(I686
I4
F-0.875
S'low'
p4240
I16
tp4241
a(I710
I9
F-0.25
S'default'
p4242
I16
tp4243
a(I722
I1
F-0.5
S'loud'
p4244
I16
tp4245
a(I722
I1
F0.5
S'crisp'
p4246
I16
tp4247
a(I722
I1
F-0.5
S'loud'
p4248
I16
tp4249
a(I783
I0
F-0.875
S'low'
p4250
I16
tp4251
a(I840
I3
F0.75
S'ear'
p4252
I16
tp4253
a(I965
I1
F-0.875
S'low'
p4254
I16
tp4255
a(I1088
I4
F1.0
S'good'
p4256
I16
tp4257
a(I1186
I4
I0
S'sure'
p4258
I16
tp4259
a(I1187
I5
F-0.25
S'external'
p4260
I16
tp4261
a(I1207
I40
F0.875
S'decent'
p4262
I16
tp4263
a(I1214
I0
F-0.5
S'loud'
p4264
I16
tp4265
a(I1266
I5
F-0.5
S'loud'
p4266
I16
tp4267
a(I1266
I5
F-0.5
S'loud'
p4268
I16
tp4269
a(I1300
I2
F-0.875
S'unacceptable'
p4270
I16
tp4271
a(I1301
I1
F-0.875
S'low'
p4272
I16
tp4273
a(I1318
I0
F-0.5
S'loud'
p4274
I16
tp4275
a(I1326
I2
I0
S'clear'
p4276
I16
tp4277
a(I1386
I0
F-0.25
S'external'
p4278
I16
tp4279
a(I1389
I2
F-0.875
S'small'
p4280
I16
tp4281
a(I1429
I1
F-0.5
S'loud'
p4282
I16
tp4283
a(I1429
I1
I0
S'clear'
p4284
I16
tp4285
a(I1646
I0
F-0.875
S'low'
p4286
I16
tp4287
a(I1847
I4
F-0.75
S'little'
p4288
I16
tp4289
a(I1847
I4
F-0.5
S'loud'
p4290
I16
tp4291
a(I1892
I24
F-0.375
S'same'
p4292
I16
tp4293
a(I1917
I3
I0
S'video'
p4294
I16
tp4295
a(I2012
I16
F-0.875
S'low'
p4296
I16
tp4297
as(S'full'
p4298
S'hd'
p4299
S'display'
p4300
tp4301
(lp4302
(I224
I5
F0.375
S'full'
p4303
I0
tp4304
a(I411
I2
F-0.125
S'next'
p4305
I0
tp4306
a(I411
I2
F0.375
S'full'
p4307
I0
tp4308
a(I411
I2
F1.0
S'excellent'
p4309
I0
tp4310
a(I485
I0
F0.375
S'full'
p4311
I0
tp4312
a(I485
I0
F-0.5
S'surreal'
p4313
I0
tp4314
a(I710
I0
F0.375
S'full'
p4315
I0
tp4316
a(I710
I0
F1.0
S'best'
p4317
I0
tp4318
a(I785
I2
F-0.25
S'device'
p4319
I0
tp4320
a(I785
I2
F0.375
S'full'
p4321
I0
tp4322
a(I947
I18
F0.375
S'full'
p4323
I0
tp4324
a(I971
I11
F0.75
S'perfect'
p4325
I0
tp4326
a(I1258
I0
F0.375
S'full'
p4327
I0
tp4328
a(I1272
I0
F-0.125
S'back'
p4329
I0
tp4330
a(I1433
I6
F1.0
S'good'
p4331
I0
tp4332
a(I1433
I6
F0.375
S'full'
p4333
I0
tp4334
a(I1433
I6
I0
S'many'
p4335
I0
tp4336
a(I1433
I6
I0
S'more'
p4337
I0
tp4338
a(I8
I1
F1.0
S'best'
p4339
I13
tp4340
a(I54
I4
F-0.625
S'other'
p4341
I13
tp4342
a(I54
I4
I0
S's'
p4343
I13
tp4344
a(I54
I6
I0
S'bigger'
p4345
I13
tp4346
a(I59
I3
F-0.75
S'impossible'
p4347
I13
tp4348
a(I81
I21
F0.875
S'great'
p4349
I13
tp4350
a(I126
I7
F0.375
S'impressive'
p4351
I13
tp4352
a(I152
I11
F0.75
S'beautiful'
p4353
I13
tp4354
a(I155
I8
F0.875
S'fabulous'
p4355
I13
tp4356
a(I188
I1
F0.875
S'amazing'
p4357
I13
tp4358
a(I191
I1
F0.75
S'gorgeous'
p4359
I13
tp4360
a(I196
I1
F-0.625
S'sharp'
p4361
I13
tp4362
a(I212
I0
F1.0
S'good'
p4363
I13
tp4364
a(I212
I0
F0.625
S'smooth'
p4365
I13
tp4366
a(I216
I1
F1.0
S'good'
p4367
I13
tp4368
a(I249
I10
F1.0
S'better'
p4369
I13
tp4370
a(I251
I1
F1.0
S'good'
p4371
I13
tp4372
a(I286
I1
I0
S'bright'
p4373
I13
tp4374
a(I290
I14
I0
S'big'
p4375
I13
tp4376
a(I319
I0
I0
S'cool'
p4377
I13
tp4378
a(I347
I0
F1.0
S'excellent'
p4379
I13
tp4380
a(I370
I26
F-0.625
S'sharp'
p4381
I13
tp4382
a(I388
I34
I0
S'quick'
p4383
I13
tp4384
a(I388
I34
F0.875
S'superb'
p4385
I13
tp4386
a(I388
I35
F-0.25
S'battery'
p4387
I13
tp4388
a(I396
I1
F0.875
S'amazing'
p4389
I13
tp4390
a(I401
I2
F0.875
S'awesome'
p4391
I13
tp4392
a(I411
I2
F-0.125
g4305
I13
tp4393
a(I411
I2
F1.0
g4309
I13
tp4394
a(I450
I0
F0.875
S'awesome'
p4395
I13
tp4396
a(I457
I0
F1.0
S'best'
p4397
I13
tp4398
a(I464
I1
F1.0
S'excellent'
p4399
I13
tp4400
a(I471
I9
F0.875
S'brilliant'
p4401
I13
tp4402
a(I485
I0
F-0.5
g4313
I13
tp4403
a(I509
I7
F1.0
S'good'
p4404
I13
tp4405
a(I540
I0
F-0.5
S'extra'
p4406
I13
tp4407
a(I540
I0
I0
S'bright'
p4408
I13
tp4409
a(I546
I2
F0.875
S'awesome'
p4410
I13
tp4411
a(I561
I25
F0.125
S'mobile'
p4412
I13
tp4413
a(I561
I25
I0
S't'
p4414
I13
tp4415
a(I561
I25
F1.0
S'good'
p4416
I13
tp4417
a(I561
I39
F1.0
S'good'
p4418
I13
tp4419
a(I562
I14
I0
S'sunlight'
p4420
I13
tp4421
a(I597
I1
F0.875
S'awesome'
p4422
I13
tp4423
a(I597
I1
F0.5
S'similar'
p4424
I13
tp4425
a(I611
I0
I0
S'inch'
p4426
I13
tp4427
a(I611
I1
F0.875
S'awesome'
p4428
I13
tp4429
a(I612
I0
I0
S'sunlight'
p4430
I13
tp4431
a(I623
I1
F0.5
S'crisp'
p4432
I13
tp4433
a(I648
I1
F0.875
S'great'
p4434
I13
tp4435
a(I664
I23
F0.5
S'crisp'
p4436
I13
tp4437
a(I664
I23
I0
S'clear'
p4438
I13
tp4439
a(I671
I0
F0.875
S'awesome'
p4440
I13
tp4441
a(I684
I2
F0.375
S'incomparable'
p4442
I13
tp4443
a(I690
I0
F1.0
S'excellent'
p4444
I13
tp4445
a(I710
I0
F1.0
g4317
I13
tp4446
a(I710
I1
I0
S'clear'
p4447
I13
tp4448
a(I710
I22
F0.75
S'due'
p4449
I13
tp4450
a(I732
I1
F0.625
S'super'
p4451
I13
tp4452
a(I765
I0
F-1.0
S'worst'
p4453
I13
tp4454
a(I795
I1
F-0.625
S'real'
p4455
I13
tp4456
a(I824
I0
F0.75
S'beautiful'
p4457
I13
tp4458
a(I831
I8
F0.5
S'touch'
p4459
I13
tp4460
a(I851
I1
I0
S'un'
p4461
I13
tp4462
a(I864
I1
F1.0
S'excellent'
p4463
I13
tp4464
a(I874
I5
F1.0
S'good'
p4465
I13
tp4466
a(I874
I5
F-0.125
S'overall'
p4467
I13
tp4468
a(I876
I14
I0
S'delicate'
p4469
I13
tp4470
a(I881
I12
F0.875
S'great'
p4471
I13
tp4472
a(I884
I1
I0
S'impressed'
p4473
I13
tp4474
a(I886
I1
F1.0
S'good'
p4475
I13
tp4476
a(I891
I2
F1.0
S'good'
p4477
I13
tp4478
a(I891
I15
F0.875
S'great'
p4479
I13
tp4480
a(I896
I5
I0
S'clear'
p4481
I13
tp4482
a(I905
I0
F0.875
S'brilliant'
p4483
I13
tp4484
a(I961
I1
F1.0
S'good'
p4485
I13
tp4486
a(I971
I10
F0.5
S'magnificent'
p4487
I13
tp4488
a(I971
I11
F0.75
g4325
I13
tp4489
a(I994
I0
F1.0
S'good'
p4490
I13
tp4491
a(I1005
I12
F1.0
S'good'
p4492
I13
tp4493
a(I1005
I12
F0.875
S'nice'
p4494
I13
tp4495
a(I1005
I12
I0
S'build'
p4496
I13
tp4497
a(I1032
I3
F0.875
S'awesome'
p4498
I13
tp4499
a(I1040
I0
F0.875
S'great'
p4500
I13
tp4501
a(I1070
I0
F1.0
S'good'
p4502
I13
tp4503
a(I1090
I0
F1.0
S'good'
p4504
I13
tp4505
a(I1104
I0
F1.0
S'excellent'
p4506
I13
tp4507
a(I1106
I2
F1.0
S'good'
p4508
I13
tp4509
a(I1129
I3
I0
S'sunlight'
p4510
I13
tp4511
a(I1162
I12
F1.0
S'good'
p4512
I13
tp4513
a(I1168
I2
F-0.625
S'blank'
p4514
I13
tp4515
a(I1189
I1
F1.0
S'good'
p4516
I13
tp4517
a(I1193
I1
F0.875
S'great'
p4518
I13
tp4519
a(I1207
I4
F0.75
S'gorgeous'
p4520
I13
tp4521
a(I1207
I4
F-0.625
S'sharp'
p4522
I13
tp4523
a(I1218
I0
F0.625
S'super'
p4524
I13
tp4525
a(I1220
I9
I0
S'cool'
p4526
I13
tp4527
a(I1220
I9
F0.5
S'touch'
p4528
I13
tp4529
a(I1229
I1
F1.0
S'good'
p4530
I13
tp4531
a(I1237
I16
F0.875
S'amazing'
p4532
I13
tp4533
a(I1237
I20
I0
S'sunlight'
p4534
I13
tp4535
a(I1237
I20
F1.0
S'good'
p4536
I13
tp4537
a(I1237
I67
F1.0
S'good'
p4538
I13
tp4539
a(I1237
I70
F0.875
S'amazing'
p4540
I13
tp4541
a(I1242
I1
F1.0
S'good'
p4542
I13
tp4543
a(I1244
I0
F-0.625
S'other'
p4544
I13
tp4545
a(I1257
I15
F0.875
S'amazing'
p4546
I13
tp4547
a(I1267
I0
F1.0
S'good'
p4548
I13
tp4549
a(I1267
I0
F1.0
S'excellent'
p4550
I13
tp4551
a(I1269
I0
F1.0
S'excellent'
p4552
I13
tp4553
a(I1269
I0
F0.5
S'crisp'
p4554
I13
tp4555
a(I1298
I3
F-0.75
S'dead'
p4556
I13
tp4557
a(I1305
I21
F0.375
S'classy'
p4558
I13
tp4559
a(I1309
I18
F0.5
S'high'
p4560
I13
tp4561
a(I1325
I2
I0
S'screen'
p4562
I13
tp4563
a(I1325
I3
F0.75
S'beautiful'
p4564
I13
tp4565
a(I1368
I1
F1.0
S'excellent'
p4566
I13
tp4567
a(I1379
I0
F1.0
S'good'
p4568
I13
tp4569
a(I1391
I13
F0.875
S'amazing'
p4570
I13
tp4571
a(I1391
I38
F0.875
S'brilliant'
p4572
I13
tp4573
a(I1394
I8
F1.0
S'best'
p4574
I13
tp4575
a(I1399
I0
I0
S'sunlight'
p4576
I13
tp4577
a(I1408
I2
F1.0
S'excellent'
p4578
I13
tp4579
a(I1433
I6
I0
g4335
I13
tp4580
a(I1433
I6
I0
g4337
I13
tp4581
a(I1453
I23
F0.875
S'awesome'
p4582
I13
tp4583
a(I1508
I1
F-0.125
S'ultimate'
p4584
I13
tp4585
a(I1514
I14
F0.875
S'awesome'
p4586
I13
tp4587
a(I1514
I14
F1.0
S'better'
p4588
I13
tp4589
a(I1518
I3
F0.5
S'similar'
p4590
I13
tp4591
a(I1556
I1
F-0.125
S'such'
p4592
I13
tp4593
a(I1564
I0
F0.875
S'nice'
p4594
I13
tp4595
a(I1564
I0
F0.5
S'crisp'
p4596
I13
tp4597
a(I1573
I2
F-0.25
S'dummy'
p4598
I13
tp4599
a(I1584
I3
F0.875
S'brilliant'
p4600
I13
tp4601
a(I1588
I7
F1.0
S'excellent'
p4602
I13
tp4603
a(I1589
I20
F0.875
S'great'
p4604
I13
tp4605
a(I1638
I13
F1.0
S'best'
p4606
I13
tp4607
a(I1641
I0
F1.0
S'excellent'
p4608
I13
tp4609
a(I1641
I1
F1.0
S'best'
p4610
I13
tp4611
a(I1688
I3
F0.875
S'great'
p4612
I13
tp4613
a(I1744
I27
F0.875
S'great'
p4614
I13
tp4615
a(I1762
I0
I0
S'sunlight'
p4616
I13
tp4617
a(I1762
I0
F1.0
S'good'
p4618
I13
tp4619
a(I1762
I1
F0.875
S'brilliant'
p4620
I13
tp4621
a(I1788
I2
F1.0
S'excellent'
p4622
I13
tp4623
a(I1789
I8
F0.875
S'awesome'
p4624
I13
tp4625
a(I1795
I1
F0.875
S'nice'
p4626
I13
tp4627
a(I1797
I7
F1.0
S'good'
p4628
I13
tp4629
a(I1798
I1
F1.0
S'best'
p4630
I13
tp4631
a(I1826
I1
F0.875
S'amazing'
p4632
I13
tp4633
a(I1844
I2
F1.0
S'good'
p4634
I13
tp4635
a(I1926
I4
F0.75
S'gorgeous'
p4636
I13
tp4637
a(I1926
I20
F0.25
S'worth'
p4638
I13
tp4639
a(I1966
I22
F1.0
S'good'
p4640
I13
tp4641
a(I1996
I1
F-0.125
S'ultimate'
p4642
I13
tp4643
a(I2012
I12
F-0.625
S'blank'
p4644
I13
tp4645
a(I2013
I1
F0.75
S'easy'
p4646
I13
tp4647
a(I2019
I14
F0.875
S'awesome'
p4648
I13
tp4649
a(I2019
I14
F0.875
S'great'
p4650
I13
tp4651
a(I2027
I0
F0.875
S'awesome'
p4652
I13
tp4653
a(I2045
I2
F0.75
S'beautiful'
p4654
I13
tp4655
a(I2045
I2
F1.0
S'good'
p4656
I13
tp4657
a(I2074
I3
F1.0
S'good'
p4658
I13
tp4659
a(I2086
I7
F0.875
S'awesome'
p4660
I13
tp4661
a(I2092
I0
I0
S'crystal'
p4662
I13
tp4663
a(I2092
I0
I0
S'clear'
p4664
I13
tp4665
a(I2092
I0
F0.875
S'awesome'
p4666
I13
tp4667
a(I2101
I0
F-0.75
S'faulty'
p4668
I13
tp4669
a(I2105
I0
F1.0
S'good'
p4670
I13
tp4671
a(I2118
I10
F1.0
S'good'
p4672
I13
tp4673
a(I2124
I1
F0.875
S'nice'
p4674
I13
tp4675
a(I2132
I1
F0.875
S'brilliant'
p4676
I13
tp4677
a(I2148
I7
F0.875
S'awesome'
p4678
I13
tp4679
a(I2151
I0
F0.875
S'awesome'
p4680
I13
tp4681
a(I2165
I9
F1.0
S'good'
p4682
I13
tp4683
a(I2176
I0
F1.0
S'good'
p4684
I13
tp4685
a(I2189
I0
F1.0
S'good'
p4686
I13
tp4687
a(I2204
I0
F0.875
S'nice'
p4688
I13
tp4689
as(S'value'
p4690
S'for'
p4691
S'money'
p4692
tp4693
(lp4694
(I208
I52
F0.875
S'solid'
p4695
I4
tp4696
a(I479
I2
F0.875
S'great'
p4697
I4
tp4698
a(I536
I16
F0.75
S'sophisticated'
p4699
I4
tp4700
a(I727
I0
F1.0
S'good'
p4701
I4
tp4702
a(I1178
I17
F-0.125
S'overall'
p4703
I4
tp4704
a(I1178
I17
F0.875
S'great'
p4705
I4
tp4706
a(I1575
I3
F1.0
S'best'
p4707
I4
tp4708
a(I1589
I22
F0.375
S'full'
p4709
I4
tp4710
a(I1642
I1
F1.0
S'good'
p4711
I4
tp4712
a(I1671
I12
F1.0
S'good'
p4713
I4
tp4714
a(I1688
I4
F0.875
S'nice'
p4715
I4
tp4716
a(I2111
I0
F0.75
S'perfect'
p4717
I4
tp4718
as(S'flipkart'
p4719
S'return'
p4720
S'policy'
p4721
tp4722
(lp4723
(I19
I8
F1.0
S'good'
p4724
I0
tp4725
a(I19
I10
F-0.75
S'disgusting'
p4726
I0
tp4727
a(I683
I7
F-0.5
S'called'
p4728
I0
tp4729
a(I683
I7
F0.75
S'easy'
p4730
I0
tp4731
a(I683
I7
F1.0
S'good'
p4732
I0
tp4733
a(I766
I0
F-0.875
S'wrong'
p4734
I0
tp4735
a(I1892
I29
F-0.875
S'pathetic'
p4736
I0
tp4737
a(I1906
I3
F-0.5
S'disappointed'
p4738
I0
tp4739
a(I1906
I8
F-1.0
S'worst'
p4740
I0
tp4741
a(I1993
I18
F0.5
S'possible'
p4742
I0
tp4743
a(I7
I2
F-0.75
S'hidden'
p4744
I1
tp4745
a(I19
I8
F1.0
g4724
I1
tp4746
a(I19
I10
F-0.75
g4726
I1
tp4747
a(I402
I1
F-1.0
S'bad'
p4748
I1
tp4749
a(I683
I7
F-0.5
g4728
I1
tp4750
a(I683
I7
F0.75
g4730
I1
tp4751
a(I683
I7
F1.0
g4732
I1
tp4752
a(I766
I0
F-0.875
g4734
I1
tp4753
a(I1892
I29
F-0.875
g4736
I1
tp4754
a(I1906
I3
F-0.5
g4738
I1
tp4755
a(I1906
I8
F-1.0
g4740
I1
tp4756
a(I1993
I18
F0.5
g4742
I1
tp4757
as(S'day'
p4758
S'to'
p4759
S'day'
p4760
tp4761
(lp4762
(I114
I7
I0
S'u'
p4763
I0
tp4764
a(I117
I19
I0
S'third'
p4765
I0
tp4766
a(I117
I19
I0
S'update'
p4767
I0
tp4768
a(I209
I1
F-0.125
S'next'
p4769
I0
tp4770
a(I422
I14
F0.375
S'full'
p4771
I0
tp4772
a(I447
I0
F0.625
S'first'
p4773
I0
tp4774
a(I561
I3
F-0.75
S'single'
p4775
I0
tp4776
a(I727
I5
F0.75
S'whole'
p4777
I0
tp4778
a(I877
I14
F0.5
S'sunny'
p4779
I0
tp4780
a(I878
I1
I0
S'comfortable'
p4781
I0
tp4782
a(I931
I1
F-0.25
S'i'
p4783
I0
tp4784
a(I1114
I3
F-0.125
S'next'
p4785
I0
tp4786
a(I1377
I12
F-0.125
S'next'
p4787
I0
tp4788
a(I1719
I0
F0.625
S'first'
p4789
I0
tp4790
a(I1785
I2
F-0.625
S'moderate'
p4791
I0
tp4792
a(I1898
I3
F-0.125
S'next'
p4793
I0
tp4794
a(I1918
I12
I0
S'5th'
p4795
I0
tp4796
a(I1974
I5
F-0.125
S'lighting'
p4797
I0
tp4798
a(I1978
I2
F0.875
S'happy'
p4799
I0
tp4800
a(I2012
I1
F0.625
S'first'
p4801
I0
tp4802
a(I2031
I35
F0.625
S'first'
p4803
I0
tp4804
as(S'pixel'
p4805
S'density'
p4806
tp4807
(lp4808
(I156
I0
F1.0
S'good'
p4809
I0
tp4810
as(S'pen'
p4811
S'drive'
p4812
tp4813
(lp4814
(I249
I52
I0
S'pen'
p4815
I0
tp4816
a(I282
I9
I0
S'pen'
p4817
I0
tp4818
a(I551
I0
I0
S'pen'
p4819
I0
tp4820
a(I1442
I0
I0
S'pen'
p4821
I0
tp4822
as(S'in'
p4823
S'price'
p4824
S'range'
p4825
tp4826
(lp4827
(I249
I37
F0.5
S'similar'
p4828
I0
tp4829
a(I610
I1
I0
S'mid'
p4830
I0
tp4831
a(I1171
I6
F0.125
S'mobile'
p4832
I0
tp4833
a(I1189
I11
F-0.375
S'same'
p4834
I0
tp4835
a(I1782
I16
F-0.125
S'overall'
p4836
I0
tp4837
a(I1937
I8
F-0.375
S'same'
p4838
I0
tp4839
a(I2009
I8
F1.0
S'better'
p4840
I0
tp4841
a(I2102
I11
F0.75
S'perfect'
p4842
I0
tp4843
a(I2132
I7
F1.0
S'best'
p4844
I0
tp4845
a(I249
I37
F0.5
g4828
I13
tp4846
a(I610
I1
I0
g4830
I13
tp4847
a(I1171
I6
F0.125
g4832
I13
tp4848
a(I1189
I11
F-0.375
g4834
I13
tp4849
a(I1207
I46
F0.875
S'decent'
p4850
I13
tp4851
a(I1606
I8
F0.5
S'higher'
p4852
I13
tp4853
a(I1782
I16
F-0.125
g4836
I13
tp4854
a(I1937
I8
F-0.375
g4838
I13
tp4855
a(I2009
I8
F1.0
g4840
I13
tp4856
a(I2102
I11
F0.75
g4842
I13
tp4857
a(I2132
I7
F1.0
g4844
I13
tp4858
as(S'slim'
p4859
tp4860
(lp4861
(I56
I0
F0.75
S'due'
p4862
I6
tp4863
a(I93
I1
F0.625
S'cover'
p4864
I6
tp4865
a(I93
I1
I0
S'light'
p4866
I6
tp4867
a(I93
I1
F-0.25
S'i'
p4868
I6
tp4869
a(I93
I1
F-0.75
S'slippery'
p4870
I6
tp4871
a(I673
I0
F0.375
S'compact'
p4872
I6
tp4873
a(I840
I0
F1.0
S'good'
p4874
I6
tp4875
a(I840
I0
F0.625
S'super'
p4876
I6
tp4877
a(I1152
I14
F-0.625
S'quite'
p4878
I6
tp4879
a(I1352
I2
F0.875
S'attractive'
p4880
I6
tp4881
a(I1714
I0
F1.0
S'good'
p4882
I6
tp4883
a(I1892
I18
F-0.875
S'small'
p4884
I6
tp4885
a(I2108
I7
F0.875
S'nice'
p4886
I6
tp4887
a(I2108
I7
I0
S'light'
p4888
I6
tp4889
a(I2109
I0
I0
S'light'
p4890
I6
tp4891
as(S'full'
p4892
S'hd'
p4893
S'screen'
p4894
tp4895
(lp4896
(I390
I2
F0.375
S'full'
p4897
I0
tp4898
a(I391
I5
F0.375
S'full'
p4899
I0
tp4900
a(I877
I10
F0.375
S'full'
p4901
I0
tp4902
a(I1258
I0
F0.375
g4327
I0
tp4903
a(I1292
I1
I0
S'screen'
p4904
I0
tp4905
a(I1705
I0
F0.875
S'nice'
p4906
I0
tp4907
a(I1705
I0
F0.375
S'full'
p4908
I0
tp4909
a(I224
I5
F0.375
g4303
I0
tp4910
a(I238
I34
F0.375
S'full'
p4911
I0
tp4912
a(I241
I0
F0.375
S'full'
p4913
I0
tp4914
a(I390
I2
F0.375
g4897
I0
tp4915
a(I391
I5
F0.375
g4899
I0
tp4916
a(I391
I23
F0.375
S'full'
p4917
I0
tp4918
a(I411
I2
F0.375
g4307
I0
tp4919
a(I485
I0
F0.375
g4311
I0
tp4920
a(I710
I0
F0.375
g4315
I0
tp4921
a(I785
I2
F-0.25
g4319
I0
tp4922
a(I785
I2
F0.375
g4321
I0
tp4923
a(I787
I4
F0.375
S'full'
p4924
I0
tp4925
a(I877
I10
F0.375
g4901
I0
tp4926
a(I881
I6
F0.375
S'full'
p4927
I0
tp4928
a(I947
I18
F0.375
g4323
I0
tp4929
a(I1258
I0
F0.375
g4327
I0
tp4930
a(I1272
I0
F-0.125
g4329
I0
tp4931
a(I1292
I1
I0
g4904
I0
tp4932
a(I1433
I6
F1.0
g4331
I0
tp4933
a(I1433
I6
F0.375
g4333
I0
tp4934
a(I1655
I2
F1.0
S'good'
p4935
I0
tp4936
a(I1705
I0
F0.875
g4906
I0
tp4937
a(I1705
I0
F0.375
g4908
I0
tp4938
a(I1805
I1
F0.375
S'full'
p4939
I0
tp4940
a(I1952
I14
F0.375
S'full'
p4941
I0
tp4942
a(I1272
I0
F-0.125
g4329
I14
tp4943
as(S'need'
p4944
tp4945
(lp4946
(I1385
I2
F0.375
S'much'
p4947
I9
tp4948
a(I1695
I1
I0
S'additional'
p4949
I9
tp4950
a(I1975
I18
F0.75
S'due'
p4951
I9
tp4952
a(I2012
I12
F-0.75
S'black'
p4953
I9
tp4954
as(S'miui'
p4955
tp4956
(lp4957
(I24
I3
F0.5
S'stable'
p4958
I0
tp4959
a(I131
I4
I0
S'updated'
p4960
I0
tp4961
a(I131
I4
F-0.25
S'latest'
p4962
I0
tp4963
a(I169
I0
F0.875
S'great'
p4964
I0
tp4965
a(I174
I0
F1.0
S'good'
p4966
I0
tp4967
a(I224
I6
I0
S'android'
p4968
I0
tp4969
a(I289
I1
F-0.875
S'unfriendly'
p4970
I0
tp4971
a(I365
I5
F-0.625
S'new'
p4972
I0
tp4973
a(I370
I17
I0
S'update'
p4974
I0
tp4975
a(I371
I3
I0
S'own'
p4976
I0
tp4977
a(I391
I26
F-0.25
S'latest'
p4978
I0
tp4979
a(I458
I0
F-0.25
S'i'
p4980
I0
tp4981
a(I648
I1
F-0.5
S'buttery'
p4982
I0
tp4983
a(I692
I0
F-0.625
S'new'
p4984
I0
tp4985
a(I714
I0
F-0.625
S'other'
p4986
I0
tp4987
a(I714
I0
F0.625
S'manageable'
p4988
I0
tp4989
a(I714
I0
F1.0
S'good'
p4990
I0
tp4991
a(I749
I3
F-0.75
S'difficult'
p4992
I0
tp4993
a(I802
I0
I0
S'cool'
p4994
I0
tp4995
a(I826
I1
F-0.25
S'latest'
p4996
I0
tp4997
a(I849
I0
F1.0
S'good'
p4998
I0
tp4999
a(I890
I1
F-0.25
S'latest'
p5000
I0
tp5001
a(I947
I17
F-0.5
S'heavy'
p5002
I0
tp5003
a(I956
I16
F-0.25
S'latest'
p5004
I0
tp5005
a(I987
I2
F0.25
S'hyped'
p5006
I0
tp5007
a(I1005
I12
F0.875
S'nice'
p5008
I0
tp5009
a(I1012
I11
I0
S'current'
p5010
I0
tp5011
a(I1114
I13
F0.875
S'great'
p5012
I0
tp5013
a(I1162
I0
F-0.75
S'little'
p5014
I0
tp5015
a(I1186
I3
F0.875
S'great'
p5016
I0
tp5017
a(I1207
I41
I0
S'comfortable'
p5018
I0
tp5019
a(I1394
I21
F0.875
S'great'
p5020
I0
tp5021
a(I1419
I2
F0.875
S'awesome'
p5022
I0
tp5023
a(I1518
I6
F1.0
S'good'
p5024
I0
tp5025
a(I1588
I16
I0
S'user'
p5026
I0
tp5027
a(I1668
I3
F0.875
S'awesome'
p5028
I0
tp5029
a(I1718
I9
F0.875
S'happy'
p5030
I0
tp5031
a(I1744
I17
F-0.25
S'latest'
p5032
I0
tp5033
a(I1803
I1
F1.0
S'good'
p5034
I0
tp5035
a(I1828
I1
F0.75
S'easy'
p5036
I0
tp5037
a(I1952
I6
F-0.5
S'slow'
p5038
I0
tp5039
a(I2028
I1
F-0.125
S'complex'
p5040
I0
tp5041
a(I2031
I14
I0
S'update'
p5042
I0
tp5043
as(S'people'
p5044
tp5045
(lp5046
(I93
I10
I0
S'many'
p5047
I5
tp5048
a(I93
I11
F0.5
S'perception'
p5049
I5
tp5050
a(I139
I3
I0
S'many'
p5051
I5
tp5052
a(I139
I3
F0.5
S'possible'
p5053
I5
tp5054
a(I152
I24
F-0.625
S'average'
p5055
I5
tp5056
a(I208
I0
I0
S'many'
p5057
I5
tp5058
a(I208
I43
F-0.125
S'con'
p5059
I5
tp5060
a(I209
I5
I0
S's'
p5061
I5
tp5062
a(I209
I8
F0.5
S'careful'
p5063
I5
tp5064
a(I212
I3
I0
S'normal'
p5065
I5
tp5066
a(I249
I14
I0
S'many'
p5067
I5
tp5068
a(I249
I48
I0
S'many'
p5069
I5
tp5070
a(I320
I0
I0
S't'
p5071
I5
tp5072
a(I320
I0
I0
S'many'
p5073
I5
tp5074
a(I362
I7
I0
S'many'
p5075
I5
tp5076
a(I362
I7
I0
S'many'
p5077
I5
tp5078
a(I362
I7
F0.5
S'similar'
p5079
I5
tp5080
a(I362
I8
I0
S'forums'
p5081
I5
tp5082
a(I382
I10
I0
S'many'
p5083
I5
tp5084
a(I388
I20
F0.5
S'large'
p5085
I5
tp5086
a(I515
I43
F0.625
S'aware'
p5087
I5
tp5088
a(I523
I43
F-0.125
S'overall'
p5089
I5
tp5090
a(I526
I0
I0
S'many'
p5091
I5
tp5092
a(I535
I11
I0
S'many'
p5093
I5
tp5094
a(I596
I4
F0.375
S'much'
p5095
I5
tp5096
a(I596
I4
I0
S'u'
p5097
I5
tp5098
a(I791
I0
F0.125
S'mobile'
p5099
I5
tp5100
a(I797
I4
F0.5
S'technical'
p5101
I5
tp5102
a(I876
I28
I0
S'many'
p5103
I5
tp5104
a(I987
I19
I0
S'many'
p5105
I5
tp5106
a(I1207
I18
I0
S'many'
p5107
I5
tp5108
a(I1471
I12
F-0.625
S'other'
p5109
I5
tp5110
a(I1757
I7
F-0.125
S'present'
p5111
I5
tp5112
a(I1797
I2
F0.375
S'much'
p5113
I5
tp5114
a(I1812
I1
I0
S'many'
p5115
I5
tp5116
a(I1894
I7
F0.625
S'fool'
p5117
I5
tp5118
a(I1912
I16
F-0.625
S'other'
p5119
I5
tp5120
a(I2036
I3
I0
S'indian'
p5121
I5
tp5122
as(S'no'
p5123
S'memory'
p5124
S'card'
p5125
tp5126
(lp5127
(I116
I1
F-0.625
g4138
I0
tp5128
a(I116
I1
F-0.25
g4140
I0
tp5129
a(I117
I22
F-0.25
g4142
I0
tp5130
a(I117
I22
F0.125
g4144
I0
tp5131
a(I180
I5
F-0.625
S'other'
p5132
I0
tp5133
a(I417
I5
F0.5
g2546
I0
tp5134
a(I900
I2
F-0.25
g4154
I0
tp5135
a(I1297
I0
F-0.5
g1081
I0
tp5136
a(I1297
I0
F0.5
g1083
I0
tp5137
a(I1385
I0
F-0.25
S'external'
p5138
I0
tp5139
a(I1851
I1
F0.25
S'able'
p5140
I0
tp5141
a(I2122
I7
F-0.25
g4156
I0
tp5142
a(I116
I1
F-0.625
g4138
I4
tp5143
a(I116
I1
F-0.25
g4140
I4
tp5144
a(I117
I22
F-0.25
g4142
I4
tp5145
a(I117
I22
F0.125
g4144
I4
tp5146
a(I340
I1
F-0.25
g4146
I4
tp5147
a(I340
I1
F0.5
g4148
I4
tp5148
a(I417
I5
F0.5
g2546
I4
tp5149
a(I849
I0
F0.5
g4150
I4
tp5150
a(I849
I0
F-0.25
g4152
I4
tp5151
a(I900
I2
F-0.25
g4154
I4
tp5152
a(I1267
I16
F0.5
S'internal'
p5153
I4
tp5154
a(I1267
I16
F-0.875
S'insufficient'
p5155
I4
tp5156
a(I1297
I0
F-0.5
g1081
I4
tp5157
a(I1297
I0
F0.5
g1083
I4
tp5158
a(I1385
I2
I0
S'mem'
p5159
I4
tp5160
a(I1851
I1
F0.25
g5140
I4
tp5161
a(I2122
I7
F-0.25
g4156
I4
tp5162
a(I37
I0
F-0.875
S'limited'
p5163
I10
tp5164
a(I116
I1
F-0.625
g4138
I10
tp5165
a(I116
I1
F-0.25
g4140
I10
tp5166
a(I117
I18
F0.625
S'first'
p5167
I10
tp5168
a(I117
I18
F-0.75
S'free'
p5169
I10
tp5170
a(I117
I19
F-0.75
S'free'
p5171
I10
tp5172
a(I117
I22
F-0.25
g4142
I10
tp5173
a(I117
I22
F0.125
g4144
I10
tp5174
a(I117
I25
F-0.875
S'low'
p5175
I10
tp5176
a(I138
I13
I0
S'most'
p5177
I10
tp5178
a(I183
I0
F-0.75
S'short'
p5179
I10
tp5180
a(I220
I2
F0.375
S'available'
p5181
I10
tp5182
a(I229
I2
F0.5
g1065
I10
tp5183
a(I249
I50
F0.625
S'extendable'
p5184
I10
tp5185
a(I290
I12
F-0.25
S'external'
p5186
I10
tp5187
a(I340
I1
F-0.25
g4146
I10
tp5188
a(I340
I1
F0.5
g4148
I10
tp5189
a(I391
I29
F-0.25
S'external'
p5190
I10
tp5191
a(I509
I0
F0.5
S'higher'
p5192
I10
tp5193
a(I509
I10
F0.5
g1067
I10
tp5194
a(I523
I23
F0.5
S'internal'
p5195
I10
tp5196
a(I550
I2
F-0.875
S'low'
p5197
I10
tp5198
a(I561
I41
F0.5
g1069
I10
tp5199
a(I595
I1
F0.75
S'fair'
p5200
I10
tp5201
a(I710
I57
F0.5
g1071
I10
tp5202
a(I726
I14
F0.375
S'workable'
p5203
I10
tp5204
a(I737
I9
F0.5
g1073
I10
tp5205
a(I748
I1
F0.5
g1075
I10
tp5206
a(I798
I1
F1.0
S'good'
p5207
I10
tp5208
a(I849
I0
F0.5
g4150
I10
tp5209
a(I849
I0
F-0.25
g4152
I10
tp5210
a(I876
I7
F0.5
S'internal'
p5211
I10
tp5212
a(I882
I0
F-0.25
S'external'
p5213
I10
tp5214
a(I900
I2
F-0.25
g4154
I10
tp5215
a(I956
I3
F0.5
g1111
I10
tp5216
a(I977
I6
F0.375
S'available'
p5217
I10
tp5218
a(I1054
I1
F0.5
g1077
I10
tp5219
a(I1172
I4
F0.5
S'internal'
p5220
I10
tp5221
a(I1172
I4
F0.5
S'possible'
p5222
I10
tp5223
a(I1186
I14
F-0.875
S'low'
p5224
I10
tp5225
a(I1187
I7
I0
S'gb'
p5226
I10
tp5227
a(I1187
I7
F0.5
S'internal'
p5228
I10
tp5229
a(I1187
I7
F-0.5
S'less'
p5230
I10
tp5231
a(I1225
I4
F0.5
g1079
I10
tp5232
a(I1267
I16
F0.5
g5153
I10
tp5233
a(I1267
I16
F-0.875
g5155
I10
tp5234
a(I1286
I36
F0.375
S'full'
p5235
I10
tp5236
a(I1297
I0
F-0.5
g1081
I10
tp5237
a(I1297
I0
F0.5
g1083
I10
tp5238
a(I1305
I49
I0
S'update'
p5239
I10
tp5240
a(I1305
I49
I0
S'n'
p5241
I10
tp5242
a(I1357
I1
F0.5
g1085
I10
tp5243
a(I1365
I1
I0
S'more'
p5244
I10
tp5245
a(I1394
I25
F-0.875
S'limited'
p5246
I10
tp5247
a(I1404
I12
I0
S'more'
p5248
I10
tp5249
a(I1404
I13
F-0.25
S'occupied'
p5250
I10
tp5251
a(I1418
I1
F0.5
g1087
I10
tp5252
a(I1441
I0
F-0.25
S'external'
p5253
I10
tp5254
a(I1441
I0
F-0.75
S'sufficient'
p5255
I10
tp5256
a(I1551
I13
F-0.25
S'ram'
p5257
I10
tp5258
a(I1551
I17
F0.5
g1089
I10
tp5259
a(I1621
I4
F0.5
g1091
I10
tp5260
a(I1638
I16
F0.5
S'internal'
p5261
I10
tp5262
a(I1711
I0
F0.5
g1093
I10
tp5263
a(I1766
I5
F0.625
S'extendable'
p5264
I10
tp5265
a(I1824
I4
I0
S'user'
p5266
I10
tp5267
a(I1851
I1
F0.25
g5140
I10
tp5268
a(I1926
I10
F0.375
S'available'
p5269
I10
tp5270
a(I1933
I1
I0
S'user'
p5271
I10
tp5272
a(I1933
I1
I0
S'earphones'
p5273
I10
tp5274
a(I1941
I1
F0.5
g1124
I10
tp5275
a(I1952
I9
F-0.25
S'external'
p5276
I10
tp5277
a(I1952
I9
F0.5
S'internal'
p5278
I10
tp5279
a(I1952
I12
F0.5
g1126
I10
tp5280
a(I1975
I18
F-0.875
S'limited'
p5281
I10
tp5282
a(I1975
I18
F0.5
S'internal'
p5283
I10
tp5284
a(I1991
I4
F0.5
g1097
I10
tp5285
a(I2001
I10
F0.5
g1129
I10
tp5286
a(I2053
I2
F0.75
S'expendable'
p5287
I10
tp5288
a(I2060
I0
F0.5
g1099
I10
tp5289
a(I2109
I0
F0.125
S'draw'
p5290
I10
tp5291
a(I2122
I7
F-0.25
g4156
I10
tp5292
a(I2157
I2
F0.5
g1101
I10
tp5293
a(I2157
I4
F-0.125
S'overall'
p5294
I10
tp5295
a(I2183
I1
F0.5
g1103
I10
tp5296
a(I2188
I2
F0.5
S'extensible'
p5297
I10
tp5298
a(I2191
I1
F-0.875
S'low'
p5299
I10
tp5300
a(I2191
I1
F0.5
S'internal'
p5301
I10
tp5302
as(S'frying'
p5303
S'pan'
p5304
tp5305
(lp5306
(I1897
I31
F-0.875
S'cheaper'
p5307
I0
tp5308
a(I1897
I31
F1.0
S'better'
p5309
I0
tp5310
as(S'thanks'
p5311
S'to'
p5312
S'flipkart'
p5313
tp5314
(lp5315
(I1195
I13
I0
S'big'
p5316
I1
tp5317
a(I1217
I0
F0.75
S'wonderful'
p5318
I1
tp5319
a(I1217
I0
I0
S'mi'
p5320
I1
tp5321
a(I1848
I2
F0.5
S'second'
p5322
I1
tp5323
a(I1913
I0
F0.125
S'mobile'
p5324
I1
tp5325
as(S'think'
p5326
tp5327
(lp5328
(I1913
I1
F0.125
S'please'
p5329
I16
tp5330
as(S'camera'
p5331
S'both'
p5332
S'front'
p5333
tp5334
(lp5335
(I81
I2
F-0.75
g691
I0
tp5336
a(I81
I2
F0.875
g693
I0
tp5337
a(I197
I4
F1.0
g393
I0
tp5338
a(I297
I0
F1.0
g701
I0
tp5339
a(I415
I2
F0.375
g711
I0
tp5340
a(I841
I1
F1.0
g403
I0
tp5341
a(I959
I3
F1.0
g405
I0
tp5342
a(I1100
I3
F1.0
g747
I0
tp5343
a(I1237
I38
F-0.125
g762
I0
tp5344
a(I1292
I1
F0.375
g766
I0
tp5345
a(I1490
I1
F1.0
g779
I0
tp5346
a(I1698
I1
F1.0
g429
I0
tp5347
a(I1748
I1
F1.0
g435
I0
tp5348
a(I1789
I7
F1.0
g437
I0
tp5349
a(I1789
I7
I0
g439
I0
tp5350
a(I2012
I17
F1.0
g453
I0
tp5351
a(I2122
I4
I0
g809
I0
tp5352
as(S'device'
p5353
tp5354
(lp5355
(I53
I2
F-0.75
S'warm'
p5356
I11
tp5357
a(I81
I18
I0
S'flagship'
p5358
I11
tp5359
a(I104
I4
F0.875
S'great'
p5360
I11
tp5361
a(I148
I1
F-0.5
S'disappointed'
p5362
I11
tp5363
a(I152
I16
I0
S'normal'
p5364
I11
tp5365
a(I208
I44
F-0.5
S'gamer'
p5366
I11
tp5367
a(I208
I46
I0
S'u'
p5368
I11
tp5369
a(I208
I46
F1.0
S'good'
p5370
I11
tp5371
a(I208
I68
I0
S'update'
p5372
I11
tp5373
a(I208
I89
F0.875
S'great'
p5374
I11
tp5375
a(I213
I3
I0
S't'
p5376
I11
tp5377
a(I213
I3
F-0.75
S'warmer'
p5378
I11
tp5379
a(I213
I3
F-0.625
S'other'
p5380
I11
tp5381
a(I250
I16
F-0.5
S'long'
p5382
I11
tp5383
a(I282
I2
F0.75
S'perfect'
p5384
I11
tp5385
a(I356
I5
F-0.5
S'replaced'
p5386
I11
tp5387
a(I362
I7
F-0.75
S'defective'
p5388
I11
tp5389
a(I362
I8
F-0.75
S'defective'
p5390
I11
tp5391
a(I365
I1
F-0.75
S'free'
p5392
I11
tp5393
a(I386
I2
F-0.5
S'less'
p5394
I11
tp5395
a(I476
I2
F-0.875
S'strong'
p5396
I11
tp5397
a(I503
I0
F0.375
S'heated'
p5398
I11
tp5399
a(I535
I0
F-0.625
S'other'
p5400
I11
tp5401
a(I562
I15
F-0.125
S'overall'
p5402
I11
tp5403
a(I562
I15
F0.875
S'great'
p5404
I11
tp5405
a(I655
I4
F-0.75
S'faulty'
p5406
I11
tp5407
a(I655
I9
I0
S'update'
p5408
I11
tp5409
a(I684
I18
F0.875
S'brilliant'
p5410
I11
tp5411
a(I825
I16
F0.75
S'perfect'
p5412
I11
tp5413
a(I912
I0
F0.375
S'full'
p5414
I11
tp5415
a(I913
I0
F1.0
S'good'
p5416
I11
tp5417
a(I956
I1
F-0.125
S'such'
p5418
I11
tp5419
a(I987
I39
F0.5
S'ready'
p5420
I11
tp5421
a(I987
I51
F1.0
S'good'
p5422
I11
tp5423
a(I987
I51
F-0.5
S'longer'
p5424
I11
tp5425
a(I1029
I0
F0.875
S'great'
p5426
I11
tp5427
a(I1054
I2
F0.875
S'nice'
p5428
I11
tp5429
a(I1054
I3
I0
S'ur'
p5430
I11
tp5431
a(I1114
I16
I0
S'least'
p5432
I11
tp5433
a(I1114
I17
F0.25
S'worth'
p5434
I11
tp5435
a(I1120
I3
F-0.875
S'poor'
p5436
I11
tp5437
a(I1153
I1
F0.5
S'sturdy'
p5438
I11
tp5439
a(I1156
I0
F0.875
S'great'
p5440
I11
tp5441
a(I1178
I20
F0.25
S'been'
p5442
I11
tp5443
a(I1207
I36
I0
S'cellular'
p5444
I11
tp5445
a(I1207
I36
F0.875
S'nice'
p5446
I11
tp5447
a(I1207
I46
F0.5
S'high'
p5448
I11
tp5449
a(I1259
I3
I0
S'least'
p5450
I11
tp5451
a(I1259
I3
I0
S'hrs'
p5452
I11
tp5453
a(I1260
I1
F1.0
S'good'
p5454
I11
tp5455
a(I1266
I6
I0
S'least'
p5456
I11
tp5457
a(I1284
I3
F0.5
S'sturdy'
p5458
I11
tp5459
a(I1286
I11
F-0.75
S'warm'
p5460
I11
tp5461
a(I1305
I43
F-0.375
S'exceptional'
p5462
I11
tp5463
a(I1453
I25
I0
S'more'
p5464
I11
tp5465
a(I1470
I0
F1.0
S'best'
p5466
I11
tp5467
a(I1470
I0
I0
S'configured'
p5468
I11
tp5469
a(I1576
I11
F0.5
S'magnificent'
p5470
I11
tp5471
a(I1605
I0
I0
S'4th'
p5472
I11
tp5473
a(I1619
I23
F0.875
S'happy'
p5474
I11
tp5475
a(I1621
I6
F1.0
S'good'
p5476
I11
tp5477
a(I1690
I13
F0.75
S'wonderful'
p5478
I11
tp5479
a(I1723
I9
F0.875
S'nice'
p5480
I11
tp5481
a(I1766
I1
F1.0
S'best'
p5482
I11
tp5483
a(I1795
I2
I0
S'rubbish'
p5484
I11
tp5485
a(I1796
I2
F-0.125
S'such'
p5486
I11
tp5487
a(I1797
I8
F0.875
S'greater'
p5488
I11
tp5489
a(I1892
I22
F-0.625
S'new'
p5490
I11
tp5491
a(I1892
I24
F-0.625
S'new'
p5492
I11
tp5493
a(I1926
I1
F0.75
S'primary'
p5494
I11
tp5495
a(I1926
I18
F0.875
S'great'
p5496
I11
tp5497
a(I1927
I2
F0.25
S'worth'
p5498
I11
tp5499
a(I1937
I15
F-0.75
S'stupid'
p5500
I11
tp5501
a(I1966
I35
F0.875
S'healthy'
p5502
I11
tp5503
a(I1993
I3
I-100
S'andriod'
p5504
I11
tp5505
a(I2031
I26
I0
S'android'
p5506
I11
tp5507
a(I2134
I3
F0.625
S'smooth'
p5508
I11
tp5509
as(g3085
S'prone'
p5510
tp5511
(lp5512
(I68
I0
I0
g3088
I0
tp5513
a(I743
I0
I0
S'finger'
p5514
I0
tp5515
a(I743
I0
F0.75
S'white'
p5516
I0
tp5517
a(I743
I0
F-0.75
S'black'
p5518
I0
tp5519
a(I745
I0
I0
g3090
I0
tp5520
as(S'memory'
p5521
S'card'
p5522
S'slot'
p5523
tp5524
(lp5525
(I116
I1
F-0.625
g4138
I0
tp5526
a(I116
I1
F-0.25
g4140
I0
tp5527
a(I117
I22
F-0.25
g4142
I0
tp5528
a(I117
I22
F0.125
g4144
I0
tp5529
a(I340
I1
F-0.25
g4146
I0
tp5530
a(I340
I1
F0.5
g4148
I0
tp5531
a(I387
I4
I0
g2544
I0
tp5532
a(I417
I5
F0.5
g2546
I0
tp5533
a(I849
I0
F0.5
g4150
I0
tp5534
a(I849
I0
F-0.25
g4152
I0
tp5535
a(I900
I2
F-0.25
g4154
I0
tp5536
a(I1267
I16
F0.5
g5153
I0
tp5537
a(I1267
I16
F-0.875
g5155
I0
tp5538
a(I1297
I0
F-0.5
g1081
I0
tp5539
a(I1297
I0
F0.5
g1083
I0
tp5540
a(I1851
I1
F0.25
g5140
I0
tp5541
a(I2018
I0
F-0.5
g2549
I0
tp5542
as(S'camera'
p5543
S'quality'
p5544
tp5545
(lp5546
(I6
I1
F-0.875
S'poor'
p5547
I14
tp5548
a(I81
I2
F0.875
g2270
I14
tp5549
a(I81
I2
I0
g2272
I14
tp5550
a(I81
I2
F-0.75
g691
I14
tp5551
a(I81
I2
F0.875
g693
I14
tp5552
a(I123
I0
F-0.875
S'low'
p5553
I14
tp5554
a(I208
I26
F-0.625
S'other'
p5555
I14
tp5556
a(I208
I26
F0.125
S'display'
p5557
I14
tp5558
a(I224
I3
F-0.125
S'overall'
p5559
I14
tp5560
a(I282
I11
F0.5
g253
I14
tp5561
a(I371
I1
F1.0
S'good'
p5562
I14
tp5563
a(I378
I5
F1.0
S'good'
p5564
I14
tp5565
a(I523
I67
F1.0
g2294
I14
tp5566
a(I536
I10
F-0.375
S'picture'
p5567
I14
tp5568
a(I561
I4
F-0.625
S'average'
p5569
I14
tp5570
a(I620
I2
F0.75
g2906
I14
tp5571
a(I620
I2
F0.625
g2908
I14
tp5572
a(I620
I2
F1.0
g517
I14
tp5573
a(I726
I10
F0.875
g522
I14
tp5574
a(I726
I10
F0.875
g275
I14
tp5575
a(I726
I10
I0
g277
I14
tp5576
a(I726
I10
I0
g279
I14
tp5577
a(I841
I1
F1.0
g403
I14
tp5578
a(I849
I0
F1.0
S'better'
p5579
I14
tp5580
a(I865
I1
F1.0
S'best'
p5581
I14
tp5582
a(I871
I1
F0.875
S'awesome'
p5583
I14
tp5584
a(I871
I1
F-0.125
S'front'
p5585
I14
tp5586
a(I871
I1
I0
S'rear'
p5587
I14
tp5588
a(I882
I6
F0.75
S'perfect'
p5589
I14
tp5590
a(I891
I22
F-0.625
S'average'
p5591
I14
tp5592
a(I900
I2
F1.0
S'good'
p5593
I14
tp5594
a(I925
I0
F1.0
S'good'
p5595
I14
tp5596
a(I971
I5
F0.875
S'brilliant'
p5597
I14
tp5598
a(I971
I5
F-0.125
S'front'
p5599
I14
tp5600
a(I971
I5
I0
S'rear'
p5601
I14
tp5602
a(I1120
I0
F0.875
S'great'
p5603
I14
tp5604
a(I1120
I0
F-0.875
S'inferior'
p5605
I14
tp5606
a(I1156
I2
F1.0
S'good'
p5607
I14
tp5608
a(I1178
I7
F1.0
S'excellent'
p5609
I14
tp5610
a(I1272
I0
F-0.875
S'low'
p5611
I14
tp5612
a(I1390
I0
F1.0
S'good'
p5613
I14
tp5614
a(I1402
I12
I0
g2340
I14
tp5615
a(I1402
I12
F-1.0
g2342
I14
tp5616
a(I1402
I12
F-0.125
g773
I14
tp5617
a(I1423
I2
F-0.125
g775
I14
tp5618
a(I1490
I1
F1.0
g779
I14
tp5619
a(I1493
I0
F1.0
S'excellent'
p5620
I14
tp5621
a(I1514
I8
F0.5
g2348
I14
tp5622
a(I1514
I8
F0.75
g2350
I14
tp5623
a(I1514
I8
F-0.75
S'single'
p5624
I14
tp5625
a(I1514
I8
F1.0
S'best'
p5626
I14
tp5627
a(I1673
I0
F1.0
S'excellent'
p5628
I14
tp5629
a(I1708
I0
F1.0
g303
I14
tp5630
a(I1718
I41
F-0.75
S'little'
p5631
I14
tp5632
a(I1777
I1
F0.875
S'awesome'
p5633
I14
tp5634
a(I1789
I11
F0.875
S'awesome'
p5635
I14
tp5636
a(I1789
I11
I0
S'yeah'
p5637
I14
tp5638
a(I1795
I1
I0
S'clear'
p5639
I14
tp5640
a(I1795
I1
F0.875
g307
I14
tp5641
a(I1926
I34
I0
g445
I14
tp5642
a(I1926
I34
F1.0
g447
I14
tp5643
a(I1926
I34
F-0.125
g449
I14
tp5644
a(I1937
I3
F0.375
S'ok'
p5645
I14
tp5646
a(I2009
I10
F1.0
g651
I14
tp5647
a(I2019
I15
F0.875
S'nice'
p5648
I14
tp5649
a(I2045
I5
F1.0
g654
I14
tp5650
a(I2045
I5
F0.875
S'awesome'
p5651
I14
tp5652
a(I2047
I1
F1.0
S'good'
p5653
I14
tp5654
a(I2052
I2
F0.875
g656
I14
tp5655
a(I2069
I6
F1.0
S'best'
p5656
I14
tp5657
a(I2086
I6
F0.875
S'superb'
p5658
I14
tp5659
a(I2086
I6
I0
S'rear'
p5660
I14
tp5661
a(I2086
I6
F-0.125
S'front'
p5662
I14
tp5663
a(I2106
I6
F0.875
S'great'
p5664
I14
tp5665
a(I2165
I6
F1.0
S'good'
p5666
I14
tp5667
a(I2168
I5
I0
S'many'
p5668
I14
tp5669
a(I2170
I2
F1.0
S'good'
p5670
I14
tp5671
a(I2184
I2
F1.0
g675
I14
tp5672
a(I2184
I4
F1.0
S'better'
p5673
I14
tp5674
a(I2197
I3
F0.875
S'amazing'
p5675
I14
tp5676
a(I2200
I1
F0.375
S'significant'
p5677
I14
tp5678
as(S'awesome'
p5679
tp5680
(lp5681
(I561
I21
F0.875
S'awesome'
p5682
I6
tp5683
as(S'buying'
p5684
tp5685
(lp5686
(I109
I0
F0.5
S'like'
p5687
I5
tp5688
a(I131
I2
F0.25
S'worth'
p5689
I5
tp5690
a(I164
I8
F-0.875
S'regret'
p5691
I5
tp5692
a(I377
I8
F0.25
S'worth'
p5693
I5
tp5694
a(I411
I4
F-0.875
S'regret'
p5695
I5
tp5696
a(I909
I0
F0.25
S'worth'
p5697
I5
tp5698
a(I936
I2
F0.25
S'worth'
p5699
I5
tp5700
a(I1164
I24
F0.25
S'worth'
p5701
I5
tp5702
a(I2013
I9
F0.25
S'worth'
p5703
I5
tp5704
a(I2097
I2
F0.25
S'worth'
p5705
I5
tp5706
a(I2189
I4
F0.25
S'worth'
p5707
I5
tp5708
as(S'review'
p5709
tp5710
(lp5711
(I81
I18
F-0.75
S'single'
p5712
I8
tp5713
a(I114
I0
F-1.0
S'bad'
p5714
I8
tp5715
a(I221
I16
F0.5
S'detailed'
p5716
I8
tp5717
a(I250
I8
F0.375
S'much'
p5718
I8
tp5719
a(I478
I3
F-0.636
S'genuine'
p5720
I8
tp5721
a(I551
I2
F0.625
S'first'
p5722
I8
tp5723
a(I561
I32
F-0.25
S'previous'
p5724
I8
tp5725
a(I561
I38
I0
S's'
p5726
I8
tp5727
a(I561
I38
F0.75
S'honest'
p5728
I8
tp5729
a(I587
I0
F0.75
S'complete'
p5730
I8
tp5731
a(I683
I0
F-0.5
S'heavy'
p5732
I8
tp5733
a(I703
I0
I0
S'clear'
p5734
I8
tp5735
a(I703
I0
F0.5
S'practical'
p5736
I8
tp5737
a(I1013
I2
F-0.636
S'genuine'
p5738
I8
tp5739
a(I1038
I3
I0
S'useful'
p5740
I8
tp5741
a(I1121
I4
F-0.875
S'negative'
p5742
I8
tp5743
a(I1121
I13
F0.75
S'honest'
p5744
I8
tp5745
a(I1186
I5
F0.625
S'first'
p5746
I8
tp5747
a(I1439
I2
F0.375
S'watch'
p5748
I8
tp5749
a(I1758
I10
F0.25
S'helpful'
p5750
I8
tp5751
a(I1913
I21
F1.0
S'good'
p5752
I8
tp5753
a(I1926
I25
F0.375
S'full'
p5754
I8
tp5755
a(I2004
I1
I0
S'useful'
p5756
I8
tp5757
as(S'good'
p5758
S'battery'
p5759
S'backup'
p5760
tp5761
(lp5762
(I117
I35
I0
S't'
p5763
I0
tp5764
a(I117
I35
F1.0
S'good'
p5765
I0
tp5766
a(I117
I39
F1.0
S'good'
p5767
I0
tp5768
a(I458
I3
F1.0
g3542
I0
tp5769
a(I514
I6
F1.0
g3544
I0
tp5770
a(I530
I2
F1.0
g3547
I0
tp5771
a(I530
I2
F0.125
S'ample'
p5772
I0
tp5773
a(I1074
I0
F1.0
g3571
I0
tp5774
a(I1110
I1
F1.0
S'good'
p5775
I0
tp5776
a(I1267
I2
F1.0
S'good'
p5777
I0
tp5778
a(I1555
I1
F1.0
S'good'
p5779
I0
tp5780
a(I1811
I8
F1.0
S'good'
p5781
I0
tp5782
a(I2010
I3
F1.0
S'good'
p5783
I0
tp5784
a(I2046
I2
F1.0
S'good'
p5785
I0
tp5786
a(I2091
I0
F0.875
S'great'
p5787
I0
tp5788
a(I2093
I0
F1.0
g3620
I0
tp5789
a(I2126
I0
F1.0
S'good'
p5790
I0
tp5791
a(I2172
I0
F0.875
g3632
I0
tp5792
a(I2172
I0
F1.0
S'good'
p5793
I0
tp5794
a(I2189
I1
F1.0
g3635
I0
tp5795
a(I2194
I8
I0
g3637
I0
tp5796
a(I2194
I8
F1.0
g3639
I0
tp5797
a(I2198
I10
F1.0
g2411
I0
tp5798
a(I2206
I0
F1.0
S'good'
p5799
I0
tp5800
as(S'apps'
p5801
tp5802
(lp5803
(I117
I35
F-0.5
S'heavy'
p5804
I4
tp5805
a(I128
I7
F-0.625
S'other'
p5806
I4
tp5807
a(I180
I1
I0
S'u'
p5808
I4
tp5809
a(I208
I31
F-0.625
S'other'
p5810
I4
tp5811
a(I208
I83
F-0.25
S'social'
p5812
I4
tp5813
a(I219
I1
F-0.375
S'various'
p5814
I4
tp5815
a(I219
I1
F0.25
S'related'
p5816
I4
tp5817
a(I221
I9
F-0.125
S'minimum'
p5818
I4
tp5819
a(I221
I19
I0
S'android'
p5820
I4
tp5821
a(I235
I0
F0.625
S'major'
p5822
I4
tp5823
a(I277
I2
F0.625
S'productive'
p5824
I4
tp5825
a(I280
I20
F-0.75
S'open'
p5826
I4
tp5827
a(I375
I1
F-0.75
S'free'
p5828
I4
tp5829
a(I391
I3
F-0.5
S'heavy'
p5830
I4
tp5831
a(I391
I26
I0
S'multiple'
p5832
I4
tp5833
a(I416
I6
F-0.125
S'such'
p5834
I4
tp5835
a(I427
I0
F-0.625
S'other'
p5836
I4
tp5837
a(I512
I4
F-0.625
S'new'
p5838
I4
tp5839
a(I572
I10
F1.0
S'good'
p5840
I4
tp5841
a(I729
I3
F0.625
S'smooth'
p5842
I4
tp5843
a(I749
I5
I0
S'inbuilt'
p5844
I4
tp5845
a(I878
I4
I0
S'more'
p5846
I4
tp5847
a(I878
I48
I0
S'bigger'
p5848
I4
tp5849
a(I926
I7
F-0.625
S'other'
p5850
I4
tp5851
a(I977
I10
I0
S'many'
p5852
I4
tp5853
a(I993
I7
I0
S'many'
p5854
I4
tp5855
a(I1164
I11
F-0.25
S'latest'
p5856
I4
tp5857
a(I1166
I3
F-0.625
S'other'
p5858
I4
tp5859
a(I1207
I35
F0.625
S'fine'
p5860
I4
tp5861
a(I1220
I5
I0
S'many'
p5862
I4
tp5863
a(I1220
I5
I0
S'useful'
p5864
I4
tp5865
a(I1220
I5
F0.375
S'creative'
p5866
I4
tp5867
a(I1260
I2
F-0.625
S'other'
p5868
I4
tp5869
a(I1260
I2
F-0.125
S'such'
p5870
I4
tp5871
a(I1261
I0
I0
S'above'
p5872
I4
tp5873
a(I1326
I4
F-0.75
S'little'
p5874
I4
tp5875
a(I1326
I4
F-0.5
S'heavy'
p5876
I4
tp5877
a(I1386
I2
I0
S'multiple'
p5878
I4
tp5879
a(I1402
I9
F0.625
S'productive'
p5880
I4
tp5881
a(I1402
I9
F-0.778
S'common'
p5882
I4
tp5883
a(I1419
I3
I0
S'more'
p5884
I4
tp5885
a(I1419
I3
I0
S'most'
p5886
I4
tp5887
a(I1606
I12
F1.0
S'good'
p5888
I4
tp5889
a(I1757
I16
I0
S'few'
p5890
I4
tp5891
a(I1758
I9
I0
S'multiple'
p5892
I4
tp5893
a(I1793
I0
F-0.5
S'unwanted'
p5894
I4
tp5895
a(I1794
I0
I0
S'different'
p5896
I4
tp5897
a(I1832
I1
I0
S'multiple'
p5898
I4
tp5899
a(I1868
I0
F-0.25
S'social'
p5900
I4
tp5901
a(I2002
I3
F-0.625
S'other'
p5902
I4
tp5903
a(I2045
I9
I0
S'multiple'
p5904
I4
tp5905
as(S'days'
p5906
S'of'
p5907
S'usage'
p5908
tp5909
(lp5910
(I1136
I10
F0.375
S'usage'
p5911
I0
tp5912
a(I1639
I1
I0
S'few'
p5913
I0
tp5914
a(I1639
I1
F-0.5
S'heavy'
p5915
I0
tp5916
a(I1668
I8
F-0.5
S'less'
p5917
I0
tp5918
a(I1668
I8
F0.375
S'usage'
p5919
I0
tp5920
a(I1941
I5
I0
S'few'
p5921
I0
tp5922
a(I32
I0
F1.0
S'good'
p5923
I8
tp5924
a(I84
I2
F-0.625
S'moderate'
p5925
I8
tp5926
a(I115
I5
I0
S'light'
p5927
I8
tp5928
a(I117
I40
F-0.5
S'heavy'
p5929
I8
tp5930
a(I132
I5
I0
S'brief'
p5931
I8
tp5932
a(I179
I0
I0
S'minimal'
p5933
I8
tp5934
a(I213
I5
I0
S'normal'
p5935
I8
tp5936
a(I248
I1
I0
S'hot'
p5937
I8
tp5938
a(I248
I1
F0.5
S'slight'
p5939
I8
tp5940
a(I293
I12
F-0.625
S'average'
p5941
I8
tp5942
a(I324
I15
I0
S'normal'
p5943
I8
tp5944
a(I324
I17
F-0.5
S'heavy'
p5945
I8
tp5946
a(I370
I13
F-0.25
S'medium'
p5947
I8
tp5948
a(I391
I25
F0.5
S'higher'
p5949
I8
tp5950
a(I391
I25
I0
S'normal'
p5951
I8
tp5952
a(I391
I26
F-0.5
S'heavy'
p5953
I8
tp5954
a(I422
I4
F0.5
S'effective'
p5955
I8
tp5956
a(I422
I10
F-0.5
S'heavy'
p5957
I8
tp5958
a(I422
I10
I0
S'different'
p5959
I8
tp5960
a(I422
I11
F-0.5
S'heavy'
p5961
I8
tp5962
a(I458
I5
F0.5
S'intensive'
p5963
I8
tp5964
a(I515
I1
F-0.5
S'continuous'
p5965
I8
tp5966
a(I515
I1
F-0.625
S'last'
p5967
I8
tp5968
a(I515
I38
I0
S'light'
p5969
I8
tp5970
a(I664
I15
I0
S'net'
p5971
I8
tp5972
a(I712
I2
I0
S'normal'
p5973
I8
tp5974
a(I712
I22
F-0.5
S'regular'
p5975
I8
tp5976
a(I726
I11
I0
S'normal'
p5977
I8
tp5978
a(I794
I5
F-0.25
S'mixed'
p5979
I8
tp5980
a(I805
I9
F0.375
S'extensive'
p5981
I8
tp5982
a(I807
I2
F-0.5
S'heavy'
p5983
I8
tp5984
a(I825
I8
F0.5
S'slight'
p5985
I8
tp5986
a(I878
I12
F-0.625
S'moderate'
p5987
I8
tp5988
a(I878
I47
F0.5
S'optimum'
p5989
I8
tp5990
a(I878
I47
F-0.5
S'regular'
p5991
I8
tp5992
a(I918
I2
F0.25
S'basic'
p5993
I8
tp5994
a(I959
I5
I0
S'months'
p5995
I8
tp5996
a(I977
I10
F-0.5
S'heavy'
p5997
I8
tp5998
a(I987
I20
F0.25
S'future'
p5999
I8
tp6000
a(I1016
I9
F-0.75
S'casual'
p6001
I8
tp6002
a(I1016
I10
F-0.5
S'heavy'
p6003
I8
tp6004
a(I1017
I0
I0
S'normal'
p6005
I8
tp6006
a(I1019
I2
I0
S'normal'
p6007
I8
tp6008
a(I1074
I1
I0
S'internet'
p6009
I8
tp6010
a(I1120
I2
I0
S'normal'
p6011
I8
tp6012
a(I1130
I4
F-0.5
S'heavy'
p6013
I8
tp6014
a(I1136
I4
F-0.875
S'low'
p6015
I8
tp6016
a(I1185
I8
F-0.75
S'warm'
p6017
I8
tp6018
a(I1185
I8
F-0.5
S'heavy'
p6019
I8
tp6020
a(I1185
I8
F0.625
S'acceptable'
p6021
I8
tp6022
a(I1227
I23
I0
S'normal'
p6023
I8
tp6024
a(I1286
I13
I0
S'normal'
p6025
I8
tp6026
a(I1302
I5
F-0.375
S'same'
p6027
I8
tp6028
a(I1326
I3
F-0.5
S'heavy'
p6029
I8
tp6030
a(I1364
I6
F-0.625
S'moderate'
p6031
I8
tp6032
a(I1365
I4
F-0.5
S'continuous'
p6033
I8
tp6034
a(I1392
I1
F-0.5
S'long'
p6035
I8
tp6036
a(I1452
I0
F-0.25
S'reverse'
p6037
I8
tp6038
a(I1456
I2
F-0.625
S'new'
p6039
I8
tp6040
a(I1456
I2
I0
S'update'
p6041
I8
tp6042
a(I1499
I2
I0
S'normal'
p6043
I8
tp6044
a(I1516
I7
F0.5
S'high'
p6045
I8
tp6046
a(I1518
I7
I0
S'normal'
p6047
I8
tp6048
a(I1541
I2
F-0.5
S'regular'
p6049
I8
tp6050
a(I1551
I22
I0
S'normal'
p6051
I8
tp6052
a(I1566
I18
F-0.5
S'regular'
p6053
I8
tp6054
a(I1587
I2
F-0.5
S'heave'
p6055
I8
tp6056
a(I1588
I12
F-0.625
S'moderate'
p6057
I8
tp6058
a(I1639
I1
F-0.5
g5915
I8
tp6059
a(I1644
I2
F0.5
S'intensive'
p6060
I8
tp6061
a(I1671
I0
F0.5
S'high'
p6062
I8
tp6063
a(I1718
I8
F0.5
S'daily'
p6064
I8
tp6065
a(I1726
I0
I0
S'normal'
p6066
I8
tp6067
a(I1749
I2
F-0.625
S'moderate'
p6068
I8
tp6069
a(I1765
I0
I0
S'minimal'
p6070
I8
tp6071
a(I1785
I2
F-0.5
S'heavy'
p6072
I8
tp6073
a(I1797
I3
F-0.5
S'heavy'
p6074
I8
tp6075
a(I1829
I2
I0
S'standard'
p6076
I8
tp6077
a(I1913
I1
F0.125
S'please'
p6078
I8
tp6079
a(I1913
I1
F-0.5
S'less'
p6080
I8
tp6081
a(I1913
I1
I0
S'more'
p6082
I8
tp6083
a(I1934
I5
F-0.5
S'heavy'
p6084
I8
tp6085
a(I1937
I2
I0
S'normal'
p6086
I8
tp6087
a(I2002
I4
F-0.875
S'hard'
p6088
I8
tp6089
a(I2012
I1
F1.0
S'good'
p6090
I8
tp6091
a(I2045
I16
F-0.625
S'average'
p6092
I8
tp6093
as.