(dp0
(S'hexa'
p1
S'core'
p2
tp3
(lp4
(I0
I2108
F0.5
S'dual'
p5
I0
tp6
as(S'on'
p7
S'redmi'
p8
S'note'
p9
tp10
(lp11
(I0
I1547
F-1.0
S'worse'
p12
I0
tp13
a(I0
I1864
F-0.25
S'latest'
p14
I0
tp15
a(I0
I2141
F1.0
S'excellent'
p16
I0
tp17
a(I0
I3194
F-0.625
S'excited'
p18
I0
tp19
a(I0
I4066
F-0.625
S'absent'
p20
I0
tp21
a(I0
I4066
F-0.625
S'absent'
p22
I0
tp23
a(I0
I4184
F0.625
S'prime'
p24
I0
tp25
a(I0
I4315
F1.0
S'good'
p26
I0
tp27
a(I0
I4530
F0.375
S'available'
p28
I0
tp29
a(I0
I4561
F1.0
S'good'
p30
I0
tp31
a(I0
I4561
F-0.875
S'smaller'
p32
I0
tp33
as(S'3'
p34
S'32'
p35
S'gb'
p36
tp37
(lp38
(I0
I2734
I-100
S'chahiye'
p39
I0
tp40
a(I0
I3906
F0.5
S'large'
p41
I0
tp42
a(I0
I3930
F-0.125
S'gold'
p43
I0
tp44
as(S'very'
p45
S'good'
p46
S'performance'
p47
tp48
(lp49
(I0
I926
F1.0
S'good'
p50
I0
tp51
a(I0
I2343
F0.875
S'awesome'
p52
I0
tp53
a(I0
I2343
F0.875
S'nice'
p54
I0
tp55
a(I0
I2343
F1.0
S'good'
p56
I0
tp57
a(I0
I2365
F1.0
S'good'
p58
I0
tp59
a(I0
I2365
F-0.375
S'same'
p60
I0
tp61
a(I0
I2600
F0.5
S'touch'
p62
I0
tp63
a(I0
I2864
F1.0
S'good'
p64
I0
tp65
a(I0
I2879
F0.875
S'amazing'
p66
I0
tp67
a(I0
I3394
F1.0
S'good'
p68
I0
tp69
a(I0
I3708
F1.0
S'good'
p70
I0
tp71
a(I0
I3739
F1.0
S'good'
p72
I0
tp73
a(I0
I3873
F1.0
S'good'
p74
I0
tp75
a(I0
I4192
F0.25
S'fluid'
p76
I0
tp77
a(I0
I4226
F1.0
S'good'
p78
I0
tp79
a(I0
I4557
F1.0
S'good'
p80
I0
tp81
a(I0
I4582
F1.0
S'good'
p82
I0
tp83
a(I0
I15
F1.0
S'good'
p84
I13
tp85
a(I0
I74
I0
S'm'
p86
I13
tp87
a(I0
I74
F-1.0
S'sad'
p88
I13
tp89
a(I0
I90
F1.0
S'good'
p90
I13
tp91
a(I0
I253
I0
S'f'
p92
I13
tp93
a(I0
I335
I0
S'more'
p94
I13
tp95
a(I0
I453
I0
S'standard'
p96
I13
tp97
a(I0
I499
I0
S'more'
p98
I13
tp99
a(I0
I499
F0.875
S'happy'
p100
I13
tp101
a(I0
I499
I0
S's'
p102
I13
tp103
a(I0
I575
F0.625
S'smooth'
p104
I13
tp105
a(I0
I575
F0.75
S'fantastic'
p106
I13
tp107
a(I0
I608
F0.875
S'superb'
p108
I13
tp109
a(I0
I611
I-100
S'npo'
p110
I13
tp111
a(I0
I720
F-0.625
S'quite'
p112
I13
tp113
a(I0
I720
F1.0
S'excellent'
p114
I13
tp115
a(I0
I775
F0.625
S'extraordinary'
p116
I13
tp117
a(I0
I811
F0.875
S'awesome'
p118
I13
tp119
a(I0
I843
F0.875
S'superb'
p120
I13
tp121
a(I0
I901
F0.875
S'great'
p122
I13
tp123
a(I0
I926
F1.0
g50
I13
tp124
a(I0
I960
F0.875
S'awesome'
p125
I13
tp126
a(I0
I1046
F-0.125
S'overall'
p127
I13
tp128
a(I0
I1046
F0.375
S'impressive'
p129
I13
tp130
a(I0
I1111
F0.625
S'smooth'
p131
I13
tp132
a(I0
I1208
F1.0
S'best'
p133
I13
tp134
a(I0
I1286
F0.875
S'happy'
p135
I13
tp136
a(I0
I1477
F0.875
S'amazing'
p137
I13
tp138
a(I0
I1492
F-0.875
S'low'
p139
I13
tp140
a(I0
I1551
I0
S'camera'
p141
I13
tp142
a(I0
I1628
F0.625
S'super'
p143
I13
tp144
a(I0
I1722
F0.875
S'great'
p145
I13
tp146
a(I0
I1761
F-0.625
S'fast'
p147
I13
tp148
a(I0
I1774
I0
S'impressed'
p149
I13
tp150
a(I0
I1992
F-0.625
S'fast'
p151
I13
tp152
a(I0
I2042
F0.875
S'awesome'
p153
I13
tp154
a(I0
I2042
F-0.5
S'less'
p155
I13
tp156
a(I0
I2042
F0.5
S'weight'
p157
I13
tp158
a(I0
I2052
F0.875
S'nice'
p159
I13
tp160
a(I0
I2061
F-0.125
S'overall'
p161
I13
tp162
a(I0
I2061
F1.0
S'good'
p163
I13
tp164
a(I0
I2082
F0.375
S'ok'
p165
I13
tp166
a(I0
I2082
F0.875
S'great'
p167
I13
tp168
a(I0
I2147
F0.625
S'smooth'
p169
I13
tp170
a(I0
I2181
F0.875
S'great'
p171
I13
tp172
a(I0
I2320
F0.875
S'amazing'
p173
I13
tp174
a(I0
I2343
F1.0
g56
I13
tp175
a(I0
I2365
F1.0
g58
I13
tp176
a(I0
I2365
F-0.375
g60
I13
tp177
a(I0
I2396
F0.625
S'superior'
p178
I13
tp179
a(I0
I2600
F0.5
g62
I13
tp180
a(I0
I2620
I-100
S'outstandingi'
p181
I13
tp182
a(I0
I2768
F1.0
S'best'
p183
I13
tp184
a(I0
I2864
F1.0
g64
I13
tp185
a(I0
I2879
F0.875
g66
I13
tp186
a(I0
I3091
F1.0
S'good'
p187
I13
tp188
a(I0
I3106
F1.0
S'excellent'
p189
I13
tp190
a(I0
I3218
F1.0
S'good'
p191
I13
tp192
a(I0
I3233
F0.875
S'awesome'
p193
I13
tp194
a(I0
I3254
I0
S'more'
p195
I13
tp196
a(I0
I3263
I-100
S'unbelievablevolte'
p197
I13
tp198
a(I0
I3280
F-0.25
S'wait'
p199
I13
tp200
a(I0
I3362
F-0.125
S'overall'
p201
I13
tp202
a(I0
I3394
F1.0
g68
I13
tp203
a(I0
I3447
F1.0
S'good'
p204
I13
tp205
a(I0
I3637
F1.0
S'good'
p206
I13
tp207
a(I0
I3708
I-100
S'heatingmobile'
p208
I13
tp209
a(I0
I3708
F1.0
g70
I13
tp210
a(I0
I3739
F1.0
g72
I13
tp211
a(I0
I3786
F0.875
S'great'
p212
I13
tp213
a(I0
I3807
F0.875
S'awesome'
p214
I13
tp215
a(I0
I3811
F1.0
S'good'
p216
I13
tp217
a(I0
I3873
F1.0
g74
I13
tp218
a(I0
I4006
F0.875
S'great'
p219
I13
tp220
a(I0
I4174
F-0.875
S'poor'
p221
I13
tp222
a(I0
I4192
F0.25
g76
I13
tp223
a(I0
I4226
F1.0
g78
I13
tp224
a(I0
I4257
F1.0
S'excellent'
p225
I13
tp226
a(I0
I4257
F0.625
S'smooth'
p227
I13
tp228
a(I0
I4282
F1.0
S'good'
p229
I13
tp230
a(I0
I4359
F-0.125
S'overall'
p231
I13
tp232
a(I0
I4359
F1.0
S'good'
p233
I13
tp234
a(I0
I4370
I-100
S'problemexcellent'
p235
I13
tp236
a(I0
I4371
F0.375
S'much'
p237
I13
tp238
a(I0
I4557
F1.0
g80
I13
tp239
a(I0
I4582
F1.0
g82
I13
tp240
as(S'call'
p241
S'quality'
p242
tp243
(lp244
(I0
I414
F-0.875
S'low'
p245
I1
tp246
a(I0
I414
F0.5
S'high'
p247
I1
tp248
a(I0
I523
F1.0
S'good'
p249
I1
tp250
a(I0
I603
F0.875
S'great'
p251
I1
tp252
a(I0
I1546
F-0.625
S'other'
p253
I1
tp254
a(I0
I2377
I0
S'least'
p255
I1
tp256
a(I0
I2377
F0.875
S'decent'
p257
I1
tp258
a(I0
I2377
F0.5
S'stable'
p259
I1
tp260
a(I0
I2577
F0.875
S'great'
p261
I1
tp262
as(S'awesome'
p263
S'battery'
p264
S'life'
p265
tp266
(lp267
(I0
I1051
F0.875
S'awesome'
p268
I0
tp269
a(I0
I2950
F0.875
S'awesome'
p270
I0
tp271
a(I0
I2980
F-1.0
S'bad'
p272
I0
tp273
a(I0
I3149
F0.875
S'awesome'
p274
I0
tp275
a(I0
I4217
I0
S'rear'
p276
I0
tp277
a(I0
I4217
F1.0
S'good'
p278
I0
tp279
as(S'playing'
p280
S'games'
p281
tp282
(lp283
(I0
I53
F-0.5
S'heavy'
p284
I1
tp285
a(I0
I445
F0.625
S'tried'
p286
I1
tp287
a(I0
I520
F0.625
S'graphic'
p288
I1
tp289
a(I0
I520
F0.5
S'intensive'
p290
I1
tp291
a(I0
I623
I0
S'more'
p292
I1
tp293
a(I0
I2532
F-0.625
S'unbearable'
p294
I1
tp295
a(I0
I53
F-0.5
g284
I5
tp296
a(I0
I206
I0
S'few'
p297
I5
tp298
a(I0
I206
I0
S'few'
p299
I5
tp300
a(I0
I332
F-0.625
S'other'
p301
I5
tp302
a(I0
I520
F0.625
g288
I5
tp303
a(I0
I520
F0.5
g290
I5
tp304
a(I0
I549
I0
S'big'
p305
I5
tp306
a(I0
I584
I0
S'big'
p307
I5
tp308
a(I0
I597
F-0.5
S'heavy'
p309
I5
tp310
a(I0
I623
I0
g292
I5
tp311
a(I0
I691
I0
S'nova'
p312
I5
tp313
a(I0
I1088
I0
S'play'
p314
I5
tp315
a(I0
I1211
F-0.5
S'heavy'
p316
I5
tp317
a(I0
I1358
F-0.5
S'heavy'
p318
I5
tp319
a(I0
I1422
I-100
S'll'
p320
I5
tp321
a(I0
I1624
F-0.5
S'heavy'
p322
I5
tp323
a(I0
I1746
I-100
S'havey'
p324
I5
tp325
a(I0
I1949
I0
S'few'
p326
I5
tp327
a(I0
I1963
I0
S't'
p328
I5
tp329
a(I0
I1963
F-0.5
S'problematic'
p330
I5
tp331
a(I0
I2532
F-0.625
g294
I5
tp332
a(I0
I2756
I-100
S'displaymany'
p333
I5
tp334
a(I0
I3062
F0.875
S'great'
p335
I5
tp336
a(I0
I3759
F-0.625
S'other'
p337
I5
tp338
a(I0
I4107
F-0.5
S'heavy'
p339
I5
tp340
as(S'with'
p341
S'redmi'
p342
S'note'
p343
tp344
(lp345
(I0
I1864
F-0.25
g14
I0
tp346
a(I0
I2751
F-0.875
S'cheap'
p347
I0
tp348
as(S'sd'
p349
S'card'
p350
tp351
(lp352
(I0
I21
I0
S'sd'
p353
I0
tp354
a(I0
I2880
F-0.25
S'external'
p355
I0
tp356
a(I0
I3800
I0
S'sd'
p357
I0
tp358
as(S'to'
p359
S'buy'
p360
S'mobile'
p361
tp362
(lp363
(I0
I1954
I-100
S'toovery'
p364
I0
tp365
a(I0
I3404
F0.875
S'nice'
p366
I0
tp367
a(I0
I3783
F-0.25
S'past'
p368
I0
tp369
a(I0
I4372
F1.0
S'good'
p370
I0
tp371
a(I0
I4372
F0.5
S'careful'
p372
I0
tp373
as(S'finger'
p374
S'print'
p375
S'scanner'
p376
tp377
(lp378
(I0
I349
F1.0
S'good'
p379
I0
tp380
a(I0
I349
F-0.75
S'dry'
p381
I0
tp382
a(I0
I1006
F-0.625
S'fast'
p383
I0
tp384
a(I0
I1171
F0.5
S'accurate'
p385
I0
tp386
a(I0
I1198
F-0.625
S'fingerprint'
p387
I0
tp388
a(I0
I1491
F1.0
S'good'
p389
I0
tp390
a(I0
I1746
I0
S'finger'
p391
I0
tp392
a(I0
I2050
F1.0
S'best'
p393
I0
tp394
a(I0
I2077
F-0.625
S'fingerprint'
p395
I0
tp396
a(I0
I2077
I0
S'n'
p397
I0
tp398
a(I0
I2267
I0
S'finger'
p399
I0
tp400
a(I0
I2688
F0.875
S'decent'
p401
I0
tp402
a(I0
I3230
F-0.625
S'fingerprint'
p403
I0
tp404
a(I0
I3269
F0.5
S'accurate'
p405
I0
tp406
a(I0
I3949
F0.625
S'fine'
p407
I0
tp408
a(I0
I4045
F0.875
S'great'
p409
I0
tp410
a(I0
I349
F1.0
g379
I0
tp411
a(I0
I1006
F-0.625
g383
I0
tp412
a(I0
I1171
F0.5
g385
I0
tp413
a(I0
I1198
F-0.625
g387
I0
tp414
a(I0
I1491
F1.0
g389
I0
tp415
a(I0
I1746
I0
g391
I0
tp416
a(I0
I2050
F1.0
g393
I0
tp417
a(I0
I2077
F-0.625
g395
I0
tp418
a(I0
I2077
I0
g397
I0
tp419
a(I0
I2688
F0.875
g401
I0
tp420
a(I0
I3230
F-0.625
g403
I0
tp421
a(I0
I3269
F0.5
g405
I0
tp422
a(I0
I3949
F0.625
g407
I0
tp423
a(I0
I4045
F0.875
g409
I0
tp424
as(S'go'
p425
S'for'
p426
S'mobile'
p427
tp428
(lp429
(I0
I842
F1.0
S'best'
p430
I0
tp431
a(I0
I1450
F1.0
S'good'
p432
I0
tp433
a(I0
I2043
F1.0
S'good'
p434
I0
tp435
a(I0
I2315
F1.0
S'good'
p436
I0
tp437
a(I0
I2966
F1.0
S'excellent'
p438
I0
tp439
a(I0
I3017
F1.0
S'excellent'
p440
I0
tp441
a(I0
I3227
F1.0
S'best'
p442
I0
tp443
a(I0
I3404
F0.875
g366
I0
tp444
a(I0
I3802
F-0.125
S'overall'
p445
I0
tp446
a(I0
I3802
F1.0
S'good'
p447
I0
tp448
a(I0
I4033
F1.0
S'good'
p449
I0
tp450
a(I0
I4192
F0.875
S'happy'
p451
I0
tp452
a(I0
I4372
F1.0
g370
I0
tp453
a(I0
I4520
F0.75
S'beautiful'
p454
I0
tp455
as(S'sound'
p456
tp457
(lp458
(I0
I424
F-0.5
S'loud'
p459
I15
tp460
a(I0
I424
I0
S'clear'
p461
I15
tp462
a(I0
I580
F-0.5
S'unwanted'
p463
I15
tp464
a(I0
I602
F0.875
S'nice'
p465
I15
tp466
a(I0
I619
F1.0
S'good'
p467
I15
tp468
a(I0
I1283
F-0.875
S'low'
p469
I15
tp470
a(I0
I1283
F0.375
S'much'
p471
I15
tp472
a(I0
I2197
F0.875
S'awesome'
p473
I15
tp474
a(I0
I2324
F1.0
S'good'
p475
I15
tp476
a(I0
I2550
F1.0
S'good'
p477
I15
tp478
a(I0
I2691
F-0.5
S'loud'
p479
I15
tp480
a(I0
I2738
F-0.5
S'loud'
p481
I15
tp482
a(I0
I2738
I0
S'clear'
p483
I15
tp484
a(I0
I2966
I0
S'isn'
p485
I15
tp486
a(I0
I3092
F0.625
S'fine'
p487
I15
tp488
a(I0
I3414
F1.0
S'good'
p489
I15
tp490
a(I0
I3969
I0
S'clear'
p491
I15
tp492
a(I0
I3969
F-0.5
S'loud'
p493
I15
tp494
a(I0
I4197
F1.0
S'good'
p495
I15
tp496
a(I0
I4391
F0.375
S'ok'
p497
I15
tp498
a(I0
I4391
F1.0
S'good'
p499
I15
tp500
as(S'excellent'
p501
tp502
(lp503
(I0
I1598
F1.0
S'good'
p504
I4
tp505
a(I0
I4354
F0.625
S'okay'
p506
I4
tp507
as(S'software'
p508
tp509
(lp510
(I0
I225
I0
S'update'
p511
I2
tp512
a(I0
I398
F1.0
S'good'
p513
I2
tp514
a(I0
I408
I0
S'sure'
p515
I2
tp516
a(I0
I416
F-0.625
S'irritating'
p517
I2
tp518
a(I0
I641
F-0.5
S'less'
p519
I2
tp520
a(I0
I641
F0.75
S'due'
p521
I2
tp522
a(I0
I1638
I0
S'user'
p523
I2
tp524
a(I0
I1725
F0.875
S'great'
p525
I2
tp526
a(I0
I2358
F1.0
S'good'
p527
I2
tp528
a(I0
I2377
F-0.625
S'buggy'
p529
I2
tp530
a(I0
I2477
F-0.25
S'latest'
p531
I2
tp532
a(I0
I2527
I0
S'update'
p533
I2
tp534
a(I0
I2529
F-0.25
S'i'
p535
I2
tp536
a(I0
I2672
I0
S'update'
p537
I2
tp538
a(I0
I2814
I0
S'many'
p539
I2
tp540
a(I0
I2814
I0
S'additional'
p541
I2
tp542
a(I0
I2981
I-100
S'ud'
p543
I2
tp544
a(I0
I3290
I-100
S'updxiaomi'
p545
I2
tp546
a(I0
I3976
I0
S'updates'
p547
I2
tp548
a(I0
I4315
F-0.625
S'new'
p549
I2
tp550
as(S'happy'
p551
S'with'
p552
S'product'
p553
tp554
(lp555
(I0
I774
F1.0
S'good'
p556
I0
tp557
a(I0
I2518
F0.875
S'happy'
p558
I0
tp559
a(I0
I3690
F0.875
S'happy'
p560
I0
tp561
a(I0
I4496
F0.875
S'happy'
p562
I0
tp563
as(S'with'
p564
S'good'
p565
S'battery'
p566
tp567
(lp568
(I0
I971
F0.625
S'fine'
p569
I0
tp570
a(I0
I971
F-0.125
S'featured'
p571
I0
tp572
a(I0
I1290
F0.5
S'internal'
p573
I0
tp574
a(I0
I2061
F1.0
S'good'
p575
I0
tp576
a(I0
I2874
F1.0
S'good'
p577
I0
tp578
a(I0
I3418
F1.0
S'good'
p579
I0
tp580
a(I0
I3522
F1.0
S'good'
p581
I0
tp582
a(I0
I4038
F1.0
S'good'
p583
I0
tp584
a(I0
I4225
I-100
S'mobileexcellent'
p585
I0
tp586
a(I0
I54
F1.0
S'good'
p587
I1
tp588
a(I0
I373
I0
S'biggest'
p589
I1
tp590
a(I0
I647
F1.0
S'good'
p591
I1
tp592
a(I0
I906
F1.0
S'good'
p593
I1
tp594
a(I0
I971
F0.625
g569
I1
tp595
a(I0
I971
F-0.125
g571
I1
tp596
a(I0
I1099
F1.0
S'good'
p597
I1
tp598
a(I0
I1111
F1.0
S'good'
p599
I1
tp600
a(I0
I1287
F1.0
S'good'
p601
I1
tp602
a(I0
I1290
F0.5
g573
I1
tp603
a(I0
I1340
F1.0
S'good'
p604
I1
tp605
a(I0
I1401
F1.0
S'good'
p606
I1
tp607
a(I0
I1422
F1.0
S'good'
p608
I1
tp609
a(I0
I1465
F1.0
S'good'
p610
I1
tp611
a(I0
I1527
F1.0
S'good'
p612
I1
tp613
a(I0
I1536
F1.0
S'good'
p614
I1
tp615
a(I0
I1720
F1.0
S'good'
p616
I1
tp617
a(I0
I1720
F0.375
S'much'
p618
I1
tp619
a(I0
I1720
F0.5
S'effective'
p620
I1
tp621
a(I0
I1780
I0
S'big'
p622
I1
tp623
a(I0
I1946
F1.0
S'good'
p624
I1
tp625
a(I0
I2009
F1.0
S'good'
p626
I1
tp627
a(I0
I2061
F1.0
g575
I1
tp628
a(I0
I2188
F1.0
S'good'
p629
I1
tp630
a(I0
I2628
F1.0
S'good'
p631
I1
tp632
a(I0
I2628
F-0.625
S'last'
p633
I1
tp634
a(I0
I2729
F1.0
S'good'
p635
I1
tp636
a(I0
I2838
F1.0
S'excellent'
p637
I1
tp638
a(I0
I2874
F1.0
g577
I1
tp639
a(I0
I2985
F1.0
S'good'
p640
I1
tp641
a(I0
I3366
F1.0
S'good'
p642
I1
tp643
a(I0
I3418
F1.0
g579
I1
tp644
a(I0
I3439
I0
S'massive'
p645
I1
tp646
a(I0
I3522
F1.0
g581
I1
tp647
a(I0
I3645
F1.0
S'good'
p648
I1
tp649
a(I0
I3645
F0.875
S'amazing'
p650
I1
tp651
a(I0
I3689
F1.0
S'good'
p652
I1
tp653
a(I0
I3787
F1.0
S'good'
p654
I1
tp655
a(I0
I3838
F1.0
S'good'
p656
I1
tp657
a(I0
I4038
F1.0
g583
I1
tp658
a(I0
I4050
F1.0
S'good'
p659
I1
tp660
a(I0
I4217
I0
g276
I1
tp661
a(I0
I4217
F1.0
g278
I1
tp662
a(I0
I4291
F1.0
S'good'
p663
I1
tp664
a(I0
I4291
F0.5
S'powerful'
p665
I1
tp666
a(I0
I4372
F-0.75
S'dry'
p667
I1
tp668
a(I0
I4499
F1.0
S'good'
p669
I1
tp670
a(I0
I4560
F1.0
S'good'
p671
I1
tp672
as(S'love'
p673
tp674
(lp675
(I0
I4083
F0.875
S'happy'
p676
I6
tp677
a(I0
I4083
I-100
S'producti'
p678
I6
tp679
a(I0
I4431
I-100
S'expectedi'
p680
I6
tp681
as(S'best'
p682
S'in'
p683
S'class'
p684
tp685
(lp686
(I0
I2610
I0
S'ur'
p687
I0
tp688
a(I0
I2610
F1.0
S'best'
p689
I0
tp690
a(I0
I2963
F-0.75
S'difficult'
p691
I0
tp692
a(I0
I4010
F1.0
S'best'
p693
I0
tp694
a(I0
I4013
F1.0
S'best'
p695
I0
tp696
as(S'wifi'
p697
tp698
(lp699
(I0
I70
F-0.375
S'same'
p700
I1
tp701
a(I0
I103
F-0.5
S'slow'
p702
I1
tp703
a(I0
I430
I0
S'only'
p704
I1
tp705
a(I0
I1355
I0
S'net'
p706
I1
tp707
a(I0
I1828
F0.875
S'happy'
p708
I1
tp709
as(S'memory'
p710
S'card'
p711
tp712
(lp713
(I0
I476
F0.5
S'internal'
p714
I4
tp715
a(I0
I2857
I0
S'hybrid'
p716
I4
tp717
a(I0
I3857
I-100
S'annoyingindia'
p718
I4
tp719
a(I0
I3857
I0
S's'
p720
I4
tp721
a(I0
I3909
F-0.25
S'external'
p722
I4
tp723
a(I0
I3910
F-0.25
S'external'
p724
I4
tp725
a(I0
I3912
F-0.25
S'external'
p726
I4
tp727
a(I0
I4083
I-100
S'hugeonly'
p728
I4
tp729
as(S'no'
p730
S'heating'
p731
S'issue'
p732
tp733
(lp734
(I0
I53
F-0.125
S'such'
p735
I0
tp736
a(I0
I83
I0
S'normal'
p737
I0
tp738
a(I0
I98
F0.375
S'much'
p739
I0
tp740
a(I0
I963
F0.375
S'heating'
p741
I0
tp742
a(I0
I963
I0
S'internet'
p743
I0
tp744
a(I0
I1111
I0
S'hear'
p745
I0
tp746
a(I0
I1358
F-0.125
S'such'
p747
I0
tp748
a(I0
I1358
F0.375
S'heating'
p749
I0
tp750
a(I0
I1550
F0.375
S'heating'
p751
I0
tp752
a(I0
I2078
F-0.25
S'drain'
p753
I0
tp754
a(I0
I2234
F0.375
S'heating'
p755
I0
tp756
a(I0
I2533
F0.375
S'heating'
p757
I0
tp758
a(I0
I2705
F0.5
S'slight'
p759
I0
tp760
a(I0
I2975
F-0.25
S'i'
p761
I0
tp762
a(I0
I3906
F-0.75
S'little'
p763
I0
tp764
a(I0
I53
F-0.125
g735
I2
tp765
a(I0
I83
I0
g737
I2
tp766
a(I0
I98
F0.375
g739
I2
tp767
a(I0
I219
F0.375
S'heating'
p768
I2
tp769
a(I0
I871
I0
S'big'
p770
I2
tp771
a(I0
I963
F0.375
g741
I2
tp772
a(I0
I963
I0
g743
I2
tp773
a(I0
I1060
I0
S'active'
p774
I2
tp775
a(I0
I1091
F0.375
S'heating'
p776
I2
tp777
a(I0
I1111
I0
g745
I2
tp778
a(I0
I1358
F-0.125
g747
I2
tp779
a(I0
I1358
F0.375
g749
I2
tp780
a(I0
I1550
F0.375
g751
I2
tp781
a(I0
I2078
F-0.25
g753
I2
tp782
a(I0
I2234
F0.375
g755
I2
tp783
a(I0
I2533
F0.375
g757
I2
tp784
a(I0
I2705
F0.5
g759
I2
tp785
a(I0
I2975
F-0.25
g761
I2
tp786
a(I0
I3169
F0.375
S'heating'
p787
I2
tp788
a(I0
I3906
F-0.75
g763
I2
tp789
a(I0
I4187
F0.375
S'heating'
p790
I2
tp791
a(I0
I4335
F-0.75
S'little'
p792
I2
tp793
a(I0
I4335
F0.375
S'heating'
p794
I2
tp795
as(S'10'
p796
S'days'
p797
tp798
(lp799
(I0
I1313
F0.5
S'applicable'
p800
I1
tp801
a(I0
I1403
F-0.625
S'other'
p802
I1
tp803
a(I0
I1685
I0
S'more'
p804
I1
tp805
a(I0
I1685
F-0.5
S'slow'
p806
I1
tp807
a(I0
I1754
F-0.25
S'i'
p808
I1
tp809
a(I0
I1754
I0
S'impressed'
p810
I1
tp811
as(S'in'
p812
S'low'
p813
S'light'
p814
tp815
(lp816
(I0
I266
F-0.875
S'low'
p817
I2
tp818
a(I0
I319
F-0.875
S'low'
p819
I2
tp820
a(I0
I352
F-0.875
S'low'
p821
I2
tp822
a(I0
I352
F0.875
S'decent'
p823
I2
tp824
a(I0
I506
F-0.875
S'low'
p825
I2
tp826
a(I0
I506
F-0.75
S'artificial'
p827
I2
tp828
a(I0
I628
F1.0
S'good'
p829
I2
tp830
a(I0
I628
F-0.875
S'low'
p831
I2
tp832
a(I0
I723
F-0.875
S'low'
p833
I2
tp834
a(I0
I1055
F0.875
S'great'
p835
I2
tp836
a(I0
I1055
F-0.875
S'low'
p837
I2
tp838
a(I0
I1168
I0
S'bright'
p839
I2
tp840
a(I0
I1168
F-0.875
S'low'
p841
I2
tp842
a(I0
I1360
F-0.875
S'low'
p843
I2
tp844
a(I0
I1487
F-0.875
S'low'
p845
I2
tp846
a(I0
I1786
I0
S'light'
p847
I2
tp848
a(I0
I1858
F0.75
S'white'
p849
I2
tp850
a(I0
I1887
F1.0
S'good'
p851
I2
tp852
a(I0
I1887
F-0.875
S'low'
p853
I2
tp854
a(I0
I2154
F-0.875
S'low'
p855
I2
tp856
a(I0
I2167
F-0.875
S'low'
p857
I2
tp858
a(I0
I2404
F-0.75
S'sufficient'
p859
I2
tp860
a(I0
I3236
F-0.875
S'low'
p861
I2
tp862
a(I0
I4042
F-0.875
S'low'
p863
I2
tp864
a(I0
I4043
F-0.875
S'low'
p865
I2
tp866
a(I0
I266
F-0.875
g817
I2
tp867
a(I0
I319
F-0.875
g819
I2
tp868
a(I0
I352
F-0.875
g821
I2
tp869
a(I0
I352
F0.875
g823
I2
tp870
a(I0
I506
F-0.875
g825
I2
tp871
a(I0
I506
F-0.75
g827
I2
tp872
a(I0
I628
F1.0
g829
I2
tp873
a(I0
I628
F-0.875
g831
I2
tp874
a(I0
I723
F-0.875
g833
I2
tp875
a(I0
I1055
F0.875
g835
I2
tp876
a(I0
I1055
F-0.875
g837
I2
tp877
a(I0
I1168
I0
g839
I2
tp878
a(I0
I1168
F-0.875
g841
I2
tp879
a(I0
I1360
F-0.875
g843
I2
tp880
a(I0
I1487
F-0.875
g845
I2
tp881
a(I0
I1786
I0
g847
I2
tp882
a(I0
I1858
F0.75
g849
I2
tp883
a(I0
I1887
F1.0
g851
I2
tp884
a(I0
I1887
F-0.875
g853
I2
tp885
a(I0
I2154
F-0.875
g855
I2
tp886
a(I0
I2167
F-0.875
g857
I2
tp887
a(I0
I2404
F-0.75
g859
I2
tp888
a(I0
I2727
F-0.875
S'low'
p889
I2
tp890
a(I0
I3093
F-0.875
S'low'
p891
I2
tp892
a(I0
I3236
F-0.875
g861
I2
tp893
a(I0
I4042
F-0.875
g863
I2
tp894
a(I0
I4043
F-0.875
g865
I2
tp895
a(I0
I4383
F-0.875
S'low'
p896
I2
tp897
a(I0
I266
F-0.875
g817
I14
tp898
a(I0
I319
F-0.875
g819
I14
tp899
a(I0
I352
F-0.875
g821
I14
tp900
a(I0
I352
F0.875
g823
I14
tp901
a(I0
I506
F-0.875
g825
I14
tp902
a(I0
I506
F-0.75
g827
I14
tp903
a(I0
I628
F1.0
g829
I14
tp904
a(I0
I628
F-0.875
g831
I14
tp905
a(I0
I708
F-0.75
S'artificial'
p906
I14
tp907
a(I0
I723
F-0.875
g833
I14
tp908
a(I0
I889
F0.375
S'compact'
p909
I14
tp910
a(I0
I1055
F0.875
g835
I14
tp911
a(I0
I1055
F-0.875
g837
I14
tp912
a(I0
I1168
I0
g839
I14
tp913
a(I0
I1168
F-0.875
g841
I14
tp914
a(I0
I1360
F-0.875
g843
I14
tp915
a(I0
I1487
F-0.875
g845
I14
tp916
a(I0
I1577
F-0.5
S'dull'
p917
I14
tp918
a(I0
I1858
F0.75
g849
I14
tp919
a(I0
I1887
F1.0
g851
I14
tp920
a(I0
I1887
F-0.875
g853
I14
tp921
a(I0
I2154
F-0.875
g855
I14
tp922
a(I0
I2167
F-0.875
g857
I14
tp923
a(I0
I2195
F-0.875
S'small'
p924
I14
tp925
a(I0
I2404
F-0.75
g859
I14
tp926
a(I0
I2574
F-0.5
S'flash'
p927
I14
tp928
a(I0
I2727
F-0.875
g889
I14
tp929
a(I0
I3093
F-0.875
g891
I14
tp930
a(I0
I3236
F-0.875
g861
I14
tp931
a(I0
I4042
F-0.875
g863
I14
tp932
a(I0
I4043
F-0.875
g865
I14
tp933
a(I0
I4383
F-0.875
g896
I14
tp934
as(S'need'
p935
tp936
(lp937
(I0
I421
F0.875
S'great'
p938
I9
tp939
a(I0
I515
F1.0
S'best'
p940
I9
tp941
a(I0
I781
F-0.375
S'same'
p942
I9
tp943
a(I0
I1734
I0
S'u'
p944
I9
tp945
a(I0
I1849
I0
S't'
p946
I9
tp947
a(I0
I1957
F-0.625
S'sharp'
p948
I9
tp949
as(S'dual'
p950
S'sim'
p951
tp952
(lp953
(I0
I282
F0.5
S'dual'
p954
I1
tp955
a(I0
I715
F0.5
S'dual'
p956
I1
tp957
a(I0
I1416
F0.5
S'dual'
p958
I1
tp959
a(I0
I1417
F0.5
S'dual'
p960
I1
tp961
a(I0
I1417
F-0.75
S'single'
p962
I1
tp963
a(I0
I1683
F0.5
S'dual'
p964
I1
tp965
a(I0
I1746
F0.5
S'dual'
p966
I1
tp967
a(I0
I2092
F0.5
S'dual'
p968
I1
tp969
a(I0
I2119
I0
S'hybrid'
p970
I1
tp971
a(I0
I2119
F0.5
S'dual'
p972
I1
tp973
a(I0
I2259
F0.5
S'dual'
p974
I1
tp975
a(I0
I2259
I0
S'hybrid'
p976
I1
tp977
a(I0
I2459
F0.5
S'dual'
p978
I1
tp979
a(I0
I2633
F0.5
S'dual'
p980
I1
tp981
a(I0
I2782
F0.5
S'dual'
p982
I1
tp983
a(I0
I2782
F-0.75
S'single'
p984
I1
tp985
a(I0
I2842
F0.5
S'dual'
p986
I1
tp987
a(I0
I2880
F0.5
S'second'
p988
I1
tp989
a(I0
I3199
F0.5
S'dual'
p990
I1
tp991
as(S'fingerprint'
p992
S'scanner'
p993
tp994
(lp995
(I0
I349
F1.0
g379
I0
tp996
a(I0
I672
F0.5
S'rapid'
p997
I0
tp998
a(I0
I1006
F-0.625
g383
I0
tp999
a(I0
I1171
F0.5
g385
I0
tp1000
a(I0
I1198
F-0.625
g387
I0
tp1001
a(I0
I1491
F1.0
g389
I0
tp1002
a(I0
I1711
I0
S'screen'
p1003
I0
tp1004
a(I0
I1746
I0
g391
I0
tp1005
a(I0
I2050
F1.0
g393
I0
tp1006
a(I0
I2077
F-0.625
g395
I0
tp1007
a(I0
I2077
I0
g397
I0
tp1008
a(I0
I2688
F0.625
S'fine'
p1009
I0
tp1010
a(I0
I2688
F0.875
g401
I0
tp1011
a(I0
I3230
F-0.625
g403
I0
tp1012
a(I0
I3949
F0.625
g407
I0
tp1013
as(S'mobile'
p1014
S'at'
p1015
S'price'
p1016
tp1017
(lp1018
(I0
I744
F1.0
S'best'
p1019
I0
tp1020
a(I0
I2043
F1.0
g434
I0
tp1021
a(I0
I2505
F0.5
S'reasonable'
p1022
I0
tp1023
a(I0
I2620
F-0.875
S'low'
p1024
I0
tp1025
a(I0
I3017
F-0.125
S'such'
p1026
I0
tp1027
a(I0
I3017
F1.0
g440
I0
tp1028
a(I0
I3163
F1.0
S'best'
p1029
I0
tp1030
a(I0
I3489
F-0.875
S'lower'
p1031
I0
tp1032
a(I0
I3520
F1.0
S'best'
p1033
I0
tp1034
as(S'a'
p1035
S'little'
p1036
S'bit'
p1037
tp1038
(lp1039
(I0
I517
F-0.75
S'little'
p1040
I0
tp1041
a(I0
I847
F-0.75
S'little'
p1042
I0
tp1043
a(I0
I1272
F-0.75
S'little'
p1044
I0
tp1045
a(I0
I1272
F-0.5
S'disappointed'
p1046
I0
tp1047
a(I0
I1403
F-0.75
S'little'
p1048
I0
tp1049
a(I0
I1403
F-0.5
S'heavy'
p1050
I0
tp1051
a(I0
I1403
F0.125
S'don'
p1052
I0
tp1053
a(I0
I1403
I0
S't'
p1054
I0
tp1055
a(I0
I1549
F-0.75
S'little'
p1056
I0
tp1057
a(I0
I1609
F-0.75
S'little'
p1058
I0
tp1059
a(I0
I1613
F-0.75
S'little'
p1060
I0
tp1061
a(I0
I1694
F-0.75
S'little'
p1062
I0
tp1063
a(I0
I2220
F-0.75
S'little'
p1064
I0
tp1065
a(I0
I2471
F-0.75
S'little'
p1066
I0
tp1067
a(I0
I2860
F-0.75
S'little'
p1068
I0
tp1069
a(I0
I2860
F-0.75
S'confused'
p1070
I0
tp1071
a(I0
I3010
F-0.75
S'little'
p1072
I0
tp1073
a(I0
I3501
F-0.75
S'little'
p1074
I0
tp1075
a(I0
I3501
F-0.75
S'loose'
p1076
I0
tp1077
a(I0
I4042
F-0.75
S'little'
p1078
I0
tp1079
a(I0
I4182
F-0.75
S'little'
p1080
I0
tp1081
a(I0
I4182
F0.75
S'sound'
p1082
I0
tp1083
a(I0
I4182
F-0.5
S'slow'
p1084
I0
tp1085
a(I0
I517
F-0.75
g1040
I4
tp1086
a(I0
I847
F-0.75
g1042
I4
tp1087
a(I0
I1272
F-0.75
g1044
I4
tp1088
a(I0
I1272
F-0.5
g1046
I4
tp1089
a(I0
I1403
F-0.75
g1048
I4
tp1090
a(I0
I1403
F-0.5
g1050
I4
tp1091
a(I0
I1403
F0.125
g1052
I4
tp1092
a(I0
I1403
I0
g1054
I4
tp1093
a(I0
I1549
F-0.75
g1056
I4
tp1094
a(I0
I1609
F-0.75
g1058
I4
tp1095
a(I0
I1613
F-0.75
g1060
I4
tp1096
a(I0
I1694
F-0.75
g1062
I4
tp1097
a(I0
I2220
F-0.75
g1064
I4
tp1098
a(I0
I2471
F-0.75
g1066
I4
tp1099
a(I0
I2860
F-0.75
g1068
I4
tp1100
a(I0
I2860
F-0.75
g1070
I4
tp1101
a(I0
I3010
F-0.75
g1072
I4
tp1102
a(I0
I3501
F-0.75
g1074
I4
tp1103
a(I0
I3501
F-0.75
g1076
I4
tp1104
a(I0
I4042
F-0.75
g1078
I4
tp1105
a(I0
I4182
F-0.75
g1080
I4
tp1106
a(I0
I4182
F0.75
g1082
I4
tp1107
a(I0
I4182
F-0.5
g1084
I4
tp1108
as(S'build'
p1109
S'quality'
p1110
tp1111
(lp1112
(I0
I168
I0
S'light'
p1113
I2
tp1114
a(I0
I315
I0
S'build'
p1115
I2
tp1116
a(I0
I633
F0.875
S'great'
p1117
I2
tp1118
a(I0
I1005
F0.875
S'nice'
p1119
I2
tp1120
a(I0
I1050
I0
S'build'
p1121
I2
tp1122
a(I0
I1050
F0.75
S'premium'
p1123
I2
tp1124
a(I0
I1365
F0.875
S'awesome'
p1125
I2
tp1126
a(I0
I2418
I0
S'build'
p1127
I2
tp1128
a(I0
I2932
F0.875
S'great'
p1129
I2
tp1130
a(I0
I3409
I0
S'build'
p1131
I2
tp1132
a(I0
I3416
F1.0
S'good'
p1133
I2
tp1134
a(I0
I3989
F1.0
S'good'
p1135
I2
tp1136
as(S'in'
p1137
S'redmi'
p1138
S'note'
p1139
tp1140
(lp1141
(I0
I987
F-0.625
S'quite'
p1142
I0
tp1143
a(I0
I1425
F-0.875
S'inferior'
p1144
I0
tp1145
a(I0
I1425
F-0.875
S'poor'
p1146
I0
tp1147
a(I0
I1547
F-1.0
g12
I0
tp1148
a(I0
I1864
F-0.25
g14
I0
tp1149
a(I0
I2751
F-0.875
g347
I0
tp1150
a(I0
I2890
F-0.25
S'i'
p1151
I0
tp1152
a(I0
I4066
F-0.625
g20
I0
tp1153
a(I0
I4066
F-0.625
g22
I0
tp1154
a(I0
I4184
F0.625
g24
I0
tp1155
a(I0
I4315
F1.0
g26
I0
tp1156
a(I0
I4530
F0.375
g28
I0
tp1157
a(I0
I4561
F1.0
g30
I0
tp1158
a(I0
I4561
F-0.875
g32
I0
tp1159
as(S'camera'
p1160
S'not'
p1161
S'good'
p1162
tp1163
(lp1164
(I0
I397
F0.375
S'ok'
p1165
I1
tp1166
a(I0
I397
F-0.125
S'front'
p1167
I1
tp1168
a(I0
I397
F1.0
S'good'
p1169
I1
tp1170
a(I0
I592
F1.0
S'good'
p1171
I1
tp1172
a(I0
I592
F1.0
S'best'
p1173
I1
tp1174
a(I0
I1104
F1.0
S'good'
p1175
I1
tp1176
a(I0
I1111
I0
S'more'
p1177
I1
tp1178
a(I0
I1111
F0.5
S'satisfactory'
p1179
I1
tp1180
a(I0
I1168
F0.375
S'much'
p1181
I1
tp1182
a(I0
I1168
F0.875
S'happy'
p1183
I1
tp1184
a(I0
I1168
F1.0
S'good'
p1185
I1
tp1186
a(I0
I1847
F1.0
S'good'
p1187
I1
tp1188
a(I0
I1847
F0.75
S'outstanding'
p1189
I1
tp1190
a(I0
I2197
I0
S'wifi'
p1191
I1
tp1192
a(I0
I2197
F0.875
S'nice'
p1193
I1
tp1194
a(I0
I2550
F1.0
S'good'
p1195
I1
tp1196
a(I0
I2622
F1.0
S'good'
p1197
I1
tp1198
a(I0
I2756
F-0.625
S'average'
p1199
I1
tp1200
a(I0
I2779
F0.875
S'awesome'
p1201
I1
tp1202
a(I0
I2779
F0.375
S'ok'
p1203
I1
tp1204
a(I0
I2823
F1.0
S'good'
p1205
I1
tp1206
a(I0
I2844
F-1.0
S'bad'
p1207
I1
tp1208
a(I0
I2844
F1.0
S'good'
p1209
I1
tp1210
a(I0
I2868
I0
S'more'
p1211
I1
tp1212
a(I0
I2881
F0.125
S'mobile'
p1213
I1
tp1214
a(I0
I2881
F-0.375
S'vary'
p1215
I1
tp1216
a(I0
I2999
F1.0
S'good'
p1217
I1
tp1218
a(I0
I3360
F-1.0
S'worst'
p1219
I1
tp1220
a(I0
I3796
F1.0
S'good'
p1221
I1
tp1222
a(I0
I3862
F-0.875
S'poor'
p1223
I1
tp1224
a(I0
I4019
F1.0
S'good'
p1225
I1
tp1226
a(I0
I4085
F-0.125
S'front'
p1227
I1
tp1228
a(I0
I4085
F1.0
S'good'
p1229
I1
tp1230
a(I0
I4201
F1.0
S'good'
p1231
I1
tp1232
a(I0
I4217
F0.875
S'awesome'
p1233
I1
tp1234
a(I0
I4383
F-0.875
S'low'
p1235
I1
tp1236
a(I0
I4383
I0
S'light'
p1237
I1
tp1238
a(I0
I4496
F-0.625
S'other'
p1239
I1
tp1240
a(I0
I4496
F1.0
S'good'
p1241
I1
tp1242
as(g1035
S'long'
p1243
S'time'
p1244
tp1245
(lp1246
(I0
I109
F-0.5
S'long'
p1247
I0
tp1248
a(I0
I415
I0
S'prolonged'
p1249
I0
tp1250
a(I0
I990
F-0.5
S'long'
p1251
I0
tp1252
a(I0
I1088
F-0.5
S'long'
p1253
I0
tp1254
a(I0
I1760
F-0.5
S'long'
p1255
I0
tp1256
a(I0
I1760
F0.625
S'fine'
p1257
I0
tp1258
a(I0
I2475
F-0.5
S'long'
p1259
I0
tp1260
a(I0
I3377
F-0.5
S'long'
p1261
I0
tp1262
a(I0
I3492
I0
S'ship'
p1263
I0
tp1264
a(I0
I3967
F-0.5
S'longer'
p1265
I0
tp1266
a(I0
I4528
F-0.5
S'long'
p1267
I0
tp1268
as(S'good'
p1269
S'product'
p1270
tp1271
(lp1272
(I0
I569
F-0.125
S'such'
p1273
I5
tp1274
a(I0
I569
F1.0
S'good'
p1275
I5
tp1276
a(I0
I615
F1.0
S'good'
p1277
I5
tp1278
a(I0
I774
F1.0
g556
I5
tp1279
a(I0
I824
F1.0
S'good'
p1280
I5
tp1281
a(I0
I1043
F1.0
S'good'
p1282
I5
tp1283
a(I0
I1994
F0.375
S'available'
p1284
I5
tp1285
a(I0
I2043
F1.0
S'excellent'
p1286
I5
tp1287
a(I0
I2329
F1.0
S'good'
p1288
I5
tp1289
a(I0
I2469
F-0.625
S'other'
p1290
I5
tp1291
a(I0
I2469
I-100
S'goodafter'
p1292
I5
tp1293
a(I0
I2551
F1.0
S'good'
p1294
I5
tp1295
a(I0
I2574
F1.0
S'good'
p1296
I5
tp1297
a(I0
I2810
F1.0
S'good'
p1298
I5
tp1299
a(I0
I2904
F1.0
S'good'
p1300
I5
tp1301
a(I0
I2930
F1.0
S'good'
p1302
I5
tp1303
a(I0
I2930
F1.0
S'good'
p1304
I5
tp1305
a(I0
I2985
F1.0
S'good'
p1306
I5
tp1307
a(I0
I3151
F-0.625
S'average'
p1308
I5
tp1309
a(I0
I3151
I-100
S'camarathe'
p1310
I5
tp1311
a(I0
I3151
F1.0
S'good'
p1312
I5
tp1313
a(I0
I3220
F1.0
S'best'
p1314
I5
tp1315
a(I0
I3228
F1.0
S'excellent'
p1316
I5
tp1317
a(I0
I3345
F1.0
S'good'
p1318
I5
tp1319
a(I0
I3358
I-100
S'wifigood'
p1320
I5
tp1321
a(I0
I3408
F1.0
S'good'
p1322
I5
tp1323
a(I0
I3421
F0.875
S'nice'
p1324
I5
tp1325
a(I0
I3440
F-0.25
S'i'
p1326
I5
tp1327
a(I0
I3449
F0.625
S'fine'
p1328
I5
tp1329
a(I0
I3453
I-100
S'owsom'
p1330
I5
tp1331
a(I0
I3453
I0
S'mi'
p1332
I5
tp1333
a(I0
I3464
F1.0
S'good'
p1334
I5
tp1335
a(I0
I3464
F0.125
S'please'
p1336
I5
tp1337
a(I0
I3664
F1.0
S'good'
p1338
I5
tp1339
a(I0
I3695
I-100
S'nownice'
p1340
I5
tp1341
a(I0
I3696
I-100
S'cameravry'
p1342
I5
tp1343
a(I0
I3696
F0.875
S'nice'
p1344
I5
tp1345
a(I0
I3698
I-100
S'pleasenice'
p1346
I5
tp1347
a(I0
I3838
I-100
S'overgood'
p1348
I5
tp1349
a(I0
I4369
I-100
S'talkingnice'
p1350
I5
tp1351
a(I0
I4369
F1.0
S'good'
p1352
I5
tp1353
a(I0
I4369
I0
S'affordable'
p1354
I5
tp1355
a(I0
I4372
I0
S'chinese'
p1356
I5
tp1357
a(I0
I4399
F0.875
S'great'
p1358
I5
tp1359
a(I0
I4496
I-100
S'wordnice'
p1360
I5
tp1361
a(I0
I4496
F0.875
g562
I5
tp1362
a(I0
I4556
I0
S's'
p1363
I5
tp1364
a(I0
I4556
F1.0
S'good'
p1365
I5
tp1366
as(S'16'
p1367
S'mp'
p1368
tp1369
(lp1370
(I0
I397
F0.5
S'like'
p1371
I0
tp1372
a(I0
I1426
I0
S'rear'
p1373
I0
tp1374
a(I0
I1719
F1.0
S'good'
p1375
I0
tp1376
a(I0
I3114
F0.375
S'capable'
p1377
I0
tp1378
as(S'fingerprint'
p1379
S'sensor'
p1380
tp1381
(lp1382
(I0
I267
F-0.25
S'i'
p1383
I0
tp1384
a(I0
I655
F1.0
S'good'
p1385
I0
tp1386
a(I0
I756
F1.0
S'good'
p1387
I0
tp1388
a(I0
I789
F0.875
S'great'
p1389
I0
tp1390
a(I0
I1466
F0.875
S'awesome'
p1391
I0
tp1392
a(I0
I2813
F0.875
S'awesome'
p1393
I0
tp1394
a(I0
I2813
I0
S'useful'
p1395
I0
tp1396
a(I0
I3086
F-0.375
S'same'
p1397
I0
tp1398
a(I0
I3713
F-0.375
S'flawless'
p1399
I0
tp1400
a(I0
I3793
F1.0
S'good'
p1401
I0
tp1402
a(I0
I4127
F-0.625
S'fast'
p1403
I0
tp1404
a(I0
I4391
I0
S'quick'
p1405
I0
tp1406
a(I0
I267
F-0.25
g1383
I0
tp1407
a(I0
I672
F0.5
g997
I0
tp1408
a(I0
I1424
F1.0
S'good'
p1409
I0
tp1410
a(I0
I1711
I0
g1003
I0
tp1411
a(I0
I1766
F0.875
S'nice'
p1412
I0
tp1413
a(I0
I2688
F0.625
g1009
I0
tp1414
a(I0
I3713
F-0.375
g1399
I0
tp1415
as(S'note'
p1416
g34
S'gold'
p1417
tp1418
(lp1419
(I0
I1770
F0.875
S'awesome'
p1420
I0
tp1421
a(I0
I2890
F-0.25
g1151
I0
tp1422
a(I0
I4530
F0.375
g28
I0
tp1423
a(I0
I1770
F0.875
g1420
I0
tp1424
a(I0
I4144
F-0.25
S'i'
p1425
I0
tp1426
a(I0
I1105
F-0.625
S'last'
p1427
I0
tp1428
a(I0
I1105
I0
S'least'
p1429
I0
tp1430
a(I0
I1770
F0.875
g1420
I0
tp1431
a(I0
I1783
F0.875
S'great'
p1432
I0
tp1433
a(I0
I1827
I0
S'metallic'
p1434
I0
tp1435
a(I0
I2990
F1.0
S'good'
p1436
I0
tp1437
a(I0
I3613
F1.0
S'good'
p1438
I0
tp1439
a(I0
I3927
F-0.375
S'same'
p1440
I0
tp1441
a(I0
I3927
F1.0
S'good'
p1442
I0
tp1443
a(I0
I3927
I0
S'u'
p1444
I0
tp1445
a(I0
I4144
F-0.25
g1425
I0
tp1446
a(I0
I4499
F0.375
S'sleek'
p1447
I0
tp1448
as(S'replacement'
p1449
tp1450
(lp1451
(I0
I339
F0.5
S'ready'
p1452
I14
tp1453
a(I0
I1802
F-0.875
S'worried'
p1454
I14
tp1455
a(I0
I1803
F-1.0
S'bad'
p1456
I14
tp1457
a(I0
I1803
F0.375
S'ok'
p1458
I14
tp1459
a(I0
I2380
F0.25
S'able'
p1460
I14
tp1461
a(I0
I3940
F0.875
S'happy'
p1462
I14
tp1463
a(I0
I4178
F0.25
S'worth'
p1464
I14
tp1465
as(S'network'
p1466
tp1467
(lp1468
(I0
I501
F0.375
S'available'
p1469
I4
tp1470
a(I0
I1353
F-0.875
S'poor'
p1471
I4
tp1472
a(I0
I1811
F0.625
S'major'
p1473
I4
tp1474
a(I0
I2039
F0.125
S'signal'
p1475
I4
tp1476
a(I0
I2548
I-100
S'issue3g'
p1477
I4
tp1478
a(I0
I2754
F0.125
S'signal'
p1479
I4
tp1480
a(I0
I2930
F0.25
S'able'
p1481
I4
tp1482
a(I0
I3200
I0
S'cellular'
p1483
I4
tp1484
a(I0
I3511
I0
S'many'
p1485
I4
tp1486
a(I0
I3511
F0.75
S'times'
p1487
I4
tp1488
a(I0
I3987
I-100
S'2g'
p1489
I4
tp1490
a(I0
I3988
F-0.75
S'unable'
p1491
I4
tp1492
a(I0
I4345
F-1.0
S'worst'
p1493
I4
tp1494
as(S'no'
p1495
S'heating'
p1496
S'issues'
p1497
tp1498
(lp1499
(I0
I53
F-0.125
g735
I0
tp1500
a(I0
I521
F0.625
S'major'
p1501
I0
tp1502
a(I0
I703
F-0.75
S'warm'
p1503
I0
tp1504
a(I0
I703
F0.625
S'manageable'
p1505
I0
tp1506
a(I0
I2613
I0
S'sure'
p1507
I0
tp1508
a(I0
I3035
F0.125
S'mobile'
p1509
I0
tp1510
a(I0
I3035
I0
S'more'
p1511
I0
tp1512
a(I0
I3906
F-0.75
g763
I0
tp1513
a(I0
I53
F-0.125
g735
I0
tp1514
a(I0
I521
F0.625
g1501
I0
tp1515
a(I0
I703
F-0.75
g1503
I0
tp1516
a(I0
I703
F0.625
g1505
I0
tp1517
a(I0
I2613
I0
g1507
I0
tp1518
a(I0
I3035
F0.125
g1509
I0
tp1519
a(I0
I3035
I0
g1511
I0
tp1520
a(I0
I3906
F-0.75
g763
I0
tp1521
a(I0
I234
I0
S'own'
p1522
I4
tp1523
a(I0
I349
F-0.75
S'minor'
p1524
I4
tp1525
a(I0
I378
I0
S'serious'
p1526
I4
tp1527
a(I0
I378
F1.0
S'better'
p1528
I4
tp1529
a(I0
I521
F0.625
g1501
I4
tp1530
a(I0
I597
I0
S'lagging'
p1531
I4
tp1532
a(I0
I703
F-0.75
g1503
I4
tp1533
a(I0
I703
F0.625
g1505
I4
tp1534
a(I0
I784
F0.625
S'certain'
p1535
I4
tp1536
a(I0
I1140
F0.625
S'major'
p1537
I4
tp1538
a(I0
I1238
F-0.375
S'same'
p1539
I4
tp1540
a(I0
I2613
I0
g1507
I4
tp1541
a(I0
I3035
F0.125
g1509
I4
tp1542
a(I0
I3035
I0
g1511
I4
tp1543
a(I0
I3236
I0
S'only'
p1544
I4
tp1545
a(I0
I3236
F-0.75
S'minor'
p1546
I4
tp1547
a(I0
I3682
F0.5
S'second'
p1548
I4
tp1549
a(I0
I3803
I0
S'few'
p1550
I4
tp1551
a(I0
I4163
F-0.625
S'other'
p1552
I4
tp1553
as(S'flash'
p1554
S'sales'
p1555
tp1556
(lp1557
(I0
I1094
F-0.5
S'flash'
p1558
I0
tp1559
a(I0
I1752
F-0.5
S'flash'
p1560
I0
tp1561
a(I0
I1752
F-0.5
S'frustrated'
p1562
I0
tp1563
a(I0
I1919
F-0.5
S'flash'
p1564
I0
tp1565
a(I0
I2054
F-0.5
S'flash'
p1566
I0
tp1567
a(I0
I2294
F-0.5
S'flash'
p1568
I0
tp1569
a(I0
I2884
F-0.5
S'flash'
p1570
I0
tp1571
a(I0
I3097
F-0.5
S'flash'
p1572
I0
tp1573
a(I0
I3534
F-0.25
S'earlier'
p1574
I0
tp1575
a(I0
I3534
F-0.5
S'flash'
p1576
I0
tp1577
a(I0
I3572
F-0.5
S'flash'
p1578
I0
tp1579
a(I0
I4245
F-0.75
S'difficult'
p1580
I0
tp1581
a(I0
I4245
F0.625
S'crazy'
p1582
I0
tp1583
a(I0
I4293
F-0.5
S'flash'
p1584
I0
tp1585
a(I0
I4410
F-0.5
S'flash'
p1586
I0
tp1587
as(S'good'
p1588
S'mobile'
p1589
tp1590
(lp1591
(I0
I842
F1.0
g430
I1
tp1592
a(I0
I1450
F1.0
g432
I1
tp1593
a(I0
I1581
F1.0
S'good'
p1594
I1
tp1595
a(I0
I1684
F1.0
S'good'
p1596
I1
tp1597
a(I0
I2043
F1.0
g434
I1
tp1598
a(I0
I2058
F1.0
S'good'
p1599
I1
tp1600
a(I0
I2315
F1.0
g436
I1
tp1601
a(I0
I2519
F1.0
S'good'
p1602
I1
tp1603
a(I0
I2711
F-0.625
S'other'
p1604
I1
tp1605
a(I0
I2875
F1.0
S'good'
p1606
I1
tp1607
a(I0
I2966
F1.0
g438
I1
tp1608
a(I0
I2985
I-100
S'goodnice'
p1609
I1
tp1610
a(I0
I3017
F1.0
g440
I1
tp1611
a(I0
I3063
F1.0
S'best'
p1612
I1
tp1613
a(I0
I3231
F1.0
S'good'
p1614
I1
tp1615
a(I0
I3404
F0.875
g366
I1
tp1616
a(I0
I3802
F-0.125
g445
I1
tp1617
a(I0
I3802
F1.0
g447
I1
tp1618
a(I0
I4033
F1.0
g449
I1
tp1619
a(I0
I4192
F0.875
g451
I1
tp1620
a(I0
I4192
I-100
S'personsfantastic'
p1621
I1
tp1622
a(I0
I4369
I-100
S'versionpathetic'
p1623
I1
tp1624
a(I0
I4372
F1.0
g370
I1
tp1625
a(I0
I4558
F1.0
S'good'
p1626
I1
tp1627
as(S'front'
p1628
S'camera'
p1629
tp1630
(lp1631
(I0
I63
F-0.125
S'front'
p1632
I6
tp1633
a(I0
I63
F0.375
S'ok'
p1634
I6
tp1635
a(I0
I321
F-0.125
S'front'
p1636
I6
tp1637
a(I0
I397
F0.375
g1165
I6
tp1638
a(I0
I397
F-0.125
g1167
I6
tp1639
a(I0
I397
F1.0
g1169
I6
tp1640
a(I0
I407
F-0.125
S'front'
p1641
I6
tp1642
a(I0
I486
F-0.75
S'black'
p1643
I6
tp1644
a(I0
I629
F0.375
S'ok'
p1645
I6
tp1646
a(I0
I895
F0.875
S'decent'
p1647
I6
tp1648
a(I0
I1337
F1.0
S'good'
p1649
I6
tp1650
a(I0
I1379
I0
S'u'
p1651
I6
tp1652
a(I0
I1379
F-0.875
S'wrong'
p1653
I6
tp1654
a(I0
I1379
I0
S'u'
p1655
I6
tp1656
a(I0
I1379
I0
S'rear'
p1657
I6
tp1658
a(I0
I1426
F-0.875
S'poor'
p1659
I6
tp1660
a(I0
I1567
F0.375
S'ok'
p1661
I6
tp1662
a(I0
I1567
I0
S'rear'
p1663
I6
tp1664
a(I0
I1567
F-0.625
S'real'
p1665
I6
tp1666
a(I0
I1567
F-1.0
S'bad'
p1667
I6
tp1668
a(I0
I1888
I0
S'u'
p1669
I6
tp1670
a(I0
I2117
I0
S'rear'
p1671
I6
tp1672
a(I0
I2118
F-0.125
S'front'
p1673
I6
tp1674
a(I0
I2197
I0
g1191
I6
tp1675
a(I0
I2197
F0.875
g1193
I6
tp1676
a(I0
I2479
F1.0
S'good'
p1677
I6
tp1678
a(I0
I2669
F-0.125
S'front'
p1679
I6
tp1680
a(I0
I2670
I0
S'clear'
p1681
I6
tp1682
a(I0
I2670
F0.5
S'visible'
p1683
I6
tp1684
a(I0
I2823
F1.0
g1205
I6
tp1685
a(I0
I2850
F-0.125
S'front'
p1686
I6
tp1687
a(I0
I2864
F0.875
S'happy'
p1688
I6
tp1689
a(I0
I4043
F-0.125
S'front'
p1690
I6
tp1691
a(I0
I4085
F-0.125
g1227
I6
tp1692
a(I0
I4085
F1.0
g1229
I6
tp1693
a(I0
I4217
F0.875
g1233
I6
tp1694
as(S'heats'
p1695
tp1696
(lp1697
(I0
I1585
F-0.75
S'little'
p1698
I8
tp1699
a(I0
I3977
F-0.375
S'same'
p1700
I8
tp1701
a(I0
I3977
I-100
S'expectedmobile'
p1702
I8
tp1703
as(S'fine'
p1704
tp1705
(lp1706
(I0
I2860
F0.75
S'perfect'
p1707
I15
tp1708
a(I0
I3661
F0.25
S'able'
p1709
I15
tp1710
as(S'quality'
p1711
S'not'
p1712
S'good'
p1713
tp1714
(lp1715
(I0
I1111
F1.0
S'good'
p1716
I0
tp1717
a(I0
I1111
F-0.75
S'little'
p1718
I0
tp1719
a(I0
I1223
F1.0
S'good'
p1720
I0
tp1721
a(I0
I1365
F0.875
g1125
I0
tp1722
a(I0
I1661
F1.0
S'good'
p1723
I0
tp1724
a(I0
I1786
F0.5
S'satisfactory'
p1725
I0
tp1726
a(I0
I1887
F0.75
S'fair'
p1727
I0
tp1728
a(I0
I1905
F1.0
S'good'
p1729
I0
tp1730
a(I0
I2043
I-100
S'wellcamera'
p1731
I0
tp1732
a(I0
I2197
F1.0
S'good'
p1733
I0
tp1734
a(I0
I3371
F0.375
S'much'
p1735
I0
tp1736
a(I0
I3371
F-0.875
S'poor'
p1737
I0
tp1738
a(I0
I3862
F0.75
S'sound'
p1739
I0
tp1740
a(I0
I3868
F1.0
S'good'
p1741
I0
tp1742
a(I0
I4085
F1.0
S'good'
p1743
I0
tp1744
a(I0
I4372
F-0.875
S'poor'
p1745
I0
tp1746
a(I0
I4372
F-0.875
S'poor'
p1747
I0
tp1748
a(I0
I4462
F1.0
S'good'
p1749
I0
tp1750
a(I0
I4546
F1.0
S'good'
p1751
I0
tp1752
as(S'service'
p1753
S'by'
p1754
S'amazon'
p1755
tp1756
(lp1757
(I0
I1801
F0.75
S'fantastic'
p1758
I0
tp1759
a(I0
I3256
F1.0
S'good'
p1760
I0
tp1761
as(S'xiaomi'
p1762
S'redmi'
p1763
S'note'
p1764
tp1765
(lp1766
(I0
I1040
F0.5
S'upgraded'
p1767
I0
tp1768
a(I0
I1864
F-0.25
g14
I0
tp1769
a(I0
I2125
F0.625
S'first'
p1770
I0
tp1771
a(I0
I2574
F-0.125
S'overall'
p1772
I0
tp1773
a(I0
I2654
F0.125
S'please'
p1774
I0
tp1775
a(I0
I3615
I0
S'impressed'
p1776
I0
tp1777
a(I0
I1040
F0.5
g1767
I0
tp1778
a(I0
I2125
F0.625
g1770
I0
tp1779
a(I0
I2574
F-0.125
g1772
I0
tp1780
a(I0
I2654
F0.125
g1774
I0
tp1781
a(I0
I74
I-100
S'phoneredmi'
p1782
I0
tp1783
a(I0
I987
F-0.625
g1142
I0
tp1784
a(I0
I1040
F0.5
g1767
I0
tp1785
a(I0
I1425
F-0.875
g1144
I0
tp1786
a(I0
I1425
F-0.875
g1146
I0
tp1787
a(I0
I1505
F-0.75
S'defective'
p1788
I0
tp1789
a(I0
I1547
F-1.0
g12
I0
tp1790
a(I0
I1864
F-0.25
g14
I0
tp1791
a(I0
I2141
F1.0
g16
I0
tp1792
a(I0
I2751
F-0.875
g347
I0
tp1793
a(I0
I2890
F-0.25
g1151
I0
tp1794
a(I0
I3194
F-0.625
g18
I0
tp1795
a(I0
I3615
I0
g1776
I0
tp1796
a(I0
I4066
F-0.625
g20
I0
tp1797
a(I0
I4066
F-0.625
g22
I0
tp1798
a(I0
I4184
F0.625
g24
I0
tp1799
a(I0
I4218
I-100
S'itredmi'
p1800
I0
tp1801
a(I0
I4315
F1.0
g26
I0
tp1802
a(I0
I4530
F0.375
g28
I0
tp1803
a(I0
I4561
I-100
S'thisredmi'
p1804
I0
tp1805
a(I0
I4561
F1.0
g30
I0
tp1806
a(I0
I4561
F-0.875
g32
I0
tp1807
a(I0
I51
F-0.625
S'other'
p1808
I0
tp1809
a(I0
I345
I0
S'more'
p1810
I0
tp1811
a(I0
I828
F1.0
S'better'
p1812
I0
tp1813
a(I0
I862
F0.125
S'signal'
p1814
I0
tp1815
a(I0
I900
F0.625
S'first'
p1816
I0
tp1817
a(I0
I1272
F0.5
S'internal'
p1818
I0
tp1819
a(I0
I1747
F-0.5
S'original'
p1820
I0
tp1821
a(I0
I1832
F0.5
S'understood'
p1822
I0
tp1823
a(I0
I2125
F0.625
g1770
I0
tp1824
a(I0
I2157
F-0.625
S'silent'
p1825
I0
tp1826
a(I0
I2171
F1.0
S'good'
p1827
I0
tp1828
a(I0
I2375
F0.375
S'much'
p1829
I0
tp1830
a(I0
I2574
F-0.125
g1772
I0
tp1831
a(I0
I2654
F0.125
g1774
I0
tp1832
a(I0
I2885
I0
S'more'
p1833
I0
tp1834
a(I0
I3329
F0.75
S'perfect'
p1835
I0
tp1836
a(I0
I3363
I0
S'u'
p1837
I0
tp1838
a(I0
I3810
I0
S'least'
p1839
I0
tp1840
a(I0
I4180
I-100
S'ulta'
p1841
I0
tp1842
a(I0
I4383
F1.0
S'good'
p1843
I0
tp1844
a(I0
I4504
F0.625
S'fool'
p1845
I0
tp1846
a(I0
I1040
F0.5
g1767
I2
tp1847
a(I0
I1505
F-0.75
g1788
I2
tp1848
a(I0
I1547
F-1.0
g12
I2
tp1849
a(I0
I1709
F0.375
S'much'
p1850
I2
tp1851
a(I0
I2160
F0.5
S'bought'
p1852
I2
tp1853
a(I0
I3194
F-0.625
g18
I2
tp1854
a(I0
I4112
F0.625
S'fool'
p1855
I2
tp1856
a(I0
I4184
F0.625
g24
I2
tp1857
a(I0
I4315
F1.0
g26
I2
tp1858
a(I0
I4511
F1.0
S'best'
p1859
I2
tp1860
a(I0
I987
F-0.625
g1142
I1
tp1861
a(I0
I1140
F-0.25
S'past'
p1862
I1
tp1863
a(I0
I1422
F0.375
S'much'
p1864
I1
tp1865
a(I0
I1425
F-0.875
g1144
I1
tp1866
a(I0
I1425
F-0.875
g1146
I1
tp1867
a(I0
I1679
I0
S'maine'
p1868
I1
tp1869
a(I0
I1864
F-0.25
g14
I1
tp1870
a(I0
I2141
F1.0
g16
I1
tp1871
a(I0
I2202
F0.375
S'available'
p1872
I1
tp1873
a(I0
I2202
F-0.625
S'new'
p1874
I1
tp1875
a(I0
I2202
I0
S'mi'
p1876
I1
tp1877
a(I0
I2711
F-0.625
S'faster'
p1878
I1
tp1879
a(I0
I2711
F-0.625
S'faster'
p1880
I1
tp1881
a(I0
I2711
I-100
S'mobilemi'
p1882
I1
tp1883
a(I0
I2751
F-0.875
g347
I1
tp1884
a(I0
I2890
F-0.25
g1151
I1
tp1885
a(I0
I3615
I0
g1776
I1
tp1886
a(I0
I3695
I0
S'mi'
p1887
I1
tp1888
a(I0
I3851
F0.375
S'much'
p1889
I1
tp1890
a(I0
I3851
F1.0
S'better'
p1891
I1
tp1892
a(I0
I4066
F-0.625
g20
I1
tp1893
a(I0
I4066
F-0.625
g22
I1
tp1894
a(I0
I4186
I0
S'mi'
p1895
I1
tp1896
a(I0
I4530
F0.375
g28
I1
tp1897
a(I0
I4561
F1.0
g30
I1
tp1898
a(I0
I4561
F-0.875
g32
I1
tp1899
as(S'home'
p1900
S'screens'
p1901
tp1902
(lp1903
(I0
I242
I0
S'most'
p1904
I0
tp1905
as(S'moto'
p1906
S'g4'
p1907
tp1908
(lp1909
(I0
I536
I0
S'sure'
p1910
I0
tp1911
a(I0
I4456
F1.0
S'best'
p1912
I0
tp1913
as(S'worth'
p1914
tp1915
(lp1916
(I0
I2313
F-0.125
S'overall'
p1917
I8
tp1918
a(I0
I2608
F0.125
S'mobile'
p1919
I8
tp1920
a(I0
I3208
I0
S'more'
p1921
I8
tp1922
a(I0
I4469
F1.0
S'good'
p1923
I8
tp1924
as(S'in'
p1925
S'day'
p1926
S'light'
p1927
tp1928
(lp1929
(I0
I352
F-0.875
g821
I1
tp1930
a(I0
I352
F0.875
g823
I1
tp1931
a(I0
I2756
F-0.875
S'poor'
p1932
I1
tp1933
a(I0
I2756
I0
S'light'
p1934
I1
tp1935
a(I0
I3754
I0
S'light'
p1936
I1
tp1937
a(I0
I4042
I0
S'light'
p1938
I1
tp1939
a(I0
I4042
F-0.875
g863
I1
tp1940
a(I0
I4043
I0
S'light'
p1941
I1
tp1942
a(I0
I4043
F-0.875
g865
I1
tp1943
a(I0
I4201
I0
S'light'
p1944
I1
tp1945
as(S'finger'
p1946
S'print'
p1947
S'sensor'
p1948
tp1949
(lp1950
(I0
I326
F0.375
S'full'
p1951
I0
tp1952
a(I0
I419
I-100
S'practicle'
p1953
I0
tp1954
a(I0
I655
F1.0
g1385
I0
tp1955
a(I0
I756
F1.0
g1387
I0
tp1956
a(I0
I789
F0.875
g1389
I0
tp1957
a(I0
I972
F0.5
S'elegant'
p1958
I0
tp1959
a(I0
I972
F0.875
S'golden'
p1960
I0
tp1961
a(I0
I972
F0.625
S'fine'
p1962
I0
tp1963
a(I0
I1466
F0.875
g1391
I0
tp1964
a(I0
I2813
F0.875
g1393
I0
tp1965
a(I0
I2813
I0
g1395
I0
tp1966
a(I0
I2828
F0.75
S'fantastic'
p1967
I0
tp1968
a(I0
I3086
F-0.375
g1397
I0
tp1969
a(I0
I3793
F1.0
g1401
I0
tp1970
a(I0
I4127
F-0.625
g1403
I0
tp1971
a(I0
I4391
I0
g1405
I0
tp1972
a(I0
I326
F0.375
g1951
I0
tp1973
a(I0
I655
F1.0
g1385
I0
tp1974
a(I0
I756
F1.0
g1387
I0
tp1975
a(I0
I789
F0.875
g1389
I0
tp1976
a(I0
I855
I0
S'pretty'
p1977
I0
tp1978
a(I0
I972
F0.625
g1962
I0
tp1979
a(I0
I1466
F0.875
g1391
I0
tp1980
a(I0
I2741
F-0.625
S'other'
p1981
I0
tp1982
a(I0
I2813
F0.875
g1393
I0
tp1983
a(I0
I2813
I0
g1395
I0
tp1984
a(I0
I2828
F0.75
g1967
I0
tp1985
a(I0
I3086
F-0.375
g1397
I0
tp1986
a(I0
I3793
F1.0
g1401
I0
tp1987
a(I0
I4127
F-0.625
g1403
I0
tp1988
a(I0
I4391
I0
g1405
I0
tp1989
a(I0
I64
I0
S'finger'
p1990
I0
tp1991
a(I0
I349
F-0.75
g381
I0
tp1992
a(I0
I420
I0
S'sure'
p1993
I0
tp1994
a(I0
I551
F0.875
S'great'
p1995
I0
tp1996
a(I0
I586
F0.875
S'great'
p1997
I0
tp1998
a(I0
I972
F0.5
g1958
I0
tp1999
a(I0
I972
F0.875
g1960
I0
tp2000
a(I0
I1759
F-0.625
S'fast'
p2001
I0
tp2002
a(I0
I2267
I0
g399
I0
tp2003
a(I0
I4502
F1.0
S'good'
p2004
I0
tp2005
a(I0
I4502
F0.875
S'awesome'
p2006
I0
tp2007
a(I0
I326
F0.375
g1951
I7
tp2008
a(I0
I561
F0.875
S'nice'
p2009
I7
tp2010
a(I0
I655
F1.0
g1385
I7
tp2011
a(I0
I756
F1.0
g1387
I7
tp2012
a(I0
I789
F0.875
g1389
I7
tp2013
a(I0
I855
I0
g1977
I7
tp2014
a(I0
I972
F0.625
g1962
I7
tp2015
a(I0
I1466
F0.875
g1391
I7
tp2016
a(I0
I1717
F-0.875
S'poor'
p2017
I7
tp2018
a(I0
I2813
F0.875
g1393
I7
tp2019
a(I0
I2813
I0
g1395
I7
tp2020
a(I0
I2828
F0.75
g1967
I7
tp2021
a(I0
I3086
F-0.375
g1397
I7
tp2022
a(I0
I3793
F1.0
g1401
I7
tp2023
a(I0
I4127
F-0.625
g1403
I7
tp2024
a(I0
I4391
I0
g1405
I7
tp2025
a(I0
I64
I0
g1990
I1
tp2026
a(I0
I551
F0.875
g1995
I1
tp2027
a(I0
I586
F0.875
g1997
I1
tp2028
a(I0
I1759
F-0.625
g2001
I1
tp2029
a(I0
I2267
I0
g399
I1
tp2030
a(I0
I2730
I-100
S'smoothfinger'
p2031
I1
tp2032
a(I0
I2741
F-0.625
g1981
I1
tp2033
a(I0
I4502
F0.875
g2006
I1
tp2034
a(I0
I349
F-0.75
g381
I0
tp2035
a(I0
I420
I0
g1993
I0
tp2036
a(I0
I535
I0
S'middle'
p2037
I0
tp2038
a(I0
I972
F0.5
g1958
I0
tp2039
a(I0
I972
F0.875
g1960
I0
tp2040
a(I0
I3078
F0.5
S'touch'
p2041
I0
tp2042
a(I0
I4502
F1.0
g2004
I0
tp2043
as(S'amazing'
p2044
tp2045
(lp2046
(I0
I979
F1.0
S'good'
p2047
I1
tp2048
as(S'speed'
p2049
tp2050
(lp2051
(I0
I94
F1.0
S'good'
p2052
I14
tp2053
a(I0
I390
F0.625
S'smooth'
p2054
I14
tp2055
a(I0
I560
F-0.625
S'fast'
p2056
I14
tp2057
a(I0
I1102
F1.0
S'good'
p2058
I14
tp2059
a(I0
I1135
I0
S'shutter'
p2060
I14
tp2061
a(I0
I1700
F1.0
S'good'
p2062
I14
tp2063
a(I0
I2197
F-0.25
S'ram'
p2064
I14
tp2065
a(I0
I2197
F0.875
S'nice'
p2066
I14
tp2067
a(I0
I2197
F1.0
S'best'
p2068
I14
tp2069
a(I0
I2556
F0.75
S'perfect'
p2070
I14
tp2071
a(I0
I2577
F0.5
S'high'
p2072
I14
tp2073
a(I0
I2615
F1.0
S'good'
p2074
I14
tp2075
a(I0
I2829
F1.0
S'good'
p2076
I14
tp2077
a(I0
I2838
F1.0
S'good'
p2078
I14
tp2079
a(I0
I3457
F1.0
S'good'
p2080
I14
tp2081
a(I0
I3511
F-0.625
S'average'
p2082
I14
tp2083
a(I0
I3605
F0.875
S'awesome'
p2084
I14
tp2085
a(I0
I3605
F-0.375
S'same'
p2086
I14
tp2087
a(I0
I4392
I0
S'net'
p2088
I14
tp2089
as(S'good'
p2090
S'battery'
p2091
S'life'
p2092
tp2093
(lp2094
(I0
I373
I0
g589
I0
tp2095
a(I0
I906
F1.0
g593
I0
tp2096
a(I0
I1536
F1.0
g614
I0
tp2097
a(I0
I1910
F1.0
S'good'
p2098
I0
tp2099
a(I0
I2729
F1.0
g635
I0
tp2100
a(I0
I2980
F-1.0
g272
I0
tp2101
a(I0
I3086
F-0.5
S'long'
p2102
I0
tp2103
a(I0
I3265
F1.0
S'good'
p2104
I0
tp2105
a(I0
I3838
F1.0
g656
I0
tp2106
a(I0
I4217
I0
g276
I0
tp2107
a(I0
I4217
F1.0
g278
I0
tp2108
a(I0
I4499
F1.0
g669
I0
tp2109
a(I0
I203
F0.625
S'smooth'
p2110
I3
tp2111
a(I0
I373
I0
g589
I3
tp2112
a(I0
I374
I-100
S'amazing5'
p2113
I3
tp2114
a(I0
I559
F0.875
S'nice'
p2115
I3
tp2116
a(I0
I594
F0.875
S'great'
p2117
I3
tp2118
a(I0
I600
F1.0
S'excellent'
p2119
I3
tp2120
a(I0
I600
F0.875
S'brilliant'
p2121
I3
tp2122
a(I0
I638
F-0.25
S'battery'
p2123
I3
tp2124
a(I0
I638
I0
S'inbuilt'
p2125
I3
tp2126
a(I0
I906
F1.0
g593
I3
tp2127
a(I0
I1051
F0.875
g268
I3
tp2128
a(I0
I1150
F-0.25
S'battery'
p2129
I3
tp2130
a(I0
I1151
F0.75
S'outstanding'
p2131
I3
tp2132
a(I0
I1151
F-0.625
S'last'
p2133
I3
tp2134
a(I0
I1225
F0.25
S'stellar'
p2135
I3
tp2136
a(I0
I1373
F1.0
S'excellent'
p2137
I3
tp2138
a(I0
I1536
F1.0
g614
I3
tp2139
a(I0
I1845
F1.0
S'excellent'
p2140
I3
tp2141
a(I0
I1908
F0.5
S'high'
p2142
I3
tp2143
a(I0
I1908
I0
S'isn'
p2144
I3
tp2145
a(I0
I1910
F1.0
g2098
I3
tp2146
a(I0
I2034
F0.875
S'great'
p2147
I3
tp2148
a(I0
I2242
F0.875
S'great'
p2149
I3
tp2150
a(I0
I2353
F1.0
S'best'
p2151
I3
tp2152
a(I0
I2486
F0.625
S'major'
p2153
I3
tp2154
a(I0
I2729
F1.0
g635
I3
tp2155
a(I0
I2950
F0.875
g270
I3
tp2156
a(I0
I2980
I-100
S'goodto'
p2157
I3
tp2158
a(I0
I2980
F-1.0
g272
I3
tp2159
a(I0
I3086
F-0.5
g2102
I3
tp2160
a(I0
I3089
F0.875
S'nice'
p2161
I3
tp2162
a(I0
I3149
F0.875
g274
I3
tp2163
a(I0
I3240
F-0.25
S'battery'
p2164
I3
tp2165
a(I0
I3265
F1.0
g2104
I3
tp2166
a(I0
I3288
F-0.25
S'battery'
p2167
I3
tp2168
a(I0
I3838
F1.0
g656
I3
tp2169
a(I0
I3955
F1.0
S'excellent'
p2170
I3
tp2171
a(I0
I4217
I0
g276
I3
tp2172
a(I0
I4217
F1.0
g278
I3
tp2173
a(I0
I4499
F1.0
g669
I3
tp2174
a(I0
I203
F0.625
g2110
I8
tp2175
a(I0
I594
F0.875
g2117
I8
tp2176
a(I0
I600
F0.875
g2121
I8
tp2177
a(I0
I638
F-0.25
g2123
I8
tp2178
a(I0
I1051
F0.875
g268
I8
tp2179
a(I0
I1150
F-0.25
g2129
I8
tp2180
a(I0
I1373
F1.0
g2137
I8
tp2181
a(I0
I1908
I0
g2144
I8
tp2182
a(I0
I1910
F1.0
g2098
I8
tp2183
a(I0
I2486
F0.625
g2153
I8
tp2184
a(I0
I2950
F0.875
g270
I8
tp2185
a(I0
I2980
F-1.0
g272
I8
tp2186
a(I0
I3086
F-0.5
g2102
I8
tp2187
a(I0
I3089
F0.875
g2161
I8
tp2188
a(I0
I3240
F-0.25
g2164
I8
tp2189
a(I0
I3265
F1.0
g2104
I8
tp2190
a(I0
I3288
F-0.25
g2167
I8
tp2191
a(I0
I3955
F1.0
g2170
I8
tp2192
as(S'camera'
p2193
S'quality'
p2194
S'average'
p2195
tp2196
(lp2197
(I0
I1123
F-0.625
S'average'
p2198
I0
tp2199
a(I0
I2740
F-0.625
S'average'
p2200
I0
tp2201
a(I0
I2933
F-0.625
S'average'
p2202
I0
tp2203
a(I0
I2957
F-0.625
S'average'
p2204
I0
tp2205
a(I0
I2966
F-0.75
S'little'
p2206
I0
tp2207
a(I0
I2966
F1.0
S'good'
p2208
I0
tp2209
a(I0
I2966
F-1.0
S'bad'
p2210
I0
tp2211
a(I0
I2966
I0
S'camera'
p2212
I0
tp2213
a(I0
I4282
F-0.625
S'average'
p2214
I0
tp2215
a(I0
I4462
F1.0
g1749
I0
tp2216
a(I0
I4462
F-0.25
S'i'
p2217
I0
tp2218
a(I0
I4462
F-0.125
S'overall'
p2219
I0
tp2220
a(I0
I4524
F-0.625
S'average'
p2221
I0
tp2222
a(I0
I4524
F-0.5
S'slow'
p2223
I0
tp2224
a(I0
I2775
I0
S'below'
p2225
I12
tp2226
a(I0
I3780
F-0.5
S'loud'
p2227
I12
tp2228
a(I0
I4153
I0
S'below'
p2229
I12
tp2230
a(I0
I4462
F-0.25
g2217
I12
tp2231
a(I0
I4462
F-0.125
g2219
I12
tp2232
as(S'front'
p2233
S'and'
p2234
S'back'
p2235
tp2236
(lp2237
(I0
I2479
F1.0
S'good'
p2238
I3
tp2239
a(I0
I867
F-0.625
S'average'
p2240
I14
tp2241
a(I0
I1337
F1.0
g1649
I14
tp2242
a(I0
I1379
I0
g1651
I14
tp2243
a(I0
I2197
I-100
S'osum'
p2244
I14
tp2245
as(S'days'
p2246
S'of'
p2247
S'use'
p2248
tp2249
(lp2250
(I0
I1215
I0
S'normal'
p2251
I0
tp2252
a(I0
I1412
I0
S'more'
p2253
I0
tp2254
a(I0
I1948
I0
S't'
p2255
I0
tp2256
a(I0
I4038
I0
S'few'
p2257
I0
tp2258
a(I0
I4160
I0
S'few'
p2259
I0
tp2260
a(I0
I4307
I0
S'few'
p2261
I0
tp2262
as(S'great'
p2263
tp2264
(lp2265
(I0
I2461
F0.625
S'super'
p2266
I5
tp2267
a(I0
I3408
I-100
S'sensorsi'
p2268
I5
tp2269
as(S'display'
p2270
tp2271
(lp2272
(I0
I105
I0
S'screen'
p2273
I13
tp2274
a(I0
I390
F1.0
S'good'
p2275
I13
tp2276
a(I0
I600
F0.5
S'responsive'
p2277
I13
tp2278
a(I0
I673
I0
S'bright'
p2279
I13
tp2280
a(I0
I1564
F0.875
S'superb'
p2281
I13
tp2282
a(I0
I1764
F0.875
S'brilliant'
p2283
I13
tp2284
a(I0
I2000
F0.5
S'graceful'
p2285
I13
tp2286
a(I0
I2196
F0.875
S'amazing'
p2287
I13
tp2288
a(I0
I2470
F1.0
S'good'
p2289
I13
tp2290
a(I0
I2556
F0.5
S'touch'
p2291
I13
tp2292
a(I0
I2577
F0.125
S'mobile'
p2293
I13
tp2294
a(I0
I2593
F1.0
S'good'
p2295
I13
tp2296
a(I0
I2593
F0.875
S'amazing'
p2297
I13
tp2298
a(I0
I2636
F0.875
S'nice'
p2299
I13
tp2300
a(I0
I2701
F-1.0
S'bad'
p2301
I13
tp2302
a(I0
I2712
F-1.0
S'bad'
p2303
I13
tp2304
a(I0
I2944
F0.875
S'awesome'
p2305
I13
tp2306
a(I0
I3088
F0.875
S'awesome'
p2307
I13
tp2308
a(I0
I3107
F1.0
S'good'
p2309
I13
tp2310
a(I0
I3312
I0
S'inch'
p2311
I13
tp2312
a(I0
I3439
F1.0
S'good'
p2313
I13
tp2314
a(I0
I3476
F-0.75
S'dark'
p2315
I13
tp2316
a(I0
I3477
I0
S'legible'
p2317
I13
tp2318
a(I0
I3506
F0.875
S'great'
p2319
I13
tp2320
a(I0
I3674
F1.0
S'excellent'
p2321
I13
tp2322
a(I0
I3788
F1.0
S'good'
p2323
I13
tp2324
a(I0
I3950
F-0.625
S'sharp'
p2325
I13
tp2326
a(I0
I3950
I0
S'crystal'
p2327
I13
tp2328
a(I0
I4048
I0
S'bright'
p2329
I13
tp2330
a(I0
I4375
I-100
S'qualitythe'
p2331
I13
tp2332
as(S'feel'
p2333
tp2334
(lp2335
(I0
I318
I0
S't'
p2336
I10
tp2337
a(I0
I435
F0.625
S'first'
p2338
I10
tp2339
a(I0
I985
F0.75
S'premium'
p2340
I10
tp2341
a(I0
I1001
I0
S't'
p2342
I10
tp2343
a(I0
I1101
I0
S't'
p2344
I10
tp2345
a(I0
I1366
I0
S'light'
p2346
I10
tp2347
a(I0
I1700
F0.5
S'touch'
p2348
I10
tp2349
a(I0
I1700
I0
S'cool'
p2350
I10
tp2351
a(I0
I1724
F0.75
S'perfect'
p2352
I10
tp2353
a(I0
I1724
F0.75
S'fit'
p2354
I10
tp2355
a(I0
I1724
F0.625
S'finish'
p2356
I10
tp2357
a(I0
I3179
F1.0
S'good'
p2358
I10
tp2359
a(I0
I3240
I0
S'light'
p2360
I10
tp2361
a(I0
I3980
I0
S'rear'
p2362
I10
tp2363
a(I0
I4092
I0
S'u'
p2364
I10
tp2365
a(I0
I4092
F-0.875
S'helpless'
p2366
I10
tp2367
as(S'thanks'
p2368
S'to'
p2369
S'amazon'
p2370
tp2371
(lp2372
(I0
I4469
I0
S'birthday'
p2373
I0
tp2374
a(I0
I198
F0.125
S'usual'
p2375
I0
tp2376
a(I0
I1508
F0.875
S'amazing'
p2377
I0
tp2378
a(I0
I1613
I0
S'u'
p2379
I0
tp2380
a(I0
I1798
I0
S'least'
p2381
I0
tp2382
a(I0
I1798
I0
S'till'
p2383
I0
tp2384
a(I0
I1834
I0
S'least'
p2385
I0
tp2386
a(I0
I1965
F1.0
S'good'
p2387
I0
tp2388
a(I0
I2053
F-0.5
S'less'
p2389
I0
tp2390
a(I0
I2180
F-0.625
S'horrible'
p2391
I0
tp2392
a(I0
I2276
I0
S'sure'
p2393
I0
tp2394
a(I0
I2289
F0.875
S'great'
p2395
I0
tp2396
a(I0
I2580
F1.0
S'better'
p2397
I0
tp2398
a(I0
I2655
F1.0
S'better'
p2399
I0
tp2400
a(I0
I2655
F-0.625
S'other'
p2401
I0
tp2402
a(I0
I2680
F1.0
S'better'
p2403
I0
tp2404
a(I0
I2895
F-0.875
S'wrong'
p2405
I0
tp2406
a(I0
I2925
F-0.125
S'such'
p2407
I0
tp2408
a(I0
I3161
F0.625
S'super'
p2409
I0
tp2410
a(I0
I3277
F0.875
S'great'
p2411
I0
tp2412
a(I0
I3296
F1.0
S'good'
p2413
I0
tp2414
a(I0
I3306
F0.25
S'wrapped'
p2415
I0
tp2416
a(I0
I3496
F-0.5
S'flash'
p2417
I0
tp2418
a(I0
I3497
F0.5
S'avid'
p2419
I0
tp2420
a(I0
I3540
F-0.625
S'keep'
p2421
I0
tp2422
a(I0
I3611
F0.125
S'amazon'
p2423
I0
tp2424
a(I0
I3627
F0.75
S'easy'
p2425
I0
tp2426
a(I0
I3963
F-0.875
S'fake'
p2427
I0
tp2428
a(I0
I4144
F0.625
S'first'
p2429
I0
tp2430
a(I0
I4144
F0.25
S'future'
p2431
I0
tp2432
as(S'for'
p2433
S'price'
p2434
S'range'
p2435
tp2436
(lp2437
(I0
I1487
F0.625
S'fine'
p2438
I0
tp2439
a(I0
I1860
F0.5
S'economic'
p2440
I0
tp2441
a(I0
I2558
I0
S'more'
p2442
I0
tp2443
as(S'good'
p2444
S'battery'
p2445
S'back'
p2446
tp2447
(lp2448
(I0
I647
F1.0
g591
I0
tp2449
a(I0
I1340
F1.0
g604
I0
tp2450
a(I0
I1401
F1.0
g606
I0
tp2451
a(I0
I1422
F1.0
g608
I0
tp2452
a(I0
I1527
F1.0
g612
I0
tp2453
a(I0
I1946
F1.0
g624
I0
tp2454
a(I0
I2061
F1.0
g575
I0
tp2455
a(I0
I2838
F1.0
g637
I0
tp2456
a(I0
I2985
F1.0
g640
I0
tp2457
a(I0
I3418
F1.0
g579
I0
tp2458
a(I0
I3522
F1.0
g581
I0
tp2459
a(I0
I3645
F1.0
g648
I0
tp2460
a(I0
I3645
F0.875
g650
I0
tp2461
a(I0
I3689
F1.0
g652
I0
tp2462
a(I0
I4038
F1.0
g583
I0
tp2463
a(I0
I4291
F1.0
g663
I0
tp2464
a(I0
I4291
F0.5
g665
I0
tp2465
as(S'rear'
p2466
S'camera'
p2467
tp2468
(lp2469
(I0
I448
I0
S'rear'
p2470
I6
tp2471
a(I0
I504
I0
S'rear'
p2472
I6
tp2473
a(I0
I504
F0.875
S'awesome'
p2474
I6
tp2475
a(I0
I894
I0
S'rear'
p2476
I6
tp2477
a(I0
I1213
I0
S'rear'
p2478
I6
tp2479
a(I0
I1379
F-0.875
g1653
I6
tp2480
a(I0
I1379
I0
g1655
I6
tp2481
a(I0
I1379
I0
g1657
I6
tp2482
a(I0
I1426
F-0.875
g1659
I6
tp2483
a(I0
I1547
F0.375
S'much'
p2484
I6
tp2485
a(I0
I1547
I0
S'rear'
p2486
I6
tp2487
a(I0
I1567
F0.375
g1661
I6
tp2488
a(I0
I1567
I0
g1663
I6
tp2489
a(I0
I1567
F-0.625
g1665
I6
tp2490
a(I0
I1567
F-1.0
g1667
I6
tp2491
a(I0
I1695
I0
S'rear'
p2492
I6
tp2493
a(I0
I1695
F-0.625
S'average'
p2494
I6
tp2495
a(I0
I1873
I0
S'rear'
p2496
I6
tp2497
a(I0
I1873
I0
S'incredible'
p2498
I6
tp2499
a(I0
I2117
I0
g1671
I6
tp2500
a(I0
I4028
I0
S'rear'
p2501
I6
tp2502
a(I0
I4217
F0.875
g1233
I6
tp2503
as(S'update'
p2504
tp2505
(lp2506
(I0
I536
I0
S'sure'
p2507
I1
tp2508
a(I0
I557
F-0.375
S'global'
p2509
I1
tp2510
a(I0
I759
F1.0
S'good'
p2511
I1
tp2512
a(I0
I1172
F-0.125
S'next'
p2513
I1
tp2514
a(I0
I1590
F0.25
S'recent'
p2515
I1
tp2516
a(I0
I1591
F0.5
S'stable'
p2517
I1
tp2518
a(I0
I1766
F-0.625
S'new'
p2519
I1
tp2520
a(I0
I1779
F-0.625
S'new'
p2521
I1
tp2522
a(I0
I1854
F-0.125
S'marshmallow'
p2523
I1
tp2524
a(I0
I2020
F-0.125
S'next'
p2525
I1
tp2526
a(I0
I3101
F-0.125
S'next'
p2527
I1
tp2528
a(I0
I3268
F-0.125
S'next'
p2529
I1
tp2530
a(I0
I3371
F0.375
S'much'
p2531
I1
tp2532
a(I0
I3371
F-0.875
S'poor'
p2533
I1
tp2534
as(S'in'
p2535
S'flash'
p2536
S'sale'
p2537
tp2538
(lp2539
(I0
I527
F-0.5
S'flash'
p2540
I0
tp2541
a(I0
I959
F-0.5
S'flash'
p2542
I0
tp2543
a(I0
I1240
F-0.5
S'flash'
p2544
I0
tp2545
a(I0
I1253
I0
S'many'
p2546
I0
tp2547
a(I0
I1549
F-0.5
S'flash'
p2548
I0
tp2549
a(I0
I1549
F0.375
S'available'
p2550
I0
tp2551
a(I0
I1549
I0
S'normal'
p2552
I0
tp2553
a(I0
I1631
F-0.5
S'flash'
p2554
I0
tp2555
a(I0
I1797
F-0.5
S'flash'
p2556
I0
tp2557
a(I0
I1958
F-0.5
S'flash'
p2558
I0
tp2559
a(I0
I1988
F-0.5
S'flash'
p2560
I0
tp2561
a(I0
I1988
F0.25
S'worth'
p2562
I0
tp2563
a(I0
I2053
F-0.5
S'flash'
p2564
I0
tp2565
a(I0
I2056
F-0.5
S'flash'
p2566
I0
tp2567
a(I0
I2354
F-0.5
S'flash'
p2568
I0
tp2569
a(I0
I2413
F-0.5
S'flash'
p2570
I0
tp2571
a(I0
I2425
F-0.5
S'flash'
p2572
I0
tp2573
a(I0
I2438
F-0.5
S'flash'
p2574
I0
tp2575
a(I0
I2438
F-0.625
S'other'
p2576
I0
tp2577
a(I0
I2438
F-0.75
S'open'
p2578
I0
tp2579
a(I0
I2581
F-0.5
S'flash'
p2580
I0
tp2581
a(I0
I2789
F0.5
S'second'
p2582
I0
tp2583
a(I0
I3205
F-0.5
S'flash'
p2584
I0
tp2585
a(I0
I3261
F-0.5
S'flash'
p2586
I0
tp2587
a(I0
I3533
F-0.5
S'flash'
p2588
I0
tp2589
a(I0
I3926
F-0.5
S'flash'
p2590
I0
tp2591
a(I0
I4295
F-0.875
S'false'
p2592
I0
tp2593
a(I0
I4296
F-0.875
S'false'
p2594
I0
tp2595
a(I0
I4435
F0.625
S'first'
p2596
I0
tp2597
a(I0
I4435
F-0.5
S'flash'
p2598
I0
tp2599
a(I0
I4454
F-0.5
S'flash'
p2600
I0
tp2601
a(I0
I4550
F-0.5
S'flash'
p2602
I0
tp2603
a(I0
I4571
F-0.5
S'flash'
p2604
I0
tp2605
a(I0
I34
F-0.5
S'flash'
p2606
I0
tp2607
a(I0
I157
F-0.5
S'flash'
p2608
I0
tp2609
a(I0
I527
F-0.5
g2540
I0
tp2610
a(I0
I687
F0.625
S'first'
p2611
I0
tp2612
a(I0
I687
F-0.5
S'flash'
p2613
I0
tp2614
a(I0
I948
F-0.125
S'next'
p2615
I0
tp2616
a(I0
I948
F-0.5
S'flash'
p2617
I0
tp2618
a(I0
I959
F-0.5
g2542
I0
tp2619
a(I0
I1240
F-0.5
g2544
I0
tp2620
a(I0
I1253
I0
g2546
I0
tp2621
a(I0
I1549
F-0.5
g2548
I0
tp2622
a(I0
I1549
F0.375
g2550
I0
tp2623
a(I0
I1549
I0
g2552
I0
tp2624
a(I0
I1631
F-0.5
g2554
I0
tp2625
a(I0
I1797
F-0.5
g2556
I0
tp2626
a(I0
I1958
F-0.5
g2558
I0
tp2627
a(I0
I1988
F-0.5
g2560
I0
tp2628
a(I0
I1988
F0.25
g2562
I0
tp2629
a(I0
I2053
F-0.5
g2564
I0
tp2630
a(I0
I2056
F-0.5
g2566
I0
tp2631
a(I0
I2354
F-0.5
g2568
I0
tp2632
a(I0
I2413
F-0.5
g2570
I0
tp2633
a(I0
I2425
F-0.5
g2572
I0
tp2634
a(I0
I2438
F-0.5
g2574
I0
tp2635
a(I0
I2438
F-0.625
g2576
I0
tp2636
a(I0
I2438
F-0.75
g2578
I0
tp2637
a(I0
I2581
F-0.5
g2580
I0
tp2638
a(I0
I2648
F-0.5
S'flash'
p2639
I0
tp2640
a(I0
I2789
F0.5
g2582
I0
tp2641
a(I0
I3069
F0.625
S'first'
p2642
I0
tp2643
a(I0
I3069
F-0.5
S'flash'
p2644
I0
tp2645
a(I0
I3205
F-0.5
g2584
I0
tp2646
a(I0
I3261
F-0.5
g2586
I0
tp2647
a(I0
I3327
F-0.5
S'flash'
p2648
I0
tp2649
a(I0
I3338
F-0.125
S'next'
p2650
I0
tp2651
a(I0
I3533
F-0.5
g2588
I0
tp2652
a(I0
I3926
F-0.5
g2590
I0
tp2653
a(I0
I4081
F-0.5
S'flash'
p2654
I0
tp2655
a(I0
I4239
F-0.5
S'flash'
p2656
I0
tp2657
a(I0
I4245
F-0.75
g1580
I0
tp2658
a(I0
I4245
F0.625
g1582
I0
tp2659
a(I0
I4271
F-0.5
S'flash'
p2660
I0
tp2661
a(I0
I4295
F-0.875
g2592
I0
tp2662
a(I0
I4296
F-0.875
g2594
I0
tp2663
a(I0
I4435
F0.625
g2596
I0
tp2664
a(I0
I4435
F-0.5
g2598
I0
tp2665
a(I0
I4454
F-0.5
g2600
I0
tp2666
a(I0
I4550
F-0.5
g2602
I0
tp2667
a(I0
I4571
F-0.5
g2604
I0
tp2668
a(I0
I34
F-0.5
g2606
I0
tp2669
a(I0
I157
F-0.5
g2608
I0
tp2670
a(I0
I432
I-100
S'flsah'
p2671
I0
tp2672
a(I0
I527
F-0.5
g2540
I0
tp2673
a(I0
I687
F0.625
g2611
I0
tp2674
a(I0
I687
F-0.5
g2613
I0
tp2675
a(I0
I769
F-0.75
S'open'
p2676
I0
tp2677
a(I0
I847
F-0.75
S'open'
p2678
I0
tp2679
a(I0
I948
F-0.125
g2615
I0
tp2680
a(I0
I948
F-0.5
g2617
I0
tp2681
a(I0
I959
F-0.5
g2542
I0
tp2682
a(I0
I1029
F0.625
S'first'
p2683
I0
tp2684
a(I0
I1108
F0.625
S'successful'
p2685
I0
tp2686
a(I0
I1240
F-0.5
g2544
I0
tp2687
a(I0
I1309
I0
S'online'
p2688
I0
tp2689
a(I0
I1361
I-100
S'updatedin'
p2690
I0
tp2691
a(I0
I1549
F-0.5
g2548
I0
tp2692
a(I0
I1549
F0.375
g2550
I0
tp2693
a(I0
I1549
I0
g2552
I0
tp2694
a(I0
I1601
F0.625
S'frustrating'
p2695
I0
tp2696
a(I0
I1631
F-0.5
g2554
I0
tp2697
a(I0
I1703
I0
S'normal'
p2698
I0
tp2699
a(I0
I1797
F-0.5
g2556
I0
tp2700
a(I0
I1863
F0.625
S'first'
p2701
I0
tp2702
a(I0
I1958
F-0.5
g2558
I0
tp2703
a(I0
I1988
F-0.5
g2560
I0
tp2704
a(I0
I1988
F0.25
g2562
I0
tp2705
a(I0
I2053
F-0.5
g2564
I0
tp2706
a(I0
I2056
F-0.5
g2566
I0
tp2707
a(I0
I2354
F-0.5
g2568
I0
tp2708
a(I0
I2413
F-0.5
g2570
I0
tp2709
a(I0
I2425
F-0.5
g2572
I0
tp2710
a(I0
I2438
F-0.5
g2574
I0
tp2711
a(I0
I2438
F-0.625
g2576
I0
tp2712
a(I0
I2438
F-0.75
g2578
I0
tp2713
a(I0
I2563
F0.625
S'first'
p2714
I0
tp2715
a(I0
I2567
F-0.75
S'stupid'
p2716
I0
tp2717
a(I0
I2581
F-0.5
g2580
I0
tp2718
a(I0
I2648
F-0.5
g2639
I0
tp2719
a(I0
I2789
F0.5
g2582
I0
tp2720
a(I0
I3069
F0.625
g2642
I0
tp2721
a(I0
I3069
F-0.5
g2644
I0
tp2722
a(I0
I3205
F-0.5
g2584
I0
tp2723
a(I0
I3261
F-0.5
g2586
I0
tp2724
a(I0
I3327
F-0.5
g2648
I0
tp2725
a(I0
I3533
F-0.5
g2588
I0
tp2726
a(I0
I3926
F-0.5
g2590
I0
tp2727
a(I0
I4038
F0.5
S'second'
p2728
I0
tp2729
a(I0
I4081
F-0.5
g2654
I0
tp2730
a(I0
I4106
F-0.125
S'next'
p2731
I0
tp2732
a(I0
I4239
F-0.5
g2656
I0
tp2733
a(I0
I4271
F-0.5
g2660
I0
tp2734
a(I0
I4435
F0.625
g2596
I0
tp2735
a(I0
I4435
F-0.5
g2598
I0
tp2736
a(I0
I4454
F-0.5
g2600
I0
tp2737
a(I0
I4492
F-0.625
S'last'
p2738
I0
tp2739
a(I0
I4550
F-0.5
g2602
I0
tp2740
a(I0
I4571
F-0.5
g2604
I0
tp2741
a(I0
I218
F-0.5
S'called'
p2742
I3
tp2743
a(I0
I1253
I0
g2546
I3
tp2744
a(I0
I1887
I0
S'light'
p2745
I3
tp2746
a(I0
I1887
F1.0
S'good'
p2747
I3
tp2748
a(I0
I1993
F-0.125
S'front'
p2749
I3
tp2750
a(I0
I3338
F-0.125
g2650
I3
tp2751
a(I0
I4148
F0.75
S'white'
p2752
I3
tp2753
a(I0
I4245
F-0.75
g1580
I3
tp2754
a(I0
I4245
F0.625
g1582
I3
tp2755
a(I0
I4295
F-0.875
g2592
I3
tp2756
a(I0
I4296
F-0.875
g2594
I3
tp2757
as(S'value'
p2758
S'for'
p2759
S'money'
p2760
tp2761
(lp2762
(I0
I558
I0
S'yr'
p2763
I4
tp2764
a(I0
I1504
F-0.5
S'less'
p2765
I4
tp2766
a(I0
I1569
F-0.125
S'overall'
p2767
I4
tp2768
a(I0
I1569
F1.0
S'excellent'
p2769
I4
tp2770
a(I0
I1787
F-0.625
S'real'
p2771
I4
tp2772
a(I0
I2607
F0.875
S'great'
p2773
I4
tp2774
a(I0
I2707
F1.0
S'good'
p2775
I4
tp2776
a(I0
I2710
F-0.625
S'real'
p2777
I4
tp2778
a(I0
I2987
F0.75
S'complete'
p2779
I4
tp2780
a(I0
I3133
I0
S'u'
p2781
I4
tp2782
a(I0
I3453
F1.0
S'best'
p2783
I4
tp2784
a(I0
I3874
F-0.625
S'real'
p2785
I4
tp2786
a(I0
I4431
F1.0
S'good'
p2787
I4
tp2788
a(I0
I1504
F-0.5
g2765
I7
tp2789
a(I0
I1569
F-0.125
g2767
I7
tp2790
a(I0
I1569
F1.0
g2769
I7
tp2791
a(I0
I1787
F-0.625
g2771
I7
tp2792
a(I0
I2307
I-100
S'greatnot'
p2793
I7
tp2794
a(I0
I2512
F0.5
S'true'
p2795
I7
tp2796
a(I0
I2607
F0.875
g2773
I7
tp2797
a(I0
I2710
F-0.625
g2777
I7
tp2798
a(I0
I2987
F0.75
g2779
I7
tp2799
a(I0
I3133
I0
g2781
I7
tp2800
a(I0
I3453
F1.0
g2783
I7
tp2801
a(I0
I3874
F-0.625
g2785
I7
tp2802
a(I0
I4056
F-0.625
S'real'
p2803
I7
tp2804
a(I0
I4431
F1.0
g2787
I7
tp2805
as(S'hybrid'
p2806
S'sim'
p2807
S'slot'
p2808
tp2809
(lp2810
(I0
I21
I0
S'u'
p2811
I0
tp2812
a(I0
I475
I0
S'hybrid'
p2813
I0
tp2814
a(I0
I475
F0.5
S'second'
p2815
I0
tp2816
a(I0
I475
I0
S'hybrid'
p2817
I0
tp2818
a(I0
I1117
I0
S'hybrid'
p2819
I0
tp2820
a(I0
I1326
I0
S'individual'
p2821
I0
tp2822
a(I0
I1326
I0
S'hybrid'
p2823
I0
tp2824
a(I0
I2119
I0
g970
I0
tp2825
a(I0
I2119
F0.5
g972
I0
tp2826
a(I0
I2266
I0
S'hybrid'
p2827
I0
tp2828
a(I0
I2304
I0
S'hybrid'
p2829
I0
tp2830
a(I0
I3211
I0
S'hybrid'
p2831
I0
tp2832
as(S'at'
p2833
S'price'
p2834
S'range'
p2835
tp2836
(lp2837
(I0
I467
F0.5
S'higher'
p2838
I0
tp2839
a(I0
I1860
F0.5
g2440
I0
tp2840
a(I0
I2558
I0
g2442
I0
tp2841
a(I0
I3132
F0.375
S'available'
p2842
I0
tp2843
a(I0
I3347
F1.0
S'best'
p2844
I0
tp2845
a(I0
I4322
I0
S'ths'
p2846
I0
tp2847
as(S'looks'
p2848
tp2849
(lp2850
(I0
I348
F0.75
S'premium'
p2851
I14
tp2852
a(I0
I621
F-0.25
S'i'
p2853
I14
tp2854
a(I0
I621
F0.375
S'much'
p2855
I14
tp2856
a(I0
I1045
F0.875
S'great'
p2857
I14
tp2858
a(I0
I1921
F0.875
S'brilliant'
p2859
I14
tp2860
a(I0
I1921
F-0.75
S'little'
p2861
I14
tp2862
a(I0
I1921
F0.75
S'premium'
p2863
I14
tp2864
a(I0
I2051
F0.875
S'nice'
p2865
I14
tp2866
a(I0
I3011
F0.875
S'aesthetic'
p2867
I14
tp2868
a(I0
I3349
F1.0
S'good'
p2869
I14
tp2870
a(I0
I3614
F1.0
S'good'
p2871
I14
tp2872
a(I0
I3947
F0.5
S'elegant'
p2873
I14
tp2874
a(I0
I3968
F0.125
S'mobile'
p2875
I14
tp2876
a(I0
I3968
F0.75
S'beautiful'
p2877
I14
tp2878
a(I0
I4247
F0.625
S'sexy'
p2879
I14
tp2880
as(S'viewing'
p2881
S'angles'
p2882
tp2883
(lp2884
(I0
I83
F1.0
S'best'
p2885
I0
tp2886
a(I0
I2128
F1.0
S'good'
p2887
I0
tp2888
a(I0
I3950
I0
S'clear'
p2889
I0
tp2890
a(I0
I3950
F1.0
S'good'
p2891
I0
tp2892
as(S'heating'
p2893
S'problem'
p2894
tp2895
(lp2896
(I0
I1047
F0.5
S'high'
p2897
I6
tp2898
a(I0
I1047
F0.375
S'ok'
p2899
I6
tp2900
a(I0
I1255
I0
S'most'
p2901
I6
tp2902
a(I0
I1599
F0.375
S'much'
p2903
I6
tp2904
a(I0
I1636
F0.5
S'experienced'
p2905
I6
tp2906
a(I0
I1978
F-0.25
S'd'
p2907
I6
tp2908
a(I0
I1978
I0
S'ph'
p2909
I6
tp2910
a(I0
I1978
F-0.375
S'same'
p2911
I6
tp2912
a(I0
I2203
F-0.75
S'little'
p2913
I6
tp2914
a(I0
I2335
I0
S'big'
p2915
I6
tp2916
a(I0
I2335
I0
S'most'
p2917
I6
tp2918
a(I0
I2692
F-0.75
S'minor'
p2919
I6
tp2920
a(I0
I2888
I0
S'only'
p2921
I6
tp2922
a(I0
I3086
F-0.125
S'overall'
p2923
I6
tp2924
a(I0
I3442
F-0.75
S'little'
p2925
I6
tp2926
a(I0
I3586
F0.5
S'stylish'
p2927
I6
tp2928
a(I0
I3893
F0.375
S'much'
p2929
I6
tp2930
a(I0
I4182
F1.0
S'good'
p2931
I6
tp2932
a(I0
I4565
F0.375
S'much'
p2933
I6
tp2934
as(S'in'
p2935
S'price'
p2936
S'range'
p2937
tp2938
(lp2939
(I0
I467
F0.5
g2838
I0
tp2940
a(I0
I870
F1.0
S'good'
p2941
I0
tp2942
a(I0
I1356
F-0.125
S'such'
p2943
I0
tp2944
a(I0
I1487
F0.625
g2438
I0
tp2945
a(I0
I1836
F0.375
S'available'
p2946
I0
tp2947
a(I0
I1860
F0.5
g2440
I0
tp2948
a(I0
I3132
F0.375
g2842
I0
tp2949
a(I0
I3347
F1.0
g2844
I0
tp2950
a(I0
I467
F0.5
g2838
I13
tp2951
a(I0
I870
F1.0
g2941
I13
tp2952
a(I0
I1356
F-0.125
g2943
I13
tp2953
a(I0
I1487
F0.625
g2438
I13
tp2954
a(I0
I1836
F0.375
g2946
I13
tp2955
a(I0
I1860
F0.5
g2440
I13
tp2956
a(I0
I2213
F1.0
S'good'
p2957
I13
tp2958
a(I0
I2558
I0
g2442
I13
tp2959
a(I0
I3132
F0.375
g2842
I13
tp2960
a(I0
I3347
F1.0
g2844
I13
tp2961
a(I0
I4322
I0
g2846
I13
tp2962
as(S'lot'
p2963
S'of'
p2964
S'features'
p2965
tp2966
(lp2967
(I0
I3983
I0
S'more'
p2968
I0
tp2969
a(I0
I3983
I0
S'inbuilt'
p2970
I0
tp2971
as(S'charger'
p2972
tp2973
(lp2974
(I0
I131
F0.125
S'provided'
p2975
I16
tp2976
a(I0
I793
F0.125
S'supplied'
p2977
I16
tp2978
a(I0
I1459
F-0.625
S'other'
p2979
I16
tp2980
a(I0
I1984
F0.5
S'old'
p2981
I16
tp2982
a(I0
I2255
F1.0
S'good'
p2983
I16
tp2984
a(I0
I2288
F-0.875
S'wrong'
p2985
I16
tp2986
a(I0
I2636
I0
S'quick'
p2987
I16
tp2988
a(I0
I2636
F0.875
S'nice'
p2989
I16
tp2990
a(I0
I2687
F-1.0
S'bad'
p2991
I16
tp2992
a(I0
I2856
F-0.875
S'incompatible'
p2993
I16
tp2994
a(I0
I3592
I-100
S'muchbut'
p2995
I16
tp2996
a(I0
I3661
F0.5
S'old'
p2997
I16
tp2998
a(I0
I4039
F-0.625
S'fast'
p2999
I16
tp3000
a(I0
I4547
I0
S'standard'
p3001
I16
tp3002
as(S'everything'
p3003
tp3004
(lp3005
(I0
I579
F1.0
S'good'
p3006
I8
tp3007
a(I0
I867
F1.0
S'good'
p3008
I8
tp3009
a(I0
I988
F0.5
S'heat'
p3010
I8
tp3011
a(I0
I1133
F0.375
S'ok'
p3012
I8
tp3013
a(I0
I1172
F-0.5
S'loud'
p3014
I8
tp3015
a(I0
I1390
I0
S'cool'
p3016
I8
tp3017
a(I0
I1421
F-0.625
S'other'
p3018
I8
tp3019
a(I0
I1421
F0.375
S'ok'
p3020
I8
tp3021
a(I0
I1546
F0.875
S'superb'
p3022
I8
tp3023
a(I0
I1594
F0.5
S'accepted'
p3024
I8
tp3025
a(I0
I1661
F0.625
S'fine'
p3026
I8
tp3027
a(I0
I1666
F1.0
S'good'
p3028
I8
tp3029
a(I0
I2075
F0.75
S'perfect'
p3030
I8
tp3031
a(I0
I2336
F-0.625
S'other'
p3032
I8
tp3033
a(I0
I2336
F1.0
S'excellent'
p3034
I8
tp3035
a(I0
I2562
F1.0
S'good'
p3036
I8
tp3037
a(I0
I2562
I0
S'yeah'
p3038
I8
tp3039
a(I0
I2562
F1.0
S'excellent'
p3040
I8
tp3041
a(I0
I2609
F1.0
S'good'
p3042
I8
tp3043
a(I0
I2621
F0.875
S'awesome'
p3044
I8
tp3045
a(I0
I2879
F0.875
S'right'
p3046
I8
tp3047
a(I0
I3344
F-0.625
S'want'
p3048
I8
tp3049
a(I0
I3584
I-100
S'okyesterday'
p3050
I8
tp3051
a(I0
I3696
F1.0
S'good'
p3052
I8
tp3053
a(I0
I3968
F0.625
S'fine'
p3054
I8
tp3055
a(I0
I4015
F0.625
S'fine'
p3056
I8
tp3057
a(I0
I4103
F0.875
S'great'
p3058
I8
tp3059
a(I0
I4109
F0.875
S'awesome'
p3060
I8
tp3061
a(I0
I4265
F1.0
S'excellent'
p3062
I8
tp3063
a(I0
I4307
F1.0
S'good'
p3064
I8
tp3065
a(I0
I4307
I-100
S'thouch'
p3066
I8
tp3067
a(I0
I4325
F1.0
S'best'
p3068
I8
tp3069
a(I0
I4408
F1.0
S'excellent'
p3070
I8
tp3071
a(I0
I4603
F0.875
S'awesome'
p3072
I8
tp3073
as(S'2'
p3074
S'days'
p3075
tp3076
(lp3077
(I0
I402
F0.75
S'complete'
p3078
I2
tp3079
a(I0
I1019
F0.75
S'glad'
p3080
I2
tp3081
a(I0
I1053
I0
S'normal'
p3082
I2
tp3083
a(I0
I1062
I0
S'more'
p3084
I2
tp3085
a(I0
I1237
F0.875
S'brilliant'
p3086
I2
tp3087
a(I0
I1403
F-0.625
g802
I2
tp3088
a(I0
I1611
I0
S'pro'
p3089
I2
tp3090
a(I0
I1746
I0
S'many'
p3091
I2
tp3092
a(I0
I3125
F-0.625
S'last'
p3093
I2
tp3094
as(S'has'
p3095
S'heating'
p3096
S'issue'
p3097
tp3098
(lp3099
(I0
I53
F-0.125
g735
I0
tp3100
a(I0
I2705
F0.5
g759
I0
tp3101
a(I0
I2975
F-0.25
g761
I0
tp3102
a(I0
I3169
F0.375
g787
I0
tp3103
a(I0
I3906
F-0.75
g763
I0
tp3104
as(g34
S'gb'
p3105
S'ram'
p3106
tp3107
(lp3108
(I0
I374
F0.875
S'amazing'
p3109
I0
tp3110
a(I0
I1281
F0.375
S'available'
p3111
I0
tp3112
a(I0
I1325
F0.75
S'wonderful'
p3113
I0
tp3114
a(I0
I2319
F-0.625
S'last'
p3115
I0
tp3116
a(I0
I3527
F0.125
S'mobile'
p3117
I0
tp3118
a(I0
I3998
F-0.75
S'free'
p3119
I0
tp3120
a(I0
I4257
F-0.75
S'free'
p3121
I0
tp3122
a(I0
I4285
F-0.75
S'free'
p3123
I0
tp3124
a(I0
I4351
F0.75
S'gorgeous'
p3125
I0
tp3126
a(I0
I273
F-0.75
S'free'
p3127
I9
tp3128
a(I0
I374
F0.875
g3109
I9
tp3129
a(I0
I513
F0.375
S'available'
p3130
I9
tp3131
a(I0
I752
F0.375
S'available'
p3132
I9
tp3133
a(I0
I752
F-0.625
S'average'
p3134
I9
tp3135
a(I0
I752
I-100
S'use5'
p3136
I9
tp3137
a(I0
I898
F-0.75
S'free'
p3138
I9
tp3139
a(I0
I1281
F0.375
g3111
I9
tp3140
a(I0
I1325
F0.75
g3113
I9
tp3141
a(I0
I1623
F-0.875
S'low'
p3142
I9
tp3143
a(I0
I1895
F-0.75
S'free'
p3144
I9
tp3145
a(I0
I2186
F0.375
S'available'
p3146
I9
tp3147
a(I0
I2319
F-0.625
g3115
I9
tp3148
a(I0
I2665
F0.375
S'available'
p3149
I9
tp3150
a(I0
I2939
F0.375
S'available'
p3151
I9
tp3152
a(I0
I3527
F0.125
g3117
I9
tp3153
a(I0
I3998
F-0.75
g3119
I9
tp3154
a(I0
I4257
F-0.75
g3121
I9
tp3155
a(I0
I4285
F-0.75
g3123
I9
tp3156
a(I0
I4351
F0.75
g3125
I9
tp3157
a(I0
I731
F-0.75
S'free'
p3158
I0
tp3159
a(I0
I3258
F-0.75
S'free'
p3160
I0
tp3161
a(I0
I3906
F0.5
g41
I0
tp3162
a(I0
I3930
F-0.125
g43
I0
tp3163
as(S'sim'
p3164
S'card'
p3165
S'slot'
p3166
tp3167
(lp3168
(I0
I21
I0
g2811
I0
tp3169
a(I0
I21
I0
g353
I0
tp3170
a(I0
I475
I0
g2813
I0
tp3171
a(I0
I475
F0.5
g2815
I0
tp3172
a(I0
I475
I0
g2817
I0
tp3173
a(I0
I1326
I0
g2821
I0
tp3174
a(I0
I1326
I0
g2823
I0
tp3175
a(I0
I1417
F0.5
g960
I0
tp3176
a(I0
I1417
F-0.75
g962
I0
tp3177
a(I0
I1683
I-100
S'aur'
p3178
I0
tp3179
a(I0
I1683
F0.5
g964
I0
tp3180
a(I0
I2092
F0.5
g968
I0
tp3181
a(I0
I2119
I0
g970
I0
tp3182
a(I0
I2119
F0.5
g972
I0
tp3183
a(I0
I2304
I0
g2829
I0
tp3184
a(I0
I2948
F-0.75
S'single'
p3185
I0
tp3186
a(I0
I3331
I0
S'different'
p3187
I0
tp3188
a(I0
I21
I0
g353
I2
tp3189
a(I0
I125
F-0.25
S'micro'
p3190
I2
tp3191
a(I0
I475
I0
g2813
I2
tp3192
a(I0
I475
F0.5
g2815
I2
tp3193
a(I0
I1417
F0.5
g960
I2
tp3194
a(I0
I1417
F-0.75
g962
I2
tp3195
a(I0
I1683
F0.5
g964
I2
tp3196
a(I0
I1687
I0
S'u'
p3197
I2
tp3198
a(I0
I1746
F0.5
g966
I2
tp3199
a(I0
I1897
F0.5
S'second'
p3200
I2
tp3201
a(I0
I1901
F0.5
S'second'
p3202
I2
tp3203
a(I0
I2092
F0.5
g968
I2
tp3204
a(I0
I2119
I0
g970
I2
tp3205
a(I0
I2119
F0.5
g972
I2
tp3206
a(I0
I2176
F0.25
S'able'
p3207
I2
tp3208
a(I0
I2176
I0
S'duel'
p3209
I2
tp3210
a(I0
I2459
F0.5
g978
I2
tp3211
a(I0
I2472
I-100
S'youafter'
p3212
I2
tp3213
a(I0
I2633
F0.5
g980
I2
tp3214
a(I0
I2734
I-100
S'bsnl'
p3215
I2
tp3216
a(I0
I2782
F0.5
g982
I2
tp3217
a(I0
I2782
F-0.75
g984
I2
tp3218
a(I0
I2842
F0.5
g986
I2
tp3219
a(I0
I2880
F0.5
g988
I2
tp3220
a(I0
I2948
F-0.75
g3185
I2
tp3221
a(I0
I3800
I0
g357
I2
tp3222
a(I0
I3857
I0
g720
I2
tp3223
a(I0
I21
I0
g353
I8
tp3224
a(I0
I3800
I0
g357
I8
tp3225
a(I0
I3857
I0
g720
I8
tp3226
a(I0
I3861
F-0.75
S'faulty'
p3227
I8
tp3228
as(S'miui'
p3229
tp3230
(lp3231
(I0
I80
F1.0
S'best'
p3232
I0
tp3233
a(I0
I237
F0.5
S'unique'
p3234
I0
tp3235
a(I0
I644
F-1.0
S'bad'
p3236
I0
tp3237
a(I0
I853
F1.0
S'excellent'
p3238
I0
tp3239
a(I0
I899
F0.625
S'friendly'
p3240
I0
tp3241
a(I0
I899
F0.875
S'simple'
p3242
I0
tp3243
a(I0
I1367
F0.875
S'superb'
p3244
I0
tp3245
a(I0
I1466
F0.5
S'familiar'
p3246
I0
tp3247
a(I0
I2139
F-0.625
S'other'
p3248
I0
tp3249
a(I0
I3372
F0.875
S'awesome'
p3250
I0
tp3251
a(I0
I3431
F0.75
S'beautiful'
p3252
I0
tp3253
a(I0
I3431
F0.75
S'fantastic'
p3254
I0
tp3255
a(I0
I3493
F0.75
S'easy'
p3256
I0
tp3257
a(I0
I3983
F1.0
S'good'
p3258
I0
tp3259
a(I0
I4150
I0
S'light'
p3260
I0
tp3261
as(S'usage'
p3262
tp3263
(lp3264
(I0
I56
I0
S'normal'
p3265
I8
tp3266
a(I0
I57
F-0.5
S'heavy'
p3267
I8
tp3268
a(I0
I427
F0.625
S'noticeable'
p3269
I8
tp3270
a(I0
I427
F0.375
S'extended'
p3271
I8
tp3272
a(I0
I471
F-0.625
S'moderate'
p3273
I8
tp3274
a(I0
I471
F-0.5
S'heavy'
p3275
I8
tp3276
a(I0
I647
I0
S'normal'
p3277
I8
tp3278
a(I0
I695
F-0.5
S'heavy'
p3279
I8
tp3280
a(I0
I961
I0
S'normal'
p3281
I8
tp3282
a(I0
I1053
F-0.625
S'moderate'
p3283
I8
tp3284
a(I0
I1121
I0
S'hrs'
p3285
I8
tp3286
a(I0
I1215
F-0.5
S'heavy'
p3287
I8
tp3288
a(I0
I1469
I0
S'normal'
p3289
I8
tp3290
a(I0
I1546
F0.5
S'everyday'
p3291
I8
tp3292
a(I0
I1622
F0.5
S'similar'
p3293
I8
tp3294
a(I0
I1690
I0
S'normal'
p3295
I8
tp3296
a(I0
I1690
F-0.5
S'heavy'
p3297
I8
tp3298
a(I0
I1816
F-0.75
S'casual'
p3299
I8
tp3300
a(I0
I1842
F0.5
S'true'
p3301
I8
tp3302
a(I0
I2476
F-0.5
S'heavy'
p3303
I8
tp3304
a(I0
I2950
F-0.5
S'heavy'
p3305
I8
tp3306
a(I0
I3086
I0
S'while'
p3307
I8
tp3308
a(I0
I3099
F-0.5
S'heavy'
p3309
I8
tp3310
a(I0
I3099
F1.0
S'good'
p3311
I8
tp3312
a(I0
I3493
F0.625
S'convenient'
p3313
I8
tp3314
a(I0
I3493
F-0.5
S'heavy'
p3315
I8
tp3316
a(I0
I3813
F-0.5
S'heavy'
p3317
I8
tp3318
a(I0
I3813
F-0.625
S'moderate'
p3319
I8
tp3320
a(I0
I4091
F0.5
S'daily'
p3321
I8
tp3322
a(I0
I4524
I0
S'normal'
p3323
I8
tp3324
as(S'works'
p3325
tp3326
(lp3327
(I0
I419
F-0.125
S'back'
p3328
I3
tp3329
a(I0
I1891
F-0.625
S'fast'
p3330
I3
tp3331
a(I0
I1922
F1.0
S'good'
p3332
I3
tp3333
a(I0
I4614
F0.625
S'fine'
p3334
I3
tp3335
as(S'lenovo'
p3336
S'k4'
p3337
tp3338
(lp3339
(I0
I1692
F1.0
S'better'
p3340
I0
tp3341
a(I0
I1692
F-0.375
S'le'
p3342
I0
tp3343
a(I0
I3862
F1.0
S'good'
p3344
I0
tp3345
a(I0
I3862
F1.0
S'better'
p3346
I0
tp3347
as(S'think'
p3348
tp3349
(lp3350
(I0
I2864
I0
S't'
p3351
I16
tp3352
a(I0
I3695
I-100
S'moneydnt'
p3353
I16
tp3354
as(S'32'
p3355
S'gb'
p3356
S'gold'
p3357
tp3358
(lp3359
(I0
I1770
F0.875
g1420
I0
tp3360
a(I0
I3930
F-0.125
g43
I0
tp3361
a(I0
I4144
F-0.25
g1425
I0
tp3362
a(I0
I3906
F0.5
g41
I1
tp3363
a(I0
I3930
F-0.125
g43
I1
tp3364
as(S'good'
p3365
S'camera'
p3366
S'quality'
p3367
tp3368
(lp3369
(I0
I1111
F1.0
g1716
I0
tp3370
a(I0
I1111
F-0.75
g1718
I0
tp3371
a(I0
I1111
I0
g1177
I0
tp3372
a(I0
I1111
F0.5
g1179
I0
tp3373
a(I0
I1365
F0.875
g1125
I0
tp3374
a(I0
I1548
F1.0
S'good'
p3375
I0
tp3376
a(I0
I1661
F1.0
g1723
I0
tp3377
a(I0
I1786
F0.5
g1725
I0
tp3378
a(I0
I1887
F0.75
g1727
I0
tp3379
a(I0
I1888
I0
g1669
I0
tp3380
a(I0
I1888
F1.0
S'good'
p3381
I0
tp3382
a(I0
I2085
F1.0
S'good'
p3383
I0
tp3384
a(I0
I2197
F1.0
g1733
I0
tp3385
a(I0
I2197
I0
g1191
I0
tp3386
a(I0
I2197
F0.875
g1193
I0
tp3387
a(I0
I2479
F1.0
g1677
I0
tp3388
a(I0
I2550
F1.0
g1195
I0
tp3389
a(I0
I2917
F1.0
S'good'
p3390
I0
tp3391
a(I0
I2966
F-0.75
g2206
I0
tp3392
a(I0
I2966
F1.0
g2208
I0
tp3393
a(I0
I2966
F-1.0
g2210
I0
tp3394
a(I0
I2966
I0
g2212
I0
tp3395
a(I0
I3138
F1.0
S'good'
p3396
I0
tp3397
a(I0
I3138
F1.0
S'good'
p3398
I0
tp3399
a(I0
I3342
F0.875
S'nice'
p3400
I0
tp3401
a(I0
I3342
I0
S'n'
p3402
I0
tp3403
a(I0
I3371
F0.375
g1735
I0
tp3404
a(I0
I3371
F-0.875
g1737
I0
tp3405
a(I0
I3385
F-0.625
S'other'
p3406
I0
tp3407
a(I0
I3641
F1.0
S'good'
p3408
I0
tp3409
a(I0
I3792
F1.0
S'good'
p3410
I0
tp3411
a(I0
I3862
F-0.875
g1223
I0
tp3412
a(I0
I3862
F0.75
g1739
I0
tp3413
a(I0
I3868
F1.0
g1741
I0
tp3414
a(I0
I4085
F1.0
g1743
I0
tp3415
a(I0
I4085
F-0.125
g1227
I0
tp3416
a(I0
I4085
F1.0
g1229
I0
tp3417
a(I0
I4282
F-0.625
g2214
I0
tp3418
a(I0
I4372
F-0.875
g1745
I0
tp3419
a(I0
I4372
F-0.875
g1747
I0
tp3420
a(I0
I4462
F1.0
g1749
I0
tp3421
a(I0
I4546
F1.0
g1751
I0
tp3422
a(I0
I397
F0.375
g1165
I3
tp3423
a(I0
I397
F-0.125
g1167
I3
tp3424
a(I0
I397
F1.0
g1169
I3
tp3425
a(I0
I407
F-0.125
g1641
I3
tp3426
a(I0
I556
F-1.0
S'bad'
p3427
I3
tp3428
a(I0
I592
F1.0
g1171
I3
tp3429
a(I0
I592
F1.0
g1173
I3
tp3430
a(I0
I1104
F1.0
g1175
I3
tp3431
a(I0
I1111
I0
g1177
I3
tp3432
a(I0
I1111
F0.5
g1179
I3
tp3433
a(I0
I1168
F0.375
g1181
I3
tp3434
a(I0
I1168
F0.875
g1183
I3
tp3435
a(I0
I1168
F1.0
g1185
I3
tp3436
a(I0
I1356
F1.0
S'good'
p3437
I3
tp3438
a(I0
I1369
F1.0
S'good'
p3439
I3
tp3440
a(I0
I1442
F1.0
S'good'
p3441
I3
tp3442
a(I0
I1451
F1.0
S'good'
p3443
I3
tp3444
a(I0
I1524
F1.0
S'good'
p3445
I3
tp3446
a(I0
I1548
F1.0
g3375
I3
tp3447
a(I0
I1635
F-0.625
S'average'
p3448
I3
tp3449
a(I0
I1847
F1.0
g1187
I3
tp3450
a(I0
I1847
F0.75
g1189
I3
tp3451
a(I0
I1888
I0
g1669
I3
tp3452
a(I0
I1983
I-100
S'leftnice'
p3453
I3
tp3454
a(I0
I2032
I0
S'many'
p3455
I3
tp3456
a(I0
I2190
F1.0
S'good'
p3457
I3
tp3458
a(I0
I2197
I0
g1191
I3
tp3459
a(I0
I2197
F0.875
g1193
I3
tp3460
a(I0
I2213
F-0.625
S'average'
p3461
I3
tp3462
a(I0
I2296
F1.0
S'good'
p3463
I3
tp3464
a(I0
I2437
F1.0
S'good'
p3465
I3
tp3466
a(I0
I2479
F1.0
g1677
I3
tp3467
a(I0
I2509
F1.0
S'good'
p3468
I3
tp3469
a(I0
I2509
F0.75
S'easy'
p3470
I3
tp3471
a(I0
I2550
F1.0
g1195
I3
tp3472
a(I0
I2557
F1.0
S'good'
p3473
I3
tp3474
a(I0
I2622
F1.0
g1197
I3
tp3475
a(I0
I2756
I-100
S'properly3'
p3476
I3
tp3477
a(I0
I2756
F-0.625
g1199
I3
tp3478
a(I0
I2775
F1.0
S'good'
p3479
I3
tp3480
a(I0
I2779
F0.875
g1201
I3
tp3481
a(I0
I2779
F0.375
g1203
I3
tp3482
a(I0
I2823
F1.0
g1205
I3
tp3483
a(I0
I2844
F-1.0
g1207
I3
tp3484
a(I0
I2844
F1.0
g1209
I3
tp3485
a(I0
I2864
F0.875
g1688
I3
tp3486
a(I0
I2868
I0
g1211
I3
tp3487
a(I0
I2881
F0.125
g1213
I3
tp3488
a(I0
I2881
F-0.375
g1215
I3
tp3489
a(I0
I2917
F1.0
g3390
I3
tp3490
a(I0
I2966
F1.0
g2208
I3
tp3491
a(I0
I2966
F-1.0
g2210
I3
tp3492
a(I0
I2999
F1.0
g1217
I3
tp3493
a(I0
I3021
F-0.125
S'back'
p3494
I3
tp3495
a(I0
I3138
F1.0
g3396
I3
tp3496
a(I0
I3342
F0.875
g3400
I3
tp3497
a(I0
I3360
F-1.0
g1219
I3
tp3498
a(I0
I3385
I-100
S'guysmust'
p3499
I3
tp3500
a(I0
I3385
F-0.625
g3406
I3
tp3501
a(I0
I3641
I-100
S'nightfront'
p3502
I3
tp3503
a(I0
I3688
F1.0
S'good'
p3504
I3
tp3505
a(I0
I3688
F-0.625
S'average'
p3506
I3
tp3507
a(I0
I3689
F1.0
S'good'
p3508
I3
tp3509
a(I0
I3796
F1.0
g1221
I3
tp3510
a(I0
I3862
F-0.875
g1223
I3
tp3511
a(I0
I4019
F1.0
g1225
I3
tp3512
a(I0
I4043
F-0.125
g1690
I3
tp3513
a(I0
I4085
F-0.125
g1227
I3
tp3514
a(I0
I4085
F1.0
g1229
I3
tp3515
a(I0
I4159
I0
S'main'
p3516
I3
tp3517
a(I0
I4201
F1.0
g1231
I3
tp3518
a(I0
I4217
F0.875
g1233
I3
tp3519
a(I0
I4249
F-1.0
S'bad'
p3520
I3
tp3521
a(I0
I4282
F-0.625
g2214
I3
tp3522
a(I0
I4383
F-0.875
g1235
I3
tp3523
a(I0
I4383
I0
g1237
I3
tp3524
a(I0
I4491
F1.0
S'good'
p3525
I3
tp3526
a(I0
I4496
F-0.625
g1239
I3
tp3527
a(I0
I4496
F1.0
g1241
I3
tp3528
a(I0
I4496
I-100
S'perfectmobile'
p3529
I3
tp3530
a(I0
I41
F-1.0
S'bad'
p3531
I14
tp3532
a(I0
I79
I0
S'normal'
p3533
I14
tp3534
a(I0
I79
F1.0
S'best'
p3535
I14
tp3536
a(I0
I535
F-0.875
S'poor'
p3537
I14
tp3538
a(I0
I630
F0.375
S'ok'
p3539
I14
tp3540
a(I0
I630
F1.0
S'better'
p3541
I14
tp3542
a(I0
I634
I-100
S'gudcamera'
p3543
I14
tp3544
a(I0
I634
F0.875
S'great'
p3545
I14
tp3546
a(I0
I651
F0.625
S'okay'
p3547
I14
tp3548
a(I0
I755
I-100
S'good7'
p3549
I14
tp3550
a(I0
I1111
F1.0
g1716
I14
tp3551
a(I0
I1111
F-0.75
g1718
I14
tp3552
a(I0
I1111
I0
g1177
I14
tp3553
a(I0
I1111
F0.5
g1179
I14
tp3554
a(I0
I1123
F-0.625
g2198
I14
tp3555
a(I0
I1365
F0.875
g1125
I14
tp3556
a(I0
I1382
F-1.0
S'bad'
p3557
I14
tp3558
a(I0
I1383
F-1.0
S'bad'
p3559
I14
tp3560
a(I0
I1426
F-0.875
g1659
I14
tp3561
a(I0
I1547
F0.375
g2484
I14
tp3562
a(I0
I1547
I0
g2486
I14
tp3563
a(I0
I1548
F1.0
g3375
I14
tp3564
a(I0
I1567
F0.375
g1661
I14
tp3565
a(I0
I1567
I0
g1663
I14
tp3566
a(I0
I1567
F-0.625
g1665
I14
tp3567
a(I0
I1567
F-1.0
g1667
I14
tp3568
a(I0
I1644
F-0.875
S'low'
p3569
I14
tp3570
a(I0
I1661
F1.0
g1723
I14
tp3571
a(I0
I1742
F-0.875
S'poor'
p3572
I14
tp3573
a(I0
I1786
F0.5
g1725
I14
tp3574
a(I0
I1887
F0.75
g1727
I14
tp3575
a(I0
I1888
I0
g1669
I14
tp3576
a(I0
I1888
F1.0
g3381
I14
tp3577
a(I0
I2085
F1.0
g3383
I14
tp3578
a(I0
I2197
F1.0
g1733
I14
tp3579
a(I0
I2197
I0
g1191
I14
tp3580
a(I0
I2197
F0.875
g1193
I14
tp3581
a(I0
I2307
F0.75
S'sound'
p3582
I14
tp3583
a(I0
I2387
F0.625
S'super'
p3584
I14
tp3585
a(I0
I2402
F0.5
S'higher'
p3586
I14
tp3587
a(I0
I2479
F1.0
g1677
I14
tp3588
a(I0
I2550
F1.0
g1195
I14
tp3589
a(I0
I2577
F0.875
S'brilliant'
p3590
I14
tp3591
a(I0
I2624
F-0.875
S'poor'
p3592
I14
tp3593
a(I0
I2642
F-0.875
S'low'
p3594
I14
tp3595
a(I0
I2642
F-0.875
S'low'
p3596
I14
tp3597
a(I0
I2740
F-0.625
g2200
I14
tp3598
a(I0
I2870
F0.875
S'great'
p3599
I14
tp3600
a(I0
I2917
F1.0
g3390
I14
tp3601
a(I0
I2933
F-0.625
g2202
I14
tp3602
a(I0
I2957
F-0.625
g2204
I14
tp3603
a(I0
I2966
F-0.75
g2206
I14
tp3604
a(I0
I2966
F1.0
g2208
I14
tp3605
a(I0
I2966
F-1.0
g2210
I14
tp3606
a(I0
I2966
I0
g2212
I14
tp3607
a(I0
I3056
F-0.875
S'poor'
p3608
I14
tp3609
a(I0
I3115
F-0.875
S'poor'
p3610
I14
tp3611
a(I0
I3138
F1.0
g3396
I14
tp3612
a(I0
I3138
F1.0
g3398
I14
tp3613
a(I0
I3342
F0.875
g3400
I14
tp3614
a(I0
I3342
I0
g3402
I14
tp3615
a(I0
I3371
F0.375
g1735
I14
tp3616
a(I0
I3371
F-0.875
g1737
I14
tp3617
a(I0
I3385
F-0.625
g3406
I14
tp3618
a(I0
I3493
F0.375
S'much'
p3619
I14
tp3620
a(I0
I3641
I-100
S'leftsound'
p3621
I14
tp3622
a(I0
I3641
F1.0
g3408
I14
tp3623
a(I0
I3792
F1.0
g3410
I14
tp3624
a(I0
I3852
F-0.875
S'poor'
p3625
I14
tp3626
a(I0
I3862
F-0.875
g1223
I14
tp3627
a(I0
I3862
F0.75
g1739
I14
tp3628
a(I0
I3868
F1.0
g1741
I14
tp3629
a(I0
I3939
F-0.875
S'poor'
p3630
I14
tp3631
a(I0
I3939
F-0.375
S'same'
p3632
I14
tp3633
a(I0
I4023
F-0.875
S'poor'
p3634
I14
tp3635
a(I0
I4028
I0
g2501
I14
tp3636
a(I0
I4085
F1.0
g1743
I14
tp3637
a(I0
I4085
F-0.125
g1227
I14
tp3638
a(I0
I4085
F1.0
g1229
I14
tp3639
a(I0
I4157
F-0.875
S'low'
p3640
I14
tp3641
a(I0
I4205
F0.625
S'okay'
p3642
I14
tp3643
a(I0
I4223
I0
S'appreciable'
p3644
I14
tp3645
a(I0
I4282
F-0.625
g2214
I14
tp3646
a(I0
I4329
F-0.875
S'poor'
p3647
I14
tp3648
a(I0
I4372
F-0.875
g1745
I14
tp3649
a(I0
I4372
F-0.875
g1747
I14
tp3650
a(I0
I4462
F1.0
g1749
I14
tp3651
a(I0
I4470
F-0.875
S'poor'
p3652
I14
tp3653
a(I0
I4524
F-0.625
g2221
I14
tp3654
a(I0
I4524
F-0.5
g2223
I14
tp3655
a(I0
I4546
F1.0
g1751
I14
tp3656
as(S'buy'
p3657
S'redmi'
p3658
S'note'
p3659
tp3660
(lp3661
(I0
I3129
F0.875
S'nice'
p3662
I0
tp3663
a(I0
I4530
F0.375
g28
I0
tp3664
as(S'slot'
p3665
S'for'
p3666
S'memory'
p3667
tp3668
(lp3669
(I0
I1326
I0
g2821
I0
tp3670
a(I0
I1326
I0
g2823
I0
tp3671
a(I0
I3331
I0
g3187
I0
tp3672
a(I0
I3912
F-0.5
S'extra'
p3673
I0
tp3674
a(I0
I3912
F-0.25
g726
I0
tp3675
a(I0
I4262
F-0.5
S'separate'
p3676
I0
tp3677
a(I0
I21
I0
g2811
I2
tp3678
a(I0
I475
I0
g2817
I2
tp3679
a(I0
I840
F-0.25
S'i'
p3680
I2
tp3681
a(I0
I840
I0
S'hybrid'
p3682
I2
tp3683
a(I0
I1326
I0
g2821
I2
tp3684
a(I0
I1326
I0
g2823
I2
tp3685
a(I0
I1419
F-0.75
S'secondary'
p3686
I2
tp3687
a(I0
I2304
I0
g2829
I2
tp3688
a(I0
I3211
I0
g2831
I2
tp3689
a(I0
I3331
I0
g3187
I2
tp3690
a(I0
I3912
F-0.5
g3673
I2
tp3691
a(I0
I4262
F-0.5
g3676
I2
tp3692
a(I0
I273
F0.5
S'intensive'
p3693
I10
tp3694
a(I0
I476
F0.5
g714
I10
tp3695
a(I0
I658
F1.0
S'good'
p3696
I10
tp3697
a(I0
I658
F0.5
S'internal'
p3698
I10
tp3699
a(I0
I1623
F0.25
S'usable'
p3700
I10
tp3701
a(I0
I2340
F-0.5
S'separate'
p3702
I10
tp3703
a(I0
I2857
I0
g716
I10
tp3704
a(I0
I2923
F-0.25
S'external'
p3705
I10
tp3706
a(I0
I3126
F1.0
S'good'
p3707
I10
tp3708
a(I0
I3706
I0
S'user'
p3709
I10
tp3710
a(I0
I3909
F-0.25
g722
I10
tp3711
a(I0
I3910
F-0.25
g724
I10
tp3712
a(I0
I3912
F-0.25
g726
I10
tp3713
a(I0
I3913
F0.5
S'expandable'
p3714
I10
tp3715
a(I0
I3913
I0
S'only'
p3716
I10
tp3717
a(I0
I3913
I-100
S'32gb'
p3718
I10
tp3719
a(I0
I3914
F0.5
S'expandable'
p3720
I10
tp3721
as(S'mi'
p3722
S'note'
p3723
tp3724
(lp3725
(I0
I987
F-0.625
g1142
I0
tp3726
a(I0
I1140
F-0.25
g1862
I0
tp3727
a(I0
I1425
F-0.875
g1144
I0
tp3728
a(I0
I1425
F-0.875
g1146
I0
tp3729
a(I0
I1864
F-0.25
g14
I0
tp3730
a(I0
I2141
F1.0
g16
I0
tp3731
a(I0
I2202
F0.375
g1872
I0
tp3732
a(I0
I2202
F-0.625
g1874
I0
tp3733
a(I0
I2202
I0
g1876
I0
tp3734
a(I0
I2347
F-0.625
S'red'
p3735
I0
tp3736
a(I0
I2711
F-0.625
g1878
I0
tp3737
a(I0
I2711
F-0.625
g1880
I0
tp3738
a(I0
I2751
F-0.875
g347
I0
tp3739
a(I0
I2823
F-0.625
S'new'
p3740
I0
tp3741
a(I0
I2890
F-0.25
g1151
I0
tp3742
a(I0
I3421
I-100
S'poorfor'
p3743
I0
tp3744
a(I0
I3615
I0
g1776
I0
tp3745
a(I0
I3695
I0
g1887
I0
tp3746
a(I0
I4027
F1.0
S'better'
p3747
I0
tp3748
a(I0
I4066
F-0.625
g20
I0
tp3749
a(I0
I4066
F-0.625
g22
I0
tp3750
a(I0
I4186
I0
g1895
I0
tp3751
a(I0
I4292
F1.0
S'good'
p3752
I0
tp3753
a(I0
I4530
F0.375
g28
I0
tp3754
a(I0
I4561
F1.0
g30
I0
tp3755
a(I0
I4561
F-0.875
g32
I0
tp3756
as(S'very'
p3757
S'good'
p3758
S'battery'
p3759
tp3760
(lp3761
(I0
I647
F1.0
g591
I0
tp3762
a(I0
I2628
F1.0
g631
I0
tp3763
a(I0
I2628
F-0.625
g633
I0
tp3764
a(I0
I2838
F1.0
g637
I0
tp3765
a(I0
I2985
F1.0
g640
I0
tp3766
a(I0
I3366
F1.0
g642
I0
tp3767
a(I0
I3418
F1.0
g579
I0
tp3768
a(I0
I3645
F1.0
g648
I0
tp3769
a(I0
I3645
F0.875
g650
I0
tp3770
a(I0
I3689
F1.0
g652
I0
tp3771
a(I0
I4038
F1.0
g583
I0
tp3772
a(I0
I4217
I0
g276
I0
tp3773
a(I0
I4217
F1.0
g278
I0
tp3774
a(I0
I4291
F1.0
g663
I0
tp3775
a(I0
I4291
F0.5
g665
I0
tp3776
a(I0
I4372
F-0.75
g667
I0
tp3777
a(I0
I4499
F1.0
g669
I0
tp3778
a(I0
I4560
F1.0
g671
I0
tp3779
as(S'device'
p3780
tp3781
(lp3782
(I0
I27
F-0.125
S'overall'
p3783
I11
tp3784
a(I0
I27
F0.875
S'awesome'
p3785
I11
tp3786
a(I0
I85
F0.375
S'satisfied'
p3787
I11
tp3788
a(I0
I342
F-0.75
S'defective'
p3789
I11
tp3790
a(I0
I416
F0.625
S'first'
p3791
I11
tp3792
a(I0
I751
I-100
S'best4'
p3793
I11
tp3794
a(I0
I811
F-0.625
S'last'
p3795
I11
tp3796
a(I0
I845
F0.875
S'happy'
p3797
I11
tp3798
a(I0
I845
F1.0
S'best'
p3799
I11
tp3800
a(I0
I908
F0.875
S'amazing'
p3801
I11
tp3802
a(I0
I908
F-0.25
S'i'
p3803
I11
tp3804
a(I0
I1025
I0
S'more'
p3805
I11
tp3806
a(I0
I1044
F-0.25
S'latest'
p3807
I11
tp3808
a(I0
I1048
F-0.125
S'such'
p3809
I11
tp3810
a(I0
I1215
I0
S'android'
p3811
I11
tp3812
a(I0
I1218
F-0.125
S'overall'
p3813
I11
tp3814
a(I0
I1218
F0.875
S'awesome'
p3815
I11
tp3816
a(I0
I1219
F0.625
S'foolish'
p3817
I11
tp3818
a(I0
I1219
F0.5
S'higher'
p3819
I11
tp3820
a(I0
I1219
I0
S'android'
p3821
I11
tp3822
a(I0
I1219
F1.0
S'better'
p3823
I11
tp3824
a(I0
I1863
F0.625
S'first'
p3825
I11
tp3826
a(I0
I1863
F-0.625
S'new'
p3827
I11
tp3828
a(I0
I1960
F-0.75
S'defective'
p3829
I11
tp3830
a(I0
I1971
F1.0
S'good'
p3831
I11
tp3832
a(I0
I2302
F1.0
S'better'
p3833
I11
tp3834
a(I0
I2302
F-0.625
S'other'
p3835
I11
tp3836
a(I0
I2453
F0.875
S'fabulous'
p3837
I11
tp3838
a(I0
I2564
F1.0
S'best'
p3839
I11
tp3840
a(I0
I2789
F0.75
S'perfect'
p3841
I11
tp3842
a(I0
I2982
F0.875
S'amazing'
p3843
I11
tp3844
a(I0
I3168
F0.625
S'fine'
p3845
I11
tp3846
a(I0
I3243
I0
S'kindle'
p3847
I11
tp3848
a(I0
I3246
F0.5
S'responsive'
p3849
I11
tp3850
a(I0
I3249
F-0.125
S'such'
p3851
I11
tp3852
a(I0
I3411
F0.75
S'wonderful'
p3853
I11
tp3854
a(I0
I3940
F-0.625
S'new'
p3855
I11
tp3856
a(I0
I4022
F1.0
S'good'
p3857
I11
tp3858
a(I0
I4024
F1.0
S'excellent'
p3859
I11
tp3860
a(I0
I4436
F0.75
S'outstanding'
p3861
I11
tp3862
a(I0
I4592
F0.875
S'great'
p3863
I11
tp3864
as(S'review'
p3865
tp3866
(lp3867
(I0
I38
F0.375
S'much'
p3868
I8
tp3869
a(I0
I1111
I0
S'many'
p3870
I8
tp3871
a(I0
I2360
F-0.875
S'negative'
p3872
I8
tp3873
a(I0
I2360
F-0.875
S'false'
p3874
I8
tp3875
a(I0
I2682
F-0.875
S'positive'
p3876
I8
tp3877
a(I0
I2860
F-0.636
S'genuine'
p3878
I8
tp3879
a(I0
I3030
F0.75
S'honest'
p3880
I8
tp3881
a(I0
I3105
F0.75
S'give'
p3882
I8
tp3883
a(I0
I3746
I0
S'quick'
p3884
I8
tp3885
a(I0
I4373
I0
S'main'
p3886
I8
tp3887
as(S'good'
p3888
S'battery'
p3889
S'backup'
p3890
tp3891
(lp3892
(I0
I647
F1.0
g591
I0
tp3893
a(I0
I957
F1.0
S'good'
p3894
I0
tp3895
a(I0
I1120
F1.0
S'good'
p3896
I0
tp3897
a(I0
I1363
F1.0
S'good'
p3898
I0
tp3899
a(I0
I1401
F1.0
g606
I0
tp3900
a(I0
I1527
F1.0
g612
I0
tp3901
a(I0
I1575
F1.0
S'good'
p3902
I0
tp3903
a(I0
I1744
F1.0
S'good'
p3904
I0
tp3905
a(I0
I1946
F1.0
g624
I0
tp3906
a(I0
I2061
F1.0
g575
I0
tp3907
a(I0
I2347
F1.0
S'good'
p3908
I0
tp3909
a(I0
I2626
F1.0
S'good'
p3910
I0
tp3911
a(I0
I2812
F0.875
S'solid'
p3912
I0
tp3913
a(I0
I2867
F1.0
S'good'
p3914
I0
tp3915
a(I0
I3175
F1.0
S'good'
p3916
I0
tp3917
a(I0
I3345
F1.0
S'good'
p3918
I0
tp3919
a(I0
I3418
F1.0
g579
I0
tp3920
a(I0
I3522
F1.0
g581
I0
tp3921
a(I0
I3689
F1.0
g652
I0
tp3922
a(I0
I3865
F0.875
S'happy'
p3923
I0
tp3924
a(I0
I3933
F1.0
S'good'
p3925
I0
tp3926
a(I0
I4038
F1.0
g583
I0
tp3927
a(I0
I4038
F0.875
S'great'
p3928
I0
tp3929
a(I0
I4141
F1.0
S'good'
p3930
I0
tp3931
a(I0
I4155
F0.5
S'touch'
p3932
I0
tp3933
a(I0
I647
F1.0
g591
I0
tp3934
a(I0
I957
F1.0
g3894
I0
tp3935
a(I0
I1120
F1.0
g3896
I0
tp3936
a(I0
I1363
F1.0
g3898
I0
tp3937
a(I0
I1401
F1.0
g606
I0
tp3938
a(I0
I1527
F1.0
g612
I0
tp3939
a(I0
I1527
I-100
S'arnd'
p3940
I0
tp3941
a(I0
I1575
F1.0
g3902
I0
tp3942
a(I0
I1744
F1.0
g3904
I0
tp3943
a(I0
I1946
F1.0
g624
I0
tp3944
a(I0
I2061
F1.0
g575
I0
tp3945
a(I0
I2347
F1.0
g3908
I0
tp3946
a(I0
I2626
F1.0
g3910
I0
tp3947
a(I0
I2812
F0.875
g3912
I0
tp3948
a(I0
I2867
F1.0
g3914
I0
tp3949
a(I0
I3175
F1.0
g3916
I0
tp3950
a(I0
I3345
F1.0
g3918
I0
tp3951
a(I0
I3418
F1.0
g579
I0
tp3952
a(I0
I3522
F1.0
g581
I0
tp3953
a(I0
I3689
F1.0
g652
I0
tp3954
a(I0
I3865
F0.875
g3923
I0
tp3955
a(I0
I3933
F1.0
g3925
I0
tp3956
a(I0
I4038
F1.0
g583
I0
tp3957
a(I0
I4038
F0.875
g3928
I0
tp3958
a(I0
I4141
F1.0
g3930
I0
tp3959
a(I0
I4155
F0.5
g3932
I0
tp3960
as(S'apps'
p3961
tp3962
(lp3963
(I0
I117
I0
S'many'
p3964
I4
tp3965
a(I0
I206
I0
S'multiple'
p3966
I4
tp3967
a(I0
I206
I0
S'few'
p3968
I4
tp3969
a(I0
I206
F-0.875
S'small'
p3970
I4
tp3971
a(I0
I206
I0
S'inbuilt'
p3972
I4
tp3973
a(I0
I622
F0.875
S'great'
p3974
I4
tp3975
a(I0
I1279
F-0.5
S'unwanted'
p3976
I4
tp3977
a(I0
I1376
F-0.25
S'ram'
p3978
I4
tp3979
a(I0
I1376
F-0.75
S'free'
p3980
I4
tp3981
a(I0
I1376
F0.375
S'much'
p3982
I4
tp3983
a(I0
I1849
I0
S'clear'
p3984
I4
tp3985
a(I0
I1896
F-0.75
S'free'
p3986
I4
tp3987
a(I0
I1949
F-0.25
S'social'
p3988
I4
tp3989
a(I0
I2576
I0
S'many'
p3990
I4
tp3991
a(I0
I3084
F1.0
S'good'
p3992
I4
tp3993
a(I0
I3571
I0
S'many'
p3994
I4
tp3995
a(I0
I3800
I-100
S'goodsystem'
p3996
I4
tp3997
a(I0
I4064
I0
S'customised'
p3998
I4
tp3999
a(I0
I4278
F-0.625
S'other'
p4000
I4
tp4001
as.