(dp0
(S'of'
p1
S'redmi'
p2
S'note'
p3
tp4
(lp5
(I0
I378
F0.5
S'true'
p6
I0
tp7
a(I0
I1219
F-1.0
S'bad'
p8
I0
tp9
a(I0
I1628
F1.0
S'better'
p10
I0
tp11
a(I0
I2925
F1.0
S'better'
p12
I0
tp13
a(I0
I5263
F-0.25
S'i'
p14
I0
tp15
a(I0
I6309
F0.125
S'please'
p16
I0
tp17
a(I0
I6309
I0
S'u'
p18
I0
tp19
as(S'polarized'
p20
S'sunglass'
p21
tp22
(lp23
(I0
I112
F0.125
S'polarized'
p24
I0
tp25
a(I0
I114
F0.125
S'polarized'
p26
I0
tp27
a(I0
I117
F0.125
S'polarized'
p28
I0
tp29
a(I0
I117
F0.5
S'possible'
p30
I0
tp31
as(S'2'
p32
S'gb'
p33
S'ram'
p34
tp35
(lp36
(I0
I171
I0
S'gb'
p37
I4
tp38
a(I0
I172
F-0.25
S'ram'
p39
I4
tp40
a(I0
I284
F-0.75
S'free'
p41
I4
tp42
a(I0
I555
F0.875
S'lucky'
p43
I4
tp44
a(I0
I847
F0.25
S'usable'
p45
I4
tp46
a(I0
I847
F-0.5
S'less'
p47
I4
tp48
a(I0
I921
F-0.75
S'free'
p49
I4
tp50
a(I0
I2021
F1.0
S'good'
p51
I4
tp52
a(I0
I2346
I0
S'gb'
p53
I4
tp54
a(I0
I2390
F0.375
S'available'
p55
I4
tp56
a(I0
I2408
I0
S'gb'
p57
I4
tp58
a(I0
I2424
F0.25
S'usable'
p59
I4
tp60
a(I0
I2721
I0
S'u'
p61
I4
tp62
a(I0
I3184
F0.875
S'nice'
p63
I4
tp64
a(I0
I3247
F-0.5
S'less'
p65
I4
tp66
a(I0
I3247
F-0.5
S'disappointed'
p67
I4
tp68
a(I0
I3578
F-0.75
S'disappointing'
p69
I4
tp70
a(I0
I3597
F0.375
S'available'
p71
I4
tp72
a(I0
I3600
F0.375
S'available'
p73
I4
tp74
a(I0
I5109
I0
S'gb'
p75
I4
tp76
a(I0
I6234
F0.875
S'nice'
p77
I4
tp78
a(I0
I6562
F-0.5
S'variant'
p79
I4
tp80
a(I0
I6579
F-0.375
S'adequate'
p81
I4
tp82
a(I0
I6966
F-0.25
S'i'
p83
I4
tp84
a(I0
I6966
F0.875
S'lucky'
p85
I4
tp86
a(I0
I7178
F0.875
S'golden'
p87
I4
tp88
a(I0
I7178
F0.875
S'golden'
p89
I4
tp90
as(S'3'
p91
S'32'
p92
S'gb'
p93
tp94
(lp95
(I0
I149
F-0.125
S'overall'
p96
I0
tp97
a(I0
I670
F0.375
S'available'
p98
I0
tp99
a(I0
I1242
I-100
S'badle'
p100
I0
tp101
a(I0
I1604
F-0.875
S'worried'
p102
I0
tp103
a(I0
I1606
F0.5
S'internal'
p104
I0
tp105
a(I0
I1746
F0.375
S'available'
p106
I0
tp107
a(I0
I1845
F0.375
S'much'
p108
I0
tp109
a(I0
I1845
F1.0
S'better'
p110
I0
tp111
a(I0
I3184
F0.875
g63
I0
tp112
a(I0
I3622
F-0.125
S'ultimate'
p113
I0
tp114
a(I0
I3622
F0.875
S'happy'
p115
I0
tp116
a(I0
I3713
I0
S'32'
p117
I0
tp118
a(I0
I4133
F0.625
S'interested'
p119
I0
tp120
a(I0
I6562
F-0.5
g79
I0
tp121
a(I0
I6810
F-1.0
S'bad'
p122
I0
tp123
a(I0
I7035
F-0.5
S'variant'
p124
I0
tp125
as(S'sim'
p126
S'and'
p127
S'memory'
p128
tp129
(lp130
(I0
I482
I0
S'u'
p131
I0
tp132
a(I0
I482
F0.25
S'use'
p133
I0
tp134
a(I0
I809
F0.5
S'dual'
p135
I0
tp136
a(I0
I809
F0.5
S'expandable'
p137
I0
tp138
a(I0
I809
F-0.25
S'external'
p139
I0
tp140
a(I0
I966
F0.5
S'second'
p141
I0
tp142
a(I0
I966
F-0.25
S'external'
p143
I0
tp144
a(I0
I1231
I0
S'hybrid'
p145
I0
tp146
a(I0
I1234
F0.875
S'note'
p147
I0
tp148
a(I0
I1234
I0
S'gb'
p149
I0
tp150
a(I0
I1234
F0.375
S'full'
p151
I0
tp152
a(I0
I1234
F-0.25
S'micro'
p153
I0
tp154
a(I0
I1284
F0.5
S'dual'
p155
I0
tp156
a(I0
I1337
I0
S'operate'
p157
I0
tp158
a(I0
I1337
F0.5
S'dual'
p159
I0
tp160
a(I0
I1932
F0.125
S'enough'
p161
I0
tp162
a(I0
I1949
F-0.25
S'external'
p163
I0
tp164
a(I0
I2179
F0.5
S'second'
p165
I0
tp166
a(I0
I2766
F-0.5
S'separate'
p167
I0
tp168
a(I0
I3275
F0.5
S'dual'
p169
I0
tp170
a(I0
I3514
F0.5
S'dual'
p171
I0
tp172
a(I0
I3514
F0.5
S'eligible'
p173
I0
tp174
a(I0
I3823
F-0.25
S'external'
p175
I0
tp176
a(I0
I3823
F-0.75
S'single'
p177
I0
tp178
a(I0
I3823
F0.5
S'dual'
p179
I0
tp180
a(I0
I4203
F0.5
S'dual'
p181
I0
tp182
a(I0
I4598
F-0.25
S'external'
p183
I0
tp184
a(I0
I4610
F0.5
S'dual'
p185
I0
tp186
a(I0
I4610
F0.5
S'dual'
p187
I0
tp188
a(I0
I4610
F-0.375
S'same'
p189
I0
tp190
a(I0
I4626
I0
S'nil'
p191
I0
tp192
a(I0
I4626
F0.5
S'second'
p193
I0
tp194
a(I0
I5086
F0.125
S'card'
p195
I0
tp196
a(I0
I5550
F0.375
S'extended'
p197
I0
tp198
a(I0
I5849
F0.5
S'dual'
p199
I0
tp200
a(I0
I5849
F0.5
S'expandable'
p201
I0
tp202
a(I0
I6036
F0.5
S'second'
p203
I0
tp204
a(I0
I6199
F0.375
S'used'
p205
I0
tp206
a(I0
I6291
F0.5
S'internal'
p207
I0
tp208
a(I0
I6471
F0.5
S'dual'
p209
I0
tp210
a(I0
I6612
F0.25
S'required'
p211
I0
tp212
a(I0
I6792
F0.5
S'dual'
p213
I0
tp214
a(I0
I6792
F0.5
S'dual'
p215
I0
tp216
a(I0
I6924
I0
S'more'
p217
I0
tp218
as(S'sim1'
p219
S'sim2'
p220
tp221
(lp222
(I0
I6985
F0.5
S'dual'
p223
I0
tp224
a(I0
I6985
F1.0
S'good'
p225
I0
tp226
as(S'sim'
p227
S'card'
p228
S'slot'
p229
tp230
(lp231
(I0
I784
F-0.75
S'single'
p232
I0
tp233
a(I0
I839
F0.625
S'removable'
p234
I0
tp235
a(I0
I1008
F0.5
S'dual'
p236
I0
tp237
a(I0
I1008
I0
S'hybrid'
p238
I0
tp239
a(I0
I1231
I0
g145
I0
tp240
a(I0
I1234
I0
S'sd'
p241
I0
tp242
a(I0
I1316
I0
S'hybrid'
p243
I0
tp244
a(I0
I1745
I0
S'hybrid'
p245
I0
tp246
a(I0
I2179
F0.5
g165
I0
tp247
a(I0
I2218
F0.5
S'dual'
p248
I0
tp249
a(I0
I3047
I0
S'nd'
p250
I0
tp251
a(I0
I3389
I0
S'hybrid'
p252
I0
tp253
a(I0
I3469
F-0.375
S'same'
p254
I0
tp255
a(I0
I3794
F0.5
S'second'
p256
I0
tp257
a(I0
I3820
F0.5
S'interchangeable'
p258
I0
tp259
a(I0
I3822
F0.5
S'dual'
p260
I0
tp261
a(I0
I3822
I0
S'u'
p262
I0
tp263
a(I0
I3980
F-0.778
S'common'
p264
I0
tp265
a(I0
I4204
I0
S'sd'
p266
I0
tp267
a(I0
I4213
I0
S'hybrid'
p268
I0
tp269
a(I0
I4371
I0
S'hybrid'
p270
I0
tp271
a(I0
I4371
F-0.625
S'other'
p272
I0
tp273
a(I0
I5042
F-0.25
S'i'
p274
I0
tp275
a(I0
I5042
F0.75
S'due'
p276
I0
tp277
a(I0
I5106
F0.125
S'memory'
p278
I0
tp279
a(I0
I5299
F0.5
S'second'
p280
I0
tp281
a(I0
I5422
F-0.375
S'same'
p282
I0
tp283
a(I0
I5572
F0.5
S'second'
p284
I0
tp285
a(I0
I5612
I0
S'hybrid'
p286
I0
tp287
a(I0
I5612
I0
S'sd'
p288
I0
tp289
a(I0
I6199
F0.5
S'second'
p290
I0
tp291
a(I0
I6199
F0.625
S'fine'
p292
I0
tp293
a(I0
I6291
F-0.375
S'same'
p294
I0
tp295
a(I0
I6398
I0
S'sd'
p296
I0
tp297
a(I0
I6561
I0
S'optional'
p298
I0
tp299
a(I0
I6870
F-0.375
S'same'
p300
I0
tp301
a(I0
I693
F0.625
S'first'
p302
I2
tp303
a(I0
I784
F-0.75
g232
I2
tp304
a(I0
I971
I-100
S'charginghybrid'
p305
I2
tp306
a(I0
I1008
F0.5
g236
I2
tp307
a(I0
I1008
I0
g238
I2
tp308
a(I0
I1231
I0
g145
I2
tp309
a(I0
I1316
I0
g243
I2
tp310
a(I0
I1565
F0.5
S'dual'
p311
I2
tp312
a(I0
I1565
F0.5
S'compatible'
p313
I2
tp314
a(I0
I1565
I0
S'hot'
p315
I2
tp316
a(I0
I1565
I-100
S'swapable'
p317
I2
tp318
a(I0
I2179
F0.5
g165
I2
tp319
a(I0
I2218
F0.5
g248
I2
tp320
a(I0
I2873
F-0.75
S'defective'
p321
I2
tp322
a(I0
I2874
F0.5
S'second'
p323
I2
tp324
a(I0
I3047
I0
g250
I2
tp325
a(I0
I3067
I-100
S'lefthybrid'
p326
I2
tp327
a(I0
I3067
I-100
S'appreciablephone'
p328
I2
tp329
a(I0
I3388
F0.75
S'primary'
p330
I2
tp331
a(I0
I3388
F0.5
S'second'
p332
I2
tp333
a(I0
I3388
I0
S'hybrid'
p334
I2
tp335
a(I0
I3389
I0
g252
I2
tp336
a(I0
I3469
F-0.375
g254
I2
tp337
a(I0
I3643
I0
S'hybrid'
p338
I2
tp339
a(I0
I3679
F0.5
S'dual'
p340
I2
tp341
a(I0
I3679
I0
S'hybrid'
p342
I2
tp343
a(I0
I3794
F0.5
g256
I2
tp344
a(I0
I3820
F0.5
g258
I2
tp345
a(I0
I3980
F-0.778
g264
I2
tp346
a(I0
I4202
F-0.75
S'disappointing'
p347
I2
tp348
a(I0
I4213
I0
g268
I2
tp349
a(I0
I4371
F-0.625
g272
I2
tp350
a(I0
I4625
I0
S'hybrid'
p351
I2
tp352
a(I0
I4723
I0
S'hybrid'
p353
I2
tp354
a(I0
I5042
F-0.25
g274
I2
tp355
a(I0
I5104
F0.375
S'available'
p356
I2
tp357
a(I0
I5422
F-0.375
g282
I2
tp358
a(I0
I5572
F0.5
g284
I2
tp359
a(I0
I5612
I0
g286
I2
tp360
a(I0
I6013
F0.5
S'second'
p361
I2
tp362
a(I0
I6199
F0.5
g290
I2
tp363
a(I0
I6199
F0.625
g292
I2
tp364
a(I0
I6231
F-0.75
S'unable'
p365
I2
tp366
a(I0
I6291
F-0.375
g294
I2
tp367
a(I0
I6561
I0
g298
I2
tp368
a(I0
I6870
F-0.375
g300
I2
tp369
a(I0
I300
F-0.5
S'extra'
p370
I0
tp371
a(I0
I784
F-0.75
g232
I0
tp372
a(I0
I839
F0.625
g234
I0
tp373
a(I0
I1234
I0
g241
I0
tp374
a(I0
I1316
I0
g243
I0
tp375
a(I0
I1745
I0
g245
I0
tp376
a(I0
I3047
I0
g250
I0
tp377
a(I0
I3469
F-0.375
g254
I0
tp378
a(I0
I3822
F0.5
g260
I0
tp379
a(I0
I3822
I0
g262
I0
tp380
a(I0
I3980
F-0.778
g264
I0
tp381
a(I0
I4204
I0
g266
I0
tp382
a(I0
I4371
I0
g270
I0
tp383
a(I0
I4371
F-0.625
g272
I0
tp384
a(I0
I5042
F0.75
g276
I0
tp385
a(I0
I5106
F0.125
g278
I0
tp386
a(I0
I5299
F0.5
g280
I0
tp387
a(I0
I5422
F-0.375
g282
I0
tp388
a(I0
I5612
I0
g288
I0
tp389
a(I0
I6199
F0.5
g290
I0
tp390
a(I0
I6199
F0.625
g292
I0
tp391
a(I0
I6291
F-0.375
g294
I0
tp392
a(I0
I6398
I0
g296
I0
tp393
a(I0
I6561
I0
g298
I0
tp394
a(I0
I6870
F-0.375
g300
I0
tp395
a(I0
I300
F-0.5
g370
I2
tp396
a(I0
I784
F-0.75
g232
I2
tp397
a(I0
I1316
I0
g243
I2
tp398
a(I0
I1469
F1.0
S'good'
p399
I2
tp400
a(I0
I1565
F0.5
g313
I2
tp401
a(I0
I1565
I0
g315
I2
tp402
a(I0
I1676
I0
S'hybrid'
p403
I2
tp404
a(I0
I1902
F0.125
S'dedicated'
p405
I2
tp406
a(I0
I1903
F0.5
S'suitable'
p407
I2
tp408
a(I0
I2052
I0
S'hybrid'
p409
I2
tp410
a(I0
I2873
F-0.75
g321
I2
tp411
a(I0
I3047
I0
g250
I2
tp412
a(I0
I3127
I0
S'hybrid'
p413
I2
tp414
a(I0
I3469
F-0.375
g254
I2
tp415
a(I0
I3980
F-0.778
g264
I2
tp416
a(I0
I4112
I0
S'more'
p417
I2
tp418
a(I0
I4202
F-0.75
g347
I2
tp419
a(I0
I4371
F-0.625
g272
I2
tp420
a(I0
I4625
I0
g351
I2
tp421
a(I0
I4683
F0.25
S'future'
p422
I2
tp423
a(I0
I4683
I-100
S'updateshybrid'
p424
I2
tp425
a(I0
I5104
F0.375
g356
I2
tp426
a(I0
I5422
F-0.375
g282
I2
tp427
a(I0
I6199
F0.5
g290
I2
tp428
a(I0
I6199
F0.625
g292
I2
tp429
a(I0
I6291
F-0.375
g294
I2
tp430
a(I0
I6561
I0
g298
I2
tp431
a(I0
I6870
F-0.375
g300
I2
tp432
as(S'update'
p433
tp434
(lp435
(I0
I232
F-0.125
S'next'
p436
I1
tp437
a(I0
I488
F0.75
S'proper'
p438
I1
tp439
a(I0
I770
F-0.25
S'latest'
p440
I1
tp441
a(I0
I952
F-0.25
S'latest'
p442
I1
tp443
a(I0
I2022
F-0.625
S'new'
p444
I1
tp445
a(I0
I2667
F-0.125
S'next'
p446
I1
tp447
a(I0
I4176
F1.0
S'best'
p448
I1
tp449
a(I0
I4644
F-0.125
S'next'
p450
I1
tp451
a(I0
I5182
F-0.625
S'new'
p452
I1
tp453
a(I0
I5758
F0.375
S'available'
p454
I1
tp455
a(I0
I6475
F-0.625
S'new'
p456
I1
tp457
a(I0
I7186
F-0.125
S'next'
p458
I1
tp459
as(S'or'
p460
S'memory'
p461
S'card'
p462
tp463
(lp464
(I0
I108
F-0.25
S'insert'
p465
I0
tp466
a(I0
I482
F0.25
g133
I0
tp467
a(I0
I809
F0.5
g137
I0
tp468
a(I0
I809
F-0.25
g139
I0
tp469
a(I0
I839
F0.625
g234
I0
tp470
a(I0
I966
F-0.25
g143
I0
tp471
a(I0
I966
I0
S'advertised'
p472
I0
tp473
a(I0
I1234
F0.875
g147
I0
tp474
a(I0
I1234
I0
g149
I0
tp475
a(I0
I1234
F0.375
g151
I0
tp476
a(I0
I1234
F-0.25
g153
I0
tp477
a(I0
I1234
I0
g241
I0
tp478
a(I0
I2424
F0.125
S'exist'
p479
I0
tp480
a(I0
I2766
F-0.5
g167
I0
tp481
a(I0
I3002
F0.5
S'true'
p482
I0
tp483
a(I0
I3220
I0
S'sd'
p484
I0
tp485
a(I0
I3220
F0.5
S'internal'
p486
I0
tp487
a(I0
I3820
I0
S'hybrid'
p488
I0
tp489
a(I0
I3820
F-0.5
S'extra'
p490
I0
tp491
a(I0
I3822
F0.5
g260
I0
tp492
a(I0
I3822
I0
g262
I0
tp493
a(I0
I3822
F-0.25
S'external'
p494
I0
tp495
a(I0
I3823
F-0.25
g175
I0
tp496
a(I0
I4598
F-0.25
g183
I0
tp497
a(I0
I4610
I0
S'u'
p498
I0
tp499
a(I0
I4765
F-0.5
S'extra'
p500
I0
tp501
a(I0
I5068
F0.25
S'use'
p502
I0
tp503
a(I0
I5086
F0.125
g195
I0
tp504
a(I0
I5106
F0.125
g278
I0
tp505
a(I0
I5387
I0
S'additional'
p506
I0
tp507
a(I0
I5550
F0.375
g197
I0
tp508
a(I0
I5572
I0
S'u'
p509
I0
tp510
a(I0
I6036
F0.125
S'memory'
p511
I0
tp512
a(I0
I6141
I0
S'n'
p513
I0
tp514
a(I0
I6199
F0.375
g205
I0
tp515
a(I0
I6291
F0.5
g207
I0
tp516
a(I0
I6471
F-0.375
S'same'
p517
I0
tp518
a(I0
I6513
F0.625
S'extendable'
p519
I0
tp520
a(I0
I6513
F0.375
S'allow'
p521
I0
tp522
a(I0
I6924
I0
g217
I0
tp523
a(I0
I7176
F0.25
S'use'
p524
I0
tp525
a(I0
I108
F-0.25
g465
I0
tp526
a(I0
I482
F0.25
g133
I0
tp527
a(I0
I809
F0.5
g137
I0
tp528
a(I0
I809
F-0.25
g139
I0
tp529
a(I0
I839
F0.625
g234
I0
tp530
a(I0
I966
F-0.25
g143
I0
tp531
a(I0
I966
I0
g472
I0
tp532
a(I0
I1234
F0.875
g147
I0
tp533
a(I0
I1234
I0
g149
I0
tp534
a(I0
I1234
F0.375
g151
I0
tp535
a(I0
I1234
F-0.25
g153
I0
tp536
a(I0
I1234
I0
g241
I0
tp537
a(I0
I2424
F0.125
g479
I0
tp538
a(I0
I2766
F-0.5
g167
I0
tp539
a(I0
I3002
F0.5
g482
I0
tp540
a(I0
I3220
I0
g484
I0
tp541
a(I0
I3220
F0.5
g486
I0
tp542
a(I0
I3820
I0
g488
I0
tp543
a(I0
I3820
F-0.5
g490
I0
tp544
a(I0
I3822
F0.5
g260
I0
tp545
a(I0
I3822
I0
g262
I0
tp546
a(I0
I3822
F-0.25
g494
I0
tp547
a(I0
I3823
F-0.25
g175
I0
tp548
a(I0
I4598
F-0.25
g183
I0
tp549
a(I0
I4610
I0
g498
I0
tp550
a(I0
I4765
F-0.5
g500
I0
tp551
a(I0
I5068
F0.25
g502
I0
tp552
a(I0
I5086
F0.125
g195
I0
tp553
a(I0
I5106
F0.125
g278
I0
tp554
a(I0
I5387
I0
g506
I0
tp555
a(I0
I5550
F0.375
g197
I0
tp556
a(I0
I5572
I0
g509
I0
tp557
a(I0
I6036
F0.125
g511
I0
tp558
a(I0
I6141
I0
g513
I0
tp559
a(I0
I6199
F0.375
g205
I0
tp560
a(I0
I6291
F0.5
g207
I0
tp561
a(I0
I6471
F-0.375
g517
I0
tp562
a(I0
I6513
F0.625
g519
I0
tp563
a(I0
I6513
F0.375
g521
I0
tp564
a(I0
I6924
I0
g217
I0
tp565
a(I0
I7176
F0.25
g524
I0
tp566
as(S'average'
p567
tp568
(lp569
(I0
I193
F-0.125
S'overall'
p570
I12
tp571
a(I0
I605
I0
S'below'
p572
I12
tp573
a(I0
I2409
I0
S'above'
p574
I12
tp575
a(I0
I2409
F-0.5
S'loud'
p576
I12
tp577
a(I0
I2653
I0
S'u'
p578
I12
tp579
a(I0
I4255
I0
S'below'
p580
I12
tp581
a(I0
I4368
F0.5
S'higher'
p582
I12
tp583
a(I0
I4368
I0
S'many'
p584
I12
tp585
a(I0
I4368
F0.5
S'high'
p586
I12
tp587
a(I0
I6677
I-100
S'good6'
p588
I12
tp589
as(S'for'
p590
S'32'
p591
S'gb'
p592
tp593
(lp594
(I0
I149
F-0.125
g96
I0
tp595
a(I0
I670
F0.375
g98
I0
tp596
a(I0
I1746
F0.375
g106
I0
tp597
a(I0
I1845
F0.375
g108
I0
tp598
a(I0
I1845
F1.0
g110
I0
tp599
a(I0
I149
F-0.125
g96
I1
tp600
a(I0
I670
F0.375
g98
I1
tp601
a(I0
I1604
F-0.875
g102
I1
tp602
a(I0
I1606
F0.5
g104
I1
tp603
a(I0
I1746
F0.375
g106
I1
tp604
a(I0
I1845
F0.375
g108
I1
tp605
a(I0
I1845
F1.0
g110
I1
tp606
a(I0
I3184
F0.875
g63
I1
tp607
a(I0
I3622
F-0.125
g113
I1
tp608
a(I0
I3622
F0.875
g115
I1
tp609
a(I0
I3713
I0
g117
I1
tp610
a(I0
I4133
F0.625
g119
I1
tp611
a(I0
I6562
F-0.5
g79
I1
tp612
a(I0
I6810
F-1.0
g122
I1
tp613
a(I0
I7035
F-0.5
g124
I1
tp614
as(S'or'
p615
S'one'
p616
S'sim'
p617
tp618
(lp619
(I0
I482
I0
g131
I0
tp620
a(I0
I559
F0.5
S'second'
p621
I0
tp622
a(I0
I680
F0.5
S'second'
p623
I0
tp624
a(I0
I690
I0
S'duel'
p625
I0
tp626
a(I0
I769
F0.5
S'second'
p627
I0
tp628
a(I0
I785
F0.5
S'dual'
p629
I0
tp630
a(I0
I966
F0.5
g141
I0
tp631
a(I0
I1231
I0
g145
I0
tp632
a(I0
I1284
F0.5
g155
I0
tp633
a(I0
I2179
F0.5
g165
I0
tp634
a(I0
I2408
F0.5
S'dual'
p635
I0
tp636
a(I0
I2409
F0.5
S'dual'
p637
I0
tp638
a(I0
I2518
I-100
S'disadvantagous'
p639
I0
tp640
a(I0
I2568
F0.5
S'dual'
p641
I0
tp642
a(I0
I3275
F0.5
g169
I0
tp643
a(I0
I3514
F0.5
g171
I0
tp644
a(I0
I3514
F0.5
g173
I0
tp645
a(I0
I3820
F0.5
g258
I0
tp646
a(I0
I3823
F-0.75
g177
I0
tp647
a(I0
I3823
F0.5
g179
I0
tp648
a(I0
I4113
F0.5
S'dual'
p649
I0
tp650
a(I0
I4413
F0.25
S'use'
p651
I0
tp652
a(I0
I4501
F0.5
S'dual'
p653
I0
tp654
a(I0
I4610
F0.5
g185
I0
tp655
a(I0
I4610
F0.5
g187
I0
tp656
a(I0
I4610
F-0.375
g189
I0
tp657
a(I0
I4727
F-0.75
S'single'
p658
I0
tp659
a(I0
I4944
I0
S'nd'
p660
I0
tp661
a(I0
I5068
F0.5
S'dual'
p662
I0
tp663
a(I0
I5263
F1.0
S'good'
p664
I0
tp665
a(I0
I5263
F0.5
S'internal'
p666
I0
tp667
a(I0
I5263
F-0.75
S'risky'
p668
I0
tp669
a(I0
I5263
F-0.25
S'insert'
p670
I0
tp671
a(I0
I5566
F-0.875
S'small'
p672
I0
tp673
a(I0
I5572
F0.5
g284
I0
tp674
a(I0
I6030
I0
S'hybrid'
p675
I0
tp676
a(I0
I6141
I0
S'n'
p677
I0
tp678
a(I0
I6175
F0.5
S'dual'
p679
I0
tp680
a(I0
I6521
F-0.75
S'single'
p681
I0
tp682
a(I0
I6657
F0.5
S'dual'
p683
I0
tp684
a(I0
I6792
F0.5
g213
I0
tp685
a(I0
I6792
F0.5
g215
I0
tp686
a(I0
I6973
F0.5
S'dual'
p687
I0
tp688
a(I0
I6993
F0.5
S'second'
p689
I0
tp690
a(I0
I7138
F-0.25
S'micro'
p691
I0
tp692
a(I0
I7193
F-0.75
S'single'
p693
I0
tp694
a(I0
I362
F-0.625
S'new'
p695
I0
tp696
a(I0
I482
I0
g131
I0
tp697
a(I0
I559
F0.5
g621
I0
tp698
a(I0
I680
F0.5
g623
I0
tp699
a(I0
I690
I0
g625
I0
tp700
a(I0
I769
F0.5
g627
I0
tp701
a(I0
I785
F0.5
g629
I0
tp702
a(I0
I966
F0.5
g141
I0
tp703
a(I0
I1125
F0.5
S'dual'
p704
I0
tp705
a(I0
I1156
F0.5
S'dual'
p706
I0
tp707
a(I0
I1231
I0
g145
I0
tp708
a(I0
I1284
F0.5
g155
I0
tp709
a(I0
I1565
F0.5
g311
I0
tp710
a(I0
I2179
F0.5
g165
I0
tp711
a(I0
I2408
F0.5
g635
I0
tp712
a(I0
I2409
F0.5
g637
I0
tp713
a(I0
I2568
F0.5
g641
I0
tp714
a(I0
I3275
F0.5
g169
I0
tp715
a(I0
I3514
F0.5
g171
I0
tp716
a(I0
I3514
F0.5
g173
I0
tp717
a(I0
I3820
F0.5
g258
I0
tp718
a(I0
I3823
F-0.75
g177
I0
tp719
a(I0
I3823
F0.5
g179
I0
tp720
a(I0
I4113
F0.5
g649
I0
tp721
a(I0
I4413
F0.25
g651
I0
tp722
a(I0
I4501
F0.5
g653
I0
tp723
a(I0
I4610
F0.5
g185
I0
tp724
a(I0
I4610
F0.5
g187
I0
tp725
a(I0
I4610
F-0.375
g189
I0
tp726
a(I0
I4727
F-0.75
g658
I0
tp727
a(I0
I4791
F0.5
S'dual'
p728
I0
tp729
a(I0
I4944
I0
g660
I0
tp730
a(I0
I5068
F0.5
g662
I0
tp731
a(I0
I5263
F1.0
g664
I0
tp732
a(I0
I5263
F0.5
g666
I0
tp733
a(I0
I5263
F-0.75
g668
I0
tp734
a(I0
I5263
F-0.25
g670
I0
tp735
a(I0
I5566
F-0.875
g672
I0
tp736
a(I0
I5572
F0.5
g284
I0
tp737
a(I0
I5718
F0.5
S'dual'
p738
I0
tp739
a(I0
I6030
I0
g675
I0
tp740
a(I0
I6141
I0
g677
I0
tp741
a(I0
I6175
F0.5
g679
I0
tp742
a(I0
I6521
F-0.75
g681
I0
tp743
a(I0
I6657
F0.5
g683
I0
tp744
a(I0
I6752
F0.5
S'dual'
p745
I0
tp746
a(I0
I6792
F0.5
g213
I0
tp747
a(I0
I6792
F0.5
g215
I0
tp748
a(I0
I6937
I0
S'ur'
p749
I0
tp750
a(I0
I6973
F0.5
g687
I0
tp751
a(I0
I6993
F0.5
g689
I0
tp752
a(I0
I7092
I0
S'only'
p753
I0
tp754
a(I0
I7138
F-0.25
g691
I0
tp755
a(I0
I7154
F0.25
S'able'
p756
I0
tp757
a(I0
I7193
F-0.75
g693
I0
tp758
as(S'in'
p759
S'flash'
p760
S'sale'
p761
tp762
(lp763
(I0
I164
I0
S'third'
p764
I0
tp765
a(I0
I164
F-0.5
S'flash'
p766
I0
tp767
a(I0
I406
F-0.5
S'flash'
p768
I0
tp769
a(I0
I406
F-0.625
S'last'
p770
I0
tp771
a(I0
I407
F-0.5
S'flash'
p772
I0
tp773
a(I0
I414
F-0.5
S'flash'
p774
I0
tp775
a(I0
I482
F-0.5
S'flash'
p776
I0
tp777
a(I0
I537
F-0.5
S'flash'
p778
I0
tp779
a(I0
I780
F-0.625
S'last'
p780
I0
tp781
a(I0
I780
F-0.5
S'flash'
p782
I0
tp783
a(I0
I780
F0.25
S'able'
p784
I0
tp785
a(I0
I885
F-0.5
S'flash'
p786
I0
tp787
a(I0
I1195
F-0.5
S'flash'
p788
I0
tp789
a(I0
I1305
F0.375
S'available'
p790
I0
tp791
a(I0
I1305
F-0.5
S'flash'
p792
I0
tp793
a(I0
I1311
F-0.5
S'flash'
p794
I0
tp795
a(I0
I1424
F-0.5
S'flash'
p796
I0
tp797
a(I0
I1428
F-0.5
S'flash'
p798
I0
tp799
a(I0
I1605
I0
S'upcoming'
p800
I0
tp801
a(I0
I1605
F-0.5
S'flash'
p802
I0
tp803
a(I0
I1745
F-0.125
S'next'
p804
I0
tp805
a(I0
I1763
F-0.5
S'flash'
p806
I0
tp807
a(I0
I1962
F-0.5
S'flash'
p808
I0
tp809
a(I0
I2181
F-0.5
S'flash'
p810
I0
tp811
a(I0
I2282
F0.625
S'first'
p812
I0
tp813
a(I0
I2282
F-0.5
S'flash'
p814
I0
tp815
a(I0
I2449
F-0.5
S'flash'
p816
I0
tp817
a(I0
I3047
F-0.5
S'flash'
p818
I0
tp819
a(I0
I3698
F-0.5
S'flash'
p820
I0
tp821
a(I0
I3698
F-1.0
S'bad'
p822
I0
tp823
a(I0
I3758
F0.625
S'first'
p824
I0
tp825
a(I0
I3758
F-0.5
S'flash'
p826
I0
tp827
a(I0
I3982
F-0.5
S'flash'
p828
I0
tp829
a(I0
I4166
F-0.625
S'useless'
p830
I0
tp831
a(I0
I4167
F-0.5
S'flash'
p832
I0
tp833
a(I0
I4342
F-0.5
S'flash'
p834
I0
tp835
a(I0
I4426
F-0.5
S'flash'
p836
I0
tp837
a(I0
I4446
F-0.5
S'flash'
p838
I0
tp839
a(I0
I4589
F-0.5
S'flash'
p840
I0
tp841
a(I0
I4831
F-0.25
S'i'
p842
I0
tp843
a(I0
I4831
F-0.5
S'flash'
p844
I0
tp845
a(I0
I4852
F-0.5
S'flash'
p846
I0
tp847
a(I0
I4852
F-0.5
S'flash'
p848
I0
tp849
a(I0
I5477
F-0.5
S'flash'
p850
I0
tp851
a(I0
I5602
F-0.5
S'flash'
p852
I0
tp853
a(I0
I5664
F0.375
S'satisfied'
p854
I0
tp855
a(I0
I5755
F-0.5
S'flash'
p856
I0
tp857
a(I0
I5996
F-0.5
S'flash'
p858
I0
tp859
a(I0
I6031
F-0.875
S'fake'
p860
I0
tp861
a(I0
I6031
F-0.5
S'flash'
p862
I0
tp863
a(I0
I6397
F0.625
S'first'
p864
I0
tp865
a(I0
I6397
F-0.5
S'flash'
p866
I0
tp867
a(I0
I6537
F-0.5
S'flash'
p868
I0
tp869
a(I0
I6813
F-0.5
S'flash'
p870
I0
tp871
a(I0
I6909
F-0.5
S'flash'
p872
I0
tp873
a(I0
I6909
F-0.625
S'new'
p874
I0
tp875
a(I0
I6947
F-0.5
S'flash'
p876
I0
tp877
a(I0
I7165
F-0.5
S'flash'
p878
I0
tp879
a(I0
I7203
F-0.875
S'fake'
p880
I0
tp881
a(I0
I7203
F-0.5
S'flash'
p882
I0
tp883
a(I0
I141
F-0.5
S'flash'
p884
I0
tp885
a(I0
I164
I0
g764
I0
tp886
a(I0
I164
F-0.5
g766
I0
tp887
a(I0
I406
F-0.5
g768
I0
tp888
a(I0
I406
F-0.625
g770
I0
tp889
a(I0
I407
F-0.5
g772
I0
tp890
a(I0
I414
F-0.5
g774
I0
tp891
a(I0
I482
F-0.5
g776
I0
tp892
a(I0
I537
F-0.5
g778
I0
tp893
a(I0
I780
F-0.625
g780
I0
tp894
a(I0
I780
F-0.5
g782
I0
tp895
a(I0
I780
F0.25
g784
I0
tp896
a(I0
I885
F-0.5
g786
I0
tp897
a(I0
I909
F-0.5
S'flash'
p898
I0
tp899
a(I0
I1023
F-0.5
S'flash'
p900
I0
tp901
a(I0
I1195
F-0.5
g788
I0
tp902
a(I0
I1248
F-0.5
S'flash'
p903
I0
tp904
a(I0
I1305
F0.375
g790
I0
tp905
a(I0
I1305
F-0.5
g792
I0
tp906
a(I0
I1311
F-0.5
g794
I0
tp907
a(I0
I1424
F-0.5
g796
I0
tp908
a(I0
I1428
F-0.5
g798
I0
tp909
a(I0
I1605
I0
g800
I0
tp910
a(I0
I1605
F-0.5
g802
I0
tp911
a(I0
I1745
F-0.125
g804
I0
tp912
a(I0
I1763
F-0.5
g806
I0
tp913
a(I0
I1952
F0.625
S'first'
p914
I0
tp915
a(I0
I1962
F-0.5
g808
I0
tp916
a(I0
I2181
F-0.5
g810
I0
tp917
a(I0
I2282
F0.625
g812
I0
tp918
a(I0
I2282
F-0.5
g814
I0
tp919
a(I0
I2449
F-0.5
g816
I0
tp920
a(I0
I3047
F-0.5
g818
I0
tp921
a(I0
I3621
I0
S'awful'
p922
I0
tp923
a(I0
I3621
F-0.5
S'flash'
p924
I0
tp925
a(I0
I3698
F-0.5
g820
I0
tp926
a(I0
I3698
F-1.0
g822
I0
tp927
a(I0
I3705
I0
S'nd'
p928
I0
tp929
a(I0
I3705
F-0.5
S'flash'
p930
I0
tp931
a(I0
I3758
F0.625
g824
I0
tp932
a(I0
I3758
F-0.5
g826
I0
tp933
a(I0
I3982
F-0.5
g828
I0
tp934
a(I0
I4084
F-0.5
S'flash'
p935
I0
tp936
a(I0
I4166
F-0.625
g830
I0
tp937
a(I0
I4167
F-0.5
g832
I0
tp938
a(I0
I4342
F-0.5
g834
I0
tp939
a(I0
I4426
F-0.5
g836
I0
tp940
a(I0
I4446
F-0.5
g838
I0
tp941
a(I0
I4589
F-0.5
g840
I0
tp942
a(I0
I4831
F-0.25
g842
I0
tp943
a(I0
I4831
F-0.5
g844
I0
tp944
a(I0
I4849
F-0.5
S'flash'
p945
I0
tp946
a(I0
I4852
F-0.5
g846
I0
tp947
a(I0
I4852
F-0.5
g848
I0
tp948
a(I0
I5292
F-0.5
S'flash'
p949
I0
tp950
a(I0
I5350
F-0.5
S'flash'
p951
I0
tp952
a(I0
I5477
F-0.5
g850
I0
tp953
a(I0
I5602
F-0.5
g852
I0
tp954
a(I0
I5616
F-0.5
S'flash'
p955
I0
tp956
a(I0
I5664
F0.375
g854
I0
tp957
a(I0
I5664
I-100
S'happyworst'
p958
I0
tp959
a(I0
I5755
F-0.5
g856
I0
tp960
a(I0
I5831
I-100
S'removabal'
p961
I0
tp962
a(I0
I5831
I-100
S'badworst'
p963
I0
tp964
a(I0
I5932
F-0.5
S'flash'
p965
I0
tp966
a(I0
I5996
F-0.5
g858
I0
tp967
a(I0
I6031
F-0.875
g860
I0
tp968
a(I0
I6031
F-0.5
g862
I0
tp969
a(I0
I6045
F-0.875
S'pathetic'
p970
I0
tp971
a(I0
I6059
F-0.5
S'flash'
p972
I0
tp973
a(I0
I6304
F-0.5
S'flash'
p974
I0
tp975
a(I0
I6397
F0.625
g864
I0
tp976
a(I0
I6397
F-0.5
g866
I0
tp977
a(I0
I6433
F-0.5
S'flash'
p978
I0
tp979
a(I0
I6537
F-0.5
g868
I0
tp980
a(I0
I6537
I-100
S'historyyeswawyesworst'
p981
I0
tp982
a(I0
I6813
F-0.5
g870
I0
tp983
a(I0
I6909
F-0.5
g872
I0
tp984
a(I0
I6909
F-0.625
g874
I0
tp985
a(I0
I6909
I-100
S'technic'
p986
I0
tp987
a(I0
I6947
F-0.5
g876
I0
tp988
a(I0
I7119
F-0.5
S'flash'
p989
I0
tp990
a(I0
I7165
F-0.5
g878
I0
tp991
a(I0
I7203
F-0.875
g880
I0
tp992
a(I0
I7203
F-0.5
g882
I0
tp993
a(I0
I141
F-0.5
g884
I0
tp994
a(I0
I164
I0
g764
I0
tp995
a(I0
I164
F-0.5
g766
I0
tp996
a(I0
I294
F-0.875
S'low'
p997
I0
tp998
a(I0
I406
F-0.5
g768
I0
tp999
a(I0
I406
F-0.625
g770
I0
tp1000
a(I0
I407
F-0.5
g772
I0
tp1001
a(I0
I414
F-0.5
g774
I0
tp1002
a(I0
I482
F-0.5
g776
I0
tp1003
a(I0
I537
F-0.5
g778
I0
tp1004
a(I0
I670
F0.625
S'first'
p1005
I0
tp1006
a(I0
I780
F-0.625
g780
I0
tp1007
a(I0
I780
F-0.5
g782
I0
tp1008
a(I0
I780
F0.25
g784
I0
tp1009
a(I0
I781
F0.875
S'great'
p1010
I0
tp1011
a(I0
I885
F-0.5
g786
I0
tp1012
a(I0
I909
F-0.5
g898
I0
tp1013
a(I0
I1023
F-0.5
g900
I0
tp1014
a(I0
I1168
F0.625
S'first'
p1015
I0
tp1016
a(I0
I1195
F-0.5
g788
I0
tp1017
a(I0
I1248
F-0.5
g903
I0
tp1018
a(I0
I1305
F0.375
g790
I0
tp1019
a(I0
I1305
F-0.5
g792
I0
tp1020
a(I0
I1311
F-0.5
g794
I0
tp1021
a(I0
I1424
F-0.5
g796
I0
tp1022
a(I0
I1428
F-0.5
g798
I0
tp1023
a(I0
I1430
I-100
S'poorfake'
p1024
I0
tp1025
a(I0
I1472
F-0.625
S'last'
p1026
I0
tp1027
a(I0
I1472
F-0.875
S'fake'
p1028
I0
tp1029
a(I0
I1505
F-0.75
S'open'
p1030
I0
tp1031
a(I0
I1605
I0
g800
I0
tp1032
a(I0
I1605
F-0.5
g802
I0
tp1033
a(I0
I1717
F-0.25
S'earlier'
p1034
I0
tp1035
a(I0
I1763
F-0.5
g806
I0
tp1036
a(I0
I1962
F-0.5
g808
I0
tp1037
a(I0
I2181
F-0.5
g810
I0
tp1038
a(I0
I2282
F0.625
g812
I0
tp1039
a(I0
I2282
F-0.5
g814
I0
tp1040
a(I0
I2449
F-0.5
g816
I0
tp1041
a(I0
I2576
I0
S'more'
p1042
I0
tp1043
a(I0
I3047
F-0.5
g818
I0
tp1044
a(I0
I3165
F-0.125
S'next'
p1045
I0
tp1046
a(I0
I3621
I0
g922
I0
tp1047
a(I0
I3621
F-0.5
g924
I0
tp1048
a(I0
I3698
F-0.5
g820
I0
tp1049
a(I0
I3698
F-1.0
g822
I0
tp1050
a(I0
I3705
I0
g928
I0
tp1051
a(I0
I3705
F-0.5
g930
I0
tp1052
a(I0
I3758
F0.625
g824
I0
tp1053
a(I0
I3758
F-0.5
g826
I0
tp1054
a(I0
I3838
F0.625
S'first'
p1055
I0
tp1056
a(I0
I3982
F-0.5
g828
I0
tp1057
a(I0
I4084
F-0.5
g935
I0
tp1058
a(I0
I4167
F-0.5
g832
I0
tp1059
a(I0
I4181
F-0.875
S'fake'
p1060
I0
tp1061
a(I0
I4342
F-0.5
g834
I0
tp1062
a(I0
I4343
F0.125
S'please'
p1063
I0
tp1064
a(I0
I4343
F-0.75
S'open'
p1065
I0
tp1066
a(I0
I4426
F-0.5
g836
I0
tp1067
a(I0
I4446
F-0.5
g838
I0
tp1068
a(I0
I4589
F-0.5
g840
I0
tp1069
a(I0
I4688
F-0.875
S'painful'
p1070
I0
tp1071
a(I0
I4688
I-100
S'dificult'
p1072
I0
tp1073
a(I0
I4688
F-0.75
S'open'
p1074
I0
tp1075
a(I0
I4811
F-0.75
S'cheating'
p1076
I0
tp1077
a(I0
I4831
F-0.25
g842
I0
tp1078
a(I0
I4831
F-0.5
g844
I0
tp1079
a(I0
I4849
F-0.5
g945
I0
tp1080
a(I0
I4852
F-0.5
g846
I0
tp1081
a(I0
I4852
F-0.5
g848
I0
tp1082
a(I0
I5292
F-0.5
g949
I0
tp1083
a(I0
I5319
F0.625
S'first'
p1084
I0
tp1085
a(I0
I5350
F-0.5
g951
I0
tp1086
a(I0
I5424
F-0.625
S'last'
p1087
I0
tp1088
a(I0
I5477
F-0.5
g850
I0
tp1089
a(I0
I5498
F-0.125
S'next'
p1090
I0
tp1091
a(I0
I5602
F-0.5
g852
I0
tp1092
a(I0
I5616
F-0.5
g955
I0
tp1093
a(I0
I5705
F0.125
S'mobile'
p1094
I0
tp1095
a(I0
I5755
F-0.5
g856
I0
tp1096
a(I0
I5932
F-0.5
g965
I0
tp1097
a(I0
I5996
F-0.5
g858
I0
tp1098
a(I0
I6031
F-0.875
g860
I0
tp1099
a(I0
I6031
F-0.5
g862
I0
tp1100
a(I0
I6059
F-0.5
g972
I0
tp1101
a(I0
I6062
F-0.125
S'march'
p1102
I0
tp1103
a(I0
I6304
F-0.5
g974
I0
tp1104
a(I0
I6305
F-0.75
S'open'
p1105
I0
tp1106
a(I0
I6397
F0.625
g864
I0
tp1107
a(I0
I6397
F-0.5
g866
I0
tp1108
a(I0
I6433
F-0.5
g978
I0
tp1109
a(I0
I6537
F-0.5
g868
I0
tp1110
a(I0
I6545
F-0.875
S'fake'
p1111
I0
tp1112
a(I0
I6656
F-0.875
S'fake'
p1113
I0
tp1114
a(I0
I6813
F-0.5
g870
I0
tp1115
a(I0
I6909
F-0.5
g872
I0
tp1116
a(I0
I6909
F-0.625
g874
I0
tp1117
a(I0
I6921
I0
S'u'
p1118
I0
tp1119
a(I0
I6921
F-0.75
S'open'
p1120
I0
tp1121
a(I0
I6947
F-0.5
g876
I0
tp1122
a(I0
I6964
F0.625
S'first'
p1123
I0
tp1124
a(I0
I6966
F0.625
S'first'
p1125
I0
tp1126
a(I0
I7119
F-0.5
g989
I0
tp1127
a(I0
I7151
F-0.625
S'last'
p1128
I0
tp1129
a(I0
I7165
F-0.5
g878
I0
tp1130
a(I0
I7187
I0
S'nt'
p1131
I0
tp1132
a(I0
I7187
F-0.875
S'fake'
p1133
I0
tp1134
a(I0
I7203
F-0.875
g880
I0
tp1135
a(I0
I7203
F-0.5
g882
I0
tp1136
a(I0
I278
F1.0
S'good'
p1137
I3
tp1138
a(I0
I740
F-0.125
S'front'
p1139
I3
tp1140
a(I0
I916
F-0.125
S'front'
p1141
I3
tp1142
a(I0
I995
I-100
S'yallow'
p1143
I3
tp1144
a(I0
I1297
F0.875
S'great'
p1145
I3
tp1146
a(I0
I1745
F-0.125
g804
I3
tp1147
a(I0
I1952
F0.625
g914
I3
tp1148
a(I0
I2173
F0.5
S'dual'
p1149
I3
tp1150
a(I0
I2193
F0.5
S'true'
p1151
I3
tp1152
a(I0
I2193
F1.0
S'good'
p1153
I3
tp1154
a(I0
I2469
F1.0
S'good'
p1155
I3
tp1156
a(I0
I4166
F-0.625
g830
I3
tp1157
a(I0
I5664
F0.375
g854
I3
tp1158
a(I0
I6045
F-0.875
g970
I3
tp1159
a(I0
I6992
F1.0
S'good'
p1160
I3
tp1161
as(S'experience'
p1162
tp1163
(lp1164
(I0
I48
F-0.625
S'horrible'
p1165
I12
tp1166
a(I0
I435
F0.625
S'superior'
p1167
I12
tp1168
a(I0
I629
F1.0
S'good'
p1169
I12
tp1170
a(I0
I833
F1.0
S'good'
p1171
I12
tp1172
a(I0
I1247
F0.875
S'great'
p1173
I12
tp1174
a(I0
I1247
F0.125
S'mobile'
p1175
I12
tp1176
a(I0
I1348
I0
S'user'
p1177
I12
tp1178
a(I0
I1377
F0.875
S'great'
p1179
I12
tp1180
a(I0
I1660
F-1.0
S'bad'
p1181
I12
tp1182
a(I0
I1668
F1.0
S'good'
p1183
I12
tp1184
a(I0
I1700
F-1.0
S'bad'
p1185
I12
tp1186
a(I0
I1841
F0.875
S'great'
p1187
I12
tp1188
a(I0
I1882
I-100
S'photopoor'
p1189
I12
tp1190
a(I0
I2009
F0.375
S'ok'
p1191
I12
tp1192
a(I0
I2384
F-1.0
S'bad'
p1193
I12
tp1194
a(I0
I2387
F1.0
S'best'
p1195
I12
tp1196
a(I0
I2552
I-100
S'problesawesome'
p1197
I12
tp1198
a(I0
I3014
F-0.125
S'cant'
p1199
I12
tp1200
a(I0
I3014
F0.875
S'awesome'
p1201
I12
tp1202
a(I0
I3091
I-100
S'greatpar'
p1203
I12
tp1204
a(I0
I3198
F0.625
S'first'
p1205
I12
tp1206
a(I0
I3252
F0.875
S'nice'
p1207
I12
tp1208
a(I0
I3377
F0.625
S'smooth'
p1209
I12
tp1210
a(I0
I3377
I0
S'user'
p1211
I12
tp1212
a(I0
I3440
F0.5
S'enjoyable'
p1213
I12
tp1214
a(I0
I3614
F-0.625
S'unpleasant'
p1215
I12
tp1216
a(I0
I3631
I0
S't'
p1217
I12
tp1218
a(I0
I4029
F-0.625
S'horrible'
p1219
I12
tp1220
a(I0
I4429
F0.5
S'personal'
p1221
I12
tp1222
a(I0
I4480
F-0.125
S'overall'
p1223
I12
tp1224
a(I0
I4552
F0.625
S'first'
p1225
I12
tp1226
a(I0
I5436
F-0.125
S'overall'
p1227
I12
tp1228
a(I0
I5436
F0.5
S'satisfactory'
p1229
I12
tp1230
a(I0
I5602
I0
S'own'
p1231
I12
tp1232
a(I0
I5749
F0.625
S'first'
p1233
I12
tp1234
a(I0
I6225
F0.875
S'great'
p1235
I12
tp1236
a(I0
I6740
F-1.0
S'bad'
p1237
I12
tp1238
a(I0
I6799
F-1.0
S'bad'
p1239
I12
tp1240
a(I0
I7005
F-0.875
S'poor'
p1241
I12
tp1242
a(I0
I7075
F0.875
S'nice'
p1243
I12
tp1244
as(S'modern'
p1245
S'combat'
p1246
tp1247
(lp1248
(I0
I5188
F0.5
S'modern'
p1249
I0
tp1250
as(g91
S'days'
p1251
tp1252
(lp1253
(I0
I862
F-0.625
S'last'
p1254
I4
tp1255
a(I0
I1099
F0.5
S'old'
p1256
I4
tp1257
a(I0
I1962
F-0.125
S'overall'
p1258
I4
tp1259
a(I0
I2896
I0
S'dis'
p1260
I4
tp1261
a(I0
I2896
F-0.125
S'overall'
p1262
I4
tp1263
a(I0
I3852
I0
S'more'
p1264
I4
tp1265
a(I0
I4414
F-0.625
S'last'
p1266
I4
tp1267
a(I0
I4860
F-0.5
S'continuous'
p1268
I4
tp1269
a(I0
I4965
I0
S'few'
p1270
I4
tp1271
a(I0
I5361
F-0.625
S'moderate'
p1272
I4
tp1273
a(I0
I5602
I0
S'ten'
p1274
I4
tp1275
a(I0
I5602
F0.125
S'don'
p1276
I4
tp1277
a(I0
I5602
I0
S't'
p1278
I4
tp1279
a(I0
I6315
F1.0
S'best'
p1280
I4
tp1281
a(I0
I6315
F0.875
S'awesome'
p1282
I4
tp1283
a(I0
I6315
F-0.625
S'last'
p1284
I4
tp1285
a(I0
I6477
F0.375
S'usage'
p1286
I4
tp1287
a(I0
I6477
F1.0
S'good'
p1288
I4
tp1289
as(S'good'
p1290
S'in'
p1291
S'day'
p1292
tp1293
(lp1294
(I0
I18
F1.0
S'good'
p1295
I0
tp1296
a(I0
I67
F1.0
S'good'
p1297
I0
tp1298
a(I0
I424
F-0.5
S'disappointed'
p1299
I0
tp1300
a(I0
I2408
F0.375
S'full'
p1301
I0
tp1302
a(I0
I2802
F0.875
S'awesome'
p1303
I0
tp1304
a(I0
I4951
F0.625
S'first'
p1305
I0
tp1306
a(I0
I5559
F-0.875
S'low'
p1307
I0
tp1308
a(I0
I5559
F0.375
S'full'
p1309
I0
tp1310
as(S'16'
p1311
S'mp'
p1312
S'camera'
p1313
tp1314
(lp1315
(I0
I88
F-0.125
S'front'
p1316
I0
tp1317
a(I0
I88
I0
S'rear'
p1318
I0
tp1319
a(I0
I96
F-0.125
S'overall'
p1320
I0
tp1321
a(I0
I469
F1.0
S'good'
p1322
I0
tp1323
a(I0
I596
I0
S'rear'
p1324
I0
tp1325
a(I0
I596
F-0.125
S'front'
p1326
I0
tp1327
a(I0
I596
F1.0
S'best'
p1328
I0
tp1329
a(I0
I1059
F1.0
S'good'
p1330
I0
tp1331
a(I0
I1370
F0.25
S'worth'
p1332
I0
tp1333
a(I0
I1370
I0
S'advertised'
p1334
I0
tp1335
a(I0
I1630
F1.0
S'best'
p1336
I0
tp1337
a(I0
I2021
F-0.125
S'front'
p1338
I0
tp1339
a(I0
I2021
F1.0
S'good'
p1340
I0
tp1341
a(I0
I2121
F0.875
S'awesome'
p1342
I0
tp1343
a(I0
I2868
F0.5
S'like'
p1344
I0
tp1345
a(I0
I2935
F-0.75
S'defective'
p1346
I0
tp1347
a(I0
I2974
F-1.0
S'bad'
p1348
I0
tp1349
a(I0
I3198
I-100
S'good16'
p1350
I0
tp1351
a(I0
I3353
F0.75
S'primary'
p1352
I0
tp1353
a(I0
I3353
F0.75
S'primary'
p1354
I0
tp1355
a(I0
I3559
I0
S'more'
p1356
I0
tp1357
a(I0
I3559
F1.0
S'good'
p1358
I0
tp1359
a(I0
I3570
F0.875
S'awesome'
p1360
I0
tp1361
a(I0
I3570
I0
S'rear'
p1362
I0
tp1363
a(I0
I3781
F-0.625
S'other'
p1364
I0
tp1365
a(I0
I3781
F-0.125
S'such'
p1366
I0
tp1367
a(I0
I3816
F1.0
S'good'
p1368
I0
tp1369
a(I0
I4455
F-0.125
S'back'
p1370
I0
tp1371
a(I0
I4505
I0
S'rear'
p1372
I0
tp1373
a(I0
I4505
F1.0
S'good'
p1374
I0
tp1375
a(I0
I4505
F0.625
S'fine'
p1376
I0
tp1377
a(I0
I4719
F-0.75
S'secondary'
p1378
I0
tp1379
a(I0
I4719
F1.0
S'good'
p1380
I0
tp1381
a(I0
I4820
F-0.25
S'i'
p1382
I0
tp1383
a(I0
I4862
F-0.625
S'real'
p1384
I0
tp1385
a(I0
I5034
I0
S'rear'
p1386
I0
tp1387
a(I0
I5034
F0.5
S'similar'
p1388
I0
tp1389
a(I0
I5108
I0
S'mp'
p1390
I0
tp1391
a(I0
I5115
F-0.125
S'front'
p1392
I0
tp1393
a(I0
I5214
I0
S'touted'
p1394
I0
tp1395
a(I0
I5543
F-0.125
S'front'
p1396
I0
tp1397
a(I0
I5551
F-0.5
S'disappointed'
p1398
I0
tp1399
a(I0
I5582
F1.0
S'good'
p1400
I0
tp1401
a(I0
I5748
F0.875
S'decent'
p1402
I0
tp1403
a(I0
I5805
F1.0
S'good'
p1404
I0
tp1405
a(I0
I5805
F0.75
S'give'
p1406
I0
tp1407
a(I0
I6175
F0.875
S'superb'
p1408
I0
tp1409
a(I0
I6365
F0.875
S'awesome'
p1410
I0
tp1411
a(I0
I6449
I0
S't'
p1412
I0
tp1413
a(I0
I6449
F-1.0
S'bad'
p1414
I0
tp1415
a(I0
I6858
F1.0
S'good'
p1416
I0
tp1417
a(I0
I1370
F0.25
g1332
I0
tp1418
a(I0
I1370
I0
g1334
I0
tp1419
a(I0
I3559
I0
g1356
I0
tp1420
a(I0
I4719
F1.0
g1380
I0
tp1421
a(I0
I5133
F0.75
S'give'
p1422
I0
tp1423
a(I0
I5805
F0.75
g1406
I0
tp1424
as(S'very'
p1425
S'good'
p1426
S'mobile'
p1427
tp1428
(lp1429
(I0
I628
F1.0
S'good'
p1430
I0
tp1431
a(I0
I639
F1.0
S'good'
p1432
I0
tp1433
a(I0
I1686
F1.0
S'good'
p1434
I0
tp1435
a(I0
I1845
F1.0
S'good'
p1436
I0
tp1437
a(I0
I1997
F1.0
S'good'
p1438
I0
tp1439
a(I0
I2409
F1.0
S'good'
p1440
I0
tp1441
a(I0
I2861
F1.0
S'good'
p1442
I0
tp1443
a(I0
I2896
F-0.5
S'extra'
p1444
I0
tp1445
a(I0
I3212
F1.0
S'good'
p1446
I0
tp1447
a(I0
I3231
F1.0
S'good'
p1448
I0
tp1449
a(I0
I3907
I-100
S'phonebest'
p1450
I0
tp1451
a(I0
I3907
F-0.625
S'other'
p1452
I0
tp1453
a(I0
I3943
I0
S'notification'
p1454
I0
tp1455
a(I0
I4189
F1.0
S'good'
p1456
I0
tp1457
a(I0
I4632
F1.0
S'good'
p1458
I0
tp1459
a(I0
I5017
F1.0
S'good'
p1460
I0
tp1461
a(I0
I5502
F1.0
S'good'
p1462
I0
tp1463
a(I0
I5593
F0.625
S'fine'
p1464
I0
tp1465
a(I0
I5922
F1.0
S'good'
p1466
I0
tp1467
a(I0
I6384
F1.0
S'good'
p1468
I0
tp1469
a(I0
I6385
F1.0
S'good'
p1470
I0
tp1471
a(I0
I404
F1.0
S'good'
p1472
I1
tp1473
a(I0
I628
F1.0
g1430
I1
tp1474
a(I0
I639
F1.0
g1432
I1
tp1475
a(I0
I1502
I-100
S'marvelousbeen'
p1476
I1
tp1477
a(I0
I1686
F1.0
g1434
I1
tp1478
a(I0
I1845
F1.0
g1436
I1
tp1479
a(I0
I1850
F1.0
S'good'
p1480
I1
tp1481
a(I0
I1997
F1.0
g1438
I1
tp1482
a(I0
I2039
F1.0
S'good'
p1483
I1
tp1484
a(I0
I2053
F1.0
S'good'
p1485
I1
tp1486
a(I0
I2409
F1.0
g1440
I1
tp1487
a(I0
I2568
F-0.25
S'micro'
p1488
I1
tp1489
a(I0
I2568
I-100
S'sdbest'
p1490
I1
tp1491
a(I0
I2802
I-100
S'sensorbest'
p1492
I1
tp1493
a(I0
I2861
F1.0
g1442
I1
tp1494
a(I0
I2863
F1.0
S'good'
p1495
I1
tp1496
a(I0
I2896
F-0.5
g1444
I1
tp1497
a(I0
I2947
F1.0
S'good'
p1498
I1
tp1499
a(I0
I3212
F1.0
g1446
I1
tp1500
a(I0
I3231
F1.0
g1448
I1
tp1501
a(I0
I3552
F1.0
S'excellent'
p1502
I1
tp1503
a(I0
I3727
F1.0
S'good'
p1504
I1
tp1505
a(I0
I3907
F-0.625
g1452
I1
tp1506
a(I0
I3943
I0
g1454
I1
tp1507
a(I0
I3955
F0.375
S'ok'
p1508
I1
tp1509
a(I0
I4189
F1.0
g1456
I1
tp1510
a(I0
I4412
F1.0
S'good'
p1511
I1
tp1512
a(I0
I4455
F1.0
S'better'
p1513
I1
tp1514
a(I0
I4599
I0
S'strange'
p1515
I1
tp1516
a(I0
I4599
F-0.125
S'such'
p1517
I1
tp1518
a(I0
I4599
F1.0
S'good'
p1519
I1
tp1520
a(I0
I4632
F1.0
g1458
I1
tp1521
a(I0
I5017
F1.0
g1460
I1
tp1522
a(I0
I5325
F1.0
S'best'
p1523
I1
tp1524
a(I0
I5459
F1.0
S'good'
p1525
I1
tp1526
a(I0
I5502
F1.0
g1462
I1
tp1527
a(I0
I5593
F0.625
g1464
I1
tp1528
a(I0
I5737
F1.0
S'good'
p1529
I1
tp1530
a(I0
I5878
F1.0
S'good'
p1531
I1
tp1532
a(I0
I5922
F1.0
g1466
I1
tp1533
a(I0
I5970
F1.0
S'good'
p1534
I1
tp1535
a(I0
I6168
F1.0
S'good'
p1536
I1
tp1537
a(I0
I6270
F1.0
S'good'
p1538
I1
tp1539
a(I0
I6270
F-0.625
S'horrible'
p1540
I1
tp1541
a(I0
I6270
F0.125
S'mobile'
p1542
I1
tp1543
a(I0
I6270
F0.625
S'super'
p1544
I1
tp1545
a(I0
I6319
F1.0
S'good'
p1546
I1
tp1547
a(I0
I6338
F0.625
S'super'
p1548
I1
tp1549
a(I0
I6384
F1.0
g1468
I1
tp1550
a(I0
I6385
F1.0
g1470
I1
tp1551
a(I0
I6423
F1.0
S'good'
p1552
I1
tp1553
a(I0
I6423
F-0.25
S'i'
p1554
I1
tp1555
a(I0
I6423
I-100
S'hotdidnt'
p1556
I1
tp1557
a(I0
I6423
F0.25
S'basic'
p1558
I1
tp1559
a(I0
I6423
F-1.0
S'worst'
p1560
I1
tp1561
a(I0
I6474
I0
S'hot'
p1562
I1
tp1563
a(I0
I6618
F1.0
S'good'
p1564
I1
tp1565
as(S'waste'
p1566
S'of'
p1567
S'money'
p1568
tp1569
(lp1570
(I0
I517
F0.125
S'mobile'
p1571
I5
tp1572
a(I0
I6438
F0.125
S'mobile'
p1573
I5
tp1574
as(S'32'
p1575
S'gb'
p1576
S'variant'
p1577
tp1578
(lp1579
(I0
I608
F0.375
S'available'
p1580
I0
tp1581
a(I0
I3191
F1.0
S'good'
p1582
I0
tp1583
a(I0
I3713
I0
g117
I0
tp1584
a(I0
I3713
F0.375
S'available'
p1585
I0
tp1586
a(I0
I6562
F-0.5
g79
I0
tp1587
a(I0
I6810
F-1.0
g122
I0
tp1588
a(I0
I7035
F-0.5
g124
I0
tp1589
a(I0
I7182
F0.875
S'note'
p1590
I0
tp1591
a(I0
I566
F0.25
S'able'
p1592
I0
tp1593
a(I0
I608
F0.375
g1580
I0
tp1594
a(I0
I3191
F1.0
g1582
I0
tp1595
a(I0
I3713
I0
g117
I0
tp1596
a(I0
I3713
F0.375
g1585
I0
tp1597
a(I0
I4971
I0
S'u'
p1598
I0
tp1599
a(I0
I5760
F0.375
S'available'
p1600
I0
tp1601
a(I0
I6562
F-0.5
g79
I0
tp1602
a(I0
I6810
F-1.0
g122
I0
tp1603
a(I0
I7035
F-0.5
g124
I0
tp1604
a(I0
I7182
F0.875
g1590
I0
tp1605
a(I0
I166
F0.875
S'golden'
p1606
I0
tp1607
a(I0
I566
F0.25
g1592
I0
tp1608
a(I0
I608
F0.375
g1580
I0
tp1609
a(I0
I2575
F1.0
S'good'
p1610
I0
tp1611
a(I0
I3191
F1.0
g1582
I0
tp1612
a(I0
I3713
F0.375
g1585
I0
tp1613
a(I0
I3733
I-100
S'ment'
p1614
I0
tp1615
a(I0
I4971
I0
g1598
I0
tp1616
a(I0
I5760
F0.375
g1600
I0
tp1617
a(I0
I7182
F0.875
g1590
I0
tp1618
as(S'only'
p1619
S'one'
p1620
S'sim'
p1621
tp1622
(lp1623
(I0
I482
I0
g131
I0
tp1624
a(I0
I1565
F0.5
g311
I0
tp1625
a(I0
I2179
F0.5
g165
I0
tp1626
a(I0
I2408
F0.5
g635
I0
tp1627
a(I0
I2568
F0.5
g641
I0
tp1628
a(I0
I4610
F0.5
g185
I0
tp1629
a(I0
I4610
F0.5
g187
I0
tp1630
a(I0
I4610
F-0.375
g189
I0
tp1631
a(I0
I5572
F0.5
g284
I0
tp1632
a(I0
I6141
I0
g677
I0
tp1633
a(I0
I6521
F-0.75
g681
I0
tp1634
a(I0
I6657
F0.5
g683
I0
tp1635
a(I0
I7092
I0
g753
I0
tp1636
as(S'love'
p1637
tp1638
(lp1639
(I0
I1734
I-100
S'offi'
p1640
I6
tp1641
a(I0
I2448
I0
S'launch'
p1642
I6
tp1643
a(I0
I6924
I-100
S'selfiei'
p1644
I6
tp1645
as(S'double'
p1646
S'tap'
p1647
tp1648
(lp1649
(I0
I6590
F-0.625
S'double'
p1650
I0
tp1651
a(I0
I7148
F-0.625
S'double'
p1652
I0
tp1653
as(S'performance'
p1654
tp1655
(lp1656
(I0
I22
F0.875
S'great'
p1657
I13
tp1658
a(I0
I93
I0
S'gaming'
p1659
I13
tp1660
a(I0
I125
I-100
S'lookoutstanding'
p1661
I13
tp1662
a(I0
I205
F1.0
S'good'
p1663
I13
tp1664
a(I0
I205
F0.875
S'nice'
p1665
I13
tp1666
a(I0
I233
F0.5
S'high'
p1667
I13
tp1668
a(I0
I320
F0.625
S'smooth'
p1669
I13
tp1670
a(I0
I344
F0.25
S'able'
p1671
I13
tp1672
a(I0
I520
F0.875
S'awesome'
p1673
I13
tp1674
a(I0
I522
F0.875
S'awesome'
p1675
I13
tp1676
a(I0
I527
F1.0
S'good'
p1677
I13
tp1678
a(I0
I527
F1.0
S'good'
p1679
I13
tp1680
a(I0
I535
F0.5
S'high'
p1681
I13
tp1682
a(I0
I565
F0.875
S'awesome'
p1683
I13
tp1684
a(I0
I629
F-0.125
S'overall'
p1685
I13
tp1686
a(I0
I681
F1.0
S'good'
p1687
I13
tp1688
a(I0
I901
I0
S's'
p1689
I13
tp1690
a(I0
I901
F-1.0
S'bad'
p1691
I13
tp1692
a(I0
I917
F-0.875
S'low'
p1693
I13
tp1694
a(I0
I917
I0
S'light'
p1695
I13
tp1696
a(I0
I1015
F1.0
S'better'
p1697
I13
tp1698
a(I0
I1083
F-0.625
S'last'
p1699
I13
tp1700
a(I0
I1085
F1.0
S'good'
p1701
I13
tp1702
a(I0
I1114
F1.0
S'good'
p1703
I13
tp1704
a(I0
I1132
I-100
S'okkk'
p1705
I13
tp1706
a(I0
I1134
F1.0
S'excellent'
p1707
I13
tp1708
a(I0
I1213
F0.875
S'great'
p1709
I13
tp1710
a(I0
I1221
F1.0
S'good'
p1711
I13
tp1712
a(I0
I1421
F1.0
S'good'
p1713
I13
tp1714
a(I0
I1432
F0.875
S'great'
p1715
I13
tp1716
a(I0
I1437
F0.875
S'nice'
p1717
I13
tp1718
a(I0
I1582
F-0.625
S'average'
p1719
I13
tp1720
a(I0
I1582
F-1.0
S'bad'
p1721
I13
tp1722
a(I0
I1657
F-0.125
S'overall'
p1723
I13
tp1724
a(I0
I1657
F1.0
S'good'
p1725
I13
tp1726
a(I0
I1662
F1.0
S'excellent'
p1727
I13
tp1728
a(I0
I1677
F0.875
S'amazing'
p1729
I13
tp1730
a(I0
I1737
F0.875
S'amazing'
p1731
I13
tp1732
a(I0
I1823
I0
S'n'
p1733
I13
tp1734
a(I0
I1856
F0.875
S'awesome'
p1735
I13
tp1736
a(I0
I1900
F0.875
S'great'
p1737
I13
tp1738
a(I0
I1972
F0.375
S'ok'
p1739
I13
tp1740
a(I0
I2386
F1.0
S'good'
p1741
I13
tp1742
a(I0
I2590
F1.0
S'good'
p1743
I13
tp1744
a(I0
I2652
F0.875
S'great'
p1745
I13
tp1746
a(I0
I2860
F1.0
S'good'
p1747
I13
tp1748
a(I0
I2860
F1.0
S'good'
p1749
I13
tp1750
a(I0
I2900
F0.625
S'smooth'
p1751
I13
tp1752
a(I0
I3067
F-0.875
S'poor'
p1753
I13
tp1754
a(I0
I3091
F0.875
S'decent'
p1755
I13
tp1756
a(I0
I3093
I-100
S'vadiant'
p1757
I13
tp1758
a(I0
I3093
F1.0
S'good'
p1759
I13
tp1760
a(I0
I3102
I-100
S'muchnice'
p1761
I13
tp1762
a(I0
I3105
I-100
S'goodsuper'
p1763
I13
tp1764
a(I0
I3206
F0.75
S'outstanding'
p1765
I13
tp1766
a(I0
I3349
F-0.75
S'free'
p1767
I13
tp1768
a(I0
I3350
I-100
S'subpar'
p1769
I13
tp1770
a(I0
I3435
F0.75
S'sound'
p1771
I13
tp1772
a(I0
I3593
F1.0
S'good'
p1773
I13
tp1774
a(I0
I3739
F1.0
S'good'
p1775
I13
tp1776
a(I0
I3750
F-0.125
S'overall'
p1777
I13
tp1778
a(I0
I3864
F-1.0
S'bad'
p1779
I13
tp1780
a(I0
I4100
F1.0
S'good'
p1781
I13
tp1782
a(I0
I4452
F0.625
S'smooth'
p1783
I13
tp1784
a(I0
I4452
I0
S'lag'
p1785
I13
tp1786
a(I0
I4452
F-0.75
S'free'
p1787
I13
tp1788
a(I0
I4480
F1.0
S'best'
p1789
I13
tp1790
a(I0
I4503
I-100
S'iska'
p1791
I13
tp1792
a(I0
I4503
I-100
S'utna'
p1793
I13
tp1794
a(I0
I4671
F-0.125
S'overall'
p1795
I13
tp1796
a(I0
I4671
F-0.875
S'poor'
p1797
I13
tp1798
a(I0
I4702
F0.375
S'impressive'
p1799
I13
tp1800
a(I0
I4736
F1.0
S'excellent'
p1801
I13
tp1802
a(I0
I4863
F0.875
S'superb'
p1803
I13
tp1804
a(I0
I5084
F0.875
S'nice'
p1805
I13
tp1806
a(I0
I5348
F1.0
S'good'
p1807
I13
tp1808
a(I0
I5528
I0
S'u'
p1809
I13
tp1810
a(I0
I5559
F1.0
S'good'
p1811
I13
tp1812
a(I0
I5559
I0
S'light'
p1813
I13
tp1814
a(I0
I5559
F-0.625
S'average'
p1815
I13
tp1816
a(I0
I5638
F-0.125
S'overall'
p1817
I13
tp1818
a(I0
I5638
F1.0
S'good'
p1819
I13
tp1820
a(I0
I5700
I-100
S'worstcamara'
p1821
I13
tp1822
a(I0
I5749
F-0.125
S'overall'
p1823
I13
tp1824
a(I0
I5812
F0.875
S'superb'
p1825
I13
tp1826
a(I0
I6071
F0.875
S'nice'
p1827
I13
tp1828
a(I0
I6092
F1.0
S'good'
p1829
I13
tp1830
a(I0
I6246
F1.0
S'good'
p1831
I13
tp1832
a(I0
I6287
F0.875
S'awesome'
p1833
I13
tp1834
a(I0
I6445
F1.0
S'good'
p1835
I13
tp1836
a(I0
I6571
F0.25
S'fluid'
p1837
I13
tp1838
a(I0
I6571
I0
S'lag'
p1839
I13
tp1840
a(I0
I6571
F-0.75
S'free'
p1841
I13
tp1842
a(I0
I6599
F0.625
S'smooth'
p1843
I13
tp1844
a(I0
I6781
F0.875
S'great'
p1845
I13
tp1846
a(I0
I6815
F0.375
S'much'
p1847
I13
tp1848
a(I0
I6867
F0.875
S'awesome'
p1849
I13
tp1850
a(I0
I7114
F1.0
S'good'
p1851
I13
tp1852
a(I0
I7189
F1.0
S'best'
p1853
I13
tp1854
as(S'worth'
p1855
tp1856
(lp1857
(I0
I2401
I-100
S'poornot'
p1858
I8
tp1859
a(I0
I5152
I0
S's'
p1860
I8
tp1861
a(I0
I6563
F0.375
S'full'
p1862
I8
tp1863
as(S'no'
p1864
S'heating'
p1865
S'issue'
p1866
tp1867
(lp1868
(I0
I969
F0.375
S'heating'
p1869
I0
tp1870
a(I0
I2179
I0
S'hybrid'
p1871
I0
tp1872
a(I0
I2935
F0.375
S'heating'
p1873
I0
tp1874
a(I0
I3986
F0.375
S'heating'
p1875
I0
tp1876
a(I0
I4304
F0.375
S'much'
p1877
I0
tp1878
a(I0
I4502
I0
S'more'
p1879
I0
tp1880
a(I0
I4502
F0.625
S'major'
p1881
I0
tp1882
a(I0
I4524
F0.375
S'heating'
p1883
I0
tp1884
a(I0
I4632
F0.375
S'heating'
p1885
I0
tp1886
a(I0
I4828
F-0.5
S'heavy'
p1887
I0
tp1888
a(I0
I4828
F0.375
S'heating'
p1889
I0
tp1890
a(I0
I4888
F-0.5
S'excessive'
p1891
I0
tp1892
a(I0
I5499
F0.375
S'heating'
p1893
I0
tp1894
a(I0
I5629
F0.625
S'major'
p1895
I0
tp1896
a(I0
I5733
F0.5
S'prominent'
p1897
I0
tp1898
a(I0
I6006
F0.375
S'heating'
p1899
I0
tp1900
a(I0
I6801
F0.5
S'slight'
p1901
I0
tp1902
a(I0
I6958
F1.0
S'excellent'
p1903
I0
tp1904
a(I0
I969
F0.375
g1869
I2
tp1905
a(I0
I1240
I0
S'only'
p1906
I2
tp1907
a(I0
I1310
I0
S'initial'
p1908
I2
tp1909
a(I0
I1414
F0.375
S'heating'
p1910
I2
tp1911
a(I0
I1590
F0.625
S'major'
p1912
I2
tp1913
a(I0
I1816
F0.375
S'heating'
p1914
I2
tp1915
a(I0
I1826
I-100
S'issuesnice'
p1916
I2
tp1917
a(I0
I1940
F0.875
S'important'
p1918
I2
tp1919
a(I0
I2042
F0.375
S'heating'
p1920
I2
tp1921
a(I0
I2167
F-0.5
S'heavy'
p1922
I2
tp1923
a(I0
I2179
I0
g1871
I2
tp1924
a(I0
I2342
F-0.625
S'moderate'
p1925
I2
tp1926
a(I0
I2628
F0.125
S'mobile'
p1927
I2
tp1928
a(I0
I2769
F0.375
S'much'
p1929
I2
tp1930
a(I0
I2769
F1.0
S'good'
p1931
I2
tp1932
a(I0
I2935
F0.375
g1873
I2
tp1933
a(I0
I3549
I0
S'main'
p1934
I2
tp1935
a(I0
I3560
F0.375
S'heating'
p1936
I2
tp1937
a(I0
I3986
F0.375
g1875
I2
tp1938
a(I0
I4079
F-0.875
S'terrible'
p1939
I2
tp1940
a(I0
I4228
I-100
S'iys'
p1941
I2
tp1942
a(I0
I4228
F1.0
S'good'
p1943
I2
tp1944
a(I0
I4267
F0.625
S'major'
p1945
I2
tp1946
a(I0
I4304
F0.375
g1877
I2
tp1947
a(I0
I4502
I0
g1879
I2
tp1948
a(I0
I4502
F0.625
g1881
I2
tp1949
a(I0
I4524
F0.375
g1883
I2
tp1950
a(I0
I4632
F0.375
g1885
I2
tp1951
a(I0
I4828
F-0.5
g1887
I2
tp1952
a(I0
I4828
F0.375
g1889
I2
tp1953
a(I0
I4888
F-0.5
g1891
I2
tp1954
a(I0
I5476
F0.75
S'dear'
p1955
I2
tp1956
a(I0
I5499
F0.375
g1893
I2
tp1957
a(I0
I5629
F0.625
g1895
I2
tp1958
a(I0
I5733
F0.5
g1897
I2
tp1959
a(I0
I5746
F0.375
S'heating'
p1960
I2
tp1961
a(I0
I6006
F0.375
g1899
I2
tp1962
a(I0
I6417
I-100
S'itmble'
p1963
I2
tp1964
a(I0
I6417
I-100
S'iz'
p1965
I2
tp1966
a(I0
I6801
F0.5
g1901
I2
tp1967
a(I0
I6958
F1.0
g1903
I2
tp1968
a(I0
I7127
F0.375
S'heating'
p1969
I2
tp1970
as(S'10'
p1971
S'days'
p1972
tp1973
(lp1974
(I0
I515
F-0.5
S'failed'
p1975
I1
tp1976
a(I0
I2384
I0
S'ten'
p1977
I1
tp1978
a(I0
I2896
I0
g1260
I1
tp1979
a(I0
I2896
F-0.125
g1262
I1
tp1980
a(I0
I3579
F-0.25
S'past'
p1981
I1
tp1982
a(I0
I3851
F0.375
S'working'
p1983
I1
tp1984
a(I0
I4141
F-0.625
S'last'
p1985
I1
tp1986
a(I0
I4175
F0.5
S'internal'
p1987
I1
tp1988
a(I0
I5022
F-0.625
S'last'
p1989
I1
tp1990
a(I0
I5300
F0.375
S'usage'
p1991
I1
tp1992
a(I0
I6315
F1.0
g1280
I1
tp1993
a(I0
I6315
F0.875
g1282
I1
tp1994
a(I0
I6315
F-0.625
g1284
I1
tp1995
as(S'in'
p1996
S'low'
p1997
S'light'
p1998
tp1999
(lp2000
(I0
I67
F-0.875
S'low'
p2001
I2
tp2002
a(I0
I88
F0.375
S'impressive'
p2003
I2
tp2004
a(I0
I88
F-0.875
S'low'
p2005
I2
tp2006
a(I0
I777
F-0.875
S'low'
p2007
I2
tp2008
a(I0
I1087
F-0.875
S'low'
p2009
I2
tp2010
a(I0
I1409
F-0.875
S'low'
p2011
I2
tp2012
a(I0
I1559
F1.0
S'good'
p2013
I2
tp2014
a(I0
I1559
F-0.875
S'low'
p2015
I2
tp2016
a(I0
I1568
F-0.875
S'low'
p2017
I2
tp2018
a(I0
I1665
F-0.875
S'low'
p2019
I2
tp2020
a(I0
I1665
F1.0
S'good'
p2021
I2
tp2022
a(I0
I1665
F-0.125
S'con'
p2023
I2
tp2024
a(I0
I2624
F-0.875
S'low'
p2025
I2
tp2026
a(I0
I2810
F-0.875
S'low'
p2027
I2
tp2028
a(I0
I3067
F-0.875
S'low'
p2029
I2
tp2030
a(I0
I3100
I0
S'light'
p2031
I2
tp2032
a(I0
I3374
F0.125
S'outdoor'
p2033
I2
tp2034
a(I0
I3374
F-0.375
S'passable'
p2035
I2
tp2036
a(I0
I3811
F-0.875
S'low'
p2037
I2
tp2038
a(I0
I4124
F-0.625
S'moderate'
p2039
I2
tp2040
a(I0
I4124
F-0.875
S'low'
p2041
I2
tp2042
a(I0
I4857
F-0.875
S'low'
p2043
I2
tp2044
a(I0
I5047
F-0.875
S'low'
p2045
I2
tp2046
a(I0
I5401
F-0.875
S'low'
p2047
I2
tp2048
a(I0
I5461
F-0.875
S'low'
p2049
I2
tp2050
a(I0
I6146
F-0.875
S'low'
p2051
I2
tp2052
a(I0
I6146
I0
S'noisy'
p2053
I2
tp2054
a(I0
I6146
F1.0
S'good'
p2055
I2
tp2056
a(I0
I6430
F-1.0
S'bad'
p2057
I2
tp2058
a(I0
I6430
F-0.875
S'low'
p2059
I2
tp2060
a(I0
I67
F-0.875
g2001
I2
tp2061
a(I0
I88
F0.375
g2003
I2
tp2062
a(I0
I88
F-0.875
g2005
I2
tp2063
a(I0
I777
F-0.875
g2007
I2
tp2064
a(I0
I1087
F-0.875
g2009
I2
tp2065
a(I0
I1409
F-0.875
g2011
I2
tp2066
a(I0
I1410
F-0.875
S'low'
p2067
I2
tp2068
a(I0
I1559
F1.0
g2013
I2
tp2069
a(I0
I1559
F-0.875
g2015
I2
tp2070
a(I0
I1568
F-0.875
g2017
I2
tp2071
a(I0
I1665
F-0.875
g2019
I2
tp2072
a(I0
I1665
F1.0
g2021
I2
tp2073
a(I0
I1665
F-0.125
g2023
I2
tp2074
a(I0
I2624
F-0.875
g2025
I2
tp2075
a(I0
I2810
F-0.875
g2027
I2
tp2076
a(I0
I3067
F-0.875
g2029
I2
tp2077
a(I0
I3100
I0
g2031
I2
tp2078
a(I0
I3374
F0.125
g2033
I2
tp2079
a(I0
I3374
F-0.375
g2035
I2
tp2080
a(I0
I3779
F-0.875
S'low'
p2081
I2
tp2082
a(I0
I3811
F-0.875
g2037
I2
tp2083
a(I0
I4124
F-0.625
g2039
I2
tp2084
a(I0
I4124
F-0.875
g2041
I2
tp2085
a(I0
I4196
F1.0
S'good'
p2086
I2
tp2087
a(I0
I4196
F-0.875
S'low'
p2088
I2
tp2089
a(I0
I4856
F-0.875
S'low'
p2090
I2
tp2091
a(I0
I4857
F-0.875
g2043
I2
tp2092
a(I0
I5044
F-0.875
S'low'
p2093
I2
tp2094
a(I0
I5047
F-0.875
g2045
I2
tp2095
a(I0
I5373
F-0.875
S'low'
p2096
I2
tp2097
a(I0
I5401
F-0.875
g2047
I2
tp2098
a(I0
I5411
F-0.875
S'low'
p2099
I2
tp2100
a(I0
I5461
F-0.875
g2049
I2
tp2101
a(I0
I6146
F-0.875
g2051
I2
tp2102
a(I0
I6146
I0
g2053
I2
tp2103
a(I0
I6146
F1.0
g2055
I2
tp2104
a(I0
I6430
F-1.0
g2057
I2
tp2105
a(I0
I6430
F-0.875
g2059
I2
tp2106
a(I0
I6984
F-0.875
S'low'
p2107
I2
tp2108
a(I0
I7135
F-0.875
S'low'
p2109
I2
tp2110
a(I0
I67
F-0.875
g2001
I14
tp2111
a(I0
I88
F0.375
g2003
I14
tp2112
a(I0
I88
F-0.875
g2005
I14
tp2113
a(I0
I703
F0.875
S'nice'
p2114
I14
tp2115
a(I0
I777
F-0.875
g2007
I14
tp2116
a(I0
I994
F-1.0
S'bad'
p2117
I14
tp2118
a(I0
I1087
F-0.875
g2009
I14
tp2119
a(I0
I1409
F-0.875
g2011
I14
tp2120
a(I0
I1410
F-0.875
g2067
I14
tp2121
a(I0
I1559
F1.0
g2013
I14
tp2122
a(I0
I1559
F-0.875
g2015
I14
tp2123
a(I0
I1568
F-0.875
g2017
I14
tp2124
a(I0
I1665
F-0.875
g2019
I14
tp2125
a(I0
I1665
F1.0
g2021
I14
tp2126
a(I0
I1665
F-0.125
g2023
I14
tp2127
a(I0
I2408
F1.0
S'good'
p2128
I14
tp2129
a(I0
I2624
F-0.875
g2025
I14
tp2130
a(I0
I2810
F-0.875
g2027
I14
tp2131
a(I0
I3067
F-0.875
g2029
I14
tp2132
a(I0
I3374
F0.125
g2033
I14
tp2133
a(I0
I3374
F-0.375
g2035
I14
tp2134
a(I0
I3779
F-0.875
g2081
I14
tp2135
a(I0
I3811
F-0.875
g2037
I14
tp2136
a(I0
I3943
I0
S'active'
p2137
I14
tp2138
a(I0
I4124
F-0.625
g2039
I14
tp2139
a(I0
I4124
F-0.875
g2041
I14
tp2140
a(I0
I4196
F1.0
g2086
I14
tp2141
a(I0
I4196
F-0.875
g2088
I14
tp2142
a(I0
I4856
F-0.875
g2090
I14
tp2143
a(I0
I4857
F-0.875
g2043
I14
tp2144
a(I0
I5044
F-0.875
g2093
I14
tp2145
a(I0
I5047
F-0.875
g2045
I14
tp2146
a(I0
I5373
F-0.875
g2096
I14
tp2147
a(I0
I5401
F-0.875
g2047
I14
tp2148
a(I0
I5411
F-0.875
g2099
I14
tp2149
a(I0
I5461
F-0.875
g2049
I14
tp2150
a(I0
I6146
F-0.875
g2051
I14
tp2151
a(I0
I6146
I0
g2053
I14
tp2152
a(I0
I6146
F1.0
g2055
I14
tp2153
a(I0
I6430
F-1.0
g2057
I14
tp2154
a(I0
I6430
F-0.875
g2059
I14
tp2155
a(I0
I6984
F-0.875
g2107
I14
tp2156
a(I0
I7135
F-0.875
g2109
I14
tp2157
as(S'overall'
p2158
tp2159
(lp2160
(I0
I573
F1.0
S'good'
p2161
I9
tp2162
as(S'one'
p2163
S'sim'
p2164
S'and'
p2165
tp2166
(lp2167
(I0
I362
F-0.625
g695
I0
tp2168
a(I0
I482
I0
g131
I0
tp2169
a(I0
I690
I0
g625
I0
tp2170
a(I0
I769
F0.5
g627
I0
tp2171
a(I0
I966
F0.5
g141
I0
tp2172
a(I0
I1125
F0.5
g704
I0
tp2173
a(I0
I1231
I0
g145
I0
tp2174
a(I0
I1284
F0.5
g155
I0
tp2175
a(I0
I1565
F0.5
g311
I0
tp2176
a(I0
I2179
F0.5
g165
I0
tp2177
a(I0
I2408
F0.5
g635
I0
tp2178
a(I0
I2409
F0.5
g637
I0
tp2179
a(I0
I3275
F0.5
g169
I0
tp2180
a(I0
I3514
F0.5
g171
I0
tp2181
a(I0
I3514
F0.5
g173
I0
tp2182
a(I0
I3823
F-0.75
g177
I0
tp2183
a(I0
I3823
F0.5
g179
I0
tp2184
a(I0
I4610
F0.5
g185
I0
tp2185
a(I0
I4610
F0.5
g187
I0
tp2186
a(I0
I4610
F-0.375
g189
I0
tp2187
a(I0
I5263
F1.0
g664
I0
tp2188
a(I0
I5263
F0.5
g666
I0
tp2189
a(I0
I5263
F-0.75
g668
I0
tp2190
a(I0
I5263
F-0.25
g670
I0
tp2191
a(I0
I6175
F0.5
g679
I0
tp2192
a(I0
I6521
F-0.75
g681
I0
tp2193
a(I0
I6792
F0.5
g213
I0
tp2194
a(I0
I6792
F0.5
g215
I0
tp2195
a(I0
I6937
I0
g749
I0
tp2196
a(I0
I6973
F0.5
g687
I0
tp2197
a(I0
I7092
I0
g753
I0
tp2198
as(S'need'
p2199
tp2200
(lp2201
(I0
I2731
I0
S'u'
p2202
I9
tp2203
a(I0
I2968
F0.375
S'much'
p2204
I9
tp2205
a(I0
I3813
I0
S't'
p2206
I9
tp2207
a(I0
I4944
I0
S'u'
p2208
I9
tp2209
a(I0
I5065
F0.625
S'first'
p2210
I9
tp2211
a(I0
I6202
F1.0
S'excellent'
p2212
I9
tp2213
a(I0
I7187
I0
S'u'
p2214
I9
tp2215
as(S'finger'
p2216
S'print'
p2217
S'scanner'
p2218
tp2219
(lp2220
(I0
I103
F0.875
S'nice'
p2221
I0
tp2222
a(I0
I103
F0.875
S'awesome'
p2223
I0
tp2224
a(I0
I327
I0
S'handy'
p2225
I0
tp2226
a(I0
I327
F1.0
S'better'
p2227
I0
tp2228
a(I0
I458
F0.875
S'awesome'
p2229
I0
tp2230
a(I0
I637
I0
S'bright'
p2231
I0
tp2232
a(I0
I1062
F0.875
S'awesome'
p2233
I0
tp2234
a(I0
I1161
F0.625
S'fine'
p2235
I0
tp2236
a(I0
I1453
F-0.625
S'faster'
p2237
I0
tp2238
a(I0
I2275
I0
S'quick'
p2239
I0
tp2240
a(I0
I2525
I0
S'lags'
p2241
I0
tp2242
a(I0
I3091
F0.625
S'fine'
p2243
I0
tp2244
a(I0
I3596
F0.875
S'awesome'
p2245
I0
tp2246
a(I0
I4146
F-0.625
S'sensitive'
p2247
I0
tp2248
a(I0
I5025
F-0.625
S'sensitive'
p2249
I0
tp2250
a(I0
I5114
F-0.625
S'fast'
p2251
I0
tp2252
a(I0
I5143
F-0.625
S'new'
p2253
I0
tp2254
a(I0
I5143
I0
S'update'
p2255
I0
tp2256
a(I0
I5346
F-0.625
S'fast'
p2257
I0
tp2258
a(I0
I6050
I0
S'n'
p2259
I0
tp2260
a(I0
I6053
F-0.625
S'fingerprint'
p2261
I0
tp2262
a(I0
I6053
I0
S'update'
p2263
I0
tp2264
a(I0
I6053
F0.625
S'first'
p2265
I0
tp2266
a(I0
I103
F0.875
g2221
I0
tp2267
a(I0
I103
F0.875
g2223
I0
tp2268
a(I0
I327
F1.0
g2227
I0
tp2269
a(I0
I392
I-100
S'oneplus'
p2270
I0
tp2271
a(I0
I458
F0.875
g2229
I0
tp2272
a(I0
I637
I0
g2231
I0
tp2273
a(I0
I1062
F0.875
g2233
I0
tp2274
a(I0
I1161
F0.625
g2235
I0
tp2275
a(I0
I1453
F-0.625
g2237
I0
tp2276
a(I0
I1958
I-100
S'perfect4'
p2277
I0
tp2278
a(I0
I2275
I0
g2239
I0
tp2279
a(I0
I2525
I0
g2241
I0
tp2280
a(I0
I3065
I-100
S'itfinger'
p2281
I0
tp2282
a(I0
I3091
F0.625
g2243
I0
tp2283
a(I0
I3596
F0.875
g2245
I0
tp2284
a(I0
I4146
F-0.625
g2247
I0
tp2285
a(I0
I5025
I-100
S'awesomefinger'
p2286
I0
tp2287
a(I0
I5025
F-0.625
g2249
I0
tp2288
a(I0
I5114
F-0.625
g2251
I0
tp2289
a(I0
I5143
F-0.625
g2253
I0
tp2290
a(I0
I5143
I0
g2255
I0
tp2291
a(I0
I6050
I0
g2259
I0
tp2292
a(I0
I6053
F-0.625
g2261
I0
tp2293
a(I0
I6053
I0
g2263
I0
tp2294
a(I0
I6053
F0.625
g2265
I0
tp2295
as(S'use'
p2296
S'dual'
p2297
S'sim'
p2298
tp2299
(lp2300
(I0
I482
F0.5
S'dual'
p2301
I0
tp2302
a(I0
I482
I0
g131
I0
tp2303
a(I0
I482
I0
S'u'
p2304
I0
tp2305
a(I0
I482
I0
S'u'
p2306
I0
tp2307
a(I0
I482
F0.5
S'dual'
p2308
I0
tp2309
a(I0
I785
F0.5
g629
I0
tp2310
a(I0
I1008
F0.5
g236
I0
tp2311
a(I0
I1008
I0
g238
I0
tp2312
a(I0
I1337
I0
g157
I0
tp2313
a(I0
I1337
F0.5
g159
I0
tp2314
a(I0
I1983
F0.5
S'dual'
p2315
I0
tp2316
a(I0
I2408
F0.5
g635
I0
tp2317
a(I0
I2409
F0.5
g637
I0
tp2318
a(I0
I2568
F0.5
g641
I0
tp2319
a(I0
I2858
F0.5
S'dual'
p2320
I0
tp2321
a(I0
I2858
F-0.75
S'single'
p2322
I0
tp2323
a(I0
I3275
F0.5
g169
I0
tp2324
a(I0
I3514
F0.5
g171
I0
tp2325
a(I0
I3514
F0.5
g173
I0
tp2326
a(I0
I3823
F-0.75
g177
I0
tp2327
a(I0
I3823
F0.5
g179
I0
tp2328
a(I0
I3992
I0
S'u'
p2329
I0
tp2330
a(I0
I3992
F0.5
S'dual'
p2331
I0
tp2332
a(I0
I4113
F0.5
g649
I0
tp2333
a(I0
I4422
F0.5
S'dual'
p2334
I0
tp2335
a(I0
I4598
I0
S's'
p2336
I0
tp2337
a(I0
I4977
F0.5
S'dual'
p2338
I0
tp2339
a(I0
I5068
F0.5
g662
I0
tp2340
a(I0
I5653
F0.5
S'dual'
p2341
I0
tp2342
a(I0
I5741
F0.5
S'dual'
p2343
I0
tp2344
a(I0
I6102
I0
S'comfortable'
p2345
I0
tp2346
a(I0
I6374
F0.5
S'dual'
p2347
I0
tp2348
a(I0
I6471
F0.5
g209
I0
tp2349
a(I0
I6831
F0.5
S'dual'
p2350
I0
tp2351
a(I0
I6831
F0.375
S'available'
p2352
I0
tp2353
a(I0
I6973
F0.5
g687
I0
tp2354
a(I0
I482
I0
g131
I1
tp2355
a(I0
I590
F0.5
S'dual'
p2356
I1
tp2357
a(I0
I785
F0.5
g629
I1
tp2358
a(I0
I803
F0.5
S'dual'
p2359
I1
tp2360
a(I0
I809
F0.5
g135
I1
tp2361
a(I0
I1008
F0.5
g236
I1
tp2362
a(I0
I1008
I0
g238
I1
tp2363
a(I0
I1125
F0.5
g704
I1
tp2364
a(I0
I1128
F0.5
S'dual'
p2365
I1
tp2366
a(I0
I1156
F0.5
g706
I1
tp2367
a(I0
I1284
F0.5
g155
I1
tp2368
a(I0
I1337
I0
g157
I1
tp2369
a(I0
I1337
F0.5
g159
I1
tp2370
a(I0
I1565
F0.5
g311
I1
tp2371
a(I0
I1982
F0.5
S'dual'
p2372
I1
tp2373
a(I0
I1983
F0.5
g2315
I1
tp2374
a(I0
I2218
F0.5
g248
I1
tp2375
a(I0
I2408
F0.5
g635
I1
tp2376
a(I0
I2409
F0.5
g637
I1
tp2377
a(I0
I2568
F0.5
g641
I1
tp2378
a(I0
I2857
F0.5
S'dual'
p2379
I1
tp2380
a(I0
I2858
F0.5
g2320
I1
tp2381
a(I0
I2858
F-0.75
g2322
I1
tp2382
a(I0
I3275
F0.5
g169
I1
tp2383
a(I0
I3514
F0.5
g171
I1
tp2384
a(I0
I3514
F0.5
g173
I1
tp2385
a(I0
I3543
F0.5
S'dual'
p2386
I1
tp2387
a(I0
I3679
F0.5
g340
I1
tp2388
a(I0
I3679
I0
g342
I1
tp2389
a(I0
I3823
F-0.75
g177
I1
tp2390
a(I0
I3823
F0.5
g179
I1
tp2391
a(I0
I4113
F0.5
g649
I1
tp2392
a(I0
I4203
F0.5
g181
I1
tp2393
a(I0
I4356
F0.5
S'dual'
p2394
I1
tp2395
a(I0
I4422
F0.5
g2334
I1
tp2396
a(I0
I4497
F0.5
S'dual'
p2397
I1
tp2398
a(I0
I4501
F0.5
g653
I1
tp2399
a(I0
I4598
I0
g2336
I1
tp2400
a(I0
I4610
F0.5
g185
I1
tp2401
a(I0
I4610
F0.5
g187
I1
tp2402
a(I0
I4610
F-0.375
g189
I1
tp2403
a(I0
I4791
F0.5
g728
I1
tp2404
a(I0
I4792
F-0.75
S'single'
p2405
I1
tp2406
a(I0
I4977
F0.5
g2338
I1
tp2407
a(I0
I5068
F0.5
g662
I1
tp2408
a(I0
I5225
F0.5
S'dual'
p2409
I1
tp2410
a(I0
I5653
F0.5
g2341
I1
tp2411
a(I0
I5718
F0.5
g738
I1
tp2412
a(I0
I5741
F0.5
g2343
I1
tp2413
a(I0
I5768
F0.5
S'dual'
p2414
I1
tp2415
a(I0
I5849
F0.5
g199
I1
tp2416
a(I0
I6175
F0.5
g679
I1
tp2417
a(I0
I6374
F0.5
g2347
I1
tp2418
a(I0
I6399
F-0.75
S'single'
p2419
I1
tp2420
a(I0
I6471
F0.5
g209
I1
tp2421
a(I0
I6657
F0.5
g683
I1
tp2422
a(I0
I6752
F0.5
g745
I1
tp2423
a(I0
I6792
F0.5
g213
I1
tp2424
a(I0
I6792
F0.5
g215
I1
tp2425
a(I0
I6831
F0.5
g2350
I1
tp2426
a(I0
I6973
F0.5
g687
I1
tp2427
a(I0
I7056
F0.5
S'dual'
p2428
I1
tp2429
a(I0
I4598
I0
g2336
I1
tp2430
as(S'fingerprint'
p2431
S'scanner'
p2432
tp2433
(lp2434
(I0
I579
F0.5
S'accurate'
p2435
I0
tp2436
a(I0
I637
I0
g2231
I0
tp2437
a(I0
I1062
F0.875
g2233
I0
tp2438
a(I0
I1161
F0.625
g2235
I0
tp2439
a(I0
I1453
F-0.625
g2237
I0
tp2440
a(I0
I2275
I0
g2239
I0
tp2441
a(I0
I2525
I0
g2241
I0
tp2442
a(I0
I3091
I0
S'inside'
p2443
I0
tp2444
a(I0
I3091
F0.625
g2243
I0
tp2445
a(I0
I3348
F0.5
S'accurate'
p2446
I0
tp2447
a(I0
I4529
F1.0
S'good'
p2448
I0
tp2449
a(I0
I5114
F-0.625
g2251
I0
tp2450
a(I0
I5143
F-0.625
g2253
I0
tp2451
a(I0
I5143
I0
g2255
I0
tp2452
a(I0
I6050
I0
g2259
I0
tp2453
a(I0
I6053
F-0.625
g2261
I0
tp2454
a(I0
I6053
I0
g2263
I0
tp2455
a(I0
I6053
F0.625
g2265
I0
tp2456
a(I0
I6554
F-0.625
S'fast'
p2457
I0
tp2458
as(S'a'
p2459
S'little'
p2460
S'bit'
p2461
tp2462
(lp2463
(I0
I281
F-0.75
S'little'
p2464
I0
tp2465
a(I0
I281
F0.375
S'heating'
p2466
I0
tp2467
a(I0
I330
F-0.75
S'little'
p2468
I0
tp2469
a(I0
I1171
F-0.75
S'little'
p2470
I0
tp2471
a(I0
I1492
F-0.75
S'little'
p2472
I0
tp2473
a(I0
I1529
I-100
S'goodlittle'
p2474
I0
tp2475
a(I0
I1668
F-0.75
S'little'
p2476
I0
tp2477
a(I0
I1685
F-0.75
S'little'
p2478
I0
tp2479
a(I0
I1932
F0.625
S'finish'
p2480
I0
tp2481
a(I0
I2085
I0
S's'
p2482
I0
tp2483
a(I0
I2085
F-0.75
S'little'
p2484
I0
tp2485
a(I0
I2085
F-0.5
S'slow'
p2486
I0
tp2487
a(I0
I2408
F-0.75
S'little'
p2488
I0
tp2489
a(I0
I2610
F-0.75
S'little'
p2490
I0
tp2491
a(I0
I3280
F-0.75
S'little'
p2492
I0
tp2493
a(I0
I3280
I-100
S'bqttery'
p2494
I0
tp2495
a(I0
I4205
F-0.75
S'little'
p2496
I0
tp2497
a(I0
I4548
F-0.75
S'little'
p2498
I0
tp2499
a(I0
I5562
F-0.75
S'little'
p2500
I0
tp2501
a(I0
I5877
F-0.75
S'little'
p2502
I0
tp2503
a(I0
I5877
I0
S'big'
p2504
I0
tp2505
a(I0
I6103
F-0.75
S'little'
p2506
I0
tp2507
as(S'32'
p2508
S'gb'
p2509
S'version'
p2510
tp2511
(lp2512
(I0
I293
I0
S'gb'
p2513
I0
tp2514
a(I0
I559
F0.875
S'lucky'
p2515
I0
tp2516
a(I0
I770
I0
S'gb'
p2517
I0
tp2518
a(I0
I770
F0.375
S'available'
p2519
I0
tp2520
a(I0
I1525
F-0.25
S'latest'
p2521
I0
tp2522
a(I0
I1845
F0.375
g108
I0
tp2523
a(I0
I1845
F1.0
g110
I0
tp2524
a(I0
I1848
I0
S'gb'
p2525
I0
tp2526
a(I0
I2919
F0.375
S'available'
p2527
I0
tp2528
a(I0
I5255
I0
S'gb'
p2529
I0
tp2530
a(I0
I6308
I0
S'gb'
p2531
I0
tp2532
a(I0
I6309
I0
S'gb'
p2533
I0
tp2534
a(I0
I6310
I0
S'gb'
p2535
I0
tp2536
a(I0
I6567
F-0.5
S'longer'
p2537
I0
tp2538
a(I0
I6645
F0.25
S'able'
p2539
I0
tp2540
a(I0
I293
I0
g2513
I0
tp2541
a(I0
I559
F0.875
g2515
I0
tp2542
a(I0
I640
F1.0
S'best'
p2543
I0
tp2544
a(I0
I770
I0
g2517
I0
tp2545
a(I0
I770
F0.375
g2519
I0
tp2546
a(I0
I1525
F-0.25
g2521
I0
tp2547
a(I0
I1845
F0.375
g108
I0
tp2548
a(I0
I1845
F1.0
g110
I0
tp2549
a(I0
I1848
I0
g2525
I0
tp2550
a(I0
I2919
F0.375
g2527
I0
tp2551
a(I0
I3819
F0.5
S'internal'
p2552
I0
tp2553
a(I0
I4876
I0
S'gb'
p2554
I0
tp2555
a(I0
I5255
I0
g2529
I0
tp2556
a(I0
I6308
I0
g2531
I0
tp2557
a(I0
I6309
I0
g2533
I0
tp2558
a(I0
I6310
I0
g2535
I0
tp2559
a(I0
I6567
F-0.5
g2537
I0
tp2560
a(I0
I6645
F0.25
g2539
I0
tp2561
a(I0
I293
I0
g2513
I0
tp2562
a(I0
I559
F0.875
g2515
I0
tp2563
a(I0
I638
I0
S'current'
p2564
I0
tp2565
a(I0
I640
F1.0
g2543
I0
tp2566
a(I0
I770
I0
g2517
I0
tp2567
a(I0
I770
F0.375
g2519
I0
tp2568
a(I0
I1525
F-0.25
g2521
I0
tp2569
a(I0
I1738
F-0.25
S'latest'
p2570
I0
tp2571
a(I0
I1848
I0
g2525
I0
tp2572
a(I0
I2919
F0.375
g2527
I0
tp2573
a(I0
I3819
F0.5
g2552
I0
tp2574
a(I0
I3880
F-0.25
S'earlier'
p2575
I0
tp2576
a(I0
I3880
F0.875
S'simple'
p2577
I0
tp2578
a(I0
I4330
F-0.25
S'latest'
p2579
I0
tp2580
a(I0
I4876
I0
g2554
I0
tp2581
a(I0
I5255
I0
g2529
I0
tp2582
a(I0
I5770
F0.5
S'grey'
p2583
I0
tp2584
a(I0
I6308
I0
g2531
I0
tp2585
a(I0
I6309
I0
g2533
I0
tp2586
a(I0
I6310
I0
g2535
I0
tp2587
a(I0
I6567
F-0.5
g2537
I0
tp2588
a(I0
I6645
F0.25
g2539
I0
tp2589
a(I0
I6698
I0
S'end'
p2590
I0
tp2591
a(I0
I6894
F-0.625
S'new'
p2592
I0
tp2593
a(I0
I6908
F-0.25
S'latest'
p2594
I0
tp2595
a(I0
I6908
I0
S'mi'
p2596
I0
tp2597
as(S'build'
p2598
S'quality'
p2599
tp2600
(lp2601
(I0
I573
I0
S'metal'
p2602
I2
tp2603
a(I0
I975
I0
S'build'
p2604
I2
tp2605
a(I0
I1085
F-0.125
S'overall'
p2606
I2
tp2607
a(I0
I1085
I0
S'build'
p2608
I2
tp2609
a(I0
I2063
F1.0
S'excellent'
p2610
I2
tp2611
a(I0
I2455
I0
S'build'
p2612
I2
tp2613
a(I0
I3042
I0
S'build'
p2614
I2
tp2615
a(I0
I3984
F1.0
S'excellent'
p2616
I2
tp2617
a(I0
I4276
F0.875
S'amazing'
p2618
I2
tp2619
a(I0
I4359
I0
S'build'
p2620
I2
tp2621
a(I0
I5805
I0
S'build'
p2622
I2
tp2623
a(I0
I5805
F1.0
S'good'
p2624
I2
tp2625
a(I0
I5853
I0
S'build'
p2626
I2
tp2627
a(I0
I5853
F0.875
S'awesome'
p2628
I2
tp2629
a(I0
I5865
F1.0
S'good'
p2630
I2
tp2631
a(I0
I5973
F1.0
S'best'
p2632
I2
tp2633
a(I0
I6065
I0
S'build'
p2634
I2
tp2635
a(I0
I7052
F1.0
S'good'
p2636
I2
tp2637
a(I0
I7070
I0
S'build'
p2638
I2
tp2639
a(I0
I7070
F1.0
S'good'
p2640
I2
tp2641
as(S'1'
p2642
S'5'
p2643
S'days'
p2644
tp2645
(lp2646
(I0
I89
F-0.625
S'last'
p2647
I0
tp2648
a(I0
I1412
F-0.25
S'i'
p2649
I0
tp2650
a(I0
I5153
I-100
S'usewill'
p2651
I0
tp2652
a(I0
I5817
I0
S'more'
p2653
I0
tp2654
as(S'want'
p2655
S'to'
p2656
S'use'
p2657
tp2658
(lp2659
(I0
I3669
I0
S'many'
p2660
I0
tp2661
a(I0
I5497
F0.125
S'mobile'
p2662
I0
tp2663
a(I0
I5497
I0
S'u'
p2664
I0
tp2665
a(I0
I5497
I0
S'ur'
p2666
I0
tp2667
as(S'well'
p2668
tp2669
(lp2670
(I0
I2273
F-0.5
S'unbelievable'
p2671
I9
tp2672
a(I0
I2654
F0.125
S'outdoor'
p2673
I9
tp2674
as(S'sim'
p2675
S'memory'
p2676
S'card'
p2677
tp2678
(lp2679
(I0
I108
F0.5
S'second'
p2680
I0
tp2681
a(I0
I108
F-0.25
g465
I0
tp2682
a(I0
I482
I0
g131
I0
tp2683
a(I0
I482
F0.25
g133
I0
tp2684
a(I0
I680
F0.5
g623
I0
tp2685
a(I0
I809
F0.5
g135
I0
tp2686
a(I0
I809
F0.5
g137
I0
tp2687
a(I0
I809
F-0.25
g139
I0
tp2688
a(I0
I839
F0.625
g234
I0
tp2689
a(I0
I966
F0.5
g141
I0
tp2690
a(I0
I966
F-0.25
g143
I0
tp2691
a(I0
I966
I0
g472
I0
tp2692
a(I0
I1008
F0.5
g236
I0
tp2693
a(I0
I1008
I0
g238
I0
tp2694
a(I0
I1231
I0
g145
I0
tp2695
a(I0
I1234
F0.875
g147
I0
tp2696
a(I0
I1234
I0
g149
I0
tp2697
a(I0
I1234
F0.375
g151
I0
tp2698
a(I0
I1234
F-0.25
g153
I0
tp2699
a(I0
I1234
I0
g241
I0
tp2700
a(I0
I1284
F0.5
g155
I0
tp2701
a(I0
I1337
I0
g157
I0
tp2702
a(I0
I1337
F0.5
g159
I0
tp2703
a(I0
I2179
F0.5
g165
I0
tp2704
a(I0
I2766
F-0.5
g167
I0
tp2705
a(I0
I2858
F0.5
g2320
I0
tp2706
a(I0
I2858
F-0.75
g2322
I0
tp2707
a(I0
I3002
F0.5
g482
I0
tp2708
a(I0
I3120
F-0.75
S'single'
p2709
I0
tp2710
a(I0
I3220
I0
g484
I0
tp2711
a(I0
I3220
F0.5
g486
I0
tp2712
a(I0
I3275
F0.5
g169
I0
tp2713
a(I0
I3514
F0.5
g171
I0
tp2714
a(I0
I3514
F0.5
g173
I0
tp2715
a(I0
I3820
I0
g488
I0
tp2716
a(I0
I3820
F0.5
g258
I0
tp2717
a(I0
I3820
F-0.5
g490
I0
tp2718
a(I0
I3822
F0.5
g260
I0
tp2719
a(I0
I3822
I0
g262
I0
tp2720
a(I0
I3822
F-0.25
g494
I0
tp2721
a(I0
I3823
F-0.25
g175
I0
tp2722
a(I0
I3823
F-0.75
g177
I0
tp2723
a(I0
I3823
F0.5
g179
I0
tp2724
a(I0
I4113
F0.5
g649
I0
tp2725
a(I0
I4203
F0.5
g181
I0
tp2726
a(I0
I4213
I0
g268
I0
tp2727
a(I0
I4413
F0.25
g651
I0
tp2728
a(I0
I4598
F-0.25
g183
I0
tp2729
a(I0
I4610
F0.5
g185
I0
tp2730
a(I0
I4610
I0
g498
I0
tp2731
a(I0
I4610
F0.5
g187
I0
tp2732
a(I0
I4610
F-0.375
g189
I0
tp2733
a(I0
I5068
F0.5
g662
I0
tp2734
a(I0
I5068
F0.25
g502
I0
tp2735
a(I0
I5086
F0.125
g195
I0
tp2736
a(I0
I5106
F0.125
g278
I0
tp2737
a(I0
I5449
F0.5
S'second'
p2738
I0
tp2739
a(I0
I5550
F0.375
g197
I0
tp2740
a(I0
I5566
F-0.875
g672
I0
tp2741
a(I0
I5572
F0.5
g284
I0
tp2742
a(I0
I5572
I0
g509
I0
tp2743
a(I0
I6036
F0.125
g511
I0
tp2744
a(I0
I6036
F0.5
g203
I0
tp2745
a(I0
I6141
I0
g513
I0
tp2746
a(I0
I6141
I0
g677
I0
tp2747
a(I0
I6199
F0.375
g205
I0
tp2748
a(I0
I6291
F0.5
g207
I0
tp2749
a(I0
I6471
F0.5
g209
I0
tp2750
a(I0
I6471
F-0.375
g517
I0
tp2751
a(I0
I6513
F0.625
g519
I0
tp2752
a(I0
I6513
F0.375
g521
I0
tp2753
a(I0
I6635
F0.5
S'second'
p2754
I0
tp2755
a(I0
I6657
F0.5
g683
I0
tp2756
a(I0
I6792
F0.5
g213
I0
tp2757
a(I0
I6792
F0.5
g215
I0
tp2758
a(I0
I6924
I0
g217
I0
tp2759
a(I0
I6993
F0.5
g689
I0
tp2760
a(I0
I7176
F0.25
g524
I0
tp2761
a(I0
I7193
F-0.75
g693
I0
tp2762
as(S'one'
p2763
S'sim'
p2764
S'card'
p2765
tp2766
(lp2767
(I0
I192
F-0.25
S'insert'
p2768
I0
tp2769
a(I0
I482
I0
g131
I0
tp2770
a(I0
I559
F0.5
g621
I0
tp2771
a(I0
I680
F0.5
g623
I0
tp2772
a(I0
I839
F0.625
g234
I0
tp2773
a(I0
I966
F0.5
g141
I0
tp2774
a(I0
I966
I0
g472
I0
tp2775
a(I0
I1125
F0.5
g704
I0
tp2776
a(I0
I1125
I0
S'sd'
p2777
I0
tp2778
a(I0
I1156
F0.5
g706
I0
tp2779
a(I0
I1231
I0
g145
I0
tp2780
a(I0
I1284
F0.5
g155
I0
tp2781
a(I0
I1745
I0
g245
I0
tp2782
a(I0
I2179
F0.5
g165
I0
tp2783
a(I0
I2518
I0
S'sd'
p2784
I0
tp2785
a(I0
I2518
I0
S'sd'
p2786
I0
tp2787
a(I0
I2518
F-0.25
S'i'
p2788
I0
tp2789
a(I0
I2518
I0
S'sd'
p2790
I0
tp2791
a(I0
I2793
I0
S'active'
p2792
I0
tp2793
a(I0
I3002
F0.5
g482
I0
tp2794
a(I0
I3220
I0
g484
I0
tp2795
a(I0
I3275
F0.5
g169
I0
tp2796
a(I0
I3514
F0.5
g171
I0
tp2797
a(I0
I3514
F0.5
g173
I0
tp2798
a(I0
I3820
F0.5
g258
I0
tp2799
a(I0
I3822
F0.5
g260
I0
tp2800
a(I0
I3822
I0
g262
I0
tp2801
a(I0
I3823
F-0.75
g177
I0
tp2802
a(I0
I3823
F0.5
g179
I0
tp2803
a(I0
I4113
F0.5
g649
I0
tp2804
a(I0
I4371
I0
g270
I0
tp2805
a(I0
I4371
I-100
S'microsd'
p2806
I0
tp2807
a(I0
I4413
F0.25
g651
I0
tp2808
a(I0
I4610
F0.5
g185
I0
tp2809
a(I0
I4610
I0
g498
I0
tp2810
a(I0
I4610
F0.5
g187
I0
tp2811
a(I0
I4610
F-0.375
g189
I0
tp2812
a(I0
I4791
F0.5
g728
I0
tp2813
a(I0
I4791
I0
S'sd'
p2814
I0
tp2815
a(I0
I4944
I0
g660
I0
tp2816
a(I0
I4944
I0
S'sd'
p2817
I0
tp2818
a(I0
I5068
F0.5
g662
I0
tp2819
a(I0
I5106
F0.125
g278
I0
tp2820
a(I0
I5566
F-0.875
g672
I0
tp2821
a(I0
I5572
F0.5
g284
I0
tp2822
a(I0
I6141
I0
g677
I0
tp2823
a(I0
I6175
F0.5
g679
I0
tp2824
a(I0
I6657
F0.5
g683
I0
tp2825
a(I0
I6792
F0.5
g213
I0
tp2826
a(I0
I6792
F0.5
g215
I0
tp2827
a(I0
I6937
I0
g749
I0
tp2828
a(I0
I6973
F0.5
g687
I0
tp2829
a(I0
I6973
I-100
S'memmory'
p2830
I0
tp2831
a(I0
I6993
F0.5
g689
I0
tp2832
a(I0
I7138
F-0.25
g691
I0
tp2833
a(I0
I7138
I0
S'sd'
p2834
I0
tp2835
a(I0
I7193
F-0.75
g693
I0
tp2836
as(S'sim'
p2837
S'sd'
p2838
S'card'
p2839
tp2840
(lp2841
(I0
I637
I0
S'sd'
p2842
I0
tp2843
a(I0
I1125
F0.5
g704
I0
tp2844
a(I0
I1125
I0
g2777
I0
tp2845
a(I0
I1128
F0.5
g2365
I0
tp2846
a(I0
I1234
I0
g241
I0
tp2847
a(I0
I1745
I0
g245
I0
tp2848
a(I0
I1982
F0.5
g2372
I0
tp2849
a(I0
I1982
F-0.375
S'same'
p2850
I0
tp2851
a(I0
I1983
F0.5
g2315
I0
tp2852
a(I0
I2179
F0.5
g165
I0
tp2853
a(I0
I2518
I0
g2784
I0
tp2854
a(I0
I2518
I0
g2786
I0
tp2855
a(I0
I2518
F-0.25
g2788
I0
tp2856
a(I0
I2518
I0
g2790
I0
tp2857
a(I0
I2792
F-0.25
S'external'
p2858
I0
tp2859
a(I0
I2858
F0.5
g2320
I0
tp2860
a(I0
I2858
F-0.75
g2322
I0
tp2861
a(I0
I2858
F-0.25
S'micro'
p2862
I0
tp2863
a(I0
I3120
F-0.75
g2709
I0
tp2864
a(I0
I3220
I0
g484
I0
tp2865
a(I0
I3389
I0
g252
I0
tp2866
a(I0
I3389
F-0.25
S'micro'
p2867
I0
tp2868
a(I0
I3543
I-100
S'suportd'
p2869
I0
tp2870
a(I0
I3543
F0.5
g2386
I0
tp2871
a(I0
I3794
F0.5
g256
I0
tp2872
a(I0
I4177
F0.5
S'second'
p2873
I0
tp2874
a(I0
I4204
I0
g266
I0
tp2875
a(I0
I4371
I0
g270
I0
tp2876
a(I0
I4791
F0.5
g728
I0
tp2877
a(I0
I4791
I0
g2814
I0
tp2878
a(I0
I4792
F-0.75
g2405
I0
tp2879
a(I0
I4793
I0
S'sd'
p2880
I0
tp2881
a(I0
I4943
I0
S'sd'
p2882
I0
tp2883
a(I0
I4944
I0
g660
I0
tp2884
a(I0
I4944
I0
g2817
I0
tp2885
a(I0
I4977
I-100
S'muchno'
p2886
I0
tp2887
a(I0
I4977
F0.5
g2338
I0
tp2888
a(I0
I4977
I0
S'sd'
p2889
I0
tp2890
a(I0
I4977
I0
S'sd'
p2891
I0
tp2892
a(I0
I5225
F0.5
g2409
I0
tp2893
a(I0
I5612
I0
g286
I0
tp2894
a(I0
I5612
I0
g288
I0
tp2895
a(I0
I5653
F0.5
g2341
I0
tp2896
a(I0
I5653
I0
S'sd'
p2897
I0
tp2898
a(I0
I5741
F0.25
S'use'
p2899
I0
tp2900
a(I0
I5741
I0
S'sd'
p2901
I0
tp2902
a(I0
I5741
F0.5
g2343
I0
tp2903
a(I0
I6175
F0.5
g679
I0
tp2904
a(I0
I6175
F-0.25
S'micro'
p2905
I0
tp2906
a(I0
I6377
F-0.25
S'micro'
p2907
I0
tp2908
a(I0
I6398
I0
g296
I0
tp2909
a(I0
I6399
I0
S'sd'
p2910
I0
tp2911
a(I0
I6399
F-0.75
g2419
I0
tp2912
a(I0
I6563
F-0.25
S'micro'
p2913
I0
tp2914
a(I0
I6751
I0
S'sd'
p2915
I0
tp2916
a(I0
I7056
F0.5
g2428
I0
tp2917
a(I0
I7056
I0
S'sd'
p2918
I0
tp2919
a(I0
I7138
F-0.25
g691
I0
tp2920
a(I0
I7138
I0
g2834
I0
tp2921
a(I0
I108
F0.5
g2680
I2
tp2922
a(I0
I192
F-0.25
g2768
I2
tp2923
a(I0
I482
I0
g131
I2
tp2924
a(I0
I559
F0.5
g621
I2
tp2925
a(I0
I637
I0
g2842
I2
tp2926
a(I0
I680
F0.5
g623
I2
tp2927
a(I0
I809
F0.5
g135
I2
tp2928
a(I0
I839
F0.625
g234
I2
tp2929
a(I0
I966
F0.5
g141
I2
tp2930
a(I0
I966
I0
g472
I2
tp2931
a(I0
I1008
F0.5
g236
I2
tp2932
a(I0
I1008
I0
g238
I2
tp2933
a(I0
I1125
F0.5
g704
I2
tp2934
a(I0
I1125
I0
g2777
I2
tp2935
a(I0
I1128
F0.5
g2365
I2
tp2936
a(I0
I1156
F0.5
g706
I2
tp2937
a(I0
I1231
I0
g145
I2
tp2938
a(I0
I1234
I0
g241
I2
tp2939
a(I0
I1284
F0.5
g155
I2
tp2940
a(I0
I1337
I0
g157
I2
tp2941
a(I0
I1337
F0.5
g159
I2
tp2942
a(I0
I1744
I0
S'eject'
p2943
I2
tp2944
a(I0
I1745
I0
g245
I2
tp2945
a(I0
I1982
F0.5
g2372
I2
tp2946
a(I0
I1982
F-0.375
g2850
I2
tp2947
a(I0
I1983
F0.5
g2315
I2
tp2948
a(I0
I2179
F0.5
g165
I2
tp2949
a(I0
I2218
F0.5
g248
I2
tp2950
a(I0
I2518
I0
g2784
I2
tp2951
a(I0
I2518
I0
g2786
I2
tp2952
a(I0
I2518
F-0.25
g2788
I2
tp2953
a(I0
I2518
I0
g2790
I2
tp2954
a(I0
I2793
I0
g2792
I2
tp2955
a(I0
I2858
F0.5
g2320
I2
tp2956
a(I0
I2858
F-0.75
g2322
I2
tp2957
a(I0
I3002
F0.5
g482
I2
tp2958
a(I0
I3120
F-0.75
g2709
I2
tp2959
a(I0
I3195
I-100
S'good1'
p2960
I2
tp2961
a(I0
I3195
F1.0
S'excellent'
p2962
I2
tp2963
a(I0
I3220
I0
g484
I2
tp2964
a(I0
I3275
F0.5
g169
I2
tp2965
a(I0
I3389
I0
g252
I2
tp2966
a(I0
I3514
F0.5
g171
I2
tp2967
a(I0
I3514
F0.5
g173
I2
tp2968
a(I0
I3543
F0.5
g2386
I2
tp2969
a(I0
I3794
F0.5
g256
I2
tp2970
a(I0
I3820
F0.5
g258
I2
tp2971
a(I0
I3822
F0.5
g260
I2
tp2972
a(I0
I3822
I0
g262
I2
tp2973
a(I0
I3823
F-0.75
g177
I2
tp2974
a(I0
I3823
F0.5
g179
I2
tp2975
a(I0
I4113
F0.5
g649
I2
tp2976
a(I0
I4177
F0.5
g2873
I2
tp2977
a(I0
I4203
F0.5
g181
I2
tp2978
a(I0
I4204
I0
g266
I2
tp2979
a(I0
I4213
I0
g268
I2
tp2980
a(I0
I4356
F0.5
g2394
I2
tp2981
a(I0
I4371
I0
g270
I2
tp2982
a(I0
I4413
F0.25
g651
I2
tp2983
a(I0
I4610
F0.5
g185
I2
tp2984
a(I0
I4610
I0
g498
I2
tp2985
a(I0
I4610
F0.5
g187
I2
tp2986
a(I0
I4610
F-0.375
g189
I2
tp2987
a(I0
I4791
F0.5
g728
I2
tp2988
a(I0
I4791
I0
g2814
I2
tp2989
a(I0
I4792
F-0.75
g2405
I2
tp2990
a(I0
I4793
I0
g2880
I2
tp2991
a(I0
I4943
I0
g2882
I2
tp2992
a(I0
I4944
I0
g660
I2
tp2993
a(I0
I4944
I0
g2817
I2
tp2994
a(I0
I4977
F0.5
g2338
I2
tp2995
a(I0
I4977
I0
g2889
I2
tp2996
a(I0
I4977
I0
g2891
I2
tp2997
a(I0
I5042
F-0.25
g274
I2
tp2998
a(I0
I5042
F0.75
g276
I2
tp2999
a(I0
I5068
F0.5
g662
I2
tp3000
a(I0
I5106
F0.125
g278
I2
tp3001
a(I0
I5225
F0.5
g2409
I2
tp3002
a(I0
I5299
F0.5
g280
I2
tp3003
a(I0
I5449
F0.5
g2738
I2
tp3004
a(I0
I5566
F-0.875
g672
I2
tp3005
a(I0
I5572
F0.5
g284
I2
tp3006
a(I0
I5612
I0
g286
I2
tp3007
a(I0
I5612
I0
g288
I2
tp3008
a(I0
I5653
F0.5
g2341
I2
tp3009
a(I0
I5653
I0
g2897
I2
tp3010
a(I0
I5741
F0.25
g2899
I2
tp3011
a(I0
I5741
I0
g2901
I2
tp3012
a(I0
I5741
F0.5
g2343
I2
tp3013
a(I0
I6036
F0.125
g511
I2
tp3014
a(I0
I6036
F0.5
g203
I2
tp3015
a(I0
I6141
I0
g677
I2
tp3016
a(I0
I6175
F0.5
g679
I2
tp3017
a(I0
I6398
I0
g296
I2
tp3018
a(I0
I6399
I0
g2910
I2
tp3019
a(I0
I6399
F-0.75
g2419
I2
tp3020
a(I0
I6471
F0.5
g209
I2
tp3021
a(I0
I6471
F-0.375
g517
I2
tp3022
a(I0
I6635
F0.5
g2754
I2
tp3023
a(I0
I6657
F0.5
g683
I2
tp3024
a(I0
I6751
I0
g2915
I2
tp3025
a(I0
I6792
F0.5
g213
I2
tp3026
a(I0
I6792
F0.5
g215
I2
tp3027
a(I0
I6937
I0
g749
I2
tp3028
a(I0
I6973
F0.5
g687
I2
tp3029
a(I0
I6993
F0.5
g689
I2
tp3030
a(I0
I7056
F0.5
g2428
I2
tp3031
a(I0
I7056
I0
g2918
I2
tp3032
a(I0
I7138
F-0.25
g691
I2
tp3033
a(I0
I7138
I0
g2834
I2
tp3034
a(I0
I7193
F-0.75
g693
I2
tp3035
as(S'for'
p3036
g32
S'days'
p3037
tp3038
(lp3039
(I0
I89
F-0.625
g2647
I0
tp3040
a(I0
I1688
F-0.25
S'past'
p3041
I0
tp3042
a(I0
I2398
F-0.625
S'last'
p3043
I0
tp3044
a(I0
I2680
F0.5
S'higher'
p3045
I0
tp3046
a(I0
I2680
I0
S'light'
p3047
I0
tp3048
a(I0
I2802
I0
S'normal'
p3049
I0
tp3050
a(I0
I4175
F0.5
g1987
I0
tp3051
a(I0
I5204
F-0.625
S'last'
p3052
I0
tp3053
a(I0
I5204
I0
S'occasional'
p3054
I0
tp3055
a(I0
I6755
F-0.5
S'problematic'
p3056
I0
tp3057
a(I0
I89
F-0.625
g2647
I2
tp3058
a(I0
I1099
F0.5
g1256
I2
tp3059
a(I0
I1688
F-0.25
g3041
I2
tp3060
a(I0
I1956
I-100
S'usepros'
p3061
I2
tp3062
a(I0
I1962
F-0.125
g1258
I2
tp3063
a(I0
I2398
F-0.625
g3043
I2
tp3064
a(I0
I2680
F0.5
g3045
I2
tp3065
a(I0
I2680
I0
g3047
I2
tp3066
a(I0
I2802
I0
g3049
I2
tp3067
a(I0
I4175
F0.5
g1987
I2
tp3068
a(I0
I5204
F-0.625
g3052
I2
tp3069
a(I0
I5204
I0
g3054
I2
tp3070
a(I0
I5361
F-0.625
g1272
I2
tp3071
a(I0
I6755
F-0.5
g3056
I2
tp3072
as(S'fingerprint'
p3073
S'sensor'
p3074
tp3075
(lp3076
(I0
I1479
F-0.625
S'fingerprint'
p3077
I0
tp3078
a(I0
I2111
F-0.125
S'front'
p3079
I0
tp3080
a(I0
I2357
F1.0
S'good'
p3081
I0
tp3082
a(I0
I3280
I0
S'cool'
p3083
I0
tp3084
a(I0
I3359
F0.875
S'great'
p3085
I0
tp3086
a(I0
I3929
F0.5
S'accurate'
p3087
I0
tp3088
a(I0
I4486
I0
S'nd'
p3089
I0
tp3090
a(I0
I4486
F0.875
S'amazing'
p3091
I0
tp3092
a(I0
I4715
F0.5
S'accurate'
p3093
I0
tp3094
a(I0
I4818
F0.5
S'responsive'
p3095
I0
tp3096
a(I0
I4886
F0.5
S'responsive'
p3097
I0
tp3098
a(I0
I4925
F0.875
S'awesome'
p3099
I0
tp3100
a(I0
I5278
F1.0
S'good'
p3101
I0
tp3102
a(I0
I5560
F-0.625
S'fingerprint'
p3103
I0
tp3104
a(I0
I5716
I0
S'quick'
p3105
I0
tp3106
a(I0
I5770
F1.0
S'good'
p3107
I0
tp3108
a(I0
I6098
F-0.125
S'nominal'
p3109
I0
tp3110
a(I0
I6158
F0.875
S'amazing'
p3111
I0
tp3112
a(I0
I6184
F-0.625
S'fast'
p3113
I0
tp3114
a(I0
I6716
F0.75
S'outstanding'
p3115
I0
tp3116
a(I0
I6749
F-1.0
S'worst'
p3117
I0
tp3118
a(I0
I534
I-100
S'miui'
p3119
I0
tp3120
a(I0
I579
F0.5
g2435
I0
tp3121
a(I0
I2111
F-0.125
g3079
I0
tp3122
a(I0
I2778
F1.0
S'good'
p3123
I0
tp3124
a(I0
I2821
F-0.25
S'latest'
p3125
I0
tp3126
a(I0
I2821
I0
S'update'
p3127
I0
tp3128
a(I0
I3091
I0
g2443
I0
tp3129
a(I0
I3280
I0
g3083
I0
tp3130
a(I0
I3348
F0.5
g2446
I0
tp3131
a(I0
I3581
F0.125
S'dedicated'
p3132
I0
tp3133
a(I0
I4486
I0
g3089
I0
tp3134
a(I0
I4529
F1.0
g2448
I0
tp3135
a(I0
I4536
F0.125
S'mobile'
p3136
I0
tp3137
a(I0
I4715
F0.5
g3093
I0
tp3138
a(I0
I4818
F0.5
g3095
I0
tp3139
a(I0
I4886
F0.5
g3097
I0
tp3140
a(I0
I5278
F1.0
g3101
I0
tp3141
a(I0
I5716
I0
g3105
I0
tp3142
a(I0
I5770
F1.0
g3107
I0
tp3143
a(I0
I6098
F-0.125
g3109
I0
tp3144
a(I0
I6158
F0.875
g3111
I0
tp3145
a(I0
I6184
F-0.625
g3113
I0
tp3146
a(I0
I6554
F-0.625
g2457
I0
tp3147
as(S'note'
p3148
g91
S'gold'
p3149
tp3150
(lp3151
(I0
I3594
F0.375
S'available'
p3152
I0
tp3153
a(I0
I5499
F-0.625
S'red'
p3154
I0
tp3155
a(I0
I779
F0.875
S'awesome'
p3156
I0
tp3157
a(I0
I1305
F0.5
S'stylish'
p3158
I0
tp3159
a(I0
I1305
F0.875
S'awesome'
p3160
I0
tp3161
a(I0
I2787
F-0.5
S'long'
p3162
I0
tp3163
a(I0
I3713
F-0.625
S'new'
p3164
I0
tp3165
a(I0
I5499
F-0.625
g3154
I0
tp3166
a(I0
I5514
F-0.75
S'black'
p3167
I0
tp3168
a(I0
I5645
I0
S'more'
p3169
I0
tp3170
a(I0
I5645
F0.75
S'premium'
p3171
I0
tp3172
as(S'camera'
p3173
S'quality'
p3174
S'very'
p3175
tp3176
(lp3177
(I0
I105
F0.75
S'sound'
p3178
I0
tp3179
a(I0
I105
F0.875
S'awesome'
p3180
I0
tp3181
a(I0
I690
F0.625
S'fine'
p3182
I0
tp3183
a(I0
I916
F1.0
S'good'
p3184
I0
tp3185
a(I0
I916
F-0.875
S'poor'
p3186
I0
tp3187
a(I0
I975
I0
g2604
I0
tp3188
a(I0
I1196
F-1.0
S'bad'
p3189
I0
tp3190
a(I0
I1196
I0
S'cheep'
p3191
I0
tp3192
a(I0
I1196
F0.875
S'awesome'
p3193
I0
tp3194
a(I0
I1380
I0
S'camera'
p3195
I0
tp3196
a(I0
I1408
F-0.875
S'poor'
p3197
I0
tp3198
a(I0
I1408
F0.75
S'sound'
p3199
I0
tp3200
a(I0
I1408
F0.375
S'much'
p3201
I0
tp3202
a(I0
I1688
F-0.875
S'cheap'
p3203
I0
tp3204
a(I0
I1998
F0.875
S'nice'
p3205
I0
tp3206
a(I0
I2021
F-0.125
g1338
I0
tp3207
a(I0
I2021
F1.0
g1340
I0
tp3208
a(I0
I2021
I0
S'screen'
p3209
I0
tp3210
a(I0
I2172
F-0.875
S'low'
p3211
I0
tp3212
a(I0
I2318
F0.75
S'perfect'
p3213
I0
tp3214
a(I0
I2974
F-1.0
g1348
I0
tp3215
a(I0
I3047
F-0.875
S'poor'
p3216
I0
tp3217
a(I0
I3047
F-0.75
S'disappointing'
p3218
I0
tp3219
a(I0
I3091
F0.125
S'equal'
p3220
I0
tp3221
a(I0
I3091
F1.0
S'good'
p3222
I0
tp3223
a(I0
I3248
F1.0
S'good'
p3224
I0
tp3225
a(I0
I3248
F0.875
S'nice'
p3226
I0
tp3227
a(I0
I3248
F1.0
S'good'
p3228
I0
tp3229
a(I0
I3468
F-0.875
S'poor'
p3230
I0
tp3231
a(I0
I3468
F-0.25
S'i'
p3232
I0
tp3233
a(I0
I3468
F-0.625
S'new'
p3234
I0
tp3235
a(I0
I3493
F-1.0
S'bad'
p3236
I0
tp3237
a(I0
I3559
F1.0
g1358
I0
tp3238
a(I0
I3828
I0
S'goodall'
p3239
I0
tp3240
a(I0
I3828
I0
S'built'
p3241
I0
tp3242
a(I0
I3912
F-0.875
S'poor'
p3243
I0
tp3244
a(I0
I4259
F0.875
S'great'
p3245
I0
tp3246
a(I0
I4502
F-0.875
S'poor'
p3247
I0
tp3248
a(I0
I4819
F-0.875
S'poor'
p3249
I0
tp3250
a(I0
I4821
F-0.875
S'poor'
p3251
I0
tp3252
a(I0
I5807
I0
S'u'
p3253
I0
tp3254
a(I0
I5807
F1.0
S'good'
p3255
I0
tp3256
a(I0
I5971
F0.5
S'high'
p3257
I0
tp3258
a(I0
I6065
I0
g2634
I0
tp3259
a(I0
I6159
F-0.875
S'poor'
p3260
I0
tp3261
a(I0
I6175
F-1.0
S'bad'
p3262
I0
tp3263
a(I0
I6175
F0.875
g1408
I0
tp3264
a(I0
I6384
F-0.625
S'average'
p3265
I0
tp3266
a(I0
I6422
F-0.875
S'poor'
p3267
I0
tp3268
a(I0
I6422
F0.75
S'white'
p3269
I0
tp3270
a(I0
I6467
F1.0
S'good'
p3271
I0
tp3272
a(I0
I6467
F0.875
S'nice'
p3273
I0
tp3274
a(I0
I6482
F-0.875
S'poor'
p3275
I0
tp3276
a(I0
I6858
F1.0
S'good'
p3277
I0
tp3278
a(I0
I6858
F1.0
g1416
I0
tp3279
a(I0
I6909
F-0.875
S'poor'
p3280
I0
tp3281
as(S'sim'
p3282
S'or'
p3283
S'memory'
p3284
tp3285
(lp3286
(I0
I108
F0.5
g2680
I0
tp3287
a(I0
I108
F-0.25
g465
I0
tp3288
a(I0
I482
I0
g131
I0
tp3289
a(I0
I482
F0.25
g133
I0
tp3290
a(I0
I680
F0.5
g623
I0
tp3291
a(I0
I809
F0.5
g135
I0
tp3292
a(I0
I809
F0.5
g137
I0
tp3293
a(I0
I809
F-0.25
g139
I0
tp3294
a(I0
I966
F0.5
g141
I0
tp3295
a(I0
I966
F-0.25
g143
I0
tp3296
a(I0
I1008
F0.5
g236
I0
tp3297
a(I0
I1008
I0
g238
I0
tp3298
a(I0
I1231
I0
g145
I0
tp3299
a(I0
I1234
F0.875
g147
I0
tp3300
a(I0
I1234
I0
g149
I0
tp3301
a(I0
I1234
F0.375
g151
I0
tp3302
a(I0
I1234
F-0.25
g153
I0
tp3303
a(I0
I1284
F0.5
g155
I0
tp3304
a(I0
I1337
I0
g157
I0
tp3305
a(I0
I1337
F0.5
g159
I0
tp3306
a(I0
I1932
F0.125
g161
I0
tp3307
a(I0
I1949
F-0.25
g163
I0
tp3308
a(I0
I2023
I-100
S'sim2'
p3309
I0
tp3310
a(I0
I2179
F0.5
g165
I0
tp3311
a(I0
I2766
F-0.5
g167
I0
tp3312
a(I0
I2858
F0.5
g2320
I0
tp3313
a(I0
I2858
F-0.75
g2322
I0
tp3314
a(I0
I3120
F-0.75
g2709
I0
tp3315
a(I0
I3220
F0.5
g486
I0
tp3316
a(I0
I3275
F0.5
g169
I0
tp3317
a(I0
I3514
F0.5
g171
I0
tp3318
a(I0
I3514
I-100
S'singal'
p3319
I0
tp3320
a(I0
I3514
F0.5
g173
I0
tp3321
a(I0
I3611
F0.75
S'expendable'
p3322
I0
tp3323
a(I0
I3820
I0
g488
I0
tp3324
a(I0
I3820
F0.5
g258
I0
tp3325
a(I0
I3820
F-0.5
g490
I0
tp3326
a(I0
I3822
F-0.25
g494
I0
tp3327
a(I0
I3823
F-0.25
g175
I0
tp3328
a(I0
I3823
F-0.75
g177
I0
tp3329
a(I0
I3823
F0.5
g179
I0
tp3330
a(I0
I4113
F0.5
g649
I0
tp3331
a(I0
I4203
F0.5
g181
I0
tp3332
a(I0
I4213
I0
g268
I0
tp3333
a(I0
I4413
F0.25
g651
I0
tp3334
a(I0
I4422
F0.5
g2334
I0
tp3335
a(I0
I4422
F-0.25
S'external'
p3336
I0
tp3337
a(I0
I4497
F0.5
g2397
I0
tp3338
a(I0
I4497
F0.75
S'expendable'
p3339
I0
tp3340
a(I0
I4598
F-0.25
g183
I0
tp3341
a(I0
I4610
F0.5
g185
I0
tp3342
a(I0
I4610
F0.5
g187
I0
tp3343
a(I0
I4610
F-0.375
g189
I0
tp3344
a(I0
I4626
I-100
S'bestexpandable'
p3345
I0
tp3346
a(I0
I4626
I0
g191
I0
tp3347
a(I0
I4626
F0.5
g193
I0
tp3348
a(I0
I5068
F0.5
g662
I0
tp3349
a(I0
I5068
F0.25
g502
I0
tp3350
a(I0
I5086
F0.125
g195
I0
tp3351
a(I0
I5449
F0.5
g2738
I0
tp3352
a(I0
I5502
I-100
S'usetwo'
p3353
I0
tp3354
a(I0
I5550
F0.375
g197
I0
tp3355
a(I0
I5566
F-0.875
g672
I0
tp3356
a(I0
I5572
F0.5
g284
I0
tp3357
a(I0
I5572
I0
g509
I0
tp3358
a(I0
I5720
I-100
S'sim1'
p3359
I0
tp3360
a(I0
I5849
F0.5
g199
I0
tp3361
a(I0
I5849
F0.5
g201
I0
tp3362
a(I0
I6036
F0.5
g203
I0
tp3363
a(I0
I6141
I0
g513
I0
tp3364
a(I0
I6141
I0
g677
I0
tp3365
a(I0
I6199
F0.375
g205
I0
tp3366
a(I0
I6291
F0.5
g207
I0
tp3367
a(I0
I6471
F0.5
g209
I0
tp3368
a(I0
I6513
F0.625
g519
I0
tp3369
a(I0
I6513
F0.375
g521
I0
tp3370
a(I0
I6612
F0.25
g211
I0
tp3371
a(I0
I6635
F0.5
g2754
I0
tp3372
a(I0
I6657
F0.5
g683
I0
tp3373
a(I0
I6792
F0.5
g213
I0
tp3374
a(I0
I6792
F0.5
g215
I0
tp3375
a(I0
I6831
F0.5
g2350
I0
tp3376
a(I0
I6924
I0
g217
I0
tp3377
a(I0
I6993
F0.5
g689
I0
tp3378
a(I0
I7176
F0.25
g524
I0
tp3379
a(I0
I7193
F-0.75
g693
I0
tp3380
as(S'network'
p3381
tp3382
(lp3383
(I0
I303
F-0.375
S'same'
p3384
I4
tp3385
a(I0
I662
F-0.375
S'same'
p3386
I4
tp3387
a(I0
I808
F0.375
S'full'
p3388
I4
tp3389
a(I0
I808
I-100
S'uske'
p3390
I4
tp3391
a(I0
I1224
F0.125
S'mobile'
p3392
I4
tp3393
a(I0
I1224
F-0.5
S'automatic'
p3394
I4
tp3395
a(I0
I1405
F0.75
S'due'
p3396
I4
tp3397
a(I0
I2384
F-0.25
S'i'
p3398
I4
tp3399
a(I0
I2889
I0
S'n'
p3400
I4
tp3401
a(I0
I2915
F0.375
S'much'
p3402
I4
tp3403
a(I0
I4031
I-100
S'rockstable'
p3404
I4
tp3405
a(I0
I4031
F0.625
S'fine'
p3406
I4
tp3407
a(I0
I4708
F0.125
S'mobile'
p3408
I4
tp3409
a(I0
I4708
F-0.875
S'poor'
p3410
I4
tp3411
a(I0
I4901
F0.375
S'full'
p3412
I4
tp3413
a(I0
I5065
F0.625
S'fine'
p3414
I4
tp3415
a(I0
I5510
I0
S'cellular'
p3416
I4
tp3417
a(I0
I5704
F-0.875
S'fake'
p3418
I4
tp3419
a(I0
I7167
F1.0
S'good'
p3420
I4
tp3421
a(I0
I7167
F0.125
S'key'
p3422
I4
tp3423
as(S'no'
p3424
S'heating'
p3425
S'problem'
p3426
tp3427
(lp3428
(I0
I266
F1.0
S'good'
p3429
I1
tp3430
a(I0
I266
F-0.875
S'low'
p3431
I1
tp3432
a(I0
I266
I0
S'light'
p3433
I1
tp3434
a(I0
I690
I0
S'serious'
p3435
I1
tp3436
a(I0
I808
I0
S'hybrid'
p3437
I1
tp3438
a(I0
I1113
I-100
S'ovwr'
p3439
I1
tp3440
a(I0
I1438
F-0.75
S'little'
p3441
I1
tp3442
a(I0
I1438
F-0.125
S'overall'
p3443
I1
tp3444
a(I0
I1783
I0
S'hear'
p3445
I1
tp3446
a(I0
I3220
I0
S'only'
p3447
I1
tp3448
a(I0
I4103
F0.375
S'heating'
p3449
I1
tp3450
a(I0
I4103
F0.125
S'mobile'
p3451
I1
tp3452
a(I0
I4120
F0.75
S'due'
p3453
I1
tp3454
a(I0
I4175
F-0.5
S'heavy'
p3455
I1
tp3456
a(I0
I4414
F-0.625
S'other'
p3457
I1
tp3458
a(I0
I4733
F0.375
S'much'
p3459
I1
tp3460
a(I0
I5313
I-100
S'persistentits'
p3461
I1
tp3462
a(I0
I5439
F-0.75
S'minor'
p3463
I1
tp3464
a(I0
I6702
I0
S'm'
p3465
I1
tp3466
a(I0
I6813
F-0.75
S'single'
p3467
I1
tp3468
a(I0
I328
F-0.75
S'little'
p3469
I6
tp3470
a(I0
I690
I0
g3435
I6
tp3471
a(I0
I808
I0
g3437
I6
tp3472
a(I0
I1246
F-0.75
S'little'
p3473
I6
tp3474
a(I0
I1438
F-0.75
g3441
I6
tp3475
a(I0
I1438
F-0.125
g3443
I6
tp3476
a(I0
I1551
F-0.875
S'small'
p3477
I6
tp3478
a(I0
I1673
F0.5
S'heat'
p3479
I6
tp3480
a(I0
I1783
I0
g3445
I6
tp3481
a(I0
I1807
F0.625
S'major'
p3482
I6
tp3483
a(I0
I2628
F0.125
g1927
I6
tp3484
a(I0
I2769
F0.375
g1929
I6
tp3485
a(I0
I3220
I0
g3447
I6
tp3486
a(I0
I3827
F0.875
S'nice'
p3487
I6
tp3488
a(I0
I3827
F1.0
S'good'
p3489
I6
tp3490
a(I0
I3827
F-0.875
S'low'
p3491
I6
tp3492
a(I0
I3976
F-1.0
S'bad'
p3493
I6
tp3494
a(I0
I4103
F0.375
g3449
I6
tp3495
a(I0
I4103
F0.125
g3451
I6
tp3496
a(I0
I4120
F0.75
g3453
I6
tp3497
a(I0
I4175
F-0.5
g3455
I6
tp3498
a(I0
I4317
F0.625
S'major'
p3499
I6
tp3500
a(I0
I4414
F-0.625
g3457
I6
tp3501
a(I0
I4733
F0.375
g3459
I6
tp3502
a(I0
I5427
F-0.75
S'little'
p3503
I6
tp3504
a(I0
I5439
F-0.75
g3463
I6
tp3505
a(I0
I6702
I0
g3465
I6
tp3506
a(I0
I6813
F-0.75
g3467
I6
tp3507
as(S'internal'
p3508
S'memory'
p3509
tp3510
(lp3511
(I0
I1232
F0.5
S'internal'
p3512
I3
tp3513
a(I0
I1232
F0.75
S'expendable'
p3514
I3
tp3515
a(I0
I1845
F0.375
S'much'
p3516
I3
tp3517
a(I0
I2007
F0.5
S'internal'
p3518
I3
tp3519
a(I0
I2007
F0.375
S'available'
p3520
I3
tp3521
a(I0
I2436
F0.375
S'available'
p3522
I3
tp3523
a(I0
I2534
F0.5
S'internal'
p3524
I3
tp3525
a(I0
I2863
F0.5
S'internal'
p3526
I3
tp3527
a(I0
I3118
F0.5
S'internal'
p3528
I3
tp3529
a(I0
I3220
F0.5
g486
I3
tp3530
a(I0
I3812
F0.5
S'internal'
p3531
I3
tp3532
a(I0
I3819
F0.375
S'much'
p3533
I3
tp3534
a(I0
I4128
I0
S'actual'
p3535
I3
tp3536
a(I0
I5264
F0.5
S'internal'
p3537
I3
tp3538
a(I0
I5296
I-100
S'goodinternal'
p3539
I3
tp3540
a(I0
I5296
F1.0
S'good'
p3541
I3
tp3542
a(I0
I5550
F0.375
g197
I3
tp3543
a(I0
I6291
F0.5
g207
I3
tp3544
a(I0
I6319
F0.5
S'internal'
p3545
I3
tp3546
a(I0
I7093
F0.5
S'internal'
p3547
I3
tp3548
a(I0
I7093
F0.375
S'available'
p3549
I3
tp3550
as(S'no'
p3551
S'heating'
p3552
S'issues'
p3553
tp3554
(lp3555
(I0
I1171
I0
S'fr'
p3556
I0
tp3557
a(I0
I1364
I0
S'serious'
p3558
I0
tp3559
a(I0
I1426
F-0.75
S'minor'
p3560
I0
tp3561
a(I0
I2408
F-0.25
S'i'
p3562
I0
tp3563
a(I0
I3325
F0.25
S'prompt'
p3564
I0
tp3565
a(I0
I4596
I0
S'more'
p3566
I0
tp3567
a(I0
I5733
F0.5
g1897
I0
tp3568
a(I0
I1171
I0
g3556
I0
tp3569
a(I0
I1364
I0
g3558
I0
tp3570
a(I0
I1426
F-0.75
g3560
I0
tp3571
a(I0
I1589
I0
S'only'
p3572
I0
tp3573
a(I0
I2408
F-0.25
g3562
I0
tp3574
a(I0
I3325
F0.25
g3564
I0
tp3575
a(I0
I4079
F-0.875
g1939
I0
tp3576
a(I0
I4228
F1.0
g1943
I0
tp3577
a(I0
I4596
I0
g3566
I0
tp3578
a(I0
I4837
I0
S'below'
p3579
I0
tp3580
a(I0
I5275
F-0.5
S'several'
p3581
I0
tp3582
a(I0
I5733
F0.5
g1897
I0
tp3583
a(I0
I5841
F0.5
S'slight'
p3584
I0
tp3585
a(I0
I171
I0
S'few'
p3586
I4
tp3587
a(I0
I171
F-0.625
S'other'
p3588
I4
tp3589
a(I0
I441
I0
S'lagging'
p3590
I4
tp3591
a(I0
I1171
I0
g3556
I4
tp3592
a(I0
I1364
I0
g3558
I4
tp3593
a(I0
I1426
F-0.75
g3560
I4
tp3594
a(I0
I1486
I0
S'many'
p3595
I4
tp3596
a(I0
I1589
I0
g3572
I4
tp3597
a(I0
I2408
F-0.25
g3562
I4
tp3598
a(I0
I2598
F-0.5
S'slow'
p3599
I4
tp3600
a(I0
I2899
F-0.75
S'little'
p3601
I4
tp3602
a(I0
I3325
F0.25
g3564
I4
tp3603
a(I0
I3457
F-0.75
S'stupid'
p3604
I4
tp3605
a(I0
I3457
I0
S'updated'
p3606
I4
tp3607
a(I0
I3457
F-0.625
S'other'
p3608
I4
tp3609
a(I0
I3715
F0.125
S'mobile'
p3610
I4
tp3611
a(I0
I3735
F-0.125
S'such'
p3612
I4
tp3613
a(I0
I3735
I0
S'big'
p3614
I4
tp3615
a(I0
I3842
F0.625
S'avoidable'
p3616
I4
tp3617
a(I0
I4039
F-0.375
S'same'
p3618
I4
tp3619
a(I0
I4316
F0.375
S'much'
p3620
I4
tp3621
a(I0
I4596
I0
g3566
I4
tp3622
a(I0
I4837
I0
g3579
I4
tp3623
a(I0
I5275
F-0.5
g3581
I4
tp3624
a(I0
I5841
F0.5
g3584
I4
tp3625
a(I0
I5916
F-0.75
S'minor'
p3626
I4
tp3627
a(I0
I6872
I0
S'lagging'
p3628
I4
tp3629
as(g2459
S'good'
p3630
S'product'
p3631
tp3632
(lp3633
(I0
I201
F1.0
S'good'
p3634
I2
tp3635
a(I0
I325
F1.0
S'good'
p3636
I2
tp3637
a(I0
I839
F1.0
S'good'
p3638
I2
tp3639
a(I0
I952
F1.0
S'good'
p3640
I2
tp3641
a(I0
I953
F1.0
S'good'
p3642
I2
tp3643
a(I0
I962
I0
S'mi'
p3644
I2
tp3645
a(I0
I962
F1.0
S'good'
p3646
I2
tp3647
a(I0
I1154
F1.0
S'good'
p3648
I2
tp3649
a(I0
I1372
F1.0
S'good'
p3650
I2
tp3651
a(I0
I1423
F0.875
S'great'
p3652
I2
tp3653
a(I0
I1461
F-0.125
S'such'
p3654
I2
tp3655
a(I0
I1465
F0.875
S'great'
p3656
I2
tp3657
a(I0
I1465
F1.0
S'good'
p3658
I2
tp3659
a(I0
I1486
F-0.75
S'defective'
p3660
I2
tp3661
a(I0
I1633
F1.0
S'good'
p3662
I2
tp3663
a(I0
I1668
F1.0
S'good'
p3664
I2
tp3665
a(I0
I1865
F1.0
S'good'
p3666
I2
tp3667
a(I0
I2150
F0.875
S'nice'
p3668
I2
tp3669
a(I0
I2213
F1.0
S'good'
p3670
I2
tp3671
a(I0
I2324
F1.0
S'good'
p3672
I2
tp3673
a(I0
I2445
F1.0
S'good'
p3674
I2
tp3675
a(I0
I2896
F0.875
S'awesome'
p3676
I2
tp3677
a(I0
I2923
F1.0
S'good'
p3678
I2
tp3679
a(I0
I2935
F1.0
S'good'
p3680
I2
tp3681
a(I0
I2975
F1.0
S'good'
p3682
I2
tp3683
a(I0
I3061
F1.0
S'good'
p3684
I2
tp3685
a(I0
I3144
F1.0
S'good'
p3686
I2
tp3687
a(I0
I3144
F1.0
S'good'
p3688
I2
tp3689
a(I0
I3173
F1.0
S'good'
p3690
I2
tp3691
a(I0
I3176
F-0.125
S'overall'
p3692
I2
tp3693
a(I0
I3176
F1.0
S'good'
p3694
I2
tp3695
a(I0
I3203
F0.875
S'amazing'
p3696
I2
tp3697
a(I0
I3205
I0
S's'
p3698
I2
tp3699
a(I0
I3205
F0.875
S'amazing'
p3700
I2
tp3701
a(I0
I3231
I0
S'speed'
p3702
I2
tp3703
a(I0
I3232
F0.875
S'nice'
p3704
I2
tp3705
a(I0
I3256
I0
S'more'
p3706
I2
tp3707
a(I0
I3552
F1.0
S'good'
p3708
I2
tp3709
a(I0
I3955
F1.0
S'good'
p3710
I2
tp3711
a(I0
I3955
F-0.25
S'i'
p3712
I2
tp3713
a(I0
I4072
F1.0
S'good'
p3714
I2
tp3715
a(I0
I4097
F0.875
S'nice'
p3716
I2
tp3717
a(I0
I4242
F1.0
S'good'
p3718
I2
tp3719
a(I0
I4298
F1.0
S'good'
p3720
I2
tp3721
a(I0
I4544
F1.0
S'good'
p3722
I2
tp3723
a(I0
I4749
F0.875
S'nice'
p3724
I2
tp3725
a(I0
I4749
F1.0
S'good'
p3726
I2
tp3727
a(I0
I5134
F1.0
S'good'
p3728
I2
tp3729
a(I0
I5262
F1.0
S'good'
p3730
I2
tp3731
a(I0
I5262
F1.0
S'excellent'
p3732
I2
tp3733
a(I0
I5262
F0.875
S'great'
p3734
I2
tp3735
a(I0
I5437
F1.0
S'good'
p3736
I2
tp3737
a(I0
I5480
F-0.875
S'unsatisfied'
p3738
I2
tp3739
a(I0
I5480
F-1.0
S'worst'
p3740
I2
tp3741
a(I0
I5596
F1.0
S'good'
p3742
I2
tp3743
a(I0
I5700
F-1.0
S'worst'
p3744
I2
tp3745
a(I0
I5816
F-0.25
S'd'
p3746
I2
tp3747
a(I0
I5816
F-0.125
S'next'
p3748
I2
tp3749
a(I0
I5973
F1.0
S'good'
p3750
I2
tp3751
a(I0
I6165
F1.0
S'good'
p3752
I2
tp3753
a(I0
I6165
F0.375
S'satisfied'
p3754
I2
tp3755
a(I0
I6171
F1.0
S'good'
p3756
I2
tp3757
a(I0
I6320
F1.0
S'good'
p3758
I2
tp3759
a(I0
I6391
F1.0
S'good'
p3760
I2
tp3761
a(I0
I6412
F1.0
S'excellent'
p3762
I2
tp3763
a(I0
I6721
F1.0
S'good'
p3764
I2
tp3765
a(I0
I6828
F0.75
S'fantastic'
p3766
I2
tp3767
a(I0
I6856
F1.0
S'good'
p3768
I2
tp3769
a(I0
I6856
F0.875
S'attractive'
p3770
I2
tp3771
a(I0
I7031
F1.0
S'excellent'
p3772
I2
tp3773
a(I0
I7085
F1.0
S'good'
p3774
I2
tp3775
a(I0
I7085
F-0.75
S'short'
p3776
I2
tp3777
a(I0
I190
F1.0
S'good'
p3778
I5
tp3779
a(I0
I201
F1.0
g3634
I5
tp3780
a(I0
I309
F1.0
S'good'
p3781
I5
tp3782
a(I0
I325
F1.0
g3636
I5
tp3783
a(I0
I371
F1.0
S'good'
p3784
I5
tp3785
a(I0
I642
F1.0
S'good'
p3786
I5
tp3787
a(I0
I839
F1.0
g3638
I5
tp3788
a(I0
I898
I-100
S'goodonebest'
p3789
I5
tp3790
a(I0
I952
F1.0
g3640
I5
tp3791
a(I0
I953
F1.0
g3642
I5
tp3792
a(I0
I962
I0
g3644
I5
tp3793
a(I0
I962
F1.0
g3646
I5
tp3794
a(I0
I999
I-100
S'worthawesome'
p3795
I5
tp3796
a(I0
I1154
F1.0
g3648
I5
tp3797
a(I0
I1372
F1.0
g3650
I5
tp3798
a(I0
I1423
F0.875
g3652
I5
tp3799
a(I0
I1461
I-100
S'boxexcellent'
p3800
I5
tp3801
a(I0
I1461
F-0.125
g3654
I5
tp3802
a(I0
I1465
F0.875
g3656
I5
tp3803
a(I0
I1465
F1.0
g3658
I5
tp3804
a(I0
I1486
F-0.75
g3660
I5
tp3805
a(I0
I1633
F1.0
g3662
I5
tp3806
a(I0
I1668
F1.0
g3664
I5
tp3807
a(I0
I1865
F1.0
g3666
I5
tp3808
a(I0
I2150
F0.875
g3668
I5
tp3809
a(I0
I2213
F1.0
g3670
I5
tp3810
a(I0
I2324
F1.0
g3672
I5
tp3811
a(I0
I2445
F1.0
g3674
I5
tp3812
a(I0
I2446
I-100
S'u.'
p3813
I5
tp3814
a(I0
I2446
I-100
S'wonderfull'
p3815
I5
tp3816
a(I0
I2763
I-100
S'goodgoodgoodexcellent'
p3817
I5
tp3818
a(I0
I2861
I-100
S'giftingworst'
p3819
I5
tp3820
a(I0
I2896
F0.875
g3676
I5
tp3821
a(I0
I2923
F1.0
g3678
I5
tp3822
a(I0
I2935
F1.0
g3680
I5
tp3823
a(I0
I2975
F1.0
g3682
I5
tp3824
a(I0
I3061
F1.0
g3684
I5
tp3825
a(I0
I3141
F1.0
S'good'
p3826
I5
tp3827
a(I0
I3144
F1.0
g3686
I5
tp3828
a(I0
I3144
F1.0
g3688
I5
tp3829
a(I0
I3173
F1.0
g3690
I5
tp3830
a(I0
I3176
F-0.125
g3692
I5
tp3831
a(I0
I3176
F1.0
g3694
I5
tp3832
a(I0
I3203
F0.875
g3696
I5
tp3833
a(I0
I3205
I0
g3698
I5
tp3834
a(I0
I3205
F0.875
g3700
I5
tp3835
a(I0
I3205
I-100
S'itbest'
p3836
I5
tp3837
a(I0
I3231
I0
g3702
I5
tp3838
a(I0
I3231
I-100
S'deliveryawesome'
p3839
I5
tp3840
a(I0
I3232
F0.875
g3704
I5
tp3841
a(I0
I3256
I0
g3706
I5
tp3842
a(I0
I3552
F1.0
g3708
I5
tp3843
a(I0
I3731
I-100
S'themgood'
p3844
I5
tp3845
a(I0
I3955
F1.0
g3710
I5
tp3846
a(I0
I3955
F-0.25
g3712
I5
tp3847
a(I0
I4072
F1.0
g3714
I5
tp3848
a(I0
I4097
F0.875
g3716
I5
tp3849
a(I0
I4097
I-100
S'miplz'
p3850
I5
tp3851
a(I0
I4185
F1.0
S'good'
p3852
I5
tp3853
a(I0
I4242
F1.0
g3718
I5
tp3854
a(I0
I4298
F1.0
g3720
I5
tp3855
a(I0
I4544
F1.0
g3722
I5
tp3856
a(I0
I4749
F0.875
g3724
I5
tp3857
a(I0
I4749
F1.0
g3726
I5
tp3858
a(I0
I5015
F1.0
S'good'
p3859
I5
tp3860
a(I0
I5134
F1.0
g3728
I5
tp3861
a(I0
I5262
F1.0
g3730
I5
tp3862
a(I0
I5262
I-100
S'probleman'
p3863
I5
tp3864
a(I0
I5262
F1.0
g3732
I5
tp3865
a(I0
I5262
F0.875
g3734
I5
tp3866
a(I0
I5437
F1.0
g3736
I5
tp3867
a(I0
I5467
F1.0
S'good'
p3868
I5
tp3869
a(I0
I5469
F1.0
S'good'
p3870
I5
tp3871
a(I0
I5480
F-0.875
g3738
I5
tp3872
a(I0
I5480
F-1.0
g3740
I5
tp3873
a(I0
I5596
F1.0
g3742
I5
tp3874
a(I0
I5700
F-1.0
g3744
I5
tp3875
a(I0
I5783
I-100
S'badnice'
p3876
I5
tp3877
a(I0
I5816
F-0.25
g3746
I5
tp3878
a(I0
I5816
F-0.125
g3748
I5
tp3879
a(I0
I5915
F1.0
S'good'
p3880
I5
tp3881
a(I0
I5973
F1.0
g3750
I5
tp3882
a(I0
I6165
F1.0
g3752
I5
tp3883
a(I0
I6165
F0.375
g3754
I5
tp3884
a(I0
I6171
F1.0
g3756
I5
tp3885
a(I0
I6320
F1.0
g3758
I5
tp3886
a(I0
I6391
F1.0
g3760
I5
tp3887
a(I0
I6412
F1.0
g3762
I5
tp3888
a(I0
I6721
F1.0
g3764
I5
tp3889
a(I0
I6828
F0.75
g3766
I5
tp3890
a(I0
I6856
F1.0
g3768
I5
tp3891
a(I0
I6856
F0.875
g3770
I5
tp3892
a(I0
I6973
I-100
S'alldamage'
p3893
I5
tp3894
a(I0
I7031
F1.0
g3772
I5
tp3895
a(I0
I7085
F1.0
g3774
I5
tp3896
a(I0
I7085
F-0.75
g3776
I5
tp3897
a(I0
I7125
F1.0
S'good'
p3898
I5
tp3899
as(S'front'
p3900
S'camera'
p3901
tp3902
(lp3903
(I0
I88
F-0.125
g1316
I6
tp3904
a(I0
I88
I0
g1318
I6
tp3905
a(I0
I287
F-0.875
S'poor'
p3906
I6
tp3907
a(I0
I287
F-0.125
S'front'
p3908
I6
tp3909
a(I0
I478
F0.5
S'second'
p3910
I6
tp3911
a(I0
I596
I0
g1324
I6
tp3912
a(I0
I596
F-0.125
g1326
I6
tp3913
a(I0
I596
F1.0
g1328
I6
tp3914
a(I0
I916
F1.0
g3184
I6
tp3915
a(I0
I1058
F1.0
S'good'
p3916
I6
tp3917
a(I0
I1058
F-0.125
S'front'
p3918
I6
tp3919
a(I0
I1059
F-0.125
S'back'
p3920
I6
tp3921
a(I0
I1059
F1.0
g1330
I6
tp3922
a(I0
I1193
F1.0
S'good'
p3923
I6
tp3924
a(I0
I1280
F-0.125
S'front'
p3925
I6
tp3926
a(I0
I1280
F-0.625
S'average'
p3927
I6
tp3928
a(I0
I1373
F1.0
S'good'
p3929
I6
tp3930
a(I0
I1526
F-0.875
S'poor'
p3931
I6
tp3932
a(I0
I1903
F0.375
S'ok'
p3933
I6
tp3934
a(I0
I1903
F-0.125
S'front'
p3935
I6
tp3936
a(I0
I2021
F-0.125
g1338
I6
tp3937
a(I0
I2021
F1.0
g1340
I6
tp3938
a(I0
I2044
F-0.125
S'front'
p3939
I6
tp3940
a(I0
I2174
F-0.125
S'front'
p3941
I6
tp3942
a(I0
I2175
I0
S'yellowish'
p3943
I6
tp3944
a(I0
I2935
F-0.75
g1346
I6
tp3945
a(I0
I2935
F-0.25
S'i'
p3946
I6
tp3947
a(I0
I3040
F-0.125
S'front'
p3948
I6
tp3949
a(I0
I3040
F-0.625
S'average'
p3950
I6
tp3951
a(I0
I3214
F-0.125
S'front'
p3952
I6
tp3953
a(I0
I3214
F-1.0
S'worst'
p3954
I6
tp3955
a(I0
I3280
F0.875
S'awesome'
p3956
I6
tp3957
a(I0
I3280
F-0.125
S'front'
p3958
I6
tp3959
a(I0
I3280
F1.0
S'good'
p3960
I6
tp3961
a(I0
I3756
F-0.125
S'front'
p3962
I6
tp3963
a(I0
I3912
F-0.875
g3243
I6
tp3964
a(I0
I4163
F1.0
S'good'
p3965
I6
tp3966
a(I0
I4455
F-0.125
g1370
I6
tp3967
a(I0
I4505
I0
g1372
I6
tp3968
a(I0
I4505
F1.0
g1374
I6
tp3969
a(I0
I4505
F0.625
g1376
I6
tp3970
a(I0
I4578
F-1.0
S'bad'
p3971
I6
tp3972
a(I0
I4966
I0
S'rear'
p3973
I6
tp3974
a(I0
I4966
F1.0
S'good'
p3975
I6
tp3976
a(I0
I4966
F-0.125
S'front'
p3977
I6
tp3978
a(I0
I4966
F1.0
S'good'
p3979
I6
tp3980
a(I0
I5115
F-0.125
g1392
I6
tp3981
a(I0
I5269
F-0.125
S'front'
p3982
I6
tp3983
a(I0
I5508
F1.0
S'good'
p3984
I6
tp3985
a(I0
I5508
I0
S'rear'
p3986
I6
tp3987
a(I0
I5508
F1.0
S'good'
p3988
I6
tp3989
a(I0
I5543
F-0.125
g1396
I6
tp3990
a(I0
I5549
F-0.125
S'front'
p3991
I6
tp3992
a(I0
I6085
F0.5
S'reasonable'
p3993
I6
tp3994
a(I0
I6085
F-0.875
S'low'
p3995
I6
tp3996
a(I0
I6214
F-0.125
S'front'
p3997
I6
tp3998
a(I0
I6384
F-0.625
g3265
I6
tp3999
a(I0
I6384
F0.875
S'great'
p4000
I6
tp4001
a(I0
I6409
I0
S'mb'
p4002
I6
tp4003
a(I0
I6422
F0.75
g3269
I6
tp4004
a(I0
I6609
F1.0
S'good'
p4005
I6
tp4006
a(I0
I6822
F0.875
S'nice'
p4007
I6
tp4008
a(I0
I478
F0.5
g3910
I14
tp4009
a(I0
I1059
F-0.125
g3920
I14
tp4010
a(I0
I1193
F1.0
g3923
I14
tp4011
a(I0
I2175
I0
g3943
I14
tp4012
a(I0
I2478
F0.625
S'fine'
p4013
I14
tp4014
a(I0
I2935
F-0.25
g3946
I14
tp4015
a(I0
I6085
F0.5
g3993
I14
tp4016
a(I0
I6384
F0.875
g4000
I14
tp4017
a(I0
I6409
I0
g4002
I14
tp4018
a(I0
I6609
I-100
S'good4'
p4019
I14
tp4020
a(I0
I6822
F0.875
g4007
I14
tp4021
as(S'16'
p4022
S'gb'
p4023
tp4024
(lp4025
(I0
I149
F-0.125
g96
I3
tp4026
a(I0
I172
F-0.25
g39
I3
tp4027
a(I0
I670
F0.375
g98
I3
tp4028
a(I0
I1448
F0.375
S'available'
p4029
I3
tp4030
a(I0
I1604
F-0.875
g102
I3
tp4031
a(I0
I1839
F0.5
S'internal'
p4032
I3
tp4033
a(I0
I1967
F0.125
S'enough'
p4034
I3
tp4035
a(I0
I2424
F0.25
g59
I3
tp4036
a(I0
I2437
F-1.0
S'bad'
p4037
I3
tp4038
a(I0
I3622
F-0.125
g113
I3
tp4039
a(I0
I3622
F0.875
g115
I3
tp4040
a(I0
I3664
F-0.75
S'free'
p4041
I3
tp4042
a(I0
I3713
I0
g117
I3
tp4043
a(I0
I3906
F0.5
S'internal'
p4044
I3
tp4045
a(I0
I4128
F0.5
S'internal'
p4046
I3
tp4047
a(I0
I4506
F0.5
S'internal'
p4048
I3
tp4049
a(I0
I4506
I0
S'claimed'
p4050
I3
tp4051
a(I0
I4759
F0.375
S'available'
p4052
I3
tp4053
a(I0
I5180
F0.375
S'available'
p4054
I3
tp4055
a(I0
I5550
F0.5
S'internal'
p4056
I3
tp4057
a(I0
I6033
F0.25
S'worth'
p4058
I3
tp4059
as(S'heats'
p4060
tp4061
(lp4062
(I0
I995
F1.0
S'good'
p4063
I8
tp4064
as(S'quality'
p4065
S'not'
p4066
S'good'
p4067
tp4068
(lp4069
(I0
I88
F1.0
S'good'
p4070
I0
tp4071
a(I0
I690
F0.625
g3182
I0
tp4072
a(I0
I855
F1.0
S'good'
p4073
I0
tp4074
a(I0
I916
F-0.875
g3186
I0
tp4075
a(I0
I1196
F-1.0
g3189
I0
tp4076
a(I0
I1196
I0
g3191
I0
tp4077
a(I0
I1380
I0
g3195
I0
tp4078
a(I0
I1387
F1.0
S'good'
p4079
I0
tp4080
a(I0
I2021
I0
g3209
I0
tp4081
a(I0
I2202
F1.0
S'good'
p4082
I0
tp4083
a(I0
I2352
F1.0
S'good'
p4084
I0
tp4085
a(I0
I2861
F0.75
S'sound'
p4086
I0
tp4087
a(I0
I3017
F1.0
S'good'
p4088
I0
tp4089
a(I0
I3437
F1.0
S'good'
p4090
I0
tp4091
a(I0
I3437
I0
S'clear'
p4092
I0
tp4093
a(I0
I3534
I0
S'clear'
p4094
I0
tp4095
a(I0
I3724
I-100
S'featurebuilt'
p4096
I0
tp4097
a(I0
I3828
I0
g3239
I0
tp4098
a(I0
I3828
I0
g3241
I0
tp4099
a(I0
I4103
F1.0
S'good'
p4100
I0
tp4101
a(I0
I4143
F1.0
S'good'
p4102
I0
tp4103
a(I0
I4616
F1.0
S'good'
p4104
I0
tp4105
a(I0
I4856
F1.0
S'good'
p4106
I0
tp4107
a(I0
I5805
I0
g2622
I0
tp4108
a(I0
I5805
F1.0
g2624
I0
tp4109
a(I0
I6858
F1.0
g3277
I0
tp4110
as(S'use'
p4111
g32
S'sim'
p4112
tp4113
(lp4114
(I0
I362
F-0.625
g695
I0
tp4115
a(I0
I672
I0
S'u'
p4116
I0
tp4117
a(I0
I785
F0.5
g629
I0
tp4118
a(I0
I1231
I0
g145
I0
tp4119
a(I0
I2408
F0.5
g635
I0
tp4120
a(I0
I2409
F0.5
g637
I0
tp4121
a(I0
I3091
I0
S'normal'
p4122
I0
tp4123
a(I0
I3389
I0
g252
I0
tp4124
a(I0
I3514
F0.5
g171
I0
tp4125
a(I0
I3514
F0.5
g173
I0
tp4126
a(I0
I3936
I0
S'u'
p4127
I0
tp4128
a(I0
I4113
F0.5
g649
I0
tp4129
a(I0
I4413
F0.25
g651
I0
tp4130
a(I0
I4944
I0
g660
I0
tp4131
a(I0
I4977
F0.5
g2338
I0
tp4132
a(I0
I6521
F-0.75
g681
I0
tp4133
a(I0
I6973
F0.5
g687
I0
tp4134
as(S'mother'
p4135
S'board'
p4136
tp4137
(lp4138
(I0
I986
I0
S'mother'
p4139
I0
tp4140
as(S'with'
p4141
S'memory'
p4142
S'card'
p4143
tp4144
(lp4145
(I0
I839
F0.625
g234
I0
tp4146
a(I0
I1234
F0.875
g147
I0
tp4147
a(I0
I1234
I0
g149
I0
tp4148
a(I0
I1234
F0.375
g151
I0
tp4149
a(I0
I1234
F-0.25
g153
I0
tp4150
a(I0
I1234
I0
g241
I0
tp4151
a(I0
I2766
F-0.5
g167
I0
tp4152
a(I0
I3820
I0
g488
I0
tp4153
a(I0
I3820
F-0.5
g490
I0
tp4154
a(I0
I3823
F-0.25
g175
I0
tp4155
a(I0
I5387
I0
g506
I0
tp4156
a(I0
I5550
F0.375
g197
I0
tp4157
a(I0
I7176
F0.25
g524
I0
tp4158
a(I0
I108
F-0.25
g465
I4
tp4159
a(I0
I482
F0.25
g133
I4
tp4160
a(I0
I809
F0.5
g137
I4
tp4161
a(I0
I809
F-0.25
g139
I4
tp4162
a(I0
I839
F0.625
g234
I4
tp4163
a(I0
I966
F-0.25
g143
I4
tp4164
a(I0
I966
I0
g472
I4
tp4165
a(I0
I1234
F0.875
g147
I4
tp4166
a(I0
I1234
I0
g149
I4
tp4167
a(I0
I1234
F0.375
g151
I4
tp4168
a(I0
I1234
F-0.25
g153
I4
tp4169
a(I0
I1234
I0
g241
I4
tp4170
a(I0
I2424
F0.125
g479
I4
tp4171
a(I0
I2766
F-0.5
g167
I4
tp4172
a(I0
I3002
F0.5
g482
I4
tp4173
a(I0
I3220
I0
g484
I4
tp4174
a(I0
I3220
F0.5
g486
I4
tp4175
a(I0
I3820
I0
g488
I4
tp4176
a(I0
I3820
F-0.5
g490
I4
tp4177
a(I0
I3822
F0.5
g260
I4
tp4178
a(I0
I3822
I0
g262
I4
tp4179
a(I0
I3822
F-0.25
g494
I4
tp4180
a(I0
I3823
F-0.25
g175
I4
tp4181
a(I0
I4598
F-0.25
g183
I4
tp4182
a(I0
I4610
I0
g498
I4
tp4183
a(I0
I4765
F-0.5
g500
I4
tp4184
a(I0
I5068
F0.25
g502
I4
tp4185
a(I0
I5086
F0.125
g195
I4
tp4186
a(I0
I5106
F0.125
g278
I4
tp4187
a(I0
I5387
I0
g506
I4
tp4188
a(I0
I5550
F0.375
g197
I4
tp4189
a(I0
I5572
I0
g509
I4
tp4190
a(I0
I6036
F0.125
g511
I4
tp4191
a(I0
I6141
I0
g513
I4
tp4192
a(I0
I6199
F0.375
g205
I4
tp4193
a(I0
I6291
F0.5
g207
I4
tp4194
a(I0
I6471
F-0.375
g517
I4
tp4195
a(I0
I6513
F0.625
g519
I4
tp4196
a(I0
I6513
F0.375
g521
I4
tp4197
a(I0
I6924
I0
g217
I4
tp4198
a(I0
I7176
F0.25
g524
I4
tp4199
a(I0
I108
F-0.25
g465
I10
tp4200
a(I0
I482
F0.25
g133
I10
tp4201
a(I0
I809
F0.5
g137
I10
tp4202
a(I0
I809
F-0.25
g139
I10
tp4203
a(I0
I966
F-0.25
g143
I10
tp4204
a(I0
I1232
F0.5
g3512
I10
tp4205
a(I0
I1232
F0.75
g3514
I10
tp4206
a(I0
I1234
F0.875
g147
I10
tp4207
a(I0
I1234
I0
g149
I10
tp4208
a(I0
I1234
F0.375
g151
I10
tp4209
a(I0
I1234
F-0.25
g153
I10
tp4210
a(I0
I1845
F0.375
g3516
I10
tp4211
a(I0
I1932
F0.125
g161
I10
tp4212
a(I0
I1949
F-0.25
g163
I10
tp4213
a(I0
I2007
F0.5
g3518
I10
tp4214
a(I0
I2007
F0.375
g3520
I10
tp4215
a(I0
I2424
F0.125
g479
I10
tp4216
a(I0
I2436
F0.375
g3522
I10
tp4217
a(I0
I2534
F0.5
g3524
I10
tp4218
a(I0
I2766
F-0.5
g167
I10
tp4219
a(I0
I2863
F0.5
g3526
I10
tp4220
a(I0
I3118
F0.5
g3528
I10
tp4221
a(I0
I3220
F0.5
g486
I10
tp4222
a(I0
I3611
F0.75
g3322
I10
tp4223
a(I0
I3812
F0.5
g3531
I10
tp4224
a(I0
I3819
F0.375
g3533
I10
tp4225
a(I0
I3820
I0
g488
I10
tp4226
a(I0
I3820
F-0.5
g490
I10
tp4227
a(I0
I3822
F-0.25
g494
I10
tp4228
a(I0
I3823
F-0.25
g175
I10
tp4229
a(I0
I3875
F0.375
S'available'
p4230
I10
tp4231
a(I0
I4128
I0
g3535
I10
tp4232
a(I0
I4422
F-0.25
g3336
I10
tp4233
a(I0
I4497
F0.75
g3339
I10
tp4234
a(I0
I4598
F-0.25
g183
I10
tp4235
a(I0
I4626
I0
g191
I10
tp4236
a(I0
I4765
F-0.5
g500
I10
tp4237
a(I0
I4778
I-100
S'internl'
p4238
I10
tp4239
a(I0
I5068
F0.25
g502
I10
tp4240
a(I0
I5086
F0.125
g195
I10
tp4241
a(I0
I5178
F0.5
S'expandable'
p4242
I10
tp4243
a(I0
I5264
F0.5
g3537
I10
tp4244
a(I0
I5296
F1.0
g3541
I10
tp4245
a(I0
I5387
I0
g506
I10
tp4246
a(I0
I5550
F0.375
g197
I10
tp4247
a(I0
I5564
F0.375
S'available'
p4248
I10
tp4249
a(I0
I5572
I0
g509
I10
tp4250
a(I0
I5843
F-0.875
S'low'
p4251
I10
tp4252
a(I0
I5849
F0.5
g201
I10
tp4253
a(I0
I6141
I0
g513
I10
tp4254
a(I0
I6199
F0.375
g205
I10
tp4255
a(I0
I6291
F0.5
g207
I10
tp4256
a(I0
I6292
F0.375
S'loosing'
p4257
I10
tp4258
a(I0
I6319
F0.5
g3545
I10
tp4259
a(I0
I6512
I0
S'inbuilt'
p4260
I10
tp4261
a(I0
I6512
F-0.625
S'inadequate'
p4262
I10
tp4263
a(I0
I6513
F0.625
g519
I10
tp4264
a(I0
I6513
F0.375
g521
I10
tp4265
a(I0
I6612
F0.25
g211
I10
tp4266
a(I0
I6782
F0.5
S'expandable'
p4267
I10
tp4268
a(I0
I6844
I0
S'inbuilt'
p4269
I10
tp4270
a(I0
I6924
I0
g217
I10
tp4271
a(I0
I7093
F0.5
g3547
I10
tp4272
a(I0
I7093
F0.375
g3549
I10
tp4273
a(I0
I7176
F0.25
g524
I10
tp4274
a(I0
I7177
I0
S'u'
p4275
I10
tp4276
a(I0
I7182
I-100
S'launchingnicebut'
p4277
I10
tp4278
as(S'xiaomi'
p4279
S'redmi'
p4280
S'note'
p4281
tp4282
(lp4283
(I0
I1783
F-0.875
S'wrong'
p4284
I0
tp4285
a(I0
I1783
F-0.875
g4284
I0
tp4286
a(I0
I6119
F-0.125
S'next'
p4287
I0
tp4288
a(I0
I349
I-100
S'disappointement'
p4289
I0
tp4290
a(I0
I378
F0.5
g6
I0
tp4291
a(I0
I702
I-100
S'timeredmi'
p4292
I0
tp4293
a(I0
I950
I0
S'more'
p4294
I0
tp4295
a(I0
I1015
F-0.625
S'average'
p4296
I0
tp4297
a(I0
I1219
F-1.0
g8
I0
tp4298
a(I0
I1628
I-100
S'goodredmi'
p4299
I0
tp4300
a(I0
I1628
F1.0
g10
I0
tp4301
a(I0
I1904
I0
S'many'
p4302
I0
tp4303
a(I0
I2038
F1.0
S'excellent'
p4304
I0
tp4305
a(I0
I2066
F-0.25
S'previous'
p4306
I0
tp4307
a(I0
I2067
F-0.25
S'previous'
p4308
I0
tp4309
a(I0
I2069
F-0.25
S'previous'
p4310
I0
tp4311
a(I0
I2112
I-100
S'hesitationredmi'
p4312
I0
tp4313
a(I0
I2925
F1.0
g12
I0
tp4314
a(I0
I3278
I-100
S'expectationsredmi'
p4315
I0
tp4316
a(I0
I3355
F-0.75
S'free'
p4317
I0
tp4318
a(I0
I3594
F0.375
g3152
I0
tp4319
a(I0
I3750
F0.5
S'loved'
p4320
I0
tp4321
a(I0
I3836
I0
S'more'
p4322
I0
tp4323
a(I0
I4179
F0.375
S'favorite'
p4324
I0
tp4325
a(I0
I4815
F-0.625
S'new'
p4326
I0
tp4327
a(I0
I4815
F0.25
S'able'
p4328
I0
tp4329
a(I0
I4859
F0.625
S'successful'
p4330
I0
tp4331
a(I0
I5263
F-0.25
g14
I0
tp4332
a(I0
I5595
F0.875
S'nice'
p4333
I0
tp4334
a(I0
I5869
I-100
S'experiencre'
p4335
I0
tp4336
a(I0
I6251
F0.75
S'fantastic'
p4337
I0
tp4338
a(I0
I6309
F0.125
g16
I0
tp4339
a(I0
I6309
I0
g18
I0
tp4340
a(I0
I6982
F1.0
S'best'
p4341
I0
tp4342
a(I0
I168
I-100
S'disappointmen'
p4343
I0
tp4344
a(I0
I771
F-1.0
S'worst'
p4345
I0
tp4346
a(I0
I1292
F-0.5
S'heavy'
p4347
I0
tp4348
a(I0
I1525
F0.375
S'available'
p4349
I0
tp4350
a(I0
I1602
F1.0
S'better'
p4351
I0
tp4352
a(I0
I1783
F-0.875
g4284
I0
tp4353
a(I0
I2097
I0
S's'
p4354
I0
tp4355
a(I0
I2845
I0
S'n'
p4356
I0
tp4357
a(I0
I3220
I-100
S'alwys'
p4358
I0
tp4359
a(I0
I3246
I0
S'u'
p4360
I0
tp4361
a(I0
I3752
F1.0
S'good'
p4362
I0
tp4363
a(I0
I3897
F0.5
S'true'
p4364
I0
tp4365
a(I0
I4034
F-0.75
S'difficult'
p4366
I0
tp4367
a(I0
I4034
F-0.875
S'hard'
p4368
I0
tp4369
a(I0
I4080
I-100
S'untill'
p4370
I0
tp4371
a(I0
I4618
F-0.375
S'die'
p4372
I0
tp4373
a(I0
I4618
F-0.875
S'hard'
p4374
I0
tp4375
a(I0
I5392
I0
S'u'
p4376
I0
tp4377
a(I0
I5681
F-0.25
S'i'
p4378
I0
tp4379
a(I0
I6119
F-0.125
g4287
I0
tp4380
a(I0
I6167
F-0.75
S'unable'
p4381
I0
tp4382
a(I0
I6456
F1.0
S'good'
p4383
I0
tp4384
a(I0
I6474
I0
S'big'
p4385
I0
tp4386
a(I0
I6787
I0
S'sure'
p4387
I0
tp4388
a(I0
I7035
F0.875
S'happy'
p4389
I0
tp4390
a(I0
I7035
F0.125
S'amazon'
p4391
I0
tp4392
a(I0
I1219
F-1.0
g8
I2
tp4393
a(I0
I1309
F-0.125
S'hesitate'
p4394
I2
tp4395
a(I0
I1904
I0
g4302
I2
tp4396
a(I0
I2066
F-0.25
g4306
I2
tp4397
a(I0
I2067
F-0.25
g4308
I2
tp4398
a(I0
I2069
F-0.25
g4310
I2
tp4399
a(I0
I2844
F0.375
S'heating'
p4400
I2
tp4401
a(I0
I2955
F1.0
S'better'
p4402
I2
tp4403
a(I0
I3277
F0.125
S'mobile'
p4404
I2
tp4405
a(I0
I3750
F0.5
g4320
I2
tp4406
a(I0
I3881
F1.0
S'better'
p4407
I2
tp4408
a(I0
I4435
F1.0
S'good'
p4409
I2
tp4410
a(I0
I4815
F-0.625
g4326
I2
tp4411
a(I0
I4859
F0.625
g4330
I2
tp4412
a(I0
I5062
F-0.375
S'same'
p4413
I2
tp4414
a(I0
I5062
F-0.625
S'other'
p4415
I2
tp4416
a(I0
I5128
F1.0
S'good'
p4417
I2
tp4418
a(I0
I5595
F0.875
g4333
I2
tp4419
a(I0
I6268
I-100
S'trueanyone'
p4420
I2
tp4421
a(I0
I6268
F-0.625
S'want'
p4422
I2
tp4423
a(I0
I6309
F0.125
g16
I2
tp4424
a(I0
I6309
I0
g18
I2
tp4425
a(I0
I6536
I0
S'guys'
p4426
I2
tp4427
a(I0
I38
I-100
S'redme'
p4428
I1
tp4429
a(I0
I82
F0.75
S'glad'
p4430
I1
tp4431
a(I0
I378
F0.5
g6
I1
tp4432
a(I0
I950
I0
g4294
I1
tp4433
a(I0
I1015
F-0.625
g4296
I1
tp4434
a(I0
I1573
I0
S'mi'
p4435
I1
tp4436
a(I0
I1628
F1.0
g10
I1
tp4437
a(I0
I1734
F-0.25
S'i'
p4438
I1
tp4439
a(I0
I1845
I0
S'mi'
p4440
I1
tp4441
a(I0
I1881
F0.5
S'second'
p4442
I1
tp4443
a(I0
I1881
F-0.125
S'overall'
p4444
I1
tp4445
a(I0
I1881
F1.0
S'good'
p4446
I1
tp4447
a(I0
I2038
F1.0
g4304
I1
tp4448
a(I0
I2044
I-100
S'simxiaomi'
p4449
I1
tp4450
a(I0
I2044
F0.375
S'sleek'
p4451
I1
tp4452
a(I0
I2925
F1.0
g12
I1
tp4453
a(I0
I3355
F-0.75
g4317
I1
tp4454
a(I0
I3594
F0.375
g3152
I1
tp4455
a(I0
I3595
F-0.375
S'same'
p4456
I1
tp4457
a(I0
I3607
F-0.625
S'other'
p4458
I1
tp4459
a(I0
I3607
F0.125
S'mobile'
p4460
I1
tp4461
a(I0
I3836
I0
g4322
I1
tp4462
a(I0
I4179
F0.375
g4324
I1
tp4463
a(I0
I4815
F0.25
g4328
I1
tp4464
a(I0
I5263
F-0.25
g14
I1
tp4465
a(I0
I5440
I0
S'mi'
p4466
I1
tp4467
a(I0
I5575
I0
S'mi'
p4468
I1
tp4469
a(I0
I5831
I-100
S'aswome'
p4470
I1
tp4471
a(I0
I6175
I-100
S'redimi'
p4472
I1
tp4473
a(I0
I6251
F0.75
g4337
I1
tp4474
a(I0
I6496
I0
S'mi'
p4475
I1
tp4476
a(I0
I6585
F0.5
S'possible'
p4477
I1
tp4478
a(I0
I6597
F1.0
S'better'
p4479
I1
tp4480
a(I0
I6597
F0.125
S'equal'
p4481
I1
tp4482
a(I0
I6766
F0.375
S'much'
p4483
I1
tp4484
a(I0
I6982
F1.0
g4341
I1
tp4485
a(I0
I7055
I0
S'mi'
p4486
I1
tp4487
as(S'sound'
p4488
S'quality'
p4489
tp4490
(lp4491
(I0
I87
F0.75
S'sound'
p4492
I5
tp4493
a(I0
I105
F0.75
g3178
I5
tp4494
a(I0
I856
F0.75
S'sound'
p4495
I5
tp4496
a(I0
I899
F0.75
S'sound'
p4497
I5
tp4498
a(I0
I975
I0
g2604
I5
tp4499
a(I0
I1014
F-1.0
S'bad'
p4500
I5
tp4501
a(I0
I1054
F1.0
S'good'
p4502
I5
tp4503
a(I0
I1408
F-0.875
g3197
I5
tp4504
a(I0
I1408
F0.75
g3199
I5
tp4505
a(I0
I1408
F0.375
g3201
I5
tp4506
a(I0
I2861
F0.75
g4086
I5
tp4507
a(I0
I3184
F-0.875
S'poor'
p4508
I5
tp4509
a(I0
I3248
F1.0
g3224
I5
tp4510
a(I0
I3248
F0.875
g3226
I5
tp4511
a(I0
I3248
F1.0
g3228
I5
tp4512
a(I0
I3437
F1.0
g4090
I5
tp4513
a(I0
I3437
I0
g4092
I5
tp4514
a(I0
I3825
F1.0
S'good'
p4515
I5
tp4516
a(I0
I4010
F0.75
S'sound'
p4517
I5
tp4518
a(I0
I4257
F0.75
S'sound'
p4519
I5
tp4520
a(I0
I4257
F0.875
S'awesome'
p4521
I5
tp4522
a(I0
I5057
F0.75
S'sound'
p4523
I5
tp4524
a(I0
I5057
F-0.625
S'average'
p4525
I5
tp4526
a(I0
I5559
F1.0
S'good'
p4527
I5
tp4528
a(I0
I5960
F0.75
S'sound'
p4529
I5
tp4530
a(I0
I6553
F1.0
S'good'
p4531
I5
tp4532
a(I0
I6968
F0.75
S'sound'
p4533
I5
tp4534
a(I0
I6968
F-0.875
S'poor'
p4535
I5
tp4536
a(I0
I891
F0.375
S'audible'
p4537
I15
tp4538
a(I0
I1014
F-1.0
g4500
I15
tp4539
a(I0
I1039
F1.0
S'excellent'
p4540
I15
tp4541
a(I0
I1054
F1.0
g4502
I15
tp4542
a(I0
I1719
F-0.875
S'poor'
p4543
I15
tp4544
a(I0
I1867
I-100
S'hmm'
p4545
I15
tp4546
a(I0
I2132
F1.0
S'good'
p4547
I15
tp4548
a(I0
I2409
I0
S'mi'
p4549
I15
tp4550
a(I0
I2991
F0.875
S'awesome'
p4551
I15
tp4552
a(I0
I3218
F1.0
S'good'
p4553
I15
tp4554
a(I0
I3218
F0.875
S'nice'
p4555
I15
tp4556
a(I0
I3784
F1.0
S'good'
p4557
I15
tp4558
a(I0
I3985
F1.0
S'good'
p4559
I15
tp4560
a(I0
I4296
F0.75
S'perfect'
p4561
I15
tp4562
a(I0
I4911
F-0.875
S'low'
p4563
I15
tp4564
a(I0
I5096
F-0.25
S'magic'
p4565
I15
tp4566
a(I0
I5189
I0
S's'
p4567
I15
tp4568
a(I0
I6067
F-0.875
S'low'
p4569
I15
tp4570
a(I0
I6225
I-100
S'phonethe'
p4571
I15
tp4572
a(I0
I6553
F1.0
g4531
I15
tp4573
a(I0
I6930
F-0.625
S'average'
p4574
I15
tp4575
a(I0
I7148
F1.0
S'good'
p4576
I15
tp4577
as(S'note'
p4578
g91
g2459
tp4579
(lp4580
(I0
I82
F0.75
g4430
I0
tp4581
a(I0
I378
F0.5
g6
I0
tp4582
a(I0
I950
I0
g4294
I0
tp4583
a(I0
I1015
F-0.625
g4296
I0
tp4584
a(I0
I1573
I0
g4435
I0
tp4585
a(I0
I1734
F-0.25
g4438
I0
tp4586
a(I0
I1845
I0
g4440
I0
tp4587
a(I0
I1881
F0.5
g4442
I0
tp4588
a(I0
I1881
F-0.125
g4444
I0
tp4589
a(I0
I1881
F1.0
g4446
I0
tp4590
a(I0
I2038
F1.0
g4304
I0
tp4591
a(I0
I2044
F0.375
g4451
I0
tp4592
a(I0
I2925
F1.0
g12
I0
tp4593
a(I0
I3354
F0.5
S'larger'
p4594
I0
tp4595
a(I0
I3355
F-0.75
g4317
I0
tp4596
a(I0
I3594
F0.375
g3152
I0
tp4597
a(I0
I4179
F0.375
g4324
I0
tp4598
a(I0
I4815
F0.25
g4328
I0
tp4599
a(I0
I5263
F-0.25
g14
I0
tp4600
a(I0
I5440
I0
g4466
I0
tp4601
a(I0
I5575
I0
g4468
I0
tp4602
a(I0
I6251
F0.75
g4337
I0
tp4603
a(I0
I6496
I0
g4475
I0
tp4604
a(I0
I6585
F0.5
g4477
I0
tp4605
a(I0
I6597
F1.0
g4479
I0
tp4606
a(I0
I6597
F0.125
g4481
I0
tp4607
a(I0
I7055
I0
g4486
I0
tp4608
as(S'print'
p4609
S'sensor'
p4610
S'works'
p4611
tp4612
(lp4613
(I0
I2357
F1.0
g3081
I0
tp4614
a(I0
I269
F0.875
S'nice'
p4615
I0
tp4616
a(I0
I672
F1.0
S'good'
p4617
I0
tp4618
a(I0
I1479
F-0.625
g3077
I0
tp4619
a(I0
I1643
I0
S'finger'
p4620
I0
tp4621
a(I0
I2357
F1.0
g3081
I0
tp4622
a(I0
I2559
F-0.25
S'i'
p4623
I0
tp4624
a(I0
I2559
I0
S'finger'
p4625
I0
tp4626
a(I0
I3359
F0.875
g3085
I0
tp4627
a(I0
I3929
F0.5
g3087
I0
tp4628
a(I0
I4486
F0.875
g3091
I0
tp4629
a(I0
I4925
F0.875
g3099
I0
tp4630
a(I0
I5430
F-0.75
S'absolute'
p4631
I0
tp4632
a(I0
I5560
F-0.625
g3103
I0
tp4633
a(I0
I6251
I0
S'finger'
p4634
I0
tp4635
a(I0
I6431
I0
S'finger'
p4636
I0
tp4637
a(I0
I6716
F0.75
g3115
I0
tp4638
a(I0
I6749
F-1.0
g3117
I0
tp4639
a(I0
I7127
F0.875
S'superb'
p4640
I0
tp4641
a(I0
I7193
I0
S'dinner'
p4642
I0
tp4643
a(I0
I2040
F1.0
S'good'
p4644
I3
tp4645
a(I0
I3679
F0.5
S'practical'
p4646
I3
tp4647
a(I0
I5340
F0.875
S'awesome'
p4648
I3
tp4649
a(I0
I269
F0.875
g4615
I7
tp4650
a(I0
I337
I-100
S'goodfinger'
p4651
I7
tp4652
a(I0
I672
F1.0
g4617
I7
tp4653
a(I0
I1324
F0.375
S'available'
p4654
I7
tp4655
a(I0
I1479
F-0.625
g3077
I7
tp4656
a(I0
I1510
F0.875
S'happy'
p4657
I7
tp4658
a(I0
I1777
F-0.375
S'stop'
p4659
I7
tp4660
a(I0
I2357
F1.0
g3081
I7
tp4661
a(I0
I2628
I0
S'light'
p4662
I7
tp4663
a(I0
I3359
F0.875
g3085
I7
tp4664
a(I0
I3364
I0
S'f'
p4665
I7
tp4666
a(I0
I3929
F0.5
g3087
I7
tp4667
a(I0
I3943
F1.0
S'good'
p4668
I7
tp4669
a(I0
I4486
F0.875
g3091
I7
tp4670
a(I0
I4925
F0.875
g3099
I7
tp4671
a(I0
I5171
F0.875
S'awesome'
p4672
I7
tp4673
a(I0
I5430
F-0.75
g4631
I7
tp4674
a(I0
I5560
F-0.625
g3103
I7
tp4675
a(I0
I6716
F0.75
g3115
I7
tp4676
a(I0
I6749
F-1.0
g3117
I7
tp4677
a(I0
I7127
F0.875
g4640
I7
tp4678
a(I0
I103
F0.875
g2221
I1
tp4679
a(I0
I1643
I0
g4620
I1
tp4680
a(I0
I2559
F-0.25
g4623
I1
tp4681
a(I0
I2559
I0
g4625
I1
tp4682
a(I0
I3071
F0.875
S'great'
p4683
I1
tp4684
a(I0
I3123
I0
S'finger'
p4685
I1
tp4686
a(I0
I3808
I0
S'finger'
p4687
I1
tp4688
a(I0
I6251
I0
g4634
I1
tp4689
a(I0
I6431
I0
g4636
I1
tp4690
a(I0
I7193
I0
g4642
I1
tp4691
as(S'battery'
p4692
S'life'
p4693
tp4694
(lp4695
(I0
I207
I0
S'more'
p4696
I3
tp4697
a(I0
I208
F1.0
S'good'
p4698
I3
tp4699
a(I0
I595
F-0.5
S'longer'
p4700
I3
tp4701
a(I0
I653
F-0.625
S'average'
p4702
I3
tp4703
a(I0
I1008
F0.125
S'mobile'
p4704
I3
tp4705
a(I0
I1149
F1.0
S'excellent'
p4706
I3
tp4707
a(I0
I1843
F-0.5
S'extra'
p4708
I3
tp4709
a(I0
I1843
F-0.5
S'ordinary'
p4710
I3
tp4711
a(I0
I1973
F0.625
S'okay'
p4712
I3
tp4713
a(I0
I2485
F-0.25
S'battery'
p4714
I3
tp4715
a(I0
I3091
I0
S'massive'
p4716
I3
tp4717
a(I0
I3273
F-0.5
S'long'
p4718
I3
tp4719
a(I0
I3501
F1.0
S'good'
p4720
I3
tp4721
a(I0
I3891
F0.875
S'great'
p4722
I3
tp4723
a(I0
I3891
F-0.25
S'battery'
p4724
I3
tp4725
a(I0
I4132
F0.875
S'amazing'
p4726
I3
tp4727
a(I0
I4252
I-100
S'tremandous'
p4728
I3
tp4729
a(I0
I4362
F-0.625
S'last'
p4730
I3
tp4731
a(I0
I4462
F0.875
S'awesome'
p4732
I3
tp4733
a(I0
I4746
I-100
S'gudno'
p4734
I3
tp4735
a(I0
I4851
F0.625
S'superior'
p4736
I3
tp4737
a(I0
I4884
F0.875
S'amazing'
p4738
I3
tp4739
a(I0
I5200
F-0.5
S'long'
p4740
I3
tp4741
a(I0
I5295
F0.25
S'able'
p4742
I3
tp4743
a(I0
I5295
F1.0
S'good'
p4744
I3
tp4745
a(I0
I5530
F1.0
S'good'
p4746
I3
tp4747
a(I0
I5716
F0.875
S'awesome'
p4748
I3
tp4749
a(I0
I6580
F-0.625
S'last'
p4750
I3
tp4751
a(I0
I6580
I0
S'least'
p4752
I3
tp4753
a(I0
I6580
F0.375
S'phenomenal'
p4754
I3
tp4755
a(I0
I6816
F0.875
S'superb'
p4756
I3
tp4757
a(I0
I7148
F1.0
S'good'
p4758
I3
tp4759
a(I0
I7190
F0.75
S'wonderful'
p4760
I3
tp4761
as(S'looks'
p4762
tp4763
(lp4764
(I0
I562
F1.0
S'good'
p4765
I14
tp4766
a(I0
I822
F1.0
S'best'
p4767
I14
tp4768
a(I0
I835
F1.0
S'good'
p4769
I14
tp4770
a(I0
I1160
F1.0
S'good'
p4771
I14
tp4772
a(I0
I1336
F0.875
S'nice'
p4773
I14
tp4774
a(I0
I1538
F0.625
S'sexy'
p4775
I14
tp4776
a(I0
I1956
I-100
S'awsum2'
p4777
I14
tp4778
a(I0
I2383
F0.875
S'great'
p4779
I14
tp4780
a(I0
I2625
F0.125
S'mobile'
p4781
I14
tp4782
a(I0
I2625
F0.75
S'gorgeous'
p4783
I14
tp4784
a(I0
I2902
F0.875
S'great'
p4785
I14
tp4786
a(I0
I2922
F-1.0
S'bad'
p4787
I14
tp4788
a(I0
I2922
F-0.875
S'cheap'
p4789
I14
tp4790
a(I0
I3416
F-0.625
S'quite'
p4791
I14
tp4792
a(I0
I3416
I0
S'different'
p4793
I14
tp4794
a(I0
I3458
F0.875
S'great'
p4795
I14
tp4796
a(I0
I3810
F0.625
S'fine'
p4797
I14
tp4798
a(I0
I3810
F0.75
S'premium'
p4799
I14
tp4800
a(I0
I4027
F1.0
S'good'
p4801
I14
tp4802
a(I0
I4027
I0
S'user'
p4803
I14
tp4804
a(I0
I4027
F0.625
S'friendly'
p4805
I14
tp4806
a(I0
I4266
F1.0
S'good'
p4807
I14
tp4808
a(I0
I4428
F0.875
S'awesome'
p4809
I14
tp4810
a(I0
I4429
F1.0
S'better'
p4811
I14
tp4812
a(I0
I4486
F0.875
S'decent'
p4813
I14
tp4814
a(I0
I5661
I-100
S'goodgreat'
p4815
I14
tp4816
a(I0
I5661
I-100
S'qualityvivid'
p4817
I14
tp4818
a(I0
I5780
F0.125
S'mobile'
p4819
I14
tp4820
a(I0
I5809
F1.0
S'good'
p4821
I14
tp4822
a(I0
I5979
F1.0
S'best'
p4823
I14
tp4824
a(I0
I5979
F0.375
S'sleek'
p4825
I14
tp4826
a(I0
I6143
F0.5
S'speedy'
p4827
I14
tp4828
a(I0
I6143
F0.75
S'premium'
p4829
I14
tp4830
a(I0
I6993
F0.125
S'mobile'
p4831
I14
tp4832
as(S'finger'
p4833
S'print'
p4834
S'sensor'
p4835
tp4836
(lp4837
(I0
I269
F0.875
g4615
I0
tp4838
a(I0
I534
I0
S'update'
p4839
I0
tp4840
a(I0
I672
F1.0
g4617
I0
tp4841
a(I0
I1479
F-0.625
g3077
I0
tp4842
a(I0
I1643
I0
g4620
I0
tp4843
a(I0
I1942
F-0.875
S'rare'
p4844
I0
tp4845
a(I0
I2326
F0.75
S'perfect'
p4846
I0
tp4847
a(I0
I2357
F1.0
g3081
I0
tp4848
a(I0
I2558
F-0.125
S'next'
p4849
I0
tp4850
a(I0
I2559
F-0.25
g4623
I0
tp4851
a(I0
I2559
I0
g4625
I0
tp4852
a(I0
I2802
F0.5
S'touch'
p4853
I0
tp4854
a(I0
I3359
F0.875
g3085
I0
tp4855
a(I0
I3929
F0.5
g3087
I0
tp4856
a(I0
I4486
F0.875
g3091
I0
tp4857
a(I0
I4818
I-100
S'ly'
p4858
I0
tp4859
a(I0
I4925
F0.875
g3099
I0
tp4860
a(I0
I5540
F1.0
S'good'
p4861
I0
tp4862
a(I0
I5560
F-0.625
g3103
I0
tp4863
a(I0
I6251
I0
g4634
I0
tp4864
a(I0
I6431
I0
g4636
I0
tp4865
a(I0
I6716
F0.75
g3115
I0
tp4866
a(I0
I6749
F-1.0
g3117
I0
tp4867
a(I0
I7127
F0.875
g4640
I0
tp4868
a(I0
I103
F0.875
g2221
I0
tp4869
a(I0
I327
I0
g2225
I0
tp4870
a(I0
I534
I0
g4839
I0
tp4871
a(I0
I1643
I0
g4620
I0
tp4872
a(I0
I1942
F-0.875
g4844
I0
tp4873
a(I0
I2326
F0.75
g4846
I0
tp4874
a(I0
I2558
F-0.125
g4849
I0
tp4875
a(I0
I2559
F-0.25
g4623
I0
tp4876
a(I0
I2559
I0
g4625
I0
tp4877
a(I0
I2802
F0.5
g4853
I0
tp4878
a(I0
I3071
F0.875
g4683
I0
tp4879
a(I0
I3123
I0
g4685
I0
tp4880
a(I0
I3808
I0
g4687
I0
tp4881
a(I0
I5346
F-0.625
g2257
I0
tp4882
a(I0
I5540
F1.0
g4861
I0
tp4883
a(I0
I6251
I0
g4634
I0
tp4884
a(I0
I6431
I0
g4636
I0
tp4885
a(I0
I327
I0
g2225
I0
tp4886
a(I0
I534
I0
g4839
I0
tp4887
a(I0
I1273
F0.375
S'registered'
p4888
I0
tp4889
a(I0
I1273
F0.625
S'alive'
p4890
I0
tp4891
a(I0
I1320
I0
S'multiple'
p4892
I0
tp4893
a(I0
I1480
F-0.875
S'wrong'
p4894
I0
tp4895
a(I0
I1927
F1.0
S'good'
p4896
I0
tp4897
a(I0
I1942
F-0.875
g4844
I0
tp4898
a(I0
I2326
F0.75
g4846
I0
tp4899
a(I0
I2558
F-0.125
g4849
I0
tp4900
a(I0
I2802
F0.5
g4853
I0
tp4901
a(I0
I3027
F0.875
S'awesome'
p4902
I0
tp4903
a(I0
I3561
I0
S'scanner'
p4904
I0
tp4905
a(I0
I5171
F-0.25
S'i'
p4906
I0
tp4907
a(I0
I5346
F-0.625
g2257
I0
tp4908
a(I0
I5540
F1.0
g4861
I0
tp4909
as(S'flash'
p4910
S'sales'
p4911
tp4912
(lp4913
(I0
I957
F0.625
S'first'
p4914
I0
tp4915
a(I0
I957
F-0.5
S'flash'
p4916
I0
tp4917
a(I0
I1691
F-0.5
S'flash'
p4918
I0
tp4919
a(I0
I1768
F-0.5
S'flash'
p4920
I0
tp4921
a(I0
I1770
F-0.5
S'flash'
p4922
I0
tp4923
a(I0
I1770
F-0.625
S'useless'
p4924
I0
tp4925
a(I0
I2048
F-0.5
S'flash'
p4926
I0
tp4927
a(I0
I2908
F-0.5
S'flash'
p4928
I0
tp4929
a(I0
I3132
F-0.5
S'flash'
p4930
I0
tp4931
a(I0
I3133
F-0.5
S'flash'
p4932
I0
tp4933
a(I0
I3495
F-0.5
S'flash'
p4934
I0
tp4935
a(I0
I3754
F-0.5
S'flash'
p4936
I0
tp4937
a(I0
I4166
F-0.625
g830
I0
tp4938
a(I0
I4166
I0
S'most'
p4939
I0
tp4940
a(I0
I4548
F-0.5
S'flash'
p4941
I0
tp4942
a(I0
I4838
F-0.5
S'flash'
p4943
I0
tp4944
a(I0
I4840
F-0.5
S'flash'
p4945
I0
tp4946
a(I0
I5974
F-0.5
S'flash'
p4947
I0
tp4948
a(I0
I6045
F-0.875
g970
I0
tp4949
a(I0
I6395
F-0.5
S'flash'
p4950
I0
tp4951
a(I0
I6494
F-0.5
S'flash'
p4952
I0
tp4953
a(I0
I6535
F-0.5
S'flash'
p4954
I0
tp4955
a(I0
I6812
F-0.5
S'flash'
p4956
I0
tp4957
as(S'mega'
p4958
S'pixel'
p4959
tp4960
(lp4961
(I0
I4410
F0.875
S'nice'
p4962
I0
tp4963
a(I0
I4410
F1.0
S'good'
p4964
I0
tp4965
a(I0
I5034
I0
S'pixel'
p4966
I0
tp4967
a(I0
I5093
F0.625
S'prime'
p4968
I0
tp4969
as(S'fine'
p4970
tp4971
(lp4972
(I0
I6243
F-0.625
S'new'
p4973
I15
tp4974
as(S'for'
p4975
S'redmi'
p4976
S'note'
p4977
tp4978
(lp4979
(I0
I1015
F-0.625
g4296
I0
tp4980
a(I0
I1904
I0
g4302
I0
tp4981
a(I0
I2925
F1.0
g12
I0
tp4982
a(I0
I3750
F0.5
g4320
I0
tp4983
a(I0
I3836
I0
g4322
I0
tp4984
a(I0
I5263
F-0.25
g14
I0
tp4985
as(S'gorilla'
p4986
S'glass'
p4987
S'protection'
p4988
tp4989
(lp4990
(I0
I599
I0
S'tempered'
p4991
I0
tp4992
a(I0
I3351
F0.25
S'special'
p4993
I0
tp4994
as(S'get'
p4995
S'at'
p4996
S'price'
p4997
tp4998
(lp4999
(I0
I245
F-0.875
S'low'
p5000
I0
tp5001
a(I0
I494
F1.0
S'best'
p5002
I0
tp5003
a(I0
I494
F0.125
S'equal'
p5004
I0
tp5005
a(I0
I971
F1.0
S'best'
p5006
I0
tp5007
a(I0
I1377
F1.0
S'best'
p5008
I0
tp5009
a(I0
I2754
I0
S'u'
p5010
I0
tp5011
a(I0
I2754
F-0.125
S'cant'
p5012
I0
tp5013
a(I0
I2754
F-0.125
S'such'
p5014
I0
tp5015
a(I0
I2861
F-0.125
S'such'
p5016
I0
tp5017
a(I0
I4828
F0.875
S'decent'
p5018
I0
tp5019
a(I0
I4828
F1.0
S'good'
p5020
I0
tp5021
a(I0
I7086
F-0.875
S'cheaper'
p5022
I0
tp5023
as(S'superb'
p5024
tp5025
(lp5026
(I0
I229
I0
S'comfortable'
p5027
I0
tp5028
a(I0
I2594
F0.5
S'touch'
p5029
I0
tp5030
a(I0
I3211
F0.125
S'mobile'
p5031
I0
tp5032
a(I0
I3861
F0.125
S'mobile'
p5033
I0
tp5034
a(I0
I5621
F-0.125
S'overall'
p5035
I0
tp5036
as(S'user'
p5037
tp5038
(lp5039
(I0
I153
F-0.875
S'hard'
p5040
I9
tp5041
a(I0
I848
I0
S'normal'
p5042
I9
tp5043
a(I0
I848
F1.0
S'best'
p5044
I9
tp5045
a(I0
I897
I0
S'handy'
p5046
I9
tp5047
a(I0
I1351
F-0.625
S'other'
p5048
I9
tp5049
a(I0
I1989
F0.75
S'proper'
p5050
I9
tp5051
a(I0
I2078
F-0.5
S'heavy'
p5052
I9
tp5053
a(I0
I2408
F-0.5
S'heavy'
p5054
I9
tp5055
a(I0
I2408
I0
S'normal'
p5056
I9
tp5057
a(I0
I2827
F0.75
S'wonderful'
p5058
I9
tp5059
a(I0
I3386
F0.75
S'easy'
p5060
I9
tp5061
a(I0
I4277
F-0.875
S'rough'
p5062
I9
tp5063
a(I0
I4290
F-0.875
S'rough'
p5064
I9
tp5065
a(I0
I4290
I0
S'u'
p5066
I9
tp5067
a(I0
I5048
I0
S'normal'
p5068
I9
tp5069
a(I0
I5097
F-0.5
S'heavy'
p5070
I9
tp5071
a(I0
I5167
F0.125
S'enough'
p5072
I9
tp5073
a(I0
I5167
F-0.5
S'heavy'
p5074
I9
tp5075
a(I0
I5167
F-0.625
S'last'
p5076
I9
tp5077
a(I0
I5187
F-0.5
S'heavy'
p5078
I9
tp5079
a(I0
I5296
F-0.875
S'low'
p5080
I9
tp5081
a(I0
I5296
I0
S'total'
p5082
I9
tp5083
a(I0
I5559
F0.5
S'daily'
p5084
I9
tp5085
a(I0
I5560
F0.5
S'daily'
p5086
I9
tp5087
a(I0
I5560
F1.0
S'best'
p5088
I9
tp5089
a(I0
I5564
F0.375
S'available'
p5090
I9
tp5091
a(I0
I6601
F-0.5
S'regular'
p5092
I9
tp5093
a(I0
I6601
F-0.5
S'heavy'
p5094
I9
tp5095
as(S'days'
p5096
S'of'
p5097
S'use'
p5098
tp5099
(lp5100
(I0
I659
I0
S'few'
p5101
I0
tp5102
a(I0
I659
F0.375
S'much'
p5103
I0
tp5104
a(I0
I1962
F-0.125
g1258
I0
tp5105
a(I0
I2087
F-0.5
S'disappointed'
p5106
I0
tp5107
a(I0
I2896
I0
g1260
I0
tp5108
a(I0
I2896
F-0.125
g1262
I0
tp5109
a(I0
I4362
I0
S'normal'
p5110
I0
tp5111
a(I0
I4414
F-0.625
g1266
I0
tp5112
a(I0
I5300
F0.375
g1991
I0
tp5113
as(S'great'
p5114
tp5115
(lp5116
(I0
I1379
I0
S'specs'
p5117
I5
tp5118
a(I0
I1385
I-100
S'incrediblea'
p5119
I5
tp5120
as(S'display'
p5121
tp5122
(lp5123
(I0
I46
F-0.375
S'same'
p5124
I13
tp5125
a(I0
I55
I0
S'clear'
p5126
I13
tp5127
a(I0
I86
I-100
S'1080p'
p5128
I13
tp5129
a(I0
I166
F-0.75
S'little'
p5130
I13
tp5131
a(I0
I166
F-0.875
S'unhappy'
p5132
I13
tp5133
a(I0
I166
F0.625
S'first'
p5134
I13
tp5135
a(I0
I387
F1.0
S'good'
p5136
I13
tp5137
a(I0
I458
F1.0
S'good'
p5138
I13
tp5139
a(I0
I637
F0.5
S'crisp'
p5140
I13
tp5141
a(I0
I978
F0.75
S'whole'
p5142
I13
tp5143
a(I0
I1368
F1.0
S'good'
p5144
I13
tp5145
a(I0
I1409
I0
S'more'
p5146
I13
tp5147
a(I0
I1638
I0
S'sharps'
p5148
I13
tp5149
a(I0
I1815
F0.875
S'nice'
p5150
I13
tp5151
a(I0
I1843
F-0.625
S'sharp'
p5152
I13
tp5153
a(I0
I1843
F-0.625
S'average'
p5154
I13
tp5155
a(I0
I2059
F-0.875
S'low'
p5156
I13
tp5157
a(I0
I2126
F1.0
S'good'
p5158
I13
tp5159
a(I0
I2185
F0.625
S'super'
p5160
I13
tp5161
a(I0
I2185
I0
S'clear'
p5162
I13
tp5163
a(I0
I2465
F1.0
S'best'
p5164
I13
tp5165
a(I0
I2682
F0.875
S'nice'
p5166
I13
tp5167
a(I0
I2687
F0.5
S'crisp'
p5168
I13
tp5169
a(I0
I2689
F1.0
S'best'
p5170
I13
tp5171
a(I0
I2805
F1.0
S'better'
p5172
I13
tp5173
a(I0
I2843
I-100
S'tha'
p5174
I13
tp5175
a(I0
I2947
F1.0
S'good'
p5176
I13
tp5177
a(I0
I2991
F0.875
S'awesome'
p5178
I13
tp5179
a(I0
I3091
F1.0
S'good'
p5180
I13
tp5181
a(I0
I3346
I-100
S'great4'
p5182
I13
tp5183
a(I0
I3346
F-0.625
S'sharp'
p5184
I13
tp5185
a(I0
I4020
F1.0
S'good'
p5186
I13
tp5187
a(I0
I4104
F-0.625
S'stung'
p5188
I13
tp5189
a(I0
I4164
F1.0
S'good'
p5190
I13
tp5191
a(I0
I4322
F0.5
S'entire'
p5192
I13
tp5193
a(I0
I4677
F1.0
S'good'
p5194
I13
tp5195
a(I0
I4896
F1.0
S'good'
p5196
I13
tp5197
a(I0
I5120
I0
S'bright'
p5198
I13
tp5199
a(I0
I5146
F0.5
S'crisp'
p5200
I13
tp5201
a(I0
I5429
F1.0
S'good'
p5202
I13
tp5203
a(I0
I5576
F1.0
S'good'
p5204
I13
tp5205
a(I0
I5582
F1.0
S'good'
p5206
I13
tp5207
a(I0
I5661
I-100
S'alsobut'
p5208
I13
tp5209
a(I0
I5854
F1.0
S'good'
p5210
I13
tp5211
a(I0
I6405
F0.375
S'design'
p5212
I13
tp5213
a(I0
I6428
F0.875
S'great'
p5214
I13
tp5215
a(I0
I6931
F1.0
S'good'
p5216
I13
tp5217
a(I0
I7148
F1.0
S'good'
p5218
I13
tp5219
a(I0
I7148
F1.0
S'good'
p5220
I13
tp5221
as(S'good'
p5222
S'battery'
p5223
S'back'
p5224
tp5225
(lp5226
(I0
I270
F1.0
S'good'
p5227
I0
tp5228
a(I0
I1105
F1.0
S'good'
p5229
I0
tp5230
a(I0
I1105
F1.0
S'good'
p5231
I0
tp5232
a(I0
I1939
F1.0
S'good'
p5233
I0
tp5234
a(I0
I1953
F0.875
S'amazing'
p5235
I0
tp5236
a(I0
I2408
F-0.5
S'heavy'
p5237
I0
tp5238
a(I0
I2408
F-0.125
S'huge'
p5239
I0
tp5240
a(I0
I2408
F-0.625
S'last'
p5241
I0
tp5242
a(I0
I2409
F1.0
S'good'
p5243
I0
tp5244
a(I0
I2435
F1.0
S'good'
p5245
I0
tp5246
a(I0
I2565
F1.0
S'good'
p5247
I0
tp5248
a(I0
I2860
F1.0
S'good'
p5249
I0
tp5250
a(I0
I2947
F1.0
S'good'
p5251
I0
tp5252
a(I0
I2948
F1.0
S'good'
p5253
I0
tp5254
a(I0
I3010
F1.0
S'good'
p5255
I0
tp5256
a(I0
I3144
F1.0
S'good'
p5257
I0
tp5258
a(I0
I3256
F1.0
S'good'
p5259
I0
tp5260
a(I0
I3280
F0.875
S'nice'
p5261
I0
tp5262
a(I0
I3340
F1.0
S'good'
p5263
I0
tp5264
a(I0
I3993
F1.0
S'excellent'
p5265
I0
tp5266
a(I0
I4721
F1.0
S'excellent'
p5267
I0
tp5268
a(I0
I5458
F1.0
S'good'
p5269
I0
tp5270
a(I0
I5578
F1.0
S'good'
p5271
I0
tp5272
a(I0
I5605
F1.0
S'good'
p5273
I0
tp5274
a(I0
I5792
F1.0
S'good'
p5275
I0
tp5276
a(I0
I5892
F1.0
S'good'
p5277
I0
tp5278
a(I0
I6060
F1.0
S'good'
p5279
I0
tp5280
a(I0
I6251
F1.0
S'good'
p5281
I0
tp5282
a(I0
I6251
F0.875
S'great'
p5283
I0
tp5284
a(I0
I6251
F0.125
S'mobile'
p5285
I0
tp5286
a(I0
I6330
F1.0
S'good'
p5287
I0
tp5288
a(I0
I6330
F0.125
S'mobile'
p5289
I0
tp5290
a(I0
I6330
F0.625
S'smooth'
p5291
I0
tp5292
a(I0
I6330
F1.0
S'good'
p5293
I0
tp5294
a(I0
I6424
F1.0
S'good'
p5295
I0
tp5296
a(I0
I6608
F1.0
S'good'
p5297
I0
tp5298
a(I0
I6772
F-0.5
S'long'
p5299
I0
tp5300
a(I0
I6772
F-0.625
S'lasting'
p5301
I0
tp5302
a(I0
I7081
F0.875
S'great'
p5303
I0
tp5304
as(S'rear'
p5305
S'camera'
p5306
tp5307
(lp5308
(I0
I88
F-0.125
g1316
I6
tp5309
a(I0
I88
I0
g1318
I6
tp5310
a(I0
I96
F-0.125
g1320
I6
tp5311
a(I0
I596
I0
g1324
I6
tp5312
a(I0
I596
F-0.125
g1326
I6
tp5313
a(I0
I596
F1.0
g1328
I6
tp5314
a(I0
I1220
I0
S'rear'
p5315
I6
tp5316
a(I0
I1231
F1.0
S'good'
p5317
I6
tp5318
a(I0
I2470
F1.0
S'good'
p5319
I6
tp5320
a(I0
I2790
F1.0
S'good'
p5321
I6
tp5322
a(I0
I2935
F-0.75
g1346
I6
tp5323
a(I0
I2935
I0
S'mp'
p5324
I6
tp5325
a(I0
I3524
I0
S'rear'
p5326
I6
tp5327
a(I0
I3570
F0.875
g1360
I6
tp5328
a(I0
I3570
I0
g1362
I6
tp5329
a(I0
I3781
F-0.625
g1364
I6
tp5330
a(I0
I3781
F-0.125
g1366
I6
tp5331
a(I0
I4505
I0
g1372
I6
tp5332
a(I0
I4505
F1.0
g1374
I6
tp5333
a(I0
I4505
F0.625
g1376
I6
tp5334
a(I0
I4966
I0
g3973
I6
tp5335
a(I0
I4966
F1.0
g3975
I6
tp5336
a(I0
I4966
F-0.125
g3977
I6
tp5337
a(I0
I4966
F1.0
g3979
I6
tp5338
a(I0
I5034
I0
g1386
I6
tp5339
a(I0
I5034
F0.5
g1388
I6
tp5340
a(I0
I5154
F-0.5
S'slow'
p5341
I6
tp5342
a(I0
I5214
I0
g1394
I6
tp5343
a(I0
I5424
F-1.0
S'bad'
p5344
I6
tp5345
a(I0
I5442
I0
S'rear'
p5346
I6
tp5347
a(I0
I5442
F1.0
S'excellent'
p5348
I6
tp5349
a(I0
I5508
F1.0
g3984
I6
tp5350
a(I0
I5508
I0
g3986
I6
tp5351
a(I0
I5508
F1.0
g3988
I6
tp5352
a(I0
I5573
F-0.5
S'disappointed'
p5353
I6
tp5354
a(I0
I6092
F0.875
S'great'
p5355
I6
tp5356
a(I0
I6092
I0
S'rear'
p5357
I6
tp5358
a(I0
I6095
I0
S'rear'
p5359
I6
tp5360
a(I0
I6107
I0
S'rear'
p5361
I6
tp5362
a(I0
I6143
I0
S'rear'
p5363
I6
tp5364
a(I0
I6193
I0
S'rear'
p5365
I6
tp5366
a(I0
I6193
F1.0
S'good'
p5367
I6
tp5368
a(I0
I7076
F0.875
S'nice'
p5369
I6
tp5370
as(S'and'
p5371
S'memory'
p5372
S'card'
p5373
tp5374
(lp5375
(I0
I482
F0.25
g133
I0
tp5376
a(I0
I809
F0.5
g137
I0
tp5377
a(I0
I809
F-0.25
g139
I0
tp5378
a(I0
I839
F0.625
g234
I0
tp5379
a(I0
I966
F-0.25
g143
I0
tp5380
a(I0
I966
I0
g472
I0
tp5381
a(I0
I1234
F0.875
g147
I0
tp5382
a(I0
I1234
I0
g149
I0
tp5383
a(I0
I1234
F0.375
g151
I0
tp5384
a(I0
I1234
F-0.25
g153
I0
tp5385
a(I0
I1234
I0
g241
I0
tp5386
a(I0
I2424
F0.125
g479
I0
tp5387
a(I0
I2766
F-0.5
g167
I0
tp5388
a(I0
I3002
F0.5
g482
I0
tp5389
a(I0
I3823
F-0.25
g175
I0
tp5390
a(I0
I4598
F-0.25
g183
I0
tp5391
a(I0
I4610
I0
g498
I0
tp5392
a(I0
I5086
F0.125
g195
I0
tp5393
a(I0
I5106
F0.125
g278
I0
tp5394
a(I0
I5550
F0.375
g197
I0
tp5395
a(I0
I6036
F0.125
g511
I0
tp5396
a(I0
I6199
F0.375
g205
I0
tp5397
a(I0
I6291
F0.5
g207
I0
tp5398
a(I0
I6471
F-0.375
g517
I0
tp5399
a(I0
I6924
I0
g217
I0
tp5400
as(S'value'
p5401
S'for'
p5402
S'money'
p5403
tp5404
(lp5405
(I0
I127
F0.5
S'high'
p5406
I4
tp5407
a(I0
I327
F1.0
S'best'
p5408
I4
tp5409
a(I0
I1054
F1.0
S'good'
p5410
I4
tp5411
a(I0
I1367
F1.0
S'good'
p5412
I4
tp5413
a(I0
I1536
F-0.125
S'overall'
p5414
I4
tp5415
a(I0
I1680
I0
S'only'
p5416
I4
tp5417
a(I0
I1689
I0
S'total'
p5418
I4
tp5419
a(I0
I1696
I0
S'total'
p5420
I4
tp5421
a(I0
I1997
F0.875
S'amazing'
p5422
I4
tp5423
a(I0
I3510
F1.0
S'excellent'
p5424
I4
tp5425
a(I0
I4002
F1.0
S'good'
p5426
I4
tp5427
a(I0
I4095
F1.0
S'good'
p5428
I4
tp5429
a(I0
I4557
F1.0
S'good'
p5430
I4
tp5431
a(I0
I4961
F1.0
S'best'
p5432
I4
tp5433
a(I0
I5192
F1.0
S'good'
p5434
I4
tp5435
a(I0
I6051
F1.0
S'good'
p5436
I4
tp5437
a(I0
I6129
F1.0
S'best'
p5438
I4
tp5439
a(I0
I6539
F0.875
S'great'
p5440
I4
tp5441
a(I0
I6888
F0.375
S'satisfied'
p5442
I4
tp5443
a(I0
I6888
F0.875
S'great'
p5444
I4
tp5445
a(I0
I7054
F1.0
S'good'
p5446
I4
tp5447
a(I0
I7082
F0.5
S'true'
p5448
I4
tp5449
a(I0
I127
F0.5
g5406
I7
tp5450
a(I0
I327
F1.0
g5408
I7
tp5451
a(I0
I521
F1.0
S'best'
p5452
I7
tp5453
a(I0
I1212
F0.875
S'great'
p5454
I7
tp5455
a(I0
I1367
F1.0
g5412
I7
tp5456
a(I0
I1536
F-0.125
g5414
I7
tp5457
a(I0
I1689
I0
g5418
I7
tp5458
a(I0
I1696
I0
g5420
I7
tp5459
a(I0
I1997
F0.875
g5422
I7
tp5460
a(I0
I2826
I-100
S'warmbest'
p5461
I7
tp5462
a(I0
I2829
I-100
S'internetits'
p5463
I7
tp5464
a(I0
I3018
F1.0
S'good'
p5465
I7
tp5466
a(I0
I3510
F1.0
g5424
I7
tp5467
a(I0
I4002
F1.0
g5426
I7
tp5468
a(I0
I4095
F1.0
g5428
I7
tp5469
a(I0
I4961
F1.0
g5432
I7
tp5470
a(I0
I5192
F1.0
g5434
I7
tp5471
a(I0
I5273
I-100
S'patheticgood'
p5472
I7
tp5473
a(I0
I6051
F1.0
g5436
I7
tp5474
a(I0
I6129
F1.0
g5438
I7
tp5475
a(I0
I6311
I-100
S'somethingbest'
p5476
I7
tp5477
a(I0
I6539
F0.875
g5440
I7
tp5478
a(I0
I6753
F0.25
S'worth'
p5479
I7
tp5480
a(I0
I6888
F0.375
g5442
I7
tp5481
a(I0
I6888
F0.875
g5444
I7
tp5482
a(I0
I7054
F1.0
g5446
I7
tp5483
a(I0
I7082
F0.5
g5448
I7
tp5484
as(S'hybrid'
p5485
S'sim'
p5486
S'slot'
p5487
tp5488
(lp5489
(I0
I1008
F0.5
g236
I0
tp5490
a(I0
I1008
I0
g238
I0
tp5491
a(I0
I1231
I0
g145
I0
tp5492
a(I0
I1316
I0
g243
I0
tp5493
a(I0
I2179
F0.5
g165
I0
tp5494
a(I0
I3388
F0.75
g330
I0
tp5495
a(I0
I3388
F0.5
g332
I0
tp5496
a(I0
I3388
I0
g334
I0
tp5497
a(I0
I3389
I0
g252
I0
tp5498
a(I0
I3643
I0
g338
I0
tp5499
a(I0
I3679
F0.5
g340
I0
tp5500
a(I0
I3679
I0
g342
I0
tp5501
a(I0
I3794
F0.5
g256
I0
tp5502
a(I0
I3820
F0.5
g258
I0
tp5503
a(I0
I4213
I0
g268
I0
tp5504
a(I0
I4371
F-0.625
g272
I0
tp5505
a(I0
I4625
I0
g351
I0
tp5506
a(I0
I4723
I0
g353
I0
tp5507
a(I0
I5612
I0
g286
I0
tp5508
as(S'final'
p5509
S'verdict'
p5510
tp5511
(lp5512
(I0
I380
F-0.625
S'final'
p5513
I0
tp5514
a(I0
I2638
I0
S'u'
p5515
I0
tp5516
a(I0
I2638
F-0.625
S'final'
p5517
I0
tp5518
as(S'use'
p5519
S'memory'
p5520
S'card'
p5521
tp5522
(lp5523
(I0
I482
F0.5
g2301
I0
tp5524
a(I0
I482
F0.25
g133
I0
tp5525
a(I0
I482
I0
g2304
I0
tp5526
a(I0
I482
I0
g2306
I0
tp5527
a(I0
I482
F0.5
g2308
I0
tp5528
a(I0
I672
I0
g4116
I0
tp5529
a(I0
I1234
F0.875
g147
I0
tp5530
a(I0
I1234
I0
g149
I0
tp5531
a(I0
I1234
F0.375
g151
I0
tp5532
a(I0
I1234
F-0.25
g153
I0
tp5533
a(I0
I1234
I0
g241
I0
tp5534
a(I0
I2766
F-0.5
g167
I0
tp5535
a(I0
I3091
I0
g4122
I0
tp5536
a(I0
I3220
I0
g484
I0
tp5537
a(I0
I3220
F0.5
g486
I0
tp5538
a(I0
I3823
F-0.25
g175
I0
tp5539
a(I0
I3992
I0
g2329
I0
tp5540
a(I0
I3992
F0.5
g2331
I0
tp5541
a(I0
I4598
F-0.25
g183
I0
tp5542
a(I0
I5068
F0.25
g502
I0
tp5543
a(I0
I5550
F0.375
g197
I0
tp5544
a(I0
I5572
I0
g509
I0
tp5545
a(I0
I6036
F0.125
g511
I0
tp5546
a(I0
I6199
F0.375
g205
I0
tp5547
a(I0
I6471
F-0.375
g517
I0
tp5548
a(I0
I6513
F0.625
g519
I0
tp5549
a(I0
I6513
F0.375
g521
I0
tp5550
a(I0
I6924
I0
g217
I0
tp5551
a(I0
I7176
F0.25
g524
I0
tp5552
as(S'at'
p5553
S'price'
p5554
S'range'
p5555
tp5556
(lp5557
(I0
I245
F-0.875
g5000
I0
tp5558
a(I0
I3243
F-0.875
S'low'
p5559
I0
tp5560
a(I0
I3888
F-0.5
S'unbelievable'
p5561
I0
tp5562
a(I0
I4331
F0.125
S'mobile'
p5563
I0
tp5564
a(I0
I5735
F1.0
S'best'
p5565
I0
tp5566
a(I0
I6823
F0.375
S'available'
p5567
I0
tp5568
as(S'second'
p5569
S'sim'
p5570
tp5571
(lp5572
(I0
I108
F0.5
g2680
I0
tp5573
a(I0
I559
F0.5
g621
I0
tp5574
a(I0
I680
F0.5
g623
I0
tp5575
a(I0
I691
F0.5
S'second'
p5576
I0
tp5577
a(I0
I769
F0.5
g627
I0
tp5578
a(I0
I966
F0.5
g141
I0
tp5579
a(I0
I2138
F0.5
S'second'
p5580
I0
tp5581
a(I0
I2179
F0.5
g165
I0
tp5582
a(I0
I2874
F0.5
g323
I0
tp5583
a(I0
I3388
F0.75
g330
I0
tp5584
a(I0
I3388
F0.5
g332
I0
tp5585
a(I0
I3388
I0
g334
I0
tp5586
a(I0
I3794
F0.5
g256
I0
tp5587
a(I0
I4177
F0.5
g2873
I0
tp5588
a(I0
I4626
F0.5
g193
I0
tp5589
a(I0
I5312
I0
S'hybrid'
p5590
I0
tp5591
a(I0
I5449
F0.5
g2738
I0
tp5592
a(I0
I5572
F0.5
g284
I0
tp5593
a(I0
I6013
F0.5
g361
I0
tp5594
a(I0
I6036
F0.5
g203
I0
tp5595
a(I0
I6635
F0.5
g2754
I0
tp5596
a(I0
I6993
F0.5
g689
I0
tp5597
a(I0
I7152
F0.5
S'second'
p5598
I0
tp5599
as(S'u'
p5600
S'can'
p5601
S'use'
p5602
tp5603
(lp5604
(I0
I482
I-100
S'butif'
p5605
I0
tp5606
a(I0
I482
F0.5
g2301
I0
tp5607
a(I0
I482
I0
g2304
I0
tp5608
a(I0
I482
I0
g2306
I0
tp5609
a(I0
I482
F0.5
g2308
I0
tp5610
a(I0
I672
I0
g4116
I0
tp5611
a(I0
I2044
F-0.25
S'ane'
p5612
I0
tp5613
a(I0
I2093
I0
S'u'
p5614
I0
tp5615
a(I0
I3091
I0
g4122
I0
tp5616
a(I0
I3992
I0
g2329
I0
tp5617
a(I0
I3992
F0.5
g2331
I0
tp5618
a(I0
I6762
F-0.125
S'cant'
p5619
I0
tp5620
as(S'on'
p5621
S'redmi'
p5622
S'note'
p5623
tp5624
(lp5625
(I0
I378
F0.5
g6
I0
tp5626
a(I0
I950
I0
g4294
I0
tp5627
a(I0
I1219
F-1.0
g8
I0
tp5628
a(I0
I1628
F1.0
g10
I0
tp5629
a(I0
I1904
I0
g4302
I0
tp5630
a(I0
I2066
F-0.25
g4306
I0
tp5631
a(I0
I2069
F-0.25
g4310
I0
tp5632
a(I0
I2925
F1.0
g12
I0
tp5633
a(I0
I3355
F-0.75
g4317
I0
tp5634
a(I0
I4179
F0.375
g4324
I0
tp5635
a(I0
I4815
F-0.625
g4326
I0
tp5636
a(I0
I4815
F0.25
g4328
I0
tp5637
a(I0
I4859
F0.625
g4330
I0
tp5638
a(I0
I5263
F-0.25
g14
I0
tp5639
a(I0
I5595
F0.875
g4333
I0
tp5640
a(I0
I6251
F0.75
g4337
I0
tp5641
a(I0
I6309
F0.125
g16
I0
tp5642
a(I0
I6309
I0
g18
I0
tp5643
as(S'pixel'
p5644
S'density'
p5645
tp5646
(lp5647
(I0
I2686
I0
S'pixel'
p5648
I0
tp5649
a(I0
I3399
I0
S'pixel'
p5650
I0
tp5651
as(S'sim'
p5652
S'and'
p5653
S'sd'
p5654
tp5655
(lp5656
(I0
I1125
F0.5
g704
I0
tp5657
a(I0
I1982
F0.5
g2372
I0
tp5658
a(I0
I2179
F0.5
g165
I0
tp5659
a(I0
I4792
F-0.75
g2405
I0
tp5660
a(I0
I4977
F0.5
g2338
I0
tp5661
a(I0
I5225
F0.5
g2409
I0
tp5662
a(I0
I6175
F0.5
g679
I0
tp5663
a(I0
I6175
F-0.25
g2905
I0
tp5664
a(I0
I6399
F-0.75
g2419
I0
tp5665
a(I0
I6563
F-0.25
g2913
I0
tp5666
a(I0
I6838
F0.25
S'able'
p5667
I0
tp5668
a(I0
I6838
I0
S'active'
p5669
I0
tp5670
a(I0
I6838
I0
S'active'
p5671
I0
tp5672
a(I0
I7056
F0.5
g2428
I0
tp5673
as(S'add'
p5674
S'to'
p5675
S'cart'
p5676
tp5677
(lp5678
(I0
I2242
F0.625
S'tried'
p5679
I0
tp5680
a(I0
I4960
F0.125
S'pressed'
p5681
I0
tp5682
as(S'in'
p5683
S'price'
p5684
S'range'
p5685
tp5686
(lp5687
(I0
I245
F-0.875
g5000
I0
tp5688
a(I0
I2830
I0
S'more'
p5689
I0
tp5690
a(I0
I3243
F-0.875
g5559
I0
tp5691
a(I0
I3888
F-0.5
g5561
I0
tp5692
a(I0
I4331
F0.125
g5563
I0
tp5693
a(I0
I5271
F-0.375
S'same'
p5694
I0
tp5695
a(I0
I6823
F0.375
g5567
I0
tp5696
a(I0
I245
F-0.875
g5000
I13
tp5697
a(I0
I2830
I0
g5689
I13
tp5698
a(I0
I3243
F-0.875
g5559
I13
tp5699
a(I0
I3888
F-0.5
g5561
I13
tp5700
a(I0
I4331
F0.125
g5563
I13
tp5701
a(I0
I5271
F-0.375
g5694
I13
tp5702
a(I0
I5735
F1.0
g5565
I13
tp5703
a(I0
I6823
F0.375
g5567
I13
tp5704
as(S'micro'
p5705
S'sd'
p5706
S'card'
p5707
tp5708
(lp5709
(I0
I1234
I0
g241
I0
tp5710
a(I0
I1234
F-0.5
S'separate'
p5711
I0
tp5712
a(I0
I1982
F-0.375
g2850
I0
tp5713
a(I0
I2858
F-0.25
g2862
I0
tp5714
a(I0
I3389
F-0.25
g2867
I0
tp5715
a(I0
I4371
I0
g270
I0
tp5716
a(I0
I6175
F-0.25
g2905
I0
tp5717
a(I0
I6228
F-0.625
S'new'
p5718
I0
tp5719
a(I0
I6377
F-0.25
g2907
I0
tp5720
a(I0
I6563
F-0.25
g2913
I0
tp5721
a(I0
I7138
I0
g2834
I0
tp5722
a(I0
I1234
F-0.5
g5711
I0
tp5723
a(I0
I2858
F-0.25
g2862
I0
tp5724
a(I0
I3389
F-0.25
g2867
I0
tp5725
a(I0
I6175
F-0.25
g2905
I0
tp5726
a(I0
I6228
F-0.625
g5718
I0
tp5727
a(I0
I6377
F-0.25
g2907
I0
tp5728
a(I0
I6563
F-0.25
g2913
I0
tp5729
as(S'heating'
p5730
S'problem'
p5731
S'while'
p5732
tp5733
(lp5734
(I0
I328
F-0.75
g3469
I0
tp5735
a(I0
I1551
F-0.875
g3477
I0
tp5736
a(I0
I1807
F0.625
g3482
I0
tp5737
a(I0
I3220
I0
g3447
I0
tp5738
a(I0
I4120
F0.75
g3453
I0
tp5739
a(I0
I4414
F-0.625
g3457
I0
tp5740
a(I0
I5053
I-100
S'aux'
p5741
I0
tp5742
as(g91
S'gb'
p5743
S'ram'
p5744
tp5745
(lp5746
(I0
I171
I0
g37
I0
tp5747
a(I0
I555
F0.875
g43
I0
tp5748
a(I0
I2021
F1.0
g51
I0
tp5749
a(I0
I2034
F1.0
S'best'
p5750
I0
tp5751
a(I0
I2034
I0
S'rubbish'
p5752
I0
tp5753
a(I0
I2277
F1.0
S'better'
p5754
I0
tp5755
a(I0
I2408
I0
g57
I0
tp5756
a(I0
I3184
F0.875
g63
I0
tp5757
a(I0
I4415
F-0.25
S'ram'
p5758
I0
tp5759
a(I0
I4454
F1.0
S'best'
p5760
I0
tp5761
a(I0
I5109
I0
g75
I0
tp5762
a(I0
I6562
F-0.5
g79
I0
tp5763
a(I0
I6966
F-0.25
g83
I0
tp5764
a(I0
I6966
F0.875
g85
I0
tp5765
a(I0
I7091
I0
S't'
p5766
I0
tp5767
a(I0
I7178
F0.875
g87
I0
tp5768
a(I0
I7178
F0.875
g89
I0
tp5769
a(I0
I171
I0
g37
I9
tp5770
a(I0
I172
F-0.25
g39
I9
tp5771
a(I0
I172
I-100
S'romwithin'
p5772
I9
tp5773
a(I0
I284
F-0.75
g41
I9
tp5774
a(I0
I555
F0.875
g43
I9
tp5775
a(I0
I847
F0.25
g45
I9
tp5776
a(I0
I847
F-0.5
g47
I9
tp5777
a(I0
I921
F-0.75
g49
I9
tp5778
a(I0
I2021
F1.0
g51
I9
tp5779
a(I0
I2034
F1.0
g5750
I9
tp5780
a(I0
I2034
I0
g5752
I9
tp5781
a(I0
I2277
F1.0
g5754
I9
tp5782
a(I0
I2346
I0
g53
I9
tp5783
a(I0
I2390
F0.375
g55
I9
tp5784
a(I0
I2408
I0
g57
I9
tp5785
a(I0
I2424
F0.25
g59
I9
tp5786
a(I0
I2536
F0.375
S'available'
p5787
I9
tp5788
a(I0
I2721
I0
g61
I9
tp5789
a(I0
I2814
I0
S'gb'
p5790
I9
tp5791
a(I0
I2814
F-0.75
S'free'
p5792
I9
tp5793
a(I0
I3184
F0.875
g63
I9
tp5794
a(I0
I3220
I-100
S'free7'
p5795
I9
tp5796
a(I0
I3247
F-0.5
g65
I9
tp5797
a(I0
I3247
F-0.5
g67
I9
tp5798
a(I0
I3333
I-100
S'in2'
p5799
I9
tp5800
a(I0
I3578
F-0.75
g69
I9
tp5801
a(I0
I3597
F0.375
g71
I9
tp5802
a(I0
I3600
F0.375
g73
I9
tp5803
a(I0
I3604
F0.375
S'available'
p5804
I9
tp5805
a(I0
I3876
I0
S'mb'
p5806
I9
tp5807
a(I0
I3876
F0.5
S'internal'
p5808
I9
tp5809
a(I0
I4149
I0
S'more'
p5810
I9
tp5811
a(I0
I4390
F-0.75
S'free'
p5812
I9
tp5813
a(I0
I4390
F0.375
S'available'
p5814
I9
tp5815
a(I0
I4415
F-0.25
g5758
I9
tp5816
a(I0
I4454
F1.0
g5760
I9
tp5817
a(I0
I4454
I-100
S'buythree'
p5818
I9
tp5819
a(I0
I4764
F0.375
S'available'
p5820
I9
tp5821
a(I0
I5109
I0
g75
I9
tp5822
a(I0
I5144
F0.375
S'available'
p5823
I9
tp5824
a(I0
I6054
I-100
S'antu'
p5825
I9
tp5826
a(I0
I6234
F0.875
g77
I9
tp5827
a(I0
I6562
F-0.5
g79
I9
tp5828
a(I0
I6579
F-0.375
g81
I9
tp5829
a(I0
I6966
F-0.25
g83
I9
tp5830
a(I0
I6966
F0.875
g85
I9
tp5831
a(I0
I7091
I0
g5766
I9
tp5832
a(I0
I7178
I-100
S'ya3gb'
p5833
I9
tp5834
a(I0
I7178
F0.875
g87
I9
tp5835
a(I0
I7178
F0.875
g89
I9
tp5836
as(S'battery'
p5837
S'backup'
p5838
S'and'
p5839
tp5840
(lp5841
(I0
I681
F-0.5
S'heavy'
p5842
I0
tp5843
a(I0
I1035
F0.875
S'awesome'
p5844
I0
tp5845
a(I0
I1035
I0
S'normal'
p5846
I0
tp5847
a(I0
I1105
F1.0
g5229
I0
tp5848
a(I0
I1105
F1.0
g5231
I0
tp5849
a(I0
I1435
F0.75
S'outstanding'
p5850
I0
tp5851
a(I0
I1939
F1.0
g5233
I0
tp5852
a(I0
I2065
I0
S'useful'
p5853
I0
tp5854
a(I0
I2095
F0.875
S'great'
p5855
I0
tp5856
a(I0
I2229
F-0.875
S'poor'
p5857
I0
tp5858
a(I0
I2314
F0.875
S'superb'
p5859
I0
tp5860
a(I0
I2409
F1.0
g5243
I0
tp5861
a(I0
I2947
F1.0
g5251
I0
tp5862
a(I0
I2948
F1.0
g5253
I0
tp5863
a(I0
I2948
F1.0
S'good'
p5864
I0
tp5865
a(I0
I2976
F-0.5
S'less'
p5866
I0
tp5867
a(I0
I2976
I0
S'more'
p5868
I0
tp5869
a(I0
I3280
F0.875
g5261
I0
tp5870
a(I0
I3821
I0
S'cool'
p5871
I0
tp5872
a(I0
I3821
F0.875
S'awesome'
p5873
I0
tp5874
a(I0
I3993
F1.0
g5265
I0
tp5875
a(I0
I4548
F1.0
S'good'
p5876
I0
tp5877
a(I0
I4605
F1.0
S'good'
p5878
I0
tp5879
a(I0
I4995
F0.875
S'nice'
p5880
I0
tp5881
a(I0
I5346
F1.0
S'excellent'
p5882
I0
tp5883
a(I0
I5634
F1.0
S'good'
p5884
I0
tp5885
a(I0
I5792
F1.0
g5275
I0
tp5886
a(I0
I5852
F0.875
S'nice'
p5887
I0
tp5888
a(I0
I5922
F1.0
S'good'
p5889
I0
tp5890
a(I0
I6184
F0.875
S'awesome'
p5891
I0
tp5892
a(I0
I6251
F1.0
g5281
I0
tp5893
a(I0
I6251
F0.875
g5283
I0
tp5894
a(I0
I6251
F0.125
g5285
I0
tp5895
a(I0
I6251
F1.0
S'good'
p5896
I0
tp5897
a(I0
I6772
F-0.5
g5299
I0
tp5898
a(I0
I6772
F-0.625
g5301
I0
tp5899
a(I0
I6973
F1.0
S'good'
p5900
I0
tp5901
a(I0
I7127
F0.875
S'superb'
p5902
I0
tp5903
as(S'people'
p5904
tp5905
(lp5906
(I0
I220
I0
S'chinese'
p5907
I5
tp5908
a(I0
I1211
F0.75
S'fair'
p5909
I5
tp5910
a(I0
I1211
F-0.25
S'let'
p5911
I5
tp5912
a(I0
I1307
F-0.5
S'flashy'
p5913
I5
tp5914
a(I0
I1307
F-0.875
S'wrong'
p5915
I5
tp5916
a(I0
I1714
I0
S't'
p5917
I5
tp5918
a(I0
I1778
F0.375
S'available'
p5919
I5
tp5920
a(I0
I1847
I0
S'indian'
p5921
I5
tp5922
a(I0
I3569
F-0.625
S'other'
p5923
I5
tp5924
a(I0
I3644
F-0.625
S'dumb'
p5925
I5
tp5926
a(I0
I3661
I0
S't'
p5927
I5
tp5928
a(I0
I3866
F0.875
S'great'
p5929
I5
tp5930
a(I0
I4590
F-0.875
S'wrong'
p5931
I5
tp5932
a(I0
I4604
I0
S'hot'
p5933
I5
tp5934
a(I0
I4631
F-0.375
S'die'
p5935
I5
tp5936
a(I0
I5070
F-0.625
S'other'
p5937
I5
tp5938
a(I0
I5409
I0
S'y'
p5939
I5
tp5940
a(I0
I5757
F-1.0
S'bad'
p5941
I5
tp5942
a(I0
I5776
I0
S'many'
p5943
I5
tp5944
a(I0
I5776
F-0.625
S'other'
p5945
I5
tp5946
a(I0
I5996
F0.25
S'able'
p5947
I5
tp5948
a(I0
I6505
I0
S'many'
p5949
I5
tp5950
a(I0
I6750
I0
S'u'
p5951
I5
tp5952
a(I0
I6966
I0
S'most'
p5953
I5
tp5954
a(I0
I7104
F-0.75
S'open'
p5955
I5
tp5956
as(S'amazon'
p5957
S'and'
p5958
S'mi'
p5959
tp5960
(lp5961
(I0
I952
F-0.625
S'other'
p5962
I0
tp5963
a(I0
I1581
F0.875
S'happy'
p5964
I0
tp5965
a(I0
I3044
F0.75
S'easy'
p5966
I0
tp5967
a(I0
I4036
I0
S't'
p5968
I0
tp5969
a(I0
I4082
I0
S's'
p5970
I0
tp5971
a(I0
I7156
F-1.0
S'worse'
p5972
I0
tp5973
as(S'usage'
p5974
tp5975
(lp5976
(I0
I89
I0
S'normal'
p5977
I8
tp5978
a(I0
I90
F-0.5
S'heavy'
p5979
I8
tp5980
a(I0
I229
I0
S'handed'
p5981
I8
tp5982
a(I0
I233
F0.5
S'daily'
p5983
I8
tp5984
a(I0
I704
F-0.25
S'i'
p5985
I8
tp5986
a(I0
I1083
I-100
S'upto7'
p5987
I8
tp5988
a(I0
I1595
I0
S'normal'
p5989
I8
tp5990
a(I0
I1651
I0
S'minimal'
p5991
I8
tp5992
a(I0
I1690
F-0.625
S'moderate'
p5993
I8
tp5994
a(I0
I1833
F0.5
S'high'
p5995
I8
tp5996
a(I0
I1884
I0
S'normal'
p5997
I8
tp5998
a(I0
I1973
F-0.625
S'average'
p5999
I8
tp6000
a(I0
I1973
F-0.625
S'last'
p6001
I8
tp6002
a(I0
I2001
F0.625
S'fine'
p6003
I8
tp6004
a(I0
I2286
I0
S'minimal'
p6005
I8
tp6006
a(I0
I2286
F-0.5
S'less'
p6007
I8
tp6008
a(I0
I2398
F-0.5
S'heavy'
p6009
I8
tp6010
a(I0
I2641
F-0.5
S'heavy'
p6011
I8
tp6012
a(I0
I2650
F-0.625
S'moderate'
p6013
I8
tp6014
a(I0
I2791
I0
S'normal'
p6015
I8
tp6016
a(I0
I2802
F0.375
S'usage'
p6017
I8
tp6018
a(I0
I2802
F0.5
S'high'
p6019
I8
tp6020
a(I0
I2807
I-100
S'upon'
p6021
I8
tp6022
a(I0
I3202
F-0.5
S'heavy'
p6023
I8
tp6024
a(I0
I3218
F-0.5
S'heavy'
p6025
I8
tp6026
a(I0
I3411
F1.0
S'good'
p6027
I8
tp6028
a(I0
I4042
F-0.5
S'heavy'
p6029
I8
tp6030
a(I0
I4549
I0
S'internet'
p6031
I8
tp6032
a(I0
I4867
I0
S'normal'
p6033
I8
tp6034
a(I0
I4996
F-0.125
S'overall'
p6035
I8
tp6036
a(I0
I4996
F-0.5
S'continuous'
p6037
I8
tp6038
a(I0
I5195
F-0.5
S'heavy'
p6039
I8
tp6040
a(I0
I5629
F-0.5
S'continuous'
p6041
I8
tp6042
a(I0
I6086
F0.5
S'high'
p6043
I8
tp6044
a(I0
I6248
F-0.75
S'little'
p6045
I8
tp6046
as(g2459
S'memory'
p6047
S'card'
p6048
tp6049
(lp6050
(I0
I108
F-0.25
g465
I0
tp6051
a(I0
I482
F0.25
g133
I0
tp6052
a(I0
I809
F0.5
g137
I0
tp6053
a(I0
I809
F-0.25
g139
I0
tp6054
a(I0
I839
F0.625
g234
I0
tp6055
a(I0
I966
F-0.25
g143
I0
tp6056
a(I0
I966
I0
g472
I0
tp6057
a(I0
I1234
F0.875
g147
I0
tp6058
a(I0
I1234
I0
g149
I0
tp6059
a(I0
I1234
F0.375
g151
I0
tp6060
a(I0
I1234
F-0.25
g153
I0
tp6061
a(I0
I1234
I0
g241
I0
tp6062
a(I0
I2424
F0.125
g479
I0
tp6063
a(I0
I2766
F-0.5
g167
I0
tp6064
a(I0
I3002
F0.5
g482
I0
tp6065
a(I0
I3220
I0
g484
I0
tp6066
a(I0
I3220
F0.5
g486
I0
tp6067
a(I0
I3820
I0
g488
I0
tp6068
a(I0
I3820
F-0.5
g490
I0
tp6069
a(I0
I3822
F0.5
g260
I0
tp6070
a(I0
I3822
I0
g262
I0
tp6071
a(I0
I3822
F-0.25
g494
I0
tp6072
a(I0
I3823
F-0.25
g175
I0
tp6073
a(I0
I4598
F-0.25
g183
I0
tp6074
a(I0
I4610
I0
g498
I0
tp6075
a(I0
I4765
F-0.5
g500
I0
tp6076
a(I0
I5068
F0.25
g502
I0
tp6077
a(I0
I5086
F0.125
g195
I0
tp6078
a(I0
I5106
F0.125
g278
I0
tp6079
a(I0
I5387
I0
g506
I0
tp6080
a(I0
I5550
F0.375
g197
I0
tp6081
a(I0
I5572
I0
g509
I0
tp6082
a(I0
I6036
F0.125
g511
I0
tp6083
a(I0
I6141
I0
g513
I0
tp6084
a(I0
I6199
F0.375
g205
I0
tp6085
a(I0
I6291
F0.5
g207
I0
tp6086
a(I0
I6471
F-0.375
g517
I0
tp6087
a(I0
I6513
F0.625
g519
I0
tp6088
a(I0
I6513
F0.375
g521
I0
tp6089
a(I0
I6924
I0
g217
I0
tp6090
a(I0
I7176
F0.25
g524
I0
tp6091
as(S'dont'
p6092
S'buy'
p6093
tp6094
(lp6095
(I0
I2039
I-100
S'buybest'
p6096
I8
tp6097
a(I0
I3951
I-100
S'aswmnot'
p6098
I8
tp6099
a(I0
I3951
F0.625
S'reliable'
p6100
I8
tp6101
a(I0
I5758
I-100
S'guyzzz'
p6102
I8
tp6103
a(I0
I6909
F-0.875
S'low'
p6104
I8
tp6105
as(S'think'
p6106
tp6107
(lp6108
(I0
I2362
I0
S'u'
p6109
I16
tp6110
a(I0
I5602
F-0.875
S'hard'
p6111
I16
tp6112
as(S'good'
p6113
S'camera'
p6114
S'quality'
p6115
tp6116
(lp6117
(I0
I78
F1.0
S'good'
p6118
I0
tp6119
a(I0
I78
F0.125
S'mobile'
p6120
I0
tp6121
a(I0
I88
F-0.125
g1316
I0
tp6122
a(I0
I88
I0
g1318
I0
tp6123
a(I0
I88
F1.0
g4070
I0
tp6124
a(I0
I105
F0.75
g3178
I0
tp6125
a(I0
I105
F0.875
g3180
I0
tp6126
a(I0
I147
F1.0
S'good'
p6127
I0
tp6128
a(I0
I255
F1.0
S'good'
p6129
I0
tp6130
a(I0
I690
F0.625
g3182
I0
tp6131
a(I0
I843
F1.0
S'good'
p6132
I0
tp6133
a(I0
I855
F1.0
g4073
I0
tp6134
a(I0
I916
F1.0
g3184
I0
tp6135
a(I0
I916
F-0.875
g3186
I0
tp6136
a(I0
I975
I0
g2604
I0
tp6137
a(I0
I1196
F-1.0
g3189
I0
tp6138
a(I0
I1196
I0
g3191
I0
tp6139
a(I0
I1196
F0.875
g3193
I0
tp6140
a(I0
I1380
I0
g3195
I0
tp6141
a(I0
I1531
I0
S'camera'
p6142
I0
tp6143
a(I0
I1678
F1.0
S'good'
p6144
I0
tp6145
a(I0
I2021
F-0.125
g1338
I0
tp6146
a(I0
I2021
F1.0
g1340
I0
tp6147
a(I0
I2021
I0
g3209
I0
tp6148
a(I0
I2202
F1.0
g4082
I0
tp6149
a(I0
I2352
F1.0
g4084
I0
tp6150
a(I0
I2802
F1.0
S'good'
p6151
I0
tp6152
a(I0
I2935
F-0.75
g1346
I0
tp6153
a(I0
I3017
F1.0
g4088
I0
tp6154
a(I0
I3091
F0.125
g3220
I0
tp6155
a(I0
I3091
F1.0
g3222
I0
tp6156
a(I0
I3105
F1.0
S'good'
p6157
I0
tp6158
a(I0
I3248
F1.0
g3224
I0
tp6159
a(I0
I3248
F0.875
g3226
I0
tp6160
a(I0
I3248
F1.0
g3228
I0
tp6161
a(I0
I3534
I0
g4094
I0
tp6162
a(I0
I3537
F1.0
S'good'
p6163
I0
tp6164
a(I0
I3559
F1.0
g1358
I0
tp6165
a(I0
I3828
I0
g3239
I0
tp6166
a(I0
I3828
I0
g3241
I0
tp6167
a(I0
I3858
F-1.0
S'bad'
p6168
I0
tp6169
a(I0
I4101
F1.0
S'good'
p6170
I0
tp6171
a(I0
I4103
F1.0
g4100
I0
tp6172
a(I0
I4856
F1.0
g4106
I0
tp6173
a(I0
I5059
F1.0
S'good'
p6174
I0
tp6175
a(I0
I5059
F-0.875
S'low'
p6176
I0
tp6177
a(I0
I5059
I0
S'light'
p6178
I0
tp6179
a(I0
I5110
I0
S'more'
p6180
I0
tp6181
a(I0
I5457
F1.0
S'good'
p6182
I0
tp6183
a(I0
I5559
F1.0
g4527
I0
tp6184
a(I0
I5570
F1.0
S'good'
p6185
I0
tp6186
a(I0
I5805
I0
g2622
I0
tp6187
a(I0
I5805
F1.0
g2624
I0
tp6188
a(I0
I5805
F1.0
g1404
I0
tp6189
a(I0
I5807
I0
g3253
I0
tp6190
a(I0
I5807
F1.0
g3255
I0
tp6191
a(I0
I5859
F1.0
S'good'
p6192
I0
tp6193
a(I0
I5971
F0.5
g3257
I0
tp6194
a(I0
I6065
I0
g2634
I0
tp6195
a(I0
I6375
F1.0
S'good'
p6196
I0
tp6197
a(I0
I6384
F-0.625
g3265
I0
tp6198
a(I0
I6519
F1.0
S'good'
p6199
I0
tp6200
a(I0
I6609
F1.0
g4005
I0
tp6201
a(I0
I6858
F1.0
g3277
I0
tp6202
a(I0
I6858
F1.0
g1416
I0
tp6203
a(I0
I88
F-0.125
g1316
I3
tp6204
a(I0
I88
I0
g1318
I3
tp6205
a(I0
I96
F-0.125
g1320
I3
tp6206
a(I0
I105
F0.875
g3180
I3
tp6207
a(I0
I163
F-0.625
S'average'
p6208
I3
tp6209
a(I0
I167
F-0.125
S'back'
p6210
I3
tp6211
a(I0
I167
F-0.875
S'low'
p6212
I3
tp6213
a(I0
I424
F1.0
S'good'
p6214
I3
tp6215
a(I0
I469
F1.0
g1322
I3
tp6216
a(I0
I628
F-0.5
S'long'
p6217
I3
tp6218
a(I0
I638
F-0.625
S'average'
p6219
I3
tp6220
a(I0
I638
I0
S'n'
p6221
I3
tp6222
a(I0
I639
F-0.5
S'long'
p6223
I3
tp6224
a(I0
I895
F1.0
S'good'
p6225
I3
tp6226
a(I0
I916
F1.0
g3184
I3
tp6227
a(I0
I999
F1.0
S'good'
p6228
I3
tp6229
a(I0
I1009
I0
S'big'
p6230
I3
tp6231
a(I0
I1009
F1.0
S'good'
p6232
I3
tp6233
a(I0
I1058
F1.0
g3916
I3
tp6234
a(I0
I1058
F-0.125
g3918
I3
tp6235
a(I0
I1059
F1.0
g1330
I3
tp6236
a(I0
I1070
F-0.125
S'back'
p6237
I3
tp6238
a(I0
I1173
I0
S'quick'
p6239
I3
tp6240
a(I0
I1196
F0.875
g3193
I3
tp6241
a(I0
I1277
F1.0
S'good'
p6242
I3
tp6243
a(I0
I1373
F1.0
g3929
I3
tp6244
a(I0
I1425
F1.0
S'good'
p6245
I3
tp6246
a(I0
I1579
F1.0
S'good'
p6247
I3
tp6248
a(I0
I1668
F1.0
S'good'
p6249
I3
tp6250
a(I0
I1678
F1.0
g6144
I3
tp6251
a(I0
I1756
F1.0
S'good'
p6252
I3
tp6253
a(I0
I1903
F0.375
g3933
I3
tp6254
a(I0
I1903
F-0.125
g3935
I3
tp6255
a(I0
I1917
F1.0
S'good'
p6256
I3
tp6257
a(I0
I1946
F1.0
S'good'
p6258
I3
tp6259
a(I0
I2021
F-0.125
g1338
I3
tp6260
a(I0
I2021
F1.0
g1340
I3
tp6261
a(I0
I2132
F1.0
S'good'
p6262
I3
tp6263
a(I0
I2132
F0.625
S'okay'
p6264
I3
tp6265
a(I0
I2174
F-0.125
g3941
I3
tp6266
a(I0
I2326
I-100
S'fastgood'
p6267
I3
tp6268
a(I0
I2418
F0.375
S'ok'
p6269
I3
tp6270
a(I0
I2470
F1.0
g5319
I3
tp6271
a(I0
I2623
F-0.875
S'poor'
p6272
I3
tp6273
a(I0
I2802
F1.0
g6151
I3
tp6274
a(I0
I2935
I-100
S'bcoz'
p6275
I3
tp6276
a(I0
I2935
F-0.75
g1346
I3
tp6277
a(I0
I2948
F-0.625
S'average'
p6278
I3
tp6279
a(I0
I2977
F1.0
S'good'
p6280
I3
tp6281
a(I0
I3018
F0.875
S'amazing'
p6282
I3
tp6283
a(I0
I3028
F1.0
S'good'
p6284
I3
tp6285
a(I0
I3039
F1.0
S'good'
p6286
I3
tp6287
a(I0
I3056
F1.0
S'good'
p6288
I3
tp6289
a(I0
I3059
F1.0
S'good'
p6290
I3
tp6291
a(I0
I3091
F0.125
g3220
I3
tp6292
a(I0
I3091
F1.0
g3222
I3
tp6293
a(I0
I3244
F1.0
S'good'
p6294
I3
tp6295
a(I0
I3256
F0.875
S'nice'
p6296
I3
tp6297
a(I0
I3280
F0.875
g3956
I3
tp6298
a(I0
I3280
F-0.125
g3958
I3
tp6299
a(I0
I3280
F1.0
g3960
I3
tp6300
a(I0
I3282
F-0.5
S'disappointed'
p6301
I3
tp6302
a(I0
I3537
F1.0
g6163
I3
tp6303
a(I0
I3559
F1.0
g1358
I3
tp6304
a(I0
I3623
F1.0
S'good'
p6305
I3
tp6306
a(I0
I3757
F1.0
S'good'
p6307
I3
tp6308
a(I0
I3816
F1.0
g1368
I3
tp6309
a(I0
I3857
I-100
S'workingexcellent'
p6310
I3
tp6311
a(I0
I4018
F1.0
S'good'
p6312
I3
tp6313
a(I0
I4144
F1.0
S'good'
p6314
I3
tp6315
a(I0
I4163
F1.0
g3965
I3
tp6316
a(I0
I4262
F0.5
S'satisfactory'
p6317
I3
tp6318
a(I0
I4455
F-0.125
g1370
I3
tp6319
a(I0
I4482
F1.0
S'good'
p6320
I3
tp6321
a(I0
I4505
I0
g1372
I3
tp6322
a(I0
I4505
F1.0
g1374
I3
tp6323
a(I0
I4505
F0.625
g1376
I3
tp6324
a(I0
I4719
F-0.75
g1378
I3
tp6325
a(I0
I4740
F1.0
S'good'
p6326
I3
tp6327
a(I0
I4882
F1.0
S'good'
p6328
I3
tp6329
a(I0
I4966
I0
g3973
I3
tp6330
a(I0
I4966
F1.0
g3975
I3
tp6331
a(I0
I4966
F-0.125
g3977
I3
tp6332
a(I0
I4966
F1.0
g3979
I3
tp6333
a(I0
I4970
F1.0
S'good'
p6334
I3
tp6335
a(I0
I4979
F1.0
S'good'
p6336
I3
tp6337
a(I0
I5091
F-0.875
S'poor'
p6338
I3
tp6339
a(I0
I5110
I0
g6180
I3
tp6340
a(I0
I5269
F-0.125
g3982
I3
tp6341
a(I0
I5325
F-0.875
S'poor'
p6342
I3
tp6343
a(I0
I5400
F1.0
S'better'
p6344
I3
tp6345
a(I0
I5424
I-100
S'salerear'
p6346
I3
tp6347
a(I0
I5424
F-1.0
g5344
I3
tp6348
a(I0
I5457
F1.0
g6182
I3
tp6349
a(I0
I5461
F1.0
S'good'
p6350
I3
tp6351
a(I0
I5480
I-100
S'badphone'
p6352
I3
tp6353
a(I0
I5508
F1.0
g3984
I3
tp6354
a(I0
I5508
I0
g3986
I3
tp6355
a(I0
I5508
F1.0
g3988
I3
tp6356
a(I0
I5543
F-0.125
g1396
I3
tp6357
a(I0
I5570
F1.0
g6185
I3
tp6358
a(I0
I5582
F1.0
g1400
I3
tp6359
a(I0
I5805
F1.0
g1404
I3
tp6360
a(I0
I5807
I-100
S'satisfiedwith'
p6361
I3
tp6362
a(I0
I5807
I0
g3253
I3
tp6363
a(I0
I5807
F1.0
g3255
I3
tp6364
a(I0
I6082
F1.0
S'good'
p6365
I3
tp6366
a(I0
I6092
F0.875
g5355
I3
tp6367
a(I0
I6092
I0
g5357
I3
tp6368
a(I0
I6193
I0
g5365
I3
tp6369
a(I0
I6193
F1.0
g5367
I3
tp6370
a(I0
I6307
F1.0
S'good'
p6371
I3
tp6372
a(I0
I6384
F-0.625
g3265
I3
tp6373
a(I0
I6519
F1.0
g6199
I3
tp6374
a(I0
I6551
F1.0
S'good'
p6375
I3
tp6376
a(I0
I6609
F1.0
g4005
I3
tp6377
a(I0
I6733
F-1.0
S'worst'
p6378
I3
tp6379
a(I0
I6737
F1.0
S'good'
p6380
I3
tp6381
a(I0
I6847
F-1.0
S'bad'
p6382
I3
tp6383
a(I0
I6858
F1.0
g1416
I3
tp6384
a(I0
I6865
I-100
S'bettr'
p6385
I3
tp6386
a(I0
I6879
I-100
S'letvs'
p6387
I3
tp6388
a(I0
I6924
F0.625
S'friendly'
p6389
I3
tp6390
a(I0
I6924
F0.5
S'clarity'
p6391
I3
tp6392
a(I0
I6933
F1.0
S'good'
p6393
I3
tp6394
a(I0
I6944
F1.0
S'good'
p6395
I3
tp6396
a(I0
I6954
F1.0
S'good'
p6397
I3
tp6398
a(I0
I7134
F1.0
S'good'
p6399
I3
tp6400
a(I0
I78
F1.0
g6118
I14
tp6401
a(I0
I78
F0.125
g6120
I14
tp6402
a(I0
I88
F-0.125
g1316
I14
tp6403
a(I0
I88
I0
g1318
I14
tp6404
a(I0
I88
F1.0
g4070
I14
tp6405
a(I0
I105
F0.75
g3178
I14
tp6406
a(I0
I105
F0.875
g3180
I14
tp6407
a(I0
I147
F1.0
g6127
I14
tp6408
a(I0
I255
F1.0
g6129
I14
tp6409
a(I0
I286
I0
S'pic'
p6410
I14
tp6411
a(I0
I286
F0.5
S'like'
p6412
I14
tp6413
a(I0
I617
F0.625
S'super'
p6414
I14
tp6415
a(I0
I690
F0.625
g3182
I14
tp6416
a(I0
I843
F1.0
g6132
I14
tp6417
a(I0
I855
F1.0
g4073
I14
tp6418
a(I0
I916
F1.0
g3184
I14
tp6419
a(I0
I916
F-0.875
g3186
I14
tp6420
a(I0
I975
I0
g2604
I14
tp6421
a(I0
I1169
F-0.625
S'average'
p6422
I14
tp6423
a(I0
I1169
F0.5
S'highest'
p6424
I14
tp6425
a(I0
I1169
F0.5
S'maximum'
p6426
I14
tp6427
a(I0
I1170
I0
S'u'
p6428
I14
tp6429
a(I0
I1170
I0
S'u'
p6430
I14
tp6431
a(I0
I1170
F1.0
S'best'
p6432
I14
tp6433
a(I0
I1196
F-1.0
g3189
I14
tp6434
a(I0
I1196
I0
g3191
I14
tp6435
a(I0
I1196
F0.875
g3193
I14
tp6436
a(I0
I1380
I0
g3195
I14
tp6437
a(I0
I1408
F-0.875
g3197
I14
tp6438
a(I0
I1408
F0.75
g3199
I14
tp6439
a(I0
I1408
F0.375
g3201
I14
tp6440
a(I0
I1437
F0.875
S'nice'
p6441
I14
tp6442
a(I0
I1437
F0.625
S'graphic'
p6443
I14
tp6444
a(I0
I1531
I0
g6142
I14
tp6445
a(I0
I1562
F-0.625
S'average'
p6446
I14
tp6447
a(I0
I1596
F-0.625
S'average'
p6448
I14
tp6449
a(I0
I1678
F1.0
g6144
I14
tp6450
a(I0
I1688
F-0.875
g3203
I14
tp6451
a(I0
I1876
F-0.875
S'poor'
p6452
I14
tp6453
a(I0
I1879
I0
S'camera'
p6454
I14
tp6455
a(I0
I2021
F-0.125
g1338
I14
tp6456
a(I0
I2021
F1.0
g1340
I14
tp6457
a(I0
I2021
I0
g3209
I14
tp6458
a(I0
I2172
F-0.875
g3211
I14
tp6459
a(I0
I2202
F1.0
g4082
I14
tp6460
a(I0
I2318
F0.75
g3213
I14
tp6461
a(I0
I2335
F0.875
S'great'
p6462
I14
tp6463
a(I0
I2345
F-0.875
S'poor'
p6464
I14
tp6465
a(I0
I2352
F1.0
g4084
I14
tp6466
a(I0
I2551
F0.875
S'awesome'
p6467
I14
tp6468
a(I0
I2637
F-0.625
S'average'
p6469
I14
tp6470
a(I0
I2802
F1.0
g6151
I14
tp6471
a(I0
I2935
F-0.75
g1346
I14
tp6472
a(I0
I2974
F-1.0
g1348
I14
tp6473
a(I0
I3017
F1.0
g4088
I14
tp6474
a(I0
I3047
F-0.875
g3216
I14
tp6475
a(I0
I3047
F-0.75
g3218
I14
tp6476
a(I0
I3091
F0.125
g3220
I14
tp6477
a(I0
I3091
F1.0
g3222
I14
tp6478
a(I0
I3105
F1.0
g6157
I14
tp6479
a(I0
I3248
F1.0
g3224
I14
tp6480
a(I0
I3248
F0.875
g3226
I14
tp6481
a(I0
I3248
F1.0
g3228
I14
tp6482
a(I0
I3468
F-0.875
g3230
I14
tp6483
a(I0
I3468
F-0.25
g3232
I14
tp6484
a(I0
I3468
F-0.625
g3234
I14
tp6485
a(I0
I3493
F-1.0
g3236
I14
tp6486
a(I0
I3516
F0.875
S'great'
p6487
I14
tp6488
a(I0
I3534
I0
g4094
I14
tp6489
a(I0
I3537
F1.0
g6163
I14
tp6490
a(I0
I3559
F1.0
g1358
I14
tp6491
a(I0
I3828
I0
g3239
I14
tp6492
a(I0
I3828
I0
g3241
I14
tp6493
a(I0
I3834
F-1.0
S'worse'
p6494
I14
tp6495
a(I0
I3858
F-1.0
g6168
I14
tp6496
a(I0
I3912
F-0.875
g3243
I14
tp6497
a(I0
I4101
F1.0
g6170
I14
tp6498
a(I0
I4103
F1.0
g4100
I14
tp6499
a(I0
I4254
F1.0
S'excellent'
p6500
I14
tp6501
a(I0
I4259
F0.875
g3245
I14
tp6502
a(I0
I4423
F-0.875
S'poor'
p6503
I14
tp6504
a(I0
I4483
F0.375
S'much'
p6505
I14
tp6506
a(I0
I4483
I0
S'mp'
p6507
I14
tp6508
a(I0
I4502
F-0.875
g3247
I14
tp6509
a(I0
I4644
F0.875
S'happy'
p6510
I14
tp6511
a(I0
I4650
F-0.875
S'poor'
p6512
I14
tp6513
a(I0
I4727
I0
S'n'
p6514
I14
tp6515
a(I0
I4727
I0
S'below'
p6516
I14
tp6517
a(I0
I4819
F-0.875
g3249
I14
tp6518
a(I0
I4821
F-0.875
g3251
I14
tp6519
a(I0
I4856
F1.0
g4106
I14
tp6520
a(I0
I5034
I0
g1386
I14
tp6521
a(I0
I5034
F0.5
g1388
I14
tp6522
a(I0
I5059
F1.0
g6174
I14
tp6523
a(I0
I5059
F-0.875
g6176
I14
tp6524
a(I0
I5059
I0
g6178
I14
tp6525
a(I0
I5108
I0
g1390
I14
tp6526
a(I0
I5110
I0
g6180
I14
tp6527
a(I0
I5411
F-1.0
S'bad'
p6528
I14
tp6529
a(I0
I5457
F1.0
g6182
I14
tp6530
a(I0
I5495
F0.5
S'high'
p6531
I14
tp6532
a(I0
I5535
F-0.875
S'cheap'
p6533
I14
tp6534
a(I0
I5535
F-1.0
S'bad'
p6535
I14
tp6536
a(I0
I5551
F-0.5
g1398
I14
tp6537
a(I0
I5559
F1.0
g4527
I14
tp6538
a(I0
I5570
F1.0
g6185
I14
tp6539
a(I0
I5668
F-0.125
S'such'
p6540
I14
tp6541
a(I0
I5668
F-1.0
S'bad'
p6542
I14
tp6543
a(I0
I5805
I0
g2622
I14
tp6544
a(I0
I5805
F1.0
g2624
I14
tp6545
a(I0
I5805
F1.0
g1404
I14
tp6546
a(I0
I5807
I0
g3253
I14
tp6547
a(I0
I5807
F1.0
g3255
I14
tp6548
a(I0
I5859
F1.0
g6192
I14
tp6549
a(I0
I5869
F0.875
S'awesome'
p6550
I14
tp6551
a(I0
I5869
F-0.75
S'open'
p6552
I14
tp6553
a(I0
I5971
F0.5
g3257
I14
tp6554
a(I0
I6065
I0
g2634
I14
tp6555
a(I0
I6095
I0
g5359
I14
tp6556
a(I0
I6159
F-0.875
g3260
I14
tp6557
a(I0
I6175
F-1.0
g3262
I14
tp6558
a(I0
I6175
F0.875
g1408
I14
tp6559
a(I0
I6375
F1.0
g6196
I14
tp6560
a(I0
I6384
F-0.625
g3265
I14
tp6561
a(I0
I6422
F-0.875
g3267
I14
tp6562
a(I0
I6422
F0.75
g3269
I14
tp6563
a(I0
I6482
F-0.875
g3275
I14
tp6564
a(I0
I6501
F-0.625
S'average'
p6565
I14
tp6566
a(I0
I6519
F1.0
g6199
I14
tp6567
a(I0
I6544
F-0.625
S'average'
p6568
I14
tp6569
a(I0
I6609
F1.0
g4005
I14
tp6570
a(I0
I6858
F1.0
g3277
I14
tp6571
a(I0
I6858
F1.0
g1416
I14
tp6572
a(I0
I6909
F-0.875
g3280
I14
tp6573
a(I0
I6967
F-1.0
S'worst'
p6574
I14
tp6575
a(I0
I6967
F-0.5
S'less'
p6576
I14
tp6577
a(I0
I6984
I0
S'camera'
p6578
I14
tp6579
a(I0
I7000
I0
S'hot'
p6580
I14
tp6581
as(S'sim'
p6582
S'with'
p6583
S'memory'
p6584
tp6585
(lp6586
(I0
I1008
F0.5
g236
I0
tp6587
a(I0
I1008
I0
g238
I0
tp6588
a(I0
I1234
F0.875
g147
I0
tp6589
a(I0
I1234
I0
g149
I0
tp6590
a(I0
I1234
F0.375
g151
I0
tp6591
a(I0
I1234
F-0.25
g153
I0
tp6592
a(I0
I1932
F0.125
g161
I0
tp6593
a(I0
I2179
F0.5
g165
I0
tp6594
a(I0
I2766
F-0.5
g167
I0
tp6595
a(I0
I2858
F0.5
g2320
I0
tp6596
a(I0
I2858
F-0.75
g2322
I0
tp6597
a(I0
I3275
F0.5
g169
I0
tp6598
a(I0
I3514
F0.5
g171
I0
tp6599
a(I0
I3514
F0.5
g173
I0
tp6600
a(I0
I3820
I0
g488
I0
tp6601
a(I0
I3820
F0.5
g258
I0
tp6602
a(I0
I3820
F-0.5
g490
I0
tp6603
a(I0
I3823
F-0.25
g175
I0
tp6604
a(I0
I3823
F-0.75
g177
I0
tp6605
a(I0
I3823
F0.5
g179
I0
tp6606
a(I0
I4213
I0
g268
I0
tp6607
a(I0
I4413
F0.25
g651
I0
tp6608
a(I0
I4422
F0.5
g2334
I0
tp6609
a(I0
I4422
F-0.25
g3336
I0
tp6610
a(I0
I4497
F0.5
g2397
I0
tp6611
a(I0
I4497
F0.75
g3339
I0
tp6612
a(I0
I5550
F0.375
g197
I0
tp6613
a(I0
I5849
F0.5
g199
I0
tp6614
a(I0
I5849
F0.5
g201
I0
tp6615
a(I0
I6831
F0.5
g2350
I0
tp6616
a(I0
I7176
F0.25
g524
I0
tp6617
a(I0
I7193
F-0.75
g693
I0
tp6618
as(S'device'
p6619
tp6620
(lp6621
(I0
I171
F-0.625
S'new'
p6622
I11
tp6623
a(I0
I207
I0
S'min'
p6624
I11
tp6625
a(I0
I233
F0.75
S'ideal'
p6626
I11
tp6627
a(I0
I428
F1.0
S'excellent'
p6628
I11
tp6629
a(I0
I770
F0.375
S'available'
p6630
I11
tp6631
a(I0
I867
I0
S'kindle'
p6632
I11
tp6633
a(I0
I870
F0.5
S'responsive'
p6634
I11
tp6635
a(I0
I873
F-0.125
S'such'
p6636
I11
tp6637
a(I0
I962
F1.0
S'good'
p6638
I11
tp6639
a(I0
I1771
F1.0
S'good'
p6640
I11
tp6641
a(I0
I2145
F-0.625
S'other'
p6642
I11
tp6643
a(I0
I2367
F0.75
S'likable'
p6644
I11
tp6645
a(I0
I2704
I0
S'ur'
p6646
I11
tp6647
a(I0
I2799
I0
S'more'
p6648
I11
tp6649
a(I0
I3172
F0.875
S'nice'
p6650
I11
tp6651
a(I0
I3324
F1.0
S'excellent'
p6652
I11
tp6653
a(I0
I3400
F0.875
S'great'
p6654
I11
tp6655
a(I0
I3616
F0.75
S'beautiful'
p6656
I11
tp6657
a(I0
I3732
I-100
S'lst'
p6658
I11
tp6659
a(I0
I3746
I0
S'u'
p6660
I11
tp6661
a(I0
I3748
I0
S'u'
p6662
I11
tp6663
a(I0
I3894
F0.625
S'fine'
p6664
I11
tp6665
a(I0
I3924
F-0.125
S'such'
p6666
I11
tp6667
a(I0
I4133
I0
S'gb'
p6668
I11
tp6669
a(I0
I4425
I-100
S'itnow'
p6670
I11
tp6671
a(I0
I4429
I0
S'android'
p6672
I11
tp6673
a(I0
I4454
F-0.875
S'small'
p6674
I11
tp6675
a(I0
I4929
I0
S'electronic'
p6676
I11
tp6677
a(I0
I6454
F-0.25
S'i'
p6678
I11
tp6679
a(I0
I6704
I-100
S'thatawesome'
p6680
I11
tp6681
a(I0
I6706
F0.75
S'premium'
p6682
I11
tp6683
a(I0
I6739
F0.125
S'please'
p6684
I11
tp6685
as(S'delivery'
p6686
S'by'
p6687
S'amazon'
p6688
tp6689
(lp6690
(I0
I5783
F-0.625
S'fast'
p6691
I0
tp6692
a(I0
I6290
F-0.625
S'fast'
p6693
I0
tp6694
a(I0
I6919
F1.0
S'good'
p6695
I0
tp6696
a(I0
I6919
F0.5
S'safest'
p6697
I0
tp6698
a(I0
I122
I0
S's'
p6699
I0
tp6700
a(I0
I235
I-100
S'co.'
p6701
I0
tp6702
a(I0
I235
F0.5
S'operative'
p6703
I0
tp6704
a(I0
I413
I0
S'wish'
p6705
I0
tp6706
a(I0
I413
I0
S'more'
p6707
I0
tp6708
a(I0
I828
F0.625
S'commendable'
p6709
I0
tp6710
a(I0
I1465
F-0.125
S'such'
p6711
I0
tp6712
a(I0
I1474
I0
S'u'
p6713
I0
tp6714
a(I0
I1474
F-0.5
S'disappointed'
p6715
I0
tp6716
a(I0
I1581
F0.875
g5964
I0
tp6717
a(I0
I1787
F-0.25
S'i'
p6718
I0
tp6719
a(I0
I4036
I0
g5968
I0
tp6720
a(I0
I4082
I0
g5970
I0
tp6721
a(I0
I4531
I-100
S'tilll'
p6722
I0
tp6723
a(I0
I4836
F-0.5
S'disappointed'
p6724
I0
tp6725
a(I0
I6384
F0.375
S'impressive'
p6726
I0
tp6727
a(I0
I6796
F-0.75
S'exclusive'
p6728
I0
tp6729
a(I0
I6802
F0.875
S'amazing'
p6730
I0
tp6731
a(I0
I7033
I0
S'sure'
p6732
I0
tp6733
a(I0
I7033
F0.125
S'impacted'
p6734
I0
tp6735
a(I0
I7033
F0.75
S'due'
p6736
I0
tp6737
a(I0
I7156
F-1.0
g5972
I0
tp6738
a(I0
I7172
F1.0
S'excellent'
p6739
I0
tp6740
as(S'memory'
p6741
S'card'
p6742
S'slot'
p6743
tp6744
(lp6745
(I0
I784
F-0.75
g232
I0
tp6746
a(I0
I839
F0.625
g234
I0
tp6747
a(I0
I1234
F0.875
g147
I0
tp6748
a(I0
I1234
I0
g149
I0
tp6749
a(I0
I1234
F0.375
g151
I0
tp6750
a(I0
I1234
F-0.25
g153
I0
tp6751
a(I0
I1234
I0
g241
I0
tp6752
a(I0
I2424
F0.125
g479
I0
tp6753
a(I0
I2766
F-0.5
g167
I0
tp6754
a(I0
I3047
I0
g250
I0
tp6755
a(I0
I3820
I0
g488
I0
tp6756
a(I0
I3820
F-0.5
g490
I0
tp6757
a(I0
I3822
F0.5
g260
I0
tp6758
a(I0
I3822
I0
g262
I0
tp6759
a(I0
I3822
F-0.25
g494
I0
tp6760
a(I0
I3980
F-0.778
g264
I0
tp6761
a(I0
I4598
F-0.25
g183
I0
tp6762
a(I0
I5106
F0.125
g278
I0
tp6763
a(I0
I5422
F-0.375
g282
I0
tp6764
a(I0
I5572
I0
g509
I0
tp6765
a(I0
I6199
F0.375
g205
I0
tp6766
a(I0
I6199
F0.5
g290
I0
tp6767
a(I0
I6199
F0.625
g292
I0
tp6768
a(I0
I6291
F0.5
g207
I0
tp6769
a(I0
I6291
F-0.375
g294
I0
tp6770
a(I0
I6870
F-0.375
g300
I0
tp6771
a(I0
I6924
I0
g217
I0
tp6772
as(S'awesome'
p6773
tp6774
(lp6775
(I0
I105
F0.125
S'mobile'
p6776
I6
tp6777
a(I0
I3280
I-100
S'mble'
p6778
I6
tp6779
a(I0
I4752
I-100
S'phonealpesh'
p6780
I6
tp6781
a(I0
I7187
I-100
S'internetit'
p6782
I6
tp6783
a(I0
I7187
I0
S's'
p6784
I6
tp6785
as(S'dual'
p6786
S'sim'
p6787
S'and'
p6788
tp6789
(lp6790
(I0
I482
I0
g131
I0
tp6791
a(I0
I590
F0.5
g2356
I0
tp6792
a(I0
I809
F0.5
g135
I0
tp6793
a(I0
I1125
F0.5
g704
I0
tp6794
a(I0
I1284
F0.5
g155
I0
tp6795
a(I0
I1337
I0
g157
I0
tp6796
a(I0
I1337
F0.5
g159
I0
tp6797
a(I0
I1565
F0.5
g311
I0
tp6798
a(I0
I1982
F0.5
g2372
I0
tp6799
a(I0
I2408
F0.5
g635
I0
tp6800
a(I0
I2409
F0.5
g637
I0
tp6801
a(I0
I3275
F0.5
g169
I0
tp6802
a(I0
I3514
F0.5
g171
I0
tp6803
a(I0
I3514
F0.5
g173
I0
tp6804
a(I0
I3823
F-0.75
g177
I0
tp6805
a(I0
I3823
F0.5
g179
I0
tp6806
a(I0
I4203
F0.5
g181
I0
tp6807
a(I0
I4356
F0.5
g2394
I0
tp6808
a(I0
I4598
I0
g2336
I0
tp6809
a(I0
I4610
F0.5
g185
I0
tp6810
a(I0
I4610
F0.5
g187
I0
tp6811
a(I0
I4610
F-0.375
g189
I0
tp6812
a(I0
I4792
F-0.75
g2405
I0
tp6813
a(I0
I4977
F0.5
g2338
I0
tp6814
a(I0
I5225
F0.5
g2409
I0
tp6815
a(I0
I5849
F0.5
g199
I0
tp6816
a(I0
I6175
F0.5
g679
I0
tp6817
a(I0
I6374
F0.5
g2347
I0
tp6818
a(I0
I6399
F-0.75
g2419
I0
tp6819
a(I0
I6471
F0.5
g209
I0
tp6820
a(I0
I6792
F0.5
g213
I0
tp6821
a(I0
I6792
F0.5
g215
I0
tp6822
a(I0
I6973
F0.5
g687
I0
tp6823
a(I0
I7056
F0.5
g2428
I0
tp6824
as(S'multi'
p6825
S'tasking'
p6826
tp6827
(lp6828
(I0
I1038
F1.0
S'good'
p6829
I2
tp6830
a(I0
I5205
F0.625
S'adept'
p6831
I2
tp6832
as(S'good'
p6833
S'battery'
p6834
S'backup'
p6835
tp6836
(lp6837
(I0
I681
F-0.5
g5842
I0
tp6838
a(I0
I1105
F1.0
g5229
I0
tp6839
a(I0
I1105
F1.0
g5231
I0
tp6840
a(I0
I1366
F1.0
S'good'
p6841
I0
tp6842
a(I0
I1939
F1.0
g5233
I0
tp6843
a(I0
I1953
F1.0
S'good'
p6844
I0
tp6845
a(I0
I1953
F0.875
g5235
I0
tp6846
a(I0
I1998
F-0.25
S'battery'
p6847
I0
tp6848
a(I0
I1998
F1.0
S'good'
p6849
I0
tp6850
a(I0
I2176
F1.0
S'good'
p6851
I0
tp6852
a(I0
I2409
F1.0
g5243
I0
tp6853
a(I0
I2435
F1.0
g5245
I0
tp6854
a(I0
I2565
F1.0
g5247
I0
tp6855
a(I0
I2860
F1.0
g5249
I0
tp6856
a(I0
I2947
F1.0
g5251
I0
tp6857
a(I0
I2948
F1.0
g5253
I0
tp6858
a(I0
I2948
F1.0
g5864
I0
tp6859
a(I0
I3010
F1.0
g5255
I0
tp6860
a(I0
I3174
F1.0
S'good'
p6861
I0
tp6862
a(I0
I3280
F0.875
g5261
I0
tp6863
a(I0
I3340
F1.0
g5263
I0
tp6864
a(I0
I3993
F1.0
g5265
I0
tp6865
a(I0
I4548
F1.0
g5876
I0
tp6866
a(I0
I4605
F1.0
g5878
I0
tp6867
a(I0
I5269
F0.875
S'great'
p6868
I0
tp6869
a(I0
I5440
F1.0
S'good'
p6870
I0
tp6871
a(I0
I5484
F1.0
S'good'
p6872
I0
tp6873
a(I0
I5578
F1.0
g5271
I0
tp6874
a(I0
I5605
F1.0
g5273
I0
tp6875
a(I0
I5634
F1.0
g5884
I0
tp6876
a(I0
I5792
F1.0
g5275
I0
tp6877
a(I0
I5892
F1.0
g5277
I0
tp6878
a(I0
I5922
F1.0
g5889
I0
tp6879
a(I0
I6251
F1.0
g5281
I0
tp6880
a(I0
I6251
F0.875
g5283
I0
tp6881
a(I0
I6251
F0.125
g5285
I0
tp6882
a(I0
I6251
F1.0
g5896
I0
tp6883
a(I0
I6424
F1.0
g5295
I0
tp6884
a(I0
I6608
F1.0
g5297
I0
tp6885
a(I0
I6772
F-0.5
g5299
I0
tp6886
a(I0
I6772
F-0.625
g5301
I0
tp6887
a(I0
I6973
F1.0
g5900
I0
tp6888
a(I0
I7081
F0.875
g5303
I0
tp6889
a(I0
I188
F1.0
S'good'
p6890
I1
tp6891
a(I0
I208
F1.0
g4698
I1
tp6892
a(I0
I270
F1.0
g5227
I1
tp6893
a(I0
I348
F1.0
S'good'
p6894
I1
tp6895
a(I0
I628
I0
S'quick'
p6896
I1
tp6897
a(I0
I628
F-0.625
S'last'
p6898
I1
tp6899
a(I0
I639
I0
S'quick'
p6900
I1
tp6901
a(I0
I639
F-0.625
S'last'
p6902
I1
tp6903
a(I0
I951
F1.0
S'good'
p6904
I1
tp6905
a(I0
I952
F-0.625
S'fingerprint'
p6906
I1
tp6907
a(I0
I1105
F1.0
g5229
I1
tp6908
a(I0
I1105
F1.0
g5231
I1
tp6909
a(I0
I1173
F1.0
S'good'
p6910
I1
tp6911
a(I0
I1187
F1.0
S'good'
p6912
I1
tp6913
a(I0
I1380
F1.0
S'good'
p6914
I1
tp6915
a(I0
I1381
I0
S'clear'
p6916
I1
tp6917
a(I0
I1423
F0.875
S'great'
p6918
I1
tp6919
a(I0
I1423
F0.875
S'great'
p6920
I1
tp6921
a(I0
I1470
F-0.125
S'overall'
p6922
I1
tp6923
a(I0
I1704
F1.0
S'good'
p6924
I1
tp6925
a(I0
I1939
F1.0
g5233
I1
tp6926
a(I0
I1953
F0.875
g5235
I1
tp6927
a(I0
I2126
F1.0
S'good'
p6928
I1
tp6929
a(I0
I2126
F1.0
S'good'
p6930
I1
tp6931
a(I0
I2285
F1.0
S'good'
p6932
I1
tp6933
a(I0
I2355
F1.0
S'good'
p6934
I1
tp6935
a(I0
I2408
F-0.5
g5237
I1
tp6936
a(I0
I2408
F-0.125
g5239
I1
tp6937
a(I0
I2408
F-0.625
g5241
I1
tp6938
a(I0
I2409
F1.0
g5243
I1
tp6939
a(I0
I2422
F-1.0
S'bad'
p6940
I1
tp6941
a(I0
I2435
F1.0
g5245
I1
tp6942
a(I0
I2565
F1.0
g5247
I1
tp6943
a(I0
I2633
F1.0
S'good'
p6944
I1
tp6945
a(I0
I2860
F1.0
g5249
I1
tp6946
a(I0
I2913
F1.0
S'good'
p6947
I1
tp6948
a(I0
I2947
F1.0
g5251
I1
tp6949
a(I0
I2948
F1.0
g5253
I1
tp6950
a(I0
I3010
F1.0
g5255
I1
tp6951
a(I0
I3091
I0
g4716
I1
tp6952
a(I0
I3144
F1.0
g5257
I1
tp6953
a(I0
I3248
F0.375
S'full'
p6954
I1
tp6955
a(I0
I3256
F1.0
g5259
I1
tp6956
a(I0
I3280
F0.875
g5261
I1
tp6957
a(I0
I3340
F1.0
g5263
I1
tp6958
a(I0
I3444
F1.0
S'good'
p6959
I1
tp6960
a(I0
I3501
F1.0
g4720
I1
tp6961
a(I0
I3993
F1.0
g5265
I1
tp6962
a(I0
I4029
F1.0
S'good'
p6963
I1
tp6964
a(I0
I4112
F1.0
S'good'
p6965
I1
tp6966
a(I0
I4119
F1.0
S'good'
p6967
I1
tp6968
a(I0
I4183
F1.0
S'good'
p6969
I1
tp6970
a(I0
I4183
F-1.0
S'bad'
p6971
I1
tp6972
a(I0
I4262
F1.0
S'good'
p6973
I1
tp6974
a(I0
I4439
F0.875
S'awesome'
p6975
I1
tp6976
a(I0
I4487
F1.0
S'good'
p6977
I1
tp6978
a(I0
I4529
I0
S'n'
p6979
I1
tp6980
a(I0
I4721
F1.0
g5267
I1
tp6981
a(I0
I4732
F1.0
S'good'
p6982
I1
tp6983
a(I0
I5106
F0.375
S'ok'
p6984
I1
tp6985
a(I0
I5106
F1.0
S'good'
p6986
I1
tp6987
a(I0
I5130
F1.0
S'good'
p6988
I1
tp6989
a(I0
I5286
F1.0
S'good'
p6990
I1
tp6991
a(I0
I5295
F0.25
g4742
I1
tp6992
a(I0
I5295
F1.0
g4744
I1
tp6993
a(I0
I5310
I0
S'massive'
p6994
I1
tp6995
a(I0
I5458
F1.0
g5269
I1
tp6996
a(I0
I5524
F-0.75
S'sufficient'
p6997
I1
tp6998
a(I0
I5530
F1.0
g4746
I1
tp6999
a(I0
I5537
F1.0
S'good'
p7000
I1
tp7001
a(I0
I5545
F1.0
S'good'
p7002
I1
tp7003
a(I0
I5578
F1.0
g5271
I1
tp7004
a(I0
I5605
F1.0
g5273
I1
tp7005
a(I0
I5779
F1.0
S'good'
p7006
I1
tp7007
a(I0
I5792
F1.0
g5275
I1
tp7008
a(I0
I5892
F1.0
g5277
I1
tp7009
a(I0
I5971
F-0.5
S'long'
p7010
I1
tp7011
a(I0
I5971
F-0.625
S'lasting'
p7012
I1
tp7013
a(I0
I6060
F1.0
g5279
I1
tp7014
a(I0
I6245
F0.625
S'super'
p7015
I1
tp7016
a(I0
I6251
F1.0
g5281
I1
tp7017
a(I0
I6251
F0.875
g5283
I1
tp7018
a(I0
I6251
F0.125
g5285
I1
tp7019
a(I0
I6330
F1.0
g5287
I1
tp7020
a(I0
I6330
F0.125
g5289
I1
tp7021
a(I0
I6330
F0.625
g5291
I1
tp7022
a(I0
I6330
F1.0
g5293
I1
tp7023
a(I0
I6339
F1.0
S'good'
p7024
I1
tp7025
a(I0
I6424
F1.0
g5295
I1
tp7026
a(I0
I6580
F-0.625
g4750
I1
tp7027
a(I0
I6580
I0
g4752
I1
tp7028
a(I0
I6580
F0.375
g4754
I1
tp7029
a(I0
I6608
F1.0
g5297
I1
tp7030
a(I0
I6772
F-0.5
g5299
I1
tp7031
a(I0
I6772
F-0.625
g5301
I1
tp7032
a(I0
I7081
F0.875
g5303
I1
tp7033
a(I0
I7136
F1.0
S'good'
p7034
I1
tp7035
a(I0
I7147
F1.0
S'good'
p7036
I1
tp7037
as(S'with'
p7038
S'sd'
p7039
S'card'
p7040
tp7041
(lp7042
(I0
I1234
I0
g241
I0
tp7043
a(I0
I1982
F-0.375
g2850
I0
tp7044
a(I0
I2858
F-0.25
g2862
I0
tp7045
a(I0
I4791
I0
g2814
I0
tp7046
a(I0
I4793
I0
g2880
I0
tp7047
a(I0
I4943
I0
g2882
I0
tp7048
a(I0
I4977
I0
g2889
I0
tp7049
a(I0
I4977
I0
g2891
I0
tp7050
a(I0
I5741
F0.25
g2899
I0
tp7051
a(I0
I5741
I0
g2901
I0
tp7052
a(I0
I6175
F-0.25
g2905
I0
tp7053
a(I0
I6175
I-100
S'cardbest'
p7054
I0
tp7055
a(I0
I6377
F-0.25
g2907
I0
tp7056
a(I0
I7138
I0
g2834
I0
tp7057
a(I0
I637
I0
g2842
I0
tp7058
a(I0
I1125
I0
g2777
I0
tp7059
a(I0
I1234
I0
g241
I0
tp7060
a(I0
I1675
I0
S'sd'
p7061
I0
tp7062
a(I0
I1745
I0
g245
I0
tp7063
a(I0
I1982
F-0.375
g2850
I0
tp7064
a(I0
I2518
I0
g2784
I0
tp7065
a(I0
I2518
I0
g2786
I0
tp7066
a(I0
I2518
F-0.25
g2788
I0
tp7067
a(I0
I2518
I0
g2790
I0
tp7068
a(I0
I2792
F-0.25
g2858
I0
tp7069
a(I0
I2858
F-0.25
g2862
I0
tp7070
a(I0
I3198
F-0.5
S'separate'
p7071
I0
tp7072
a(I0
I3220
I0
g484
I0
tp7073
a(I0
I3389
F-0.25
g2867
I0
tp7074
a(I0
I4204
I0
g266
I0
tp7075
a(I0
I4371
I0
g270
I0
tp7076
a(I0
I4791
I0
g2814
I0
tp7077
a(I0
I4793
I0
g2880
I0
tp7078
a(I0
I4943
I0
g2882
I0
tp7079
a(I0
I4944
I0
g2817
I0
tp7080
a(I0
I4977
I0
g2889
I0
tp7081
a(I0
I4977
I0
g2891
I0
tp7082
a(I0
I5612
I0
g288
I0
tp7083
a(I0
I5653
I0
g2897
I0
tp7084
a(I0
I5741
F0.25
g2899
I0
tp7085
a(I0
I5741
I0
g2901
I0
tp7086
a(I0
I6175
F-0.25
g2905
I0
tp7087
a(I0
I6377
F-0.25
g2907
I0
tp7088
a(I0
I6398
I0
g296
I0
tp7089
a(I0
I6399
I0
g2910
I0
tp7090
a(I0
I6563
F-0.25
g2913
I0
tp7091
a(I0
I6751
I0
g2915
I0
tp7092
a(I0
I7056
I0
g2918
I0
tp7093
a(I0
I7138
I0
g2834
I0
tp7094
a(I0
I192
F-0.25
g2768
I8
tp7095
a(I0
I637
I0
g2842
I8
tp7096
a(I0
I839
F0.625
g234
I8
tp7097
a(I0
I966
I0
g472
I8
tp7098
a(I0
I967
F0.375
S'contact'
p7099
I8
tp7100
a(I0
I1125
I0
g2777
I8
tp7101
a(I0
I1234
I0
g241
I8
tp7102
a(I0
I1675
I0
g7061
I8
tp7103
a(I0
I1745
I0
g245
I8
tp7104
a(I0
I1982
F-0.375
g2850
I8
tp7105
a(I0
I2029
I0
S'more'
p7106
I8
tp7107
a(I0
I2518
I0
g2784
I8
tp7108
a(I0
I2518
I0
g2786
I8
tp7109
a(I0
I2518
F-0.25
g2788
I8
tp7110
a(I0
I2518
I0
g2790
I8
tp7111
a(I0
I2793
I0
g2792
I8
tp7112
a(I0
I3002
F0.5
g482
I8
tp7113
a(I0
I3220
I0
g484
I8
tp7114
a(I0
I3822
F0.5
g260
I8
tp7115
a(I0
I3822
I0
g262
I8
tp7116
a(I0
I4204
I0
g266
I8
tp7117
a(I0
I4371
I0
g270
I8
tp7118
a(I0
I4610
I0
g498
I8
tp7119
a(I0
I4791
I0
g2814
I8
tp7120
a(I0
I4793
I0
g2880
I8
tp7121
a(I0
I4943
I0
g2882
I8
tp7122
a(I0
I4944
I0
g2817
I8
tp7123
a(I0
I4977
I0
g2889
I8
tp7124
a(I0
I4977
I0
g2891
I8
tp7125
a(I0
I5042
F0.75
g276
I8
tp7126
a(I0
I5106
F0.125
g278
I8
tp7127
a(I0
I5299
F0.5
g280
I8
tp7128
a(I0
I5612
I0
g288
I8
tp7129
a(I0
I5653
I0
g2897
I8
tp7130
a(I0
I5741
F0.25
g2899
I8
tp7131
a(I0
I5741
I0
g2901
I8
tp7132
a(I0
I6036
F0.125
g511
I8
tp7133
a(I0
I6196
F-0.375
S'manual'
p7134
I8
tp7135
a(I0
I6196
I0
S'guaranty'
p7136
I8
tp7137
a(I0
I6398
I0
g296
I8
tp7138
a(I0
I6399
I0
g2910
I8
tp7139
a(I0
I6471
F-0.375
g517
I8
tp7140
a(I0
I6751
I0
g2915
I8
tp7141
a(I0
I7056
I0
g2918
I8
tp7142
a(I0
I7138
I0
g2834
I8
tp7143
as(S'apps'
p7144
tp7145
(lp7146
(I0
I156
I0
S'u'
p7147
I4
tp7148
a(I0
I156
F-0.125
S'such'
p7149
I4
tp7150
a(I0
I299
F-0.125
S'such'
p7151
I4
tp7152
a(I0
I518
F-0.25
S'i'
p7153
I4
tp7154
a(I0
I701
F-0.75
S'open'
p7155
I4
tp7156
a(I0
I1523
F0.375
S'much'
p7157
I4
tp7158
a(I0
I1523
F0.75
S'essential'
p7159
I4
tp7160
a(I0
I1525
I0
S'few'
p7161
I4
tp7162
a(I0
I1606
F0.5
S'internal'
p7163
I4
tp7164
a(I0
I1807
F-0.625
S'other'
p7165
I4
tp7166
a(I0
I1807
F-0.5
S'heavy'
p7167
I4
tp7168
a(I0
I2079
F-0.375
S'start'
p7169
I4
tp7170
a(I0
I2726
I0
S'u'
p7171
I4
tp7172
a(I0
I3175
I0
S'nd'
p7173
I4
tp7174
a(I0
I3422
F0.625
S'certain'
p7175
I4
tp7176
a(I0
I3423
I0
S'individual'
p7177
I4
tp7178
a(I0
I3467
I0
S'more'
p7179
I4
tp7180
a(I0
I3597
I0
S'additional'
p7181
I4
tp7182
a(I0
I3743
F-0.5
S'heavy'
p7183
I4
tp7184
a(I0
I4205
I0
S'multiple'
p7185
I4
tp7186
a(I0
I4292
F-0.625
S'other'
p7187
I4
tp7188
a(I0
I4292
F0.375
S'much'
p7189
I4
tp7190
a(I0
I4292
F-0.5
S'less'
p7191
I4
tp7192
a(I0
I4507
F-0.25
S'external'
p7193
I4
tp7194
a(I0
I4760
F0.75
S'precious'
p7195
I4
tp7196
a(I0
I4760
I0
S'installed'
p7197
I4
tp7198
a(I0
I5528
F0.625
S'productive'
p7199
I4
tp7200
a(I0
I5773
I0
S'many'
p7201
I4
tp7202
a(I0
I5775
I0
S'many'
p7203
I4
tp7204
a(I0
I5775
F0.875
S'important'
p7205
I4
tp7206
a(I0
I6009
I0
S'u'
p7207
I4
tp7208
a(I0
I6010
I0
S'many'
p7209
I4
tp7210
a(I0
I6230
I-100
S'badmany'
p7211
I4
tp7212
as(S'lenovo'
p7213
S'k4'
p7214
S'note'
p7215
tp7216
(lp7217
(I0
I6766
F0.375
g4483
I0
tp7218
a(I0
I6766
F0.375
g4483
I0
tp7219
as.