(dp0
(S'2'
p1
S'gb'
p2
S'ram'
p3
tp4
(lp5
(I0
I1196
F1.0
S'good'
p6
I4
tp7
a(I0
I2345
F-0.125
S'huge'
p8
I4
tp9
a(I0
I3579
F-0.375
S'fancy'
p10
I4
tp11
a(I0
I3846
I0
S't'
p12
I4
tp13
a(I0
I4009
F-0.75
S'free'
p14
I4
tp15
a(I0
I4079
F-0.5
S'slow'
p16
I4
tp17
a(I0
I8138
I0
S'gb'
p18
I4
tp19
as(S'heating'
p20
S'issue'
p21
tp22
(lp23
(I0
I153
F0.5
S'second'
p24
I2
tp25
a(I0
I154
I0
S't'
p26
I2
tp27
a(I0
I154
F0.375
S'heating'
p28
I2
tp29
a(I0
I578
F0.625
S'manageable'
p30
I2
tp31
a(I0
I879
F0.375
S'heating'
p32
I2
tp33
a(I0
I880
I0
S'normal'
p34
I2
tp35
a(I0
I958
F0.375
S'heating'
p36
I2
tp37
a(I0
I1019
F0.625
S'major'
p38
I2
tp39
a(I0
I1741
F-0.778
S'common'
p40
I2
tp41
a(I0
I1952
F0.625
S'major'
p42
I2
tp43
a(I0
I2063
I0
S'more'
p44
I2
tp45
a(I0
I2800
F0.375
S'heating'
p46
I2
tp47
a(I0
I2806
F0.375
S'heating'
p48
I2
tp49
a(I0
I2806
I0
S'earpiece'
p50
I2
tp51
a(I0
I2978
I0
S'big'
p52
I2
tp53
a(I0
I3132
F-0.625
S'overheating'
p54
I2
tp55
a(I0
I3346
F-0.75
S'fatal'
p56
I2
tp57
a(I0
I3381
F-0.5
S'annoying'
p58
I2
tp59
a(I0
I3508
F0.375
S'heating'
p60
I2
tp61
a(I0
I3607
F-0.875
S'negative'
p62
I2
tp63
a(I0
I3890
F0.375
S'much'
p64
I2
tp65
a(I0
I3900
F-0.625
S'new'
p66
I2
tp67
a(I0
I3934
I0
S'main'
p68
I2
tp69
a(I0
I3971
F0.125
S'mobile'
p70
I2
tp71
a(I0
I4172
F0.625
S'major'
p72
I2
tp73
a(I0
I4208
F0.625
S'major'
p74
I2
tp75
a(I0
I4447
I0
S'big'
p76
I2
tp77
a(I0
I4467
F-0.5
S'call'
p78
I2
tp79
a(I0
I4490
F0.375
S'heating'
p80
I2
tp81
a(I0
I4521
F1.0
S'good'
p82
I2
tp83
a(I0
I4581
F0.125
S'mobile'
p84
I2
tp85
a(I0
I4636
F0.625
S'major'
p86
I2
tp87
a(I0
I4724
F0.375
S'heating'
p88
I2
tp89
a(I0
I5010
F0.375
S'heating'
p90
I2
tp91
a(I0
I5045
F0.375
S'heating'
p92
I2
tp93
a(I0
I5049
F0.125
S'mobile'
p94
I2
tp95
a(I0
I5049
F0.375
S'much'
p96
I2
tp97
a(I0
I5160
F-0.625
S'other'
p98
I2
tp99
a(I0
I5361
I0
S't'
p100
I2
tp101
a(I0
I5409
I0
S'big'
p102
I2
tp103
a(I0
I5422
F0.25
S'related'
p104
I2
tp105
a(I0
I5690
F-0.125
S'os'
p106
I2
tp107
a(I0
I5690
I0
S'serious'
p108
I2
tp109
a(I0
I5755
F0.375
S'heating'
p110
I2
tp111
a(I0
I5891
F0.375
S'heating'
p112
I2
tp113
a(I0
I5950
F0.375
S'much'
p114
I2
tp115
a(I0
I5959
I0
S'lag'
p116
I2
tp117
a(I0
I5959
F-0.778
S'common'
p118
I2
tp119
a(I0
I5988
F0.5
S'high'
p120
I2
tp121
a(I0
I6042
I0
S'serious'
p122
I2
tp123
a(I0
I6062
F0.375
S'much'
p124
I2
tp125
a(I0
I6069
F0.5
S'high'
p126
I2
tp127
a(I0
I6138
F-0.875
S'wrong'
p128
I2
tp129
a(I0
I6161
I0
S's'
p130
I2
tp131
a(I0
I6170
F-0.625
S'new'
p132
I2
tp133
a(I0
I6288
F-0.75
S'difficult'
p134
I2
tp135
a(I0
I6640
F0.75
S'perfect'
p136
I2
tp137
a(I0
I6640
I0
S'hot'
p138
I2
tp139
a(I0
I6654
F-0.25
S'drain'
p140
I2
tp141
a(I0
I6986
I-100
S'mobileheavy'
p142
I2
tp143
a(I0
I6991
F0.625
S'major'
p144
I2
tp145
a(I0
I7159
I0
S'big'
p146
I2
tp147
a(I0
I7256
I0
S'camera'
p148
I2
tp149
a(I0
I7313
F0.375
S'heating'
p150
I2
tp151
a(I0
I7324
F-1.0
S'bad'
p152
I2
tp153
a(I0
I7329
F0.625
S'certain'
p154
I2
tp155
a(I0
I7329
F0.375
S'heating'
p156
I2
tp157
a(I0
I7333
I-100
S'badgood'
p158
I2
tp159
a(I0
I7334
I0
S'main'
p160
I2
tp161
a(I0
I7773
F-0.75
S'unnatural'
p162
I2
tp163
a(I0
I7794
I0
S'big'
p164
I2
tp165
a(I0
I7994
F0.375
S'heating'
p166
I2
tp167
a(I0
I8205
I0
S'big'
p168
I2
tp169
a(I0
I8238
F0.5
S'heat'
p170
I2
tp171
a(I0
I8378
F-0.778
S'common'
p172
I2
tp173
a(I0
I8382
F0.375
S'heating'
p174
I2
tp175
a(I0
I8392
F0.375
S'much'
p176
I2
tp177
as(S'proximity'
p178
S'sensor'
p179
S'issue'
p180
tp181
(lp182
(I0
I2644
I0
S'sensor'
p183
I0
tp184
a(I0
I4155
F-0.25
S'surprised'
p185
I0
tp186
a(I0
I5330
F-0.5
S'facing'
p187
I0
tp188
a(I0
I6859
F-0.625
S'blank'
p189
I0
tp190
a(I0
I7611
F-0.875
S'small'
p191
I0
tp192
a(I0
I8129
F-0.375
S'same'
p193
I0
tp194
a(I0
I2526
F-0.125
S'such'
p195
I0
tp196
a(I0
I2644
I0
g183
I0
tp197
a(I0
I5330
F-0.5
g187
I0
tp198
a(I0
I6586
F-0.25
S'disconnect'
p199
I0
tp200
a(I0
I6586
F-0.5
S'call'
p201
I0
tp202
a(I0
I6586
F0.5
S'touch'
p203
I0
tp204
a(I0
I6859
F-0.625
g189
I0
tp205
a(I0
I7611
F-0.875
g191
I0
tp206
a(I0
I1729
F0.5
S'vital'
p207
I7
tp208
a(I0
I1729
I0
S'useful'
p209
I7
tp210
a(I0
I3815
F1.0
S'better'
p211
I7
tp212
a(I0
I6586
F0.5
g203
I7
tp213
a(I0
I7450
F0.125
S'mobile'
p214
I7
tp215
as(S'battery'
p216
S'drains'
p217
tp218
(lp219
(I0
I92
I0
S'pretty'
p220
I3
tp221
a(I0
I639
F0.5
S'maximum'
p222
I3
tp223
a(I0
I878
F-0.125
S'such'
p224
I3
tp225
a(I0
I1318
F0.5
S'second'
p226
I3
tp227
a(I0
I2397
I-100
S'aug.'
p228
I3
tp229
a(I0
I2713
F-0.625
S'other'
p230
I3
tp231
a(I0
I2713
F0.875
S'happy'
p232
I3
tp233
a(I0
I3136
F-0.625
S'fast'
p234
I3
tp235
a(I0
I3311
F-0.625
S'fast'
p236
I3
tp237
a(I0
I3483
F-0.875
S'poor'
p238
I3
tp239
a(I0
I4674
F-0.625
S'fast'
p240
I3
tp241
a(I0
I5281
F0.375
S'much'
p242
I3
tp243
a(I0
I5510
F-0.625
S'faster'
p244
I3
tp245
a(I0
I5546
F0.375
S'much'
p246
I3
tp247
a(I0
I6622
F0.75
S'perfect'
p248
I3
tp249
a(I0
I6986
F0.375
S'much'
p250
I3
tp251
a(I0
I6986
I-100
S'quiccklygreat'
p252
I3
tp253
a(I0
I7195
F1.0
S'good'
p254
I3
tp255
a(I0
I7195
I0
S'processor'
p256
I3
tp257
a(I0
I7499
I0
S'net'
p258
I3
tp259
a(I0
I7836
F-0.625
S'fast'
p260
I3
tp261
a(I0
I8395
I0
S'u'
p262
I3
tp263
as(S'camera'
p264
S'quality'
p265
S'good'
p266
tp267
(lp268
(I0
I548
F1.0
S'good'
p269
I0
tp270
a(I0
I548
F0.5
S'fade'
p271
I0
tp272
a(I0
I820
F1.0
S'good'
p273
I0
tp274
a(I0
I1444
I0
S'handy'
p275
I0
tp276
a(I0
I1444
F1.0
S'good'
p277
I0
tp278
a(I0
I2085
F-0.625
S'sharp'
p279
I0
tp280
a(I0
I2259
F-0.875
S'low'
p281
I0
tp282
a(I0
I2387
F1.0
S'good'
p283
I0
tp284
a(I0
I2655
F1.0
S'good'
p285
I0
tp286
a(I0
I2767
F-0.625
S'fast'
p287
I0
tp288
a(I0
I2767
F1.0
S'good'
p289
I0
tp290
a(I0
I2806
F-0.5
S'call'
p291
I0
tp292
a(I0
I2806
F1.0
S'good'
p293
I0
tp294
a(I0
I2806
I0
S'build'
p295
I0
tp296
a(I0
I2806
F1.0
S'good'
p297
I0
tp298
a(I0
I2924
F1.0
S'good'
p299
I0
tp300
a(I0
I2937
F1.0
S'good'
p301
I0
tp302
a(I0
I2979
F1.0
S'good'
p303
I0
tp304
a(I0
I2979
F1.0
S'good'
p305
I0
tp306
a(I0
I3039
F1.0
S'good'
p307
I0
tp308
a(I0
I3039
F1.0
S'good'
p309
I0
tp310
a(I0
I3219
F1.0
S'good'
p311
I0
tp312
a(I0
I3219
F-0.625
S'new'
p313
I0
tp314
a(I0
I3239
F0.875
S'nice'
p315
I0
tp316
a(I0
I3239
F1.0
S'good'
p317
I0
tp318
a(I0
I3338
F1.0
S'good'
p319
I0
tp320
a(I0
I3338
F1.0
S'good'
p321
I0
tp322
a(I0
I3395
F1.0
S'good'
p323
I0
tp324
a(I0
I3703
I0
S'chinese'
p325
I0
tp326
a(I0
I3714
F1.0
S'good'
p327
I0
tp328
a(I0
I4053
I0
S'build'
p329
I0
tp330
a(I0
I4053
F1.0
S'good'
p331
I0
tp332
a(I0
I4362
F1.0
S'good'
p333
I0
tp334
a(I0
I4584
F1.0
S'good'
p335
I0
tp336
a(I0
I4617
F1.0
S'good'
p337
I0
tp338
a(I0
I4682
F1.0
S'good'
p339
I0
tp340
a(I0
I4776
F0.75
S'sound'
p341
I0
tp342
a(I0
I4785
F-0.125
S'front'
p343
I0
tp344
a(I0
I5042
F0.375
S'ok'
p345
I0
tp346
a(I0
I5192
F1.0
S'good'
p347
I0
tp348
a(I0
I5413
F1.0
S'good'
p349
I0
tp350
a(I0
I5518
F1.0
S'better'
p351
I0
tp352
a(I0
I5577
F0.875
S'nice'
p353
I0
tp354
a(I0
I5774
F1.0
S'good'
p355
I0
tp356
a(I0
I6401
I-100
S'nowgood'
p357
I0
tp358
a(I0
I6684
I-100
S'goodcamera'
p359
I0
tp360
a(I0
I6835
F1.0
S'good'
p361
I0
tp362
a(I0
I7006
F1.0
S'good'
p363
I0
tp364
a(I0
I7128
I0
S'ut'
p365
I0
tp366
a(I0
I7128
I-100
S'pricecamera'
p367
I0
tp368
a(I0
I7161
F1.0
S'good'
p369
I0
tp370
a(I0
I7494
F1.0
S'good'
p371
I0
tp372
a(I0
I7901
F-0.25
S'earlier'
p373
I0
tp374
a(I0
I7901
F1.0
S'good'
p375
I0
tp376
a(I0
I8012
F1.0
S'good'
p377
I0
tp378
a(I0
I8050
F1.0
S'good'
p379
I0
tp380
a(I0
I8063
I-100
S'camerabad'
p381
I0
tp382
a(I0
I63
F-0.125
S'front'
p383
I3
tp384
a(I0
I63
F1.0
S'good'
p385
I3
tp386
a(I0
I309
F1.0
S'good'
p387
I3
tp388
a(I0
I491
F1.0
S'good'
p389
I3
tp390
a(I0
I581
F1.0
S'good'
p391
I3
tp392
a(I0
I581
F0.125
S'enough'
p393
I3
tp394
a(I0
I581
I0
S'light'
p395
I3
tp396
a(I0
I581
F-1.0
S'bad'
p397
I3
tp398
a(I0
I581
F-0.125
S'front'
p399
I3
tp400
a(I0
I598
F1.0
S'good'
p401
I3
tp402
a(I0
I798
F1.0
S'good'
p403
I3
tp404
a(I0
I966
F1.0
S'good'
p405
I3
tp406
a(I0
I1174
F1.0
S'good'
p407
I3
tp408
a(I0
I1192
F1.0
S'good'
p409
I3
tp410
a(I0
I1345
I0
S'rear'
p411
I3
tp412
a(I0
I1345
F1.0
S'good'
p413
I3
tp414
a(I0
I1434
F1.0
S'good'
p415
I3
tp416
a(I0
I1442
F1.0
S'good'
p417
I3
tp418
a(I0
I1444
I0
g275
I3
tp419
a(I0
I1497
F1.0
S'good'
p420
I3
tp421
a(I0
I1705
F1.0
S'good'
p422
I3
tp423
a(I0
I1799
F1.0
S'good'
p424
I3
tp425
a(I0
I1799
F0.5
S'powerful'
p426
I3
tp427
a(I0
I1805
F-1.0
S'bad'
p428
I3
tp429
a(I0
I2025
F1.0
S'good'
p430
I3
tp431
a(I0
I2075
F1.0
S'good'
p432
I3
tp433
a(I0
I2075
F-0.875
S'low'
p434
I3
tp435
a(I0
I2085
F-0.625
g279
I3
tp436
a(I0
I2234
F1.0
S'good'
p437
I3
tp438
a(I0
I2275
F1.0
S'better'
p439
I3
tp440
a(I0
I2442
F1.0
S'good'
p441
I3
tp442
a(I0
I2546
F1.0
S'good'
p443
I3
tp444
a(I0
I2626
F1.0
S'good'
p445
I3
tp446
a(I0
I2767
F-0.625
g287
I3
tp447
a(I0
I2806
I-100
S'plusd'
p448
I3
tp449
a(I0
I2822
F1.0
S'good'
p450
I3
tp451
a(I0
I2855
F1.0
S'good'
p452
I3
tp453
a(I0
I2855
F0.875
S'great'
p454
I3
tp455
a(I0
I2861
F1.0
S'good'
p456
I3
tp457
a(I0
I2924
F1.0
g299
I3
tp458
a(I0
I2979
F1.0
g303
I3
tp459
a(I0
I3039
F1.0
g307
I3
tp460
a(I0
I3081
F0.875
S'nice'
p461
I3
tp462
a(I0
I3081
F0.625
S'fine'
p463
I3
tp464
a(I0
I3119
F1.0
S'good'
p465
I3
tp466
a(I0
I3180
I0
S'light'
p467
I3
tp468
a(I0
I3180
I0
S'above'
p469
I3
tp470
a(I0
I3219
F1.0
g311
I3
tp471
a(I0
I3219
F-0.625
g313
I3
tp472
a(I0
I3239
F0.875
g315
I3
tp473
a(I0
I3338
F1.0
g319
I3
tp474
a(I0
I3358
F1.0
S'good'
p475
I3
tp476
a(I0
I3395
F1.0
g323
I3
tp477
a(I0
I3430
F1.0
S'good'
p478
I3
tp479
a(I0
I3531
F-0.625
S'new'
p480
I3
tp481
a(I0
I3686
I0
S'rear'
p482
I3
tp483
a(I0
I3686
F1.0
S'good'
p484
I3
tp485
a(I0
I3703
I0
g325
I3
tp486
a(I0
I3712
F1.0
S'good'
p487
I3
tp488
a(I0
I3853
F1.0
S'good'
p489
I3
tp490
a(I0
I3974
F0.875
S'brilliant'
p491
I3
tp492
a(I0
I3986
F1.0
S'good'
p493
I3
tp494
a(I0
I4078
F1.0
S'good'
p495
I3
tp496
a(I0
I4087
F1.0
S'good'
p497
I3
tp498
a(I0
I4228
F1.0
S'good'
p499
I3
tp500
a(I0
I4290
F0.875
S'decent'
p501
I3
tp502
a(I0
I4382
F1.0
S'good'
p503
I3
tp504
a(I0
I4451
F1.0
S'good'
p505
I3
tp506
a(I0
I4470
F1.0
S'good'
p507
I3
tp508
a(I0
I4544
F1.0
S'good'
p509
I3
tp510
a(I0
I4618
F1.0
S'good'
p511
I3
tp512
a(I0
I4682
F1.0
g339
I3
tp513
a(I0
I4683
F1.0
S'good'
p514
I3
tp515
a(I0
I4684
F1.0
S'good'
p516
I3
tp517
a(I0
I4785
F-0.125
g343
I3
tp518
a(I0
I4877
F1.0
S'good'
p519
I3
tp520
a(I0
I4913
F1.0
S'good'
p521
I3
tp522
a(I0
I5042
F0.375
g345
I3
tp523
a(I0
I5049
I0
S'rear'
p524
I3
tp525
a(I0
I5155
F1.0
S'good'
p526
I3
tp527
a(I0
I5192
F1.0
g347
I3
tp528
a(I0
I5341
F-0.125
S'overall'
p529
I3
tp530
a(I0
I5391
F0.875
S'nice'
p531
I3
tp532
a(I0
I5518
F1.0
g351
I3
tp533
a(I0
I5577
F0.875
g353
I3
tp534
a(I0
I5643
F0.75
S'proper'
p535
I3
tp536
a(I0
I5761
F0.875
S'gracious'
p537
I3
tp538
a(I0
I5786
F1.0
S'good'
p539
I3
tp540
a(I0
I5839
F1.0
S'good'
p541
I3
tp542
a(I0
I5866
F-0.625
S'average'
p543
I3
tp544
a(I0
I5866
F-1.0
S'bad'
p545
I3
tp546
a(I0
I5901
F1.0
S'good'
p547
I3
tp548
a(I0
I6018
F1.0
S'good'
p549
I3
tp550
a(I0
I6031
F1.0
S'good'
p551
I3
tp552
a(I0
I6031
F1.0
S'good'
p553
I3
tp554
a(I0
I6078
F1.0
S'good'
p555
I3
tp556
a(I0
I6235
F1.0
S'good'
p557
I3
tp558
a(I0
I6368
F1.0
S'good'
p559
I3
tp560
a(I0
I6375
F1.0
S'good'
p561
I3
tp562
a(I0
I6536
F1.0
S'good'
p563
I3
tp564
a(I0
I6539
F0.625
S'super'
p565
I3
tp566
a(I0
I6565
F1.0
S'good'
p567
I3
tp568
a(I0
I6835
F1.0
g361
I3
tp569
a(I0
I6882
F0.875
S'awesome'
p570
I3
tp571
a(I0
I6975
F1.0
S'good'
p572
I3
tp573
a(I0
I6979
F1.0
S'good'
p574
I3
tp575
a(I0
I7029
F1.0
S'good'
p576
I3
tp577
a(I0
I7246
F1.0
S'good'
p578
I3
tp579
a(I0
I7392
F-0.125
S'front'
p580
I3
tp581
a(I0
I7408
F1.0
S'good'
p582
I3
tp583
a(I0
I7596
F1.0
S'good'
p584
I3
tp585
a(I0
I7608
F1.0
S'good'
p586
I3
tp587
a(I0
I7700
I0
S'only'
p588
I3
tp589
a(I0
I7700
F-0.125
S'frontal'
p590
I3
tp591
a(I0
I7842
F1.0
S'good'
p592
I3
tp593
a(I0
I7901
F-0.25
g373
I3
tp594
a(I0
I8220
F1.0
S'good'
p595
I3
tp596
a(I0
I8220
F0.875
S'great'
p597
I3
tp598
a(I0
I548
F1.0
g269
I14
tp599
a(I0
I548
F0.5
g271
I14
tp600
a(I0
I820
F1.0
g273
I14
tp601
a(I0
I842
F-0.875
S'poor'
p602
I14
tp603
a(I0
I1133
F0.125
S'equivalent'
p604
I14
tp605
a(I0
I1361
F0.375
S'much'
p606
I14
tp607
a(I0
I1444
I0
g275
I14
tp608
a(I0
I1444
F1.0
g277
I14
tp609
a(I0
I2085
F-0.625
g279
I14
tp610
a(I0
I2206
F0.625
S'fine'
p611
I14
tp612
a(I0
I2259
F-0.875
g281
I14
tp613
a(I0
I2366
F-0.625
S'average'
p614
I14
tp615
a(I0
I2387
F1.0
g283
I14
tp616
a(I0
I2655
F1.0
g285
I14
tp617
a(I0
I2715
F0.875
S'nice'
p618
I14
tp619
a(I0
I2767
F-0.625
g287
I14
tp620
a(I0
I2767
F1.0
g289
I14
tp621
a(I0
I2785
F0.875
S'great'
p622
I14
tp623
a(I0
I2806
F-0.5
g291
I14
tp624
a(I0
I2806
F1.0
g293
I14
tp625
a(I0
I2806
I0
g295
I14
tp626
a(I0
I2806
F1.0
g297
I14
tp627
a(I0
I2916
F0.75
S'sound'
p628
I14
tp629
a(I0
I2916
I0
S'u'
p630
I14
tp631
a(I0
I2924
F1.0
g299
I14
tp632
a(I0
I2937
F1.0
g301
I14
tp633
a(I0
I2979
F1.0
g303
I14
tp634
a(I0
I2979
F1.0
g305
I14
tp635
a(I0
I3039
F1.0
g307
I14
tp636
a(I0
I3039
F1.0
g309
I14
tp637
a(I0
I3219
F1.0
g311
I14
tp638
a(I0
I3219
F-0.625
g313
I14
tp639
a(I0
I3239
F0.875
g315
I14
tp640
a(I0
I3239
F1.0
g317
I14
tp641
a(I0
I3338
F1.0
g319
I14
tp642
a(I0
I3338
F1.0
g321
I14
tp643
a(I0
I3395
F1.0
g323
I14
tp644
a(I0
I3703
I0
g325
I14
tp645
a(I0
I3714
F1.0
g327
I14
tp646
a(I0
I3764
F-0.75
S'disappointing'
p647
I14
tp648
a(I0
I4053
I0
g329
I14
tp649
a(I0
I4053
F1.0
g331
I14
tp650
a(I0
I4069
F-1.0
S'worst'
p651
I14
tp652
a(I0
I4278
F0.875
S'nice'
p653
I14
tp654
a(I0
I4278
F-0.375
S'same'
p655
I14
tp656
a(I0
I4362
F1.0
g333
I14
tp657
a(I0
I4584
F1.0
g335
I14
tp658
a(I0
I4617
F1.0
g337
I14
tp659
a(I0
I4634
F-0.875
S'poor'
p660
I14
tp661
a(I0
I4682
F1.0
g339
I14
tp662
a(I0
I4776
F0.75
g341
I14
tp663
a(I0
I4785
F-0.125
g343
I14
tp664
a(I0
I4938
I0
S'camera'
p665
I14
tp666
a(I0
I5042
F0.375
g345
I14
tp667
a(I0
I5165
F-0.625
S'average'
p668
I14
tp669
a(I0
I5192
F1.0
g347
I14
tp670
a(I0
I5413
F1.0
g349
I14
tp671
a(I0
I5518
F1.0
g351
I14
tp672
a(I0
I5577
F0.875
g353
I14
tp673
a(I0
I5622
F-1.0
S'bad'
p674
I14
tp675
a(I0
I5774
F1.0
g355
I14
tp676
a(I0
I5942
F1.0
S'better'
p677
I14
tp678
a(I0
I6026
F-0.875
S'poor'
p679
I14
tp680
a(I0
I6476
F-0.875
S'low'
p681
I14
tp682
a(I0
I6647
F0.125
S'mobile'
p683
I14
tp684
a(I0
I6661
F-0.875
S'poor'
p685
I14
tp686
a(I0
I6835
F1.0
g361
I14
tp687
a(I0
I7006
F1.0
g363
I14
tp688
a(I0
I7093
F0.625
S'fine'
p689
I14
tp690
a(I0
I7128
I0
g365
I14
tp691
a(I0
I7161
F1.0
g369
I14
tp692
a(I0
I7169
I0
S'camera'
p693
I14
tp694
a(I0
I7169
F0.25
S'worth'
p695
I14
tp696
a(I0
I7494
F1.0
g371
I14
tp697
a(I0
I7631
F0.875
S'great'
p698
I14
tp699
a(I0
I7649
F0.5
S'satisfactory'
p700
I14
tp701
a(I0
I7901
F-0.25
g373
I14
tp702
a(I0
I7901
F1.0
g375
I14
tp703
a(I0
I8012
F1.0
g377
I14
tp704
a(I0
I8050
F1.0
g379
I14
tp705
a(I0
I63
F-0.125
g383
I0
tp706
a(I0
I63
F1.0
g385
I0
tp707
a(I0
I309
F1.0
g387
I0
tp708
a(I0
I491
F1.0
g389
I0
tp709
a(I0
I581
F1.0
g391
I0
tp710
a(I0
I581
F0.125
g393
I0
tp711
a(I0
I581
I0
g395
I0
tp712
a(I0
I581
F-1.0
g397
I0
tp713
a(I0
I581
F-0.125
g399
I0
tp714
a(I0
I598
F1.0
g401
I0
tp715
a(I0
I798
F1.0
g403
I0
tp716
a(I0
I966
F1.0
g405
I0
tp717
a(I0
I1174
F1.0
g407
I0
tp718
a(I0
I1192
F1.0
g409
I0
tp719
a(I0
I1345
I0
g411
I0
tp720
a(I0
I1345
F1.0
g413
I0
tp721
a(I0
I1434
F1.0
g415
I0
tp722
a(I0
I1442
F1.0
g417
I0
tp723
a(I0
I1444
I0
g275
I0
tp724
a(I0
I1497
F1.0
g420
I0
tp725
a(I0
I1705
F1.0
g422
I0
tp726
a(I0
I1799
F1.0
g424
I0
tp727
a(I0
I1799
F0.5
g426
I0
tp728
a(I0
I1805
F-1.0
g428
I0
tp729
a(I0
I2025
F1.0
g430
I0
tp730
a(I0
I2075
F1.0
g432
I0
tp731
a(I0
I2075
F-0.875
g434
I0
tp732
a(I0
I2085
F-0.625
g279
I0
tp733
a(I0
I2234
F1.0
g437
I0
tp734
a(I0
I2275
F1.0
g439
I0
tp735
a(I0
I2442
F1.0
g441
I0
tp736
a(I0
I2546
F1.0
g443
I0
tp737
a(I0
I2626
F1.0
g445
I0
tp738
a(I0
I2767
F-0.625
g287
I0
tp739
a(I0
I2822
F1.0
g450
I0
tp740
a(I0
I2855
F1.0
g452
I0
tp741
a(I0
I2855
F0.875
g454
I0
tp742
a(I0
I2861
F1.0
g456
I0
tp743
a(I0
I2924
F1.0
g299
I0
tp744
a(I0
I2979
F1.0
g303
I0
tp745
a(I0
I3039
F1.0
g307
I0
tp746
a(I0
I3081
F0.875
g461
I0
tp747
a(I0
I3081
F0.625
g463
I0
tp748
a(I0
I3119
F1.0
g465
I0
tp749
a(I0
I3180
I0
g467
I0
tp750
a(I0
I3180
I0
g469
I0
tp751
a(I0
I3219
F1.0
g311
I0
tp752
a(I0
I3219
F-0.625
g313
I0
tp753
a(I0
I3239
F0.875
g315
I0
tp754
a(I0
I3338
F1.0
g319
I0
tp755
a(I0
I3358
F1.0
g475
I0
tp756
a(I0
I3395
F1.0
g323
I0
tp757
a(I0
I3430
F1.0
g478
I0
tp758
a(I0
I3531
F-0.625
g480
I0
tp759
a(I0
I3686
I0
g482
I0
tp760
a(I0
I3686
F1.0
g484
I0
tp761
a(I0
I3703
I0
g325
I0
tp762
a(I0
I3712
F1.0
g487
I0
tp763
a(I0
I3853
F1.0
g489
I0
tp764
a(I0
I3974
F0.875
g491
I0
tp765
a(I0
I3986
F1.0
g493
I0
tp766
a(I0
I4078
F1.0
g495
I0
tp767
a(I0
I4087
F1.0
g497
I0
tp768
a(I0
I4228
F1.0
g499
I0
tp769
a(I0
I4290
F0.875
g501
I0
tp770
a(I0
I4382
F1.0
g503
I0
tp771
a(I0
I4451
F1.0
g505
I0
tp772
a(I0
I4470
F1.0
g507
I0
tp773
a(I0
I4544
F1.0
g509
I0
tp774
a(I0
I4618
F1.0
g511
I0
tp775
a(I0
I4682
F1.0
g339
I0
tp776
a(I0
I4683
F1.0
g514
I0
tp777
a(I0
I4684
F1.0
g516
I0
tp778
a(I0
I4785
F-0.125
g343
I0
tp779
a(I0
I4877
F1.0
g519
I0
tp780
a(I0
I4913
F1.0
g521
I0
tp781
a(I0
I5042
F0.375
g345
I0
tp782
a(I0
I5049
I0
g524
I0
tp783
a(I0
I5155
F1.0
g526
I0
tp784
a(I0
I5192
F1.0
g347
I0
tp785
a(I0
I5341
F-0.125
g529
I0
tp786
a(I0
I5391
F0.875
g531
I0
tp787
a(I0
I5518
F1.0
g351
I0
tp788
a(I0
I5577
F0.875
g353
I0
tp789
a(I0
I5643
F0.75
g535
I0
tp790
a(I0
I5761
F0.875
g537
I0
tp791
a(I0
I5786
F1.0
g539
I0
tp792
a(I0
I5839
F1.0
g541
I0
tp793
a(I0
I5866
F-0.625
g543
I0
tp794
a(I0
I5866
F-1.0
g545
I0
tp795
a(I0
I5901
F1.0
g547
I0
tp796
a(I0
I6018
F1.0
g549
I0
tp797
a(I0
I6031
F1.0
g551
I0
tp798
a(I0
I6031
F1.0
g553
I0
tp799
a(I0
I6078
F1.0
g555
I0
tp800
a(I0
I6235
F1.0
g557
I0
tp801
a(I0
I6368
F1.0
g559
I0
tp802
a(I0
I6375
F1.0
g561
I0
tp803
a(I0
I6536
F1.0
g563
I0
tp804
a(I0
I6539
F0.625
g565
I0
tp805
a(I0
I6565
F1.0
g567
I0
tp806
a(I0
I6835
F1.0
g361
I0
tp807
a(I0
I6882
F0.875
g570
I0
tp808
a(I0
I6975
F1.0
g572
I0
tp809
a(I0
I6979
F1.0
g574
I0
tp810
a(I0
I7029
F1.0
g576
I0
tp811
a(I0
I7246
F1.0
g578
I0
tp812
a(I0
I7392
F-0.125
g580
I0
tp813
a(I0
I7408
F1.0
g582
I0
tp814
a(I0
I7596
F1.0
g584
I0
tp815
a(I0
I7608
F1.0
g586
I0
tp816
a(I0
I7700
I0
g588
I0
tp817
a(I0
I7700
F-0.125
g590
I0
tp818
a(I0
I7842
F1.0
g592
I0
tp819
a(I0
I7901
F-0.25
g373
I0
tp820
a(I0
I8220
F1.0
g595
I0
tp821
a(I0
I8220
F0.875
g597
I0
tp822
as(S'yu'
p823
S'yureka'
p824
S'plus'
p825
tp826
(lp827
(I0
I397
F-0.625
S'new'
p828
I0
tp829
a(I0
I799
I0
S'2nd'
p830
I0
tp831
a(I0
I1317
F-0.625
S'other'
p832
I0
tp833
a(I0
I1485
F0.5
S'dual'
p834
I0
tp835
a(I0
I1487
F0.875
S'great'
p836
I0
tp837
a(I0
I1487
F1.0
S'good'
p838
I0
tp839
a(I0
I1791
F1.0
S'good'
p840
I0
tp841
a(I0
I1795
F1.0
S'better'
p842
I0
tp843
a(I0
I1796
I0
S'more'
p844
I0
tp845
a(I0
I2009
F0.125
S'mobile'
p846
I0
tp847
a(I0
I2096
F0.125
S'usual'
p848
I0
tp849
a(I0
I2170
F0.625
S'fine'
p850
I0
tp851
a(I0
I2460
F0.25
S'able'
p852
I0
tp853
a(I0
I2666
F0.5
S'concerned'
p854
I0
tp855
a(I0
I2666
F0.875
S'happy'
p856
I0
tp857
a(I0
I2798
F-0.25
S'earlier'
p858
I0
tp859
a(I0
I3111
F0.625
S'fine'
p860
I0
tp861
a(I0
I3237
F-0.625
S'other'
p862
I0
tp863
a(I0
I3464
F0.75
S'due'
p864
I0
tp865
a(I0
I3551
F0.75
S'due'
p866
I0
tp867
a(I0
I3617
F-0.25
S'i'
p868
I0
tp869
a(I0
I3617
I0
S't'
p870
I0
tp871
a(I0
I3651
F0.125
S'mobile'
p872
I0
tp873
a(I0
I4466
I0
S's'
p874
I0
tp875
a(I0
I4518
I-100
S'thru'
p876
I0
tp877
a(I0
I4565
F1.0
S'good'
p878
I0
tp879
a(I0
I4885
I0
S'batter'
p880
I0
tp881
a(I0
I4925
F-0.125
S'next'
p882
I0
tp883
a(I0
I5420
F-0.5
S'call'
p884
I0
tp885
a(I0
I5536
I0
S'si'
p886
I0
tp887
a(I0
I5732
F1.0
S'better'
p888
I0
tp889
a(I0
I5960
F0.375
S'available'
p890
I0
tp891
a(I0
I6170
I0
S'more'
p892
I0
tp893
a(I0
I6310
F-0.5
S'original'
p894
I0
tp895
a(I0
I6636
I0
S'impressed'
p896
I0
tp897
a(I0
I6638
F-0.625
S'new'
p898
I0
tp899
a(I0
I6673
F-0.625
S'useless'
p900
I0
tp901
a(I0
I7214
I-100
S'upthe'
p902
I0
tp903
a(I0
I7905
I0
S'android'
p904
I0
tp905
a(I0
I7957
F-0.625
S'excited'
p906
I0
tp907
a(I0
I7957
F0.75
S'whole'
p908
I0
tp909
a(I0
I7957
F-0.625
S'new'
p910
I0
tp911
a(I0
I7957
F0.125
S'mobile'
p912
I0
tp913
a(I0
I8108
I-100
S'goog'
p914
I0
tp915
a(I0
I8206
F-0.625
S'double'
p916
I0
tp917
a(I0
I396
I0
S'prior'
p918
I0
tp919
a(I0
I397
F-0.625
g828
I0
tp920
a(I0
I604
F1.0
S'good'
p921
I0
tp922
a(I0
I918
F0.625
S'superior'
p923
I0
tp924
a(I0
I1317
F-0.625
g832
I0
tp925
a(I0
I1403
I0
S'identical'
p926
I0
tp927
a(I0
I1431
F-0.375
S'same'
p928
I0
tp929
a(I0
I1449
F0.5
S'older'
p930
I0
tp931
a(I0
I1473
F-0.5
S'original'
p932
I0
tp933
a(I0
I1569
F0.125
S'mobile'
p934
I0
tp935
a(I0
I1788
F-0.25
S'earlier'
p936
I0
tp937
a(I0
I1788
F0.5
S'second'
p938
I0
tp939
a(I0
I1791
F1.0
g840
I0
tp940
a(I0
I1796
I0
g844
I0
tp941
a(I0
I1964
I0
S'u'
p942
I0
tp943
a(I0
I2096
F0.125
g848
I0
tp944
a(I0
I2244
F-0.5
S'broken'
p945
I0
tp946
a(I0
I2305
I0
S's'
p947
I0
tp948
a(I0
I2460
F0.25
g852
I0
tp949
a(I0
I2551
F1.0
S'better'
p950
I0
tp951
a(I0
I2798
F-0.25
g858
I0
tp952
a(I0
I2916
F0.25
S'future'
p953
I0
tp954
a(I0
I3111
F0.625
g860
I0
tp955
a(I0
I3170
F1.0
S'good'
p956
I0
tp957
a(I0
I3231
I0
S'u'
p958
I0
tp959
a(I0
I3237
F-0.625
g862
I0
tp960
a(I0
I3529
F1.0
S'good'
p961
I0
tp962
a(I0
I3529
I0
S'technician'
p963
I0
tp964
a(I0
I3551
F0.75
g866
I0
tp965
a(I0
I4243
I0
S'ridiculous'
p966
I0
tp967
a(I0
I4250
F-0.25
S'i'
p968
I0
tp969
a(I0
I4430
F-0.25
S'i'
p970
I0
tp971
a(I0
I4565
F1.0
g878
I0
tp972
a(I0
I4885
I0
g880
I0
tp973
a(I0
I5046
F0.125
S'mobile'
p974
I0
tp975
a(I0
I5060
F-0.625
S'last'
p976
I0
tp977
a(I0
I5062
I0
S'specs'
p978
I0
tp979
a(I0
I5132
F-0.375
S'same'
p980
I0
tp981
a(I0
I5420
F-0.5
g884
I0
tp982
a(I0
I5517
I0
S'updated'
p983
I0
tp984
a(I0
I5536
I0
g886
I0
tp985
a(I0
I5732
F1.0
g888
I0
tp986
a(I0
I5763
F0.125
S'mobile'
p987
I0
tp988
a(I0
I5960
F0.375
g890
I0
tp989
a(I0
I6170
I0
g892
I0
tp990
a(I0
I6288
F-0.625
S'last'
p991
I0
tp992
a(I0
I6310
F-0.5
g894
I0
tp993
a(I0
I6342
F-1.0
S'worse'
p994
I0
tp995
a(I0
I6353
F1.0
S'better'
p996
I0
tp997
a(I0
I6411
F0.375
S'much'
p998
I0
tp999
a(I0
I6636
I0
g896
I0
tp1000
a(I0
I6638
F-0.625
g898
I0
tp1001
a(I0
I6787
F-0.25
S'earlier'
p1002
I0
tp1003
a(I0
I7166
F-0.5
S'original'
p1004
I0
tp1005
a(I0
I7545
F1.0
S'better'
p1006
I0
tp1007
a(I0
I7597
F0.5
S'old'
p1008
I0
tp1009
a(I0
I7701
I0
S'more'
p1010
I0
tp1011
a(I0
I7881
F-0.5
S'regular'
p1012
I0
tp1013
a(I0
I7905
I0
g904
I0
tp1014
a(I0
I7957
F-0.625
g906
I0
tp1015
a(I0
I7957
F0.75
g908
I0
tp1016
a(I0
I7957
F-0.625
g910
I0
tp1017
a(I0
I8160
F-0.625
S'other'
p1018
I0
tp1019
a(I0
I8162
F-0.625
S'other'
p1020
I0
tp1021
a(I0
I8162
I0
S's'
p1022
I0
tp1023
a(I0
I8206
F-0.625
g916
I0
tp1024
a(I0
I8239
F1.0
S'better'
p1025
I0
tp1026
a(I0
I8314
F-0.25
S'previous'
p1027
I0
tp1028
as(S'lot'
p1029
S'of'
p1030
S'heating'
p1031
tp1032
(lp1033
(I0
I5989
F1.0
S'good'
p1034
I0
tp1035
a(I0
I5989
F-0.75
S'hell'
p1036
I0
tp1037
a(I0
I6069
F0.5
g126
I0
tp1038
a(I0
I6371
F0.375
S'much'
p1039
I0
tp1040
a(I0
I6684
I0
S's'
p1041
I0
tp1042
a(I0
I6748
F0.375
S'full'
p1043
I0
tp1044
a(I0
I7085
F-0.5
S'heavy'
p1045
I0
tp1046
as(S'cyanogen'
p1047
S'os'
p1048
tp1049
(lp1050
(I0
I797
F0.625
S'tried'
p1051
I0
tp1052
a(I0
I797
F0.625
S'tested'
p1053
I0
tp1054
a(I0
I1371
I0
S't'
p1055
I0
tp1056
a(I0
I1529
F-0.25
S'i'
p1057
I0
tp1058
a(I0
I1529
F0.375
S'much'
p1059
I0
tp1060
a(I0
I1566
I0
S'cool'
p1061
I0
tp1062
a(I0
I1951
F-0.125
S'present'
p1063
I0
tp1064
a(I0
I2936
F1.0
S'best'
p1065
I0
tp1066
a(I0
I2936
I0
S'u'
p1067
I0
tp1068
a(I0
I3038
I0
S'u'
p1069
I0
tp1070
a(I0
I3357
F0.875
S'great'
p1071
I0
tp1072
a(I0
I3803
F0.125
S'mobile'
p1073
I0
tp1074
a(I0
I4277
F1.0
S'best'
p1075
I0
tp1076
a(I0
I4277
I0
S'android'
p1077
I0
tp1078
a(I0
I4642
F0.875
S'nice'
p1079
I0
tp1080
a(I0
I4893
F-0.625
S'average'
p1081
I0
tp1082
a(I0
I6367
F1.0
S'best'
p1083
I0
tp1084
a(I0
I7351
I0
S'identical'
p1085
I0
tp1086
a(I0
I556
I0
S'sure'
p1087
I0
tp1088
a(I0
I797
F0.625
g1051
I0
tp1089
a(I0
I797
F0.625
g1053
I0
tp1090
a(I0
I1371
I0
g1055
I0
tp1091
a(I0
I1529
F-0.25
g1057
I0
tp1092
a(I0
I1529
F0.375
g1059
I0
tp1093
a(I0
I1566
I0
g1061
I0
tp1094
a(I0
I1914
F-0.375
S'same'
p1095
I0
tp1096
a(I0
I2936
F1.0
g1065
I0
tp1097
a(I0
I3357
F0.875
g1071
I0
tp1098
a(I0
I4808
F0.125
S'theme'
p1099
I0
tp1100
a(I0
I4893
F-0.625
g1081
I0
tp1101
a(I0
I7607
F1.0
S'good'
p1102
I0
tp1103
as(S'look'
p1104
S'and'
p1105
S'feel'
p1106
tp1107
(lp1108
(I0
I1566
F0.375
S'usage'
p1109
I0
tp1110
a(I0
I2131
F0.875
S'amazing'
p1111
I0
tp1112
a(I0
I3928
F1.0
S'good'
p1113
I0
tp1114
a(I0
I7225
I-100
S'fastnice'
p1115
I0
tp1116
as(S'colour'
p1117
S'reproduction'
p1118
tp1119
(lp1120
(I0
I2490
F0.625
S'colour'
p1121
I0
tp1122
a(I0
I3205
F0.625
S'colour'
p1123
I0
tp1124
a(I0
I3811
F1.0
S'good'
p1125
I0
tp1126
as(S'experience'
p1127
tp1128
(lp1129
(I0
I933
F-0.875
S'pathetic'
p1130
I12
tp1131
a(I0
I933
I-100
S'aweful'
p1132
I12
tp1133
a(I0
I1056
F1.0
S'good'
p1134
I12
tp1135
a(I0
I1086
F-0.625
S'horrible'
p1136
I12
tp1137
a(I0
I1149
F0.625
S'first'
p1138
I12
tp1139
a(I0
I1149
F-1.0
S'worst'
p1140
I12
tp1141
a(I0
I1472
I0
S'user'
p1142
I12
tp1143
a(I0
I1618
F-0.375
S'same'
p1144
I12
tp1145
a(I0
I1702
F0.625
S'first'
p1146
I12
tp1147
a(I0
I1814
F-1.0
S'bad'
p1148
I12
tp1149
a(I0
I1851
F-1.0
S'bad'
p1150
I12
tp1151
a(I0
I2102
F1.0
S'good'
p1152
I12
tp1153
a(I0
I2307
F-0.625
S'horrible'
p1154
I12
tp1155
a(I0
I2371
F-1.0
S'bad'
p1156
I12
tp1157
a(I0
I2490
F0.875
S'great'
p1158
I12
tp1159
a(I0
I2584
F0.875
S'awesome'
p1160
I12
tp1161
a(I0
I2734
F-1.0
S'bad'
p1162
I12
tp1163
a(I0
I2833
F0.125
S'mobile'
p1164
I12
tp1165
a(I0
I2862
F-0.75
S'pure'
p1166
I12
tp1167
a(I0
I2862
I0
S'android'
p1168
I12
tp1169
a(I0
I3164
I0
S'user'
p1170
I12
tp1171
a(I0
I3164
F-0.5
S'less'
p1172
I12
tp1173
a(I0
I3164
F0.5
S'enjoyable'
p1174
I12
tp1175
a(I0
I3205
F0.875
S'great'
p1176
I12
tp1177
a(I0
I3237
F1.0
S'good'
p1178
I12
tp1179
a(I0
I3411
F1.0
S'good'
p1180
I12
tp1181
a(I0
I3673
F-1.0
S'bad'
p1182
I12
tp1183
a(I0
I4151
F0.125
S'belief'
p1184
I12
tp1185
a(I0
I4470
F0.75
S'wonderful'
p1186
I12
tp1187
a(I0
I4711
I0
S'comfortable'
p1188
I12
tp1189
a(I0
I5014
F-0.125
S'overall'
p1190
I12
tp1191
a(I0
I5431
F-1.0
S'worst'
p1192
I12
tp1193
a(I0
I5481
F-0.75
S'disappointing'
p1194
I12
tp1195
a(I0
I5596
F0.625
S'frustrating'
p1196
I12
tp1197
a(I0
I5617
F-1.0
S'sad'
p1198
I12
tp1199
a(I0
I5779
F-1.0
S'bad'
p1200
I12
tp1201
a(I0
I6128
F0.875
S'amazing'
p1202
I12
tp1203
a(I0
I6222
F-0.25
S'past'
p1204
I12
tp1205
a(I0
I7125
F0.875
S'great'
p1206
I12
tp1207
a(I0
I7201
F0.875
S'awesome'
p1208
I12
tp1209
a(I0
I7321
I-100
S'gudamazingamazingawsome'
p1210
I12
tp1211
a(I0
I7401
F-1.0
S'worst'
p1212
I12
tp1213
a(I0
I7486
F-0.5
S'exaggerated'
p1214
I12
tp1215
a(I0
I7663
F0.875
S'awesome'
p1216
I12
tp1217
as(S'modern'
p1218
S'combat'
p1219
tp1220
(lp1221
(I0
I2745
I0
S'most'
p1222
I0
tp1223
a(I0
I2745
F0.5
S'modern'
p1224
I0
tp1225
a(I0
I8244
F0.5
S'modern'
p1226
I0
tp1227
as(S'sound'
p1228
tp1229
(lp1230
(I0
I601
F1.0
S'good'
p1231
I15
tp1232
a(I0
I601
F0.375
S'much'
p1233
I15
tp1234
a(I0
I878
F0.875
S'amazing'
p1235
I15
tp1236
a(I0
I986
F1.0
S'good'
p1237
I15
tp1238
a(I0
I1706
F1.0
S'good'
p1239
I15
tp1240
a(I0
I2587
F1.0
S'best'
p1241
I15
tp1242
a(I0
I2715
F0.875
S'nice'
p1243
I15
tp1244
a(I0
I3002
F-0.875
S'poor'
p1245
I15
tp1246
a(I0
I3245
F-0.875
S'low'
p1247
I15
tp1248
a(I0
I3247
F-0.5
S'loud'
p1249
I15
tp1250
a(I0
I4686
F-0.5
S'loud'
p1251
I15
tp1252
a(I0
I5269
F-0.875
S'low'
p1253
I15
tp1254
a(I0
I5942
F0.375
S'audible'
p1255
I15
tp1256
a(I0
I5977
F-1.0
S'bad'
p1257
I15
tp1258
a(I0
I6099
F1.0
S'good'
p1259
I15
tp1260
a(I0
I6293
F1.0
S'good'
p1261
I15
tp1262
a(I0
I7901
F-0.875
S'low'
p1263
I15
tp1264
as(S'time'
p1265
S'to'
p1266
S'get'
p1267
tp1268
(lp1269
(I0
I610
F-0.375
S'same'
p1270
I0
tp1271
a(I0
I1663
I0
S'initial'
p1272
I0
tp1273
a(I0
I1663
F0.625
S'first'
p1274
I0
tp1275
a(I0
I2415
I0
S'more'
p1276
I0
tp1277
a(I0
I3417
F-0.25
S'i'
p1278
I0
tp1279
a(I0
I3676
F-0.25
S'disconnect'
p1280
I0
tp1281
a(I0
I3793
F0.125
S'mobile'
p1282
I0
tp1283
a(I0
I4616
F0.625
S'first'
p1284
I0
tp1285
a(I0
I4616
F0.375
S'usage'
p1286
I0
tp1287
a(I0
I4978
I0
S'more'
p1288
I0
tp1289
a(I0
I5045
I0
S'more'
p1290
I0
tp1291
a(I0
I5340
F-0.5
S'long'
p1292
I0
tp1293
a(I0
I5918
F-0.5
S'less'
p1294
I0
tp1295
a(I0
I6593
I-100
S'slowphone'
p1296
I0
tp1297
as(S'yu'
p1298
S'customer'
p1299
S'care'
p1300
tp1301
(lp1302
(I0
I179
F-0.875
S'poor'
p1303
I0
tp1304
a(I0
I2318
F-1.0
S'worst'
p1305
I0
tp1306
a(I0
I2340
F-1.0
S'worst'
p1307
I0
tp1308
a(I0
I2850
F-0.75
S'hopeless'
p1309
I0
tp1310
a(I0
I3621
F-1.0
S'worst'
p1311
I0
tp1312
a(I0
I4243
I0
g966
I0
tp1313
a(I0
I5935
F1.0
S'best'
p1314
I0
tp1315
a(I0
I179
F-0.875
g1303
I12
tp1316
a(I0
I271
F-1.0
S'bad'
p1317
I12
tp1318
a(I0
I278
F-0.875
S'poor'
p1319
I12
tp1320
a(I0
I2318
F-1.0
g1305
I12
tp1321
a(I0
I2326
F-0.875
S'pathetic'
p1322
I12
tp1323
a(I0
I2340
F-1.0
g1307
I12
tp1324
a(I0
I4263
F0.75
S'proper'
p1325
I12
tp1326
a(I0
I4330
F-0.875
S'poor'
p1327
I12
tp1328
a(I0
I6939
F-1.0
S'worst'
p1329
I12
tp1330
a(I0
I7217
F-0.875
S'pathetic'
p1331
I12
tp1332
a(I0
I7452
F-1.0
S'worst'
p1333
I12
tp1334
a(I0
I271
F-1.0
g1317
I14
tp1335
a(I0
I1014
I0
S'many'
p1336
I14
tp1337
a(I0
I2015
I0
S'utmost'
p1338
I14
tp1339
a(I0
I2015
F-0.375
S'same'
p1340
I14
tp1341
a(I0
I2318
F-1.0
g1305
I14
tp1342
a(I0
I2326
F-0.875
g1322
I14
tp1343
a(I0
I2340
F-1.0
g1307
I14
tp1344
a(I0
I5009
F0.375
S'available'
p1345
I14
tp1346
a(I0
I5040
I-100
S'heatedcustomer'
p1347
I14
tp1348
as(S'software'
p1349
tp1350
(lp1351
(I0
I307
F1.0
S'good'
p1352
I2
tp1353
a(I0
I428
F0.25
S'able'
p1354
I2
tp1355
a(I0
I1213
F1.0
S'best'
p1356
I2
tp1357
a(I0
I1898
F-0.5
S'original'
p1358
I2
tp1359
a(I0
I2097
I0
S'update'
p1360
I2
tp1361
a(I0
I2406
I-100
S'updategot'
p1362
I2
tp1363
a(I0
I3556
F-0.625
S'new'
p1364
I2
tp1365
a(I0
I3556
I0
S'update'
p1366
I2
tp1367
a(I0
I3647
F0.75
S'whole'
p1368
I2
tp1369
a(I0
I4949
F-0.75
S'minor'
p1370
I2
tp1371
a(I0
I5236
F-0.75
S'unstable'
p1372
I2
tp1373
a(I0
I5638
I0
S'update'
p1374
I2
tp1375
a(I0
I6684
F1.0
S'good'
p1376
I2
tp1377
a(I0
I6684
F1.0
S'good'
p1378
I2
tp1379
a(I0
I7066
F1.0
S'good'
p1380
I2
tp1381
a(I0
I7511
F1.0
S'good'
p1382
I2
tp1383
a(I0
I7826
F-0.5
S'heavy'
p1384
I2
tp1385
as(S'hours'
p1386
S'to'
p1387
S'charge'
p1388
tp1389
(lp1390
(I0
I2848
I-100
S'goodtakes'
p1391
I0
tp1392
a(I0
I2848
F0.375
S'full'
p1393
I0
tp1394
a(I0
I4665
I0
S'more'
p1395
I0
tp1396
a(I0
I6599
I0
S'more'
p1397
I0
tp1398
a(I0
I6789
F0.375
S'full'
p1399
I0
tp1400
a(I0
I7808
I0
S'rush'
p1401
I0
tp1402
a(I0
I8232
F-0.625
S'last'
p1403
I0
tp1404
a(I0
I139
I0
S'internet'
p1405
I14
tp1406
a(I0
I600
F-0.5
S'backup'
p1407
I14
tp1408
a(I0
I1005
F0.625
S'first'
p1409
I14
tp1410
a(I0
I1005
I0
S'few'
p1411
I14
tp1412
a(I0
I2103
F0.875
S'great'
p1413
I14
tp1414
a(I0
I2301
F0.625
S'tops'
p1415
I14
tp1416
a(I0
I3588
F0.375
S'full'
p1417
I14
tp1418
a(I0
I3588
I0
S'more'
p1419
I14
tp1420
a(I0
I3788
I0
S'few'
p1421
I14
tp1422
a(I0
I3983
F0.375
S'usage'
p1423
I14
tp1424
a(I0
I4665
I0
g1395
I14
tp1425
a(I0
I5161
I0
S'net'
p1426
I14
tp1427
a(I0
I5461
F0.75
S'give'
p1428
I14
tp1429
a(I0
I5461
I0
S'nd'
p1430
I14
tp1431
a(I0
I6349
F-0.875
S'low'
p1432
I14
tp1433
a(I0
I6381
I0
S'continue'
p1434
I14
tp1435
a(I0
I6439
I0
S'more'
p1436
I14
tp1437
a(I0
I6599
I0
g1397
I14
tp1438
a(I0
I6625
I-100
S'onlythe'
p1439
I14
tp1440
a(I0
I6630
F-0.5
S'less'
p1441
I14
tp1442
a(I0
I6855
F0.5
S'maximum'
p1443
I14
tp1444
a(I0
I7480
I0
S't'
p1445
I14
tp1446
a(I0
I7480
I0
S'more'
p1447
I14
tp1448
a(I0
I7717
I0
S'oh'
p1449
I14
tp1450
a(I0
I7808
I0
g1401
I14
tp1451
a(I0
I8032
F0.25
S'standby'
p1452
I14
tp1453
a(I0
I8206
F1.0
S'good'
p1454
I14
tp1455
a(I0
I8232
F-0.625
g1403
I14
tp1456
as(S'and'
p1457
S'heating'
p1458
S'problem'
p1459
tp1460
(lp1461
(I0
I144
I0
S'main'
p1462
I0
tp1463
a(I0
I144
F0.625
S'major'
p1464
I0
tp1465
a(I0
I1145
F-0.875
S'pathetic'
p1466
I0
tp1467
a(I0
I1805
F1.0
S'good'
p1468
I0
tp1469
a(I0
I3227
F-0.875
S'poor'
p1470
I0
tp1471
a(I0
I3890
F0.375
g64
I0
tp1472
a(I0
I4461
F0.375
S'much'
p1473
I0
tp1474
a(I0
I4469
F-0.5
S'less'
p1475
I0
tp1476
a(I0
I4636
I0
S'more'
p1477
I0
tp1478
a(I0
I4724
F0.625
S'major'
p1479
I0
tp1480
a(I0
I4756
F-0.125
S'genetic'
p1481
I0
tp1482
a(I0
I5049
F0.125
g94
I0
tp1483
a(I0
I5049
F0.375
g96
I0
tp1484
a(I0
I5197
I0
S'many'
p1485
I0
tp1486
a(I0
I5197
F-0.625
S'other'
p1487
I0
tp1488
a(I0
I5462
F0.625
S'major'
p1489
I0
tp1490
a(I0
I5524
F0.375
S'much'
p1491
I0
tp1492
a(I0
I5542
F1.0
S'good'
p1493
I0
tp1494
a(I0
I5542
I0
S'big'
p1495
I0
tp1496
a(I0
I5612
F-0.5
S'heavy'
p1497
I0
tp1498
a(I0
I5959
F-0.778
g118
I0
tp1499
a(I0
I6062
F0.375
g124
I0
tp1500
a(I0
I6085
I0
S'only'
p1501
I0
tp1502
a(I0
I6199
F0.875
S'great'
p1503
I0
tp1504
a(I0
I6199
F0.75
S'easy'
p1505
I0
tp1506
a(I0
I6518
I0
S'main'
p1507
I0
tp1508
a(I0
I6558
I0
S'many'
p1509
I0
tp1510
a(I0
I6558
I0
S'big'
p1511
I0
tp1512
a(I0
I6558
I0
S'big'
p1513
I0
tp1514
a(I0
I6689
I0
S'big'
p1515
I0
tp1516
a(I0
I6689
I0
S'big'
p1517
I0
tp1518
a(I0
I6914
I0
S'continue'
p1519
I0
tp1520
a(I0
I7044
F0.375
S'much'
p1521
I0
tp1522
a(I0
I7078
I0
S'main'
p1523
I0
tp1524
a(I0
I7143
F0.125
S'mobile'
p1525
I0
tp1526
a(I0
I7143
F-0.125
S'such'
p1527
I0
tp1528
a(I0
I7143
I0
S'serious'
p1529
I0
tp1530
a(I0
I7334
I0
g160
I0
tp1531
a(I0
I7378
F-0.375
S'same'
p1532
I0
tp1533
a(I0
I7641
F0.375
S'much'
p1534
I0
tp1535
a(I0
I8028
F0.375
S'much'
p1536
I0
tp1537
as(S'waste'
p1538
S'of'
p1539
S'money'
p1540
tp1541
(lp1542
(I0
I2057
I-100
S'nowtotal'
p1543
I5
tp1544
a(I0
I3379
F-0.75
S'absolute'
p1545
I5
tp1546
a(I0
I3681
I0
S'rubbish'
p1547
I5
tp1548
a(I0
I4203
I0
S'total'
p1549
I5
tp1550
a(I0
I4962
I0
S'total'
p1551
I5
tp1552
a(I0
I7911
I0
S'total'
p1553
I5
tp1554
a(I0
I8111
I0
S'total'
p1555
I5
tp1556
as(S'in'
p1557
S'yureka'
p1558
S'plus'
p1559
tp1560
(lp1561
(I0
I1317
F-0.625
g832
I0
tp1562
a(I0
I1791
F1.0
g840
I0
tp1563
a(I0
I1796
I0
g844
I0
tp1564
a(I0
I2009
F0.125
g846
I0
tp1565
a(I0
I2170
F0.625
g850
I0
tp1566
a(I0
I2460
F0.25
g852
I0
tp1567
a(I0
I3111
F0.625
g860
I0
tp1568
a(I0
I3237
F-0.625
g862
I0
tp1569
a(I0
I3464
F0.75
g864
I0
tp1570
a(I0
I3617
F-0.25
g868
I0
tp1571
a(I0
I3617
I0
g870
I0
tp1572
a(I0
I3651
F0.125
g872
I0
tp1573
a(I0
I4466
I0
g874
I0
tp1574
a(I0
I4885
I0
g880
I0
tp1575
a(I0
I5960
F0.375
g890
I0
tp1576
a(I0
I6170
I0
g892
I0
tp1577
a(I0
I6310
F-0.5
g894
I0
tp1578
a(I0
I6636
I0
g896
I0
tp1579
a(I0
I6638
F-0.625
g898
I0
tp1580
a(I0
I6673
F-0.625
g900
I0
tp1581
a(I0
I6909
I-100
S'exityu'
p1582
I0
tp1583
a(I0
I7146
I-100
S'workingyu'
p1584
I0
tp1585
a(I0
I8206
F-0.625
g916
I0
tp1586
as(S'quality'
p1587
S'very'
p1588
S'good'
p1589
tp1590
(lp1591
(I0
I548
F1.0
g269
I0
tp1592
a(I0
I548
F0.5
g271
I0
tp1593
a(I0
I548
I-100
S'innovativetouch'
p1594
I0
tp1595
a(I0
I601
F1.0
S'good'
p1596
I0
tp1597
a(I0
I601
F1.0
S'good'
p1598
I0
tp1599
a(I0
I970
F1.0
S'good'
p1600
I0
tp1601
a(I0
I1348
F1.0
S'good'
p1602
I0
tp1603
a(I0
I2187
F0.75
S'sound'
p1604
I0
tp1605
a(I0
I2187
F1.0
S'good'
p1606
I0
tp1607
a(I0
I2387
F1.0
g283
I0
tp1608
a(I0
I2642
F1.0
S'good'
p1609
I0
tp1610
a(I0
I3039
F1.0
g309
I0
tp1611
a(I0
I3597
F1.0
S'good'
p1612
I0
tp1613
a(I0
I4617
F1.0
g337
I0
tp1614
a(I0
I5369
F0.75
S'sound'
p1615
I0
tp1616
a(I0
I5774
F1.0
g355
I0
tp1617
a(I0
I7006
F1.0
g363
I0
tp1618
a(I0
I7171
F1.0
S'good'
p1619
I0
tp1620
a(I0
I442
F1.0
S'good'
p1621
I0
tp1622
a(I0
I548
F1.0
g269
I0
tp1623
a(I0
I548
F0.5
g271
I0
tp1624
a(I0
I601
F1.0
g1596
I0
tp1625
a(I0
I601
F1.0
g1598
I0
tp1626
a(I0
I787
F1.0
S'good'
p1627
I0
tp1628
a(I0
I820
F1.0
g273
I0
tp1629
a(I0
I970
F1.0
g1600
I0
tp1630
a(I0
I1038
F1.0
S'good'
p1631
I0
tp1632
a(I0
I1348
F1.0
g1602
I0
tp1633
a(I0
I1444
F1.0
g277
I0
tp1634
a(I0
I1445
F1.0
S'good'
p1635
I0
tp1636
a(I0
I1941
F1.0
S'good'
p1637
I0
tp1638
a(I0
I2038
F1.0
S'good'
p1639
I0
tp1640
a(I0
I2117
I0
S'build'
p1641
I0
tp1642
a(I0
I2117
F1.0
S'good'
p1643
I0
tp1644
a(I0
I2187
F0.75
g1604
I0
tp1645
a(I0
I2187
F1.0
g1606
I0
tp1646
a(I0
I2236
F1.0
S'good'
p1647
I0
tp1648
a(I0
I2259
F-0.875
g281
I0
tp1649
a(I0
I2387
F1.0
g283
I0
tp1650
a(I0
I2642
F1.0
g1609
I0
tp1651
a(I0
I2655
F1.0
g285
I0
tp1652
a(I0
I2767
F1.0
g289
I0
tp1653
a(I0
I2806
F-0.5
g291
I0
tp1654
a(I0
I2806
F1.0
g293
I0
tp1655
a(I0
I2806
I0
g295
I0
tp1656
a(I0
I2806
F1.0
g297
I0
tp1657
a(I0
I2890
F1.0
S'good'
p1658
I0
tp1659
a(I0
I2890
F-0.75
S'dead'
p1660
I0
tp1661
a(I0
I2937
F1.0
g301
I0
tp1662
a(I0
I2979
F1.0
g305
I0
tp1663
a(I0
I3039
F1.0
g309
I0
tp1664
a(I0
I3239
F1.0
g317
I0
tp1665
a(I0
I3338
F1.0
g321
I0
tp1666
a(I0
I3426
F1.0
S'good'
p1667
I0
tp1668
a(I0
I3586
F1.0
S'good'
p1669
I0
tp1670
a(I0
I3597
F1.0
g1612
I0
tp1671
a(I0
I3714
F1.0
g327
I0
tp1672
a(I0
I4053
I0
g329
I0
tp1673
a(I0
I4053
F1.0
g331
I0
tp1674
a(I0
I4307
F0.875
S'decent'
p1675
I0
tp1676
a(I0
I4307
F1.0
S'good'
p1677
I0
tp1678
a(I0
I4362
F1.0
g333
I0
tp1679
a(I0
I4584
F1.0
g335
I0
tp1680
a(I0
I4617
F1.0
g337
I0
tp1681
a(I0
I4776
F0.75
g341
I0
tp1682
a(I0
I4956
F1.0
S'good'
p1683
I0
tp1684
a(I0
I5190
F1.0
S'good'
p1685
I0
tp1686
a(I0
I5369
F0.75
g1615
I0
tp1687
a(I0
I5413
F1.0
g349
I0
tp1688
a(I0
I5511
F1.0
S'good'
p1689
I0
tp1690
a(I0
I5774
F1.0
g355
I0
tp1691
a(I0
I5893
I-100
S'phonescam'
p1692
I0
tp1693
a(I0
I5992
F-0.5
S'call'
p1694
I0
tp1695
a(I0
I6020
F0.75
S'sound'
p1696
I0
tp1697
a(I0
I6020
F1.0
S'good'
p1698
I0
tp1699
a(I0
I6080
F1.0
S'good'
p1700
I0
tp1701
a(I0
I6091
F1.0
S'good'
p1702
I0
tp1703
a(I0
I6116
F1.0
S'good'
p1704
I0
tp1705
a(I0
I6698
F-0.875
S'low'
p1706
I0
tp1707
a(I0
I7006
F1.0
g363
I0
tp1708
a(I0
I7096
F-0.875
S'poor'
p1709
I0
tp1710
a(I0
I7128
I0
g365
I0
tp1711
a(I0
I7161
F1.0
g369
I0
tp1712
a(I0
I7171
F1.0
g1619
I0
tp1713
a(I0
I7494
F1.0
g371
I0
tp1714
a(I0
I7820
I-100
S'itpoor'
p1715
I0
tp1716
a(I0
I7901
F1.0
g375
I0
tp1717
a(I0
I7902
F1.0
S'good'
p1718
I0
tp1719
a(I0
I8012
F1.0
g377
I0
tp1720
a(I0
I8050
F1.0
g379
I0
tp1721
a(I0
I8077
F-1.0
S'bad'
p1722
I0
tp1723
a(I0
I8088
F1.0
S'good'
p1724
I0
tp1725
a(I0
I8188
F0.75
S'sound'
p1726
I0
tp1727
a(I0
I8188
I-100
S'good3'
p1728
I0
tp1729
as(S'yureka'
p1730
S'plus'
p1731
S'mobile'
p1732
tp1733
(lp1734
(I0
I1928
F1.0
S'good'
p1735
I0
tp1736
a(I0
I1928
F1.0
S'best'
p1737
I0
tp1738
a(I0
I2009
F0.125
g846
I0
tp1739
a(I0
I3464
F0.75
g864
I0
tp1740
a(I0
I3651
F0.125
g872
I0
tp1741
a(I0
I5786
F1.0
S'best'
p1742
I0
tp1743
a(I0
I5825
F1.0
S'excellent'
p1744
I0
tp1745
a(I0
I6743
F1.0
S'best'
p1746
I0
tp1747
a(I0
I7957
F-0.625
g906
I0
tp1748
a(I0
I7957
F0.75
g908
I0
tp1749
a(I0
I7957
F-0.625
g910
I0
tp1750
a(I0
I7957
F0.125
g912
I0
tp1751
a(I0
I8206
F-0.625
g916
I0
tp1752
a(I0
I799
I0
g830
I0
tp1753
a(I0
I1317
F-0.625
g832
I0
tp1754
a(I0
I1485
F0.5
g834
I0
tp1755
a(I0
I1487
F0.875
g836
I0
tp1756
a(I0
I1487
F1.0
g838
I0
tp1757
a(I0
I1791
F1.0
g840
I0
tp1758
a(I0
I1795
F1.0
g842
I0
tp1759
a(I0
I1796
I0
g844
I0
tp1760
a(I0
I2009
F0.125
g846
I0
tp1761
a(I0
I2170
F0.625
g850
I0
tp1762
a(I0
I2460
F0.25
g852
I0
tp1763
a(I0
I2666
F0.5
g854
I0
tp1764
a(I0
I2666
F0.875
g856
I0
tp1765
a(I0
I3111
F0.625
g860
I0
tp1766
a(I0
I3237
F-0.625
g862
I0
tp1767
a(I0
I3464
F0.75
g864
I0
tp1768
a(I0
I3617
F-0.25
g868
I0
tp1769
a(I0
I3617
I0
g870
I0
tp1770
a(I0
I3651
F0.125
g872
I0
tp1771
a(I0
I4466
I0
g874
I0
tp1772
a(I0
I4565
F1.0
g878
I0
tp1773
a(I0
I4885
I0
g880
I0
tp1774
a(I0
I4925
F-0.125
g882
I0
tp1775
a(I0
I5536
I0
g886
I0
tp1776
a(I0
I5960
F0.375
g890
I0
tp1777
a(I0
I6170
I0
g892
I0
tp1778
a(I0
I6310
F-0.5
g894
I0
tp1779
a(I0
I6636
I0
g896
I0
tp1780
a(I0
I6638
F-0.625
g898
I0
tp1781
a(I0
I6673
F-0.625
g900
I0
tp1782
a(I0
I7905
I0
g904
I0
tp1783
a(I0
I7957
F-0.625
g906
I0
tp1784
a(I0
I7957
F0.75
g908
I0
tp1785
a(I0
I7957
F-0.625
g910
I0
tp1786
a(I0
I7957
F0.125
g912
I0
tp1787
a(I0
I8206
F-0.625
g916
I0
tp1788
a(I0
I396
I0
g918
I0
tp1789
a(I0
I604
F1.0
g921
I0
tp1790
a(I0
I918
F0.625
g923
I0
tp1791
a(I0
I1317
F-0.625
g832
I0
tp1792
a(I0
I1403
I0
g926
I0
tp1793
a(I0
I1431
F-0.375
g928
I0
tp1794
a(I0
I1449
F0.5
g930
I0
tp1795
a(I0
I1473
F-0.5
g932
I0
tp1796
a(I0
I1569
F0.125
g934
I0
tp1797
a(I0
I1788
F-0.25
g936
I0
tp1798
a(I0
I1791
F1.0
g840
I0
tp1799
a(I0
I1796
I0
g844
I0
tp1800
a(I0
I1964
I0
g942
I0
tp1801
a(I0
I2244
F-0.5
g945
I0
tp1802
a(I0
I2305
I0
g947
I0
tp1803
a(I0
I2460
F0.25
g852
I0
tp1804
a(I0
I2551
F1.0
g950
I0
tp1805
a(I0
I3111
F0.625
g860
I0
tp1806
a(I0
I3231
I0
g958
I0
tp1807
a(I0
I3237
F-0.625
g862
I0
tp1808
a(I0
I3529
F1.0
g961
I0
tp1809
a(I0
I3529
I0
g963
I0
tp1810
a(I0
I4250
F-0.25
g968
I0
tp1811
a(I0
I4430
F-0.25
g970
I0
tp1812
a(I0
I4464
I-100
S'servish'
p1813
I0
tp1814
a(I0
I4565
F1.0
g878
I0
tp1815
a(I0
I4885
I0
g880
I0
tp1816
a(I0
I5046
F0.125
g974
I0
tp1817
a(I0
I5060
F-0.625
g976
I0
tp1818
a(I0
I5062
I0
g978
I0
tp1819
a(I0
I5132
F-0.375
g980
I0
tp1820
a(I0
I5517
I0
g983
I0
tp1821
a(I0
I5536
I0
g886
I0
tp1822
a(I0
I5763
F0.125
g987
I0
tp1823
a(I0
I5960
F0.375
g890
I0
tp1824
a(I0
I6170
I0
g892
I0
tp1825
a(I0
I6288
F-0.625
g991
I0
tp1826
a(I0
I6310
F-0.5
g894
I0
tp1827
a(I0
I6342
F-1.0
g994
I0
tp1828
a(I0
I6353
F1.0
g996
I0
tp1829
a(I0
I6411
F0.375
g998
I0
tp1830
a(I0
I6636
I0
g896
I0
tp1831
a(I0
I6638
F-0.625
g898
I0
tp1832
a(I0
I7166
F-0.5
g1004
I0
tp1833
a(I0
I7545
F1.0
g1006
I0
tp1834
a(I0
I7597
F0.5
g1008
I0
tp1835
a(I0
I7701
I0
g1010
I0
tp1836
a(I0
I7881
F-0.5
g1012
I0
tp1837
a(I0
I7905
I0
g904
I0
tp1838
a(I0
I7957
F-0.625
g906
I0
tp1839
a(I0
I7957
F0.75
g908
I0
tp1840
a(I0
I7957
F-0.625
g910
I0
tp1841
a(I0
I8107
I-100
S'verymuch'
p1842
I0
tp1843
a(I0
I8160
F-0.625
g1018
I0
tp1844
a(I0
I8162
F-0.625
g1020
I0
tp1845
a(I0
I8162
I0
g1022
I0
tp1846
a(I0
I8206
F-0.625
g916
I0
tp1847
a(I0
I8239
F1.0
g1025
I0
tp1848
a(I0
I8314
F-0.25
g1027
I0
tp1849
a(I0
I799
I0
g830
I2
tp1850
a(I0
I1485
F0.5
g834
I2
tp1851
a(I0
I1487
F0.875
g836
I2
tp1852
a(I0
I1487
F1.0
g838
I2
tp1853
a(I0
I1795
F1.0
g842
I2
tp1854
a(I0
I2009
F0.125
g846
I2
tp1855
a(I0
I2170
F0.625
g850
I2
tp1856
a(I0
I2666
F0.5
g854
I2
tp1857
a(I0
I2666
F0.875
g856
I2
tp1858
a(I0
I2835
I-100
S'yurekha'
p1859
I2
tp1860
a(I0
I3464
F0.75
g864
I2
tp1861
a(I0
I3617
F-0.25
g868
I2
tp1862
a(I0
I3617
I0
g870
I2
tp1863
a(I0
I3651
F0.125
g872
I2
tp1864
a(I0
I4466
I0
g874
I2
tp1865
a(I0
I4925
F-0.125
g882
I2
tp1866
a(I0
I6673
F-0.625
g900
I2
tp1867
a(I0
I7438
I0
S'eureka'
p1868
I2
tp1869
a(I0
I7957
F0.125
g912
I2
tp1870
as(S'gaming'
p1871
tp1872
(lp1873
(I0
I707
F0.625
S'crazy'
p1874
I5
tp1875
a(I0
I2347
F-0.5
S'heavy'
p1876
I5
tp1877
a(I0
I2856
F0.5
S'stable'
p1878
I5
tp1879
a(I0
I3502
F-0.75
S'little'
p1880
I5
tp1881
a(I0
I3771
F0.75
S'due'
p1882
I5
tp1883
a(I0
I3771
F-0.5
S'excessive'
p1884
I5
tp1885
a(I0
I4877
F0.375
S'ok'
p1886
I5
tp1887
a(I0
I5336
I-100
S'anythingworst'
p1888
I5
tp1889
a(I0
I5841
I0
S'net'
p1890
I5
tp1891
a(I0
I6803
F-0.625
S'moderate'
p1892
I5
tp1893
as(S'customer'
p1894
S'service'
p1895
tp1896
(lp1897
(I0
I179
F-0.875
g1303
I0
tp1898
a(I0
I179
F-0.875
S'poor'
p1899
I0
tp1900
a(I0
I572
F-0.625
S'absent'
p1901
I0
tp1902
a(I0
I1076
F-0.875
S'poor'
p1903
I0
tp1904
a(I0
I1886
I-100
S'price6'
p1905
I0
tp1906
a(I0
I1886
F-0.625
S'horrendous'
p1907
I0
tp1908
a(I0
I2069
F0.125
S'amazon'
p1909
I0
tp1910
a(I0
I2069
F0.875
S'superb'
p1911
I0
tp1912
a(I0
I2069
F0.125
S'amazon'
p1913
I0
tp1914
a(I0
I2069
F1.0
S'good'
p1915
I0
tp1916
a(I0
I2243
F-1.0
S'bad'
p1917
I0
tp1918
a(I0
I2335
F-0.5
S'shameful'
p1919
I0
tp1920
a(I0
I2777
I0
S'ultra'
p1921
I0
tp1922
a(I0
I2777
F-0.875
S'pathetic'
p1923
I0
tp1924
a(I0
I3335
F1.0
S'good'
p1925
I0
tp1926
a(I0
I3393
F-0.875
S'poor'
p1927
I0
tp1928
a(I0
I4263
F0.75
g1325
I0
tp1929
a(I0
I4771
F-1.0
S'worst'
p1930
I0
tp1931
a(I0
I5091
F0.75
S'proper'
p1932
I0
tp1933
a(I0
I6689
F-1.0
S'worst'
p1934
I0
tp1935
a(I0
I7409
F-1.0
S'worst'
p1936
I0
tp1937
a(I0
I7511
I0
S'nearest'
p1938
I0
tp1939
a(I0
I7511
F-0.375
S'authorized'
p1940
I0
tp1941
a(I0
I7822
F0.875
S'awesome'
p1942
I0
tp1943
a(I0
I7910
F-1.0
S'worst'
p1944
I0
tp1945
a(I0
I8140
F-0.875
S'pathetic'
p1946
I0
tp1947
a(I0
I8231
F-0.625
S'double'
p1948
I0
tp1949
as(S'too'
p1950
S'much'
p1951
S'heating'
p1952
tp1953
(lp1954
(I0
I2037
F0.375
S'much'
p1955
I2
tp1956
a(I0
I3131
F0.375
S'much'
p1957
I2
tp1958
a(I0
I3573
F0.375
S'much'
p1959
I2
tp1960
a(I0
I3890
F0.375
g64
I2
tp1961
a(I0
I4461
F0.375
g1473
I2
tp1962
a(I0
I4582
F0.375
S'much'
p1963
I2
tp1964
a(I0
I4709
F0.375
S'much'
p1965
I2
tp1966
a(I0
I4714
F0.375
S'much'
p1967
I2
tp1968
a(I0
I5049
F0.125
g94
I2
tp1969
a(I0
I5049
F0.375
g96
I2
tp1970
a(I0
I5560
F0.375
S'much'
p1971
I2
tp1972
a(I0
I5741
F0.375
S'much'
p1973
I2
tp1974
a(I0
I6062
F0.375
g124
I2
tp1975
a(I0
I6785
F0.375
S'much'
p1976
I2
tp1977
a(I0
I7044
F0.375
g1521
I2
tp1978
a(I0
I7234
F0.375
S'much'
p1979
I2
tp1980
a(I0
I7295
F0.375
S'much'
p1981
I2
tp1982
a(I0
I7641
F0.375
g1534
I2
tp1983
a(I0
I7670
F0.375
S'much'
p1984
I2
tp1985
a(I0
I8028
F0.375
g1536
I2
tp1986
a(I0
I8333
F0.375
S'much'
p1987
I2
tp1988
a(I0
I8392
F0.375
g176
I2
tp1989
a(I0
I612
F0.75
S'due'
p1990
I2
tp1991
a(I0
I2037
F0.375
g1955
I2
tp1992
a(I0
I3131
F0.375
g1957
I2
tp1993
a(I0
I3573
F0.375
g1959
I2
tp1994
a(I0
I3890
F0.375
g64
I2
tp1995
a(I0
I4461
F0.375
g1473
I2
tp1996
a(I0
I4582
F0.375
g1963
I2
tp1997
a(I0
I4709
F0.375
g1965
I2
tp1998
a(I0
I4714
F0.375
g1967
I2
tp1999
a(I0
I5049
F0.125
g94
I2
tp2000
a(I0
I5049
F0.375
g96
I2
tp2001
a(I0
I5418
F0.375
S'much'
p2002
I2
tp2003
a(I0
I5524
F0.375
g1491
I2
tp2004
a(I0
I5560
F0.375
g1971
I2
tp2005
a(I0
I5582
F0.375
S'much'
p2006
I2
tp2007
a(I0
I5741
F0.375
g1973
I2
tp2008
a(I0
I5811
F0.375
S'much'
p2009
I2
tp2010
a(I0
I5950
F0.375
g114
I2
tp2011
a(I0
I6062
F0.375
g124
I2
tp2012
a(I0
I6646
F0.375
S'much'
p2013
I2
tp2014
a(I0
I6785
F0.375
g1976
I2
tp2015
a(I0
I6909
F-0.5
S'heavy'
p2016
I2
tp2017
a(I0
I7044
F0.375
g1521
I2
tp2018
a(I0
I7234
F0.375
g1979
I2
tp2019
a(I0
I7244
F0.375
S'much'
p2020
I2
tp2021
a(I0
I7295
F0.375
g1981
I2
tp2022
a(I0
I7641
F0.375
g1534
I2
tp2023
a(I0
I7670
F0.375
g1984
I2
tp2024
a(I0
I8028
F0.375
g1536
I2
tp2025
a(I0
I8333
F0.375
g1987
I2
tp2026
a(I0
I8392
F0.375
g176
I2
tp2027
as(S'performance'
p2028
tp2029
(lp2030
(I0
I60
F-0.875
S'poor'
p2031
I13
tp2032
a(I0
I242
I-100
S'commendablebattery'
p2033
I13
tp2034
a(I0
I289
F0.25
S'able'
p2035
I13
tp2036
a(I0
I520
F0.25
S'read'
p2037
I13
tp2038
a(I0
I520
F0.5
S'accurate'
p2039
I13
tp2040
a(I0
I548
F1.0
S'excellent'
p2041
I13
tp2042
a(I0
I598
F1.0
S'good'
p2043
I13
tp2044
a(I0
I816
F1.0
S'good'
p2045
I13
tp2046
a(I0
I852
F0.5
S'high'
p2047
I13
tp2048
a(I0
I943
F-0.875
S'poor'
p2049
I13
tp2050
a(I0
I991
F-1.0
S'bad'
p2051
I13
tp2052
a(I0
I1095
F1.0
S'best'
p2053
I13
tp2054
a(I0
I1236
F0.625
S'smooth'
p2055
I13
tp2056
a(I0
I1449
F0.5
S'similar'
p2057
I13
tp2058
a(I0
I1552
F-0.875
S'low'
p2059
I13
tp2060
a(I0
I1569
F0.375
S'feel'
p2061
I13
tp2062
a(I0
I1623
F-0.875
S'poor'
p2063
I13
tp2064
a(I0
I1793
F-0.875
S'poor'
p2065
I13
tp2066
a(I0
I1793
F0.5
S'visible'
p2067
I13
tp2068
a(I0
I1907
F-0.75
S'little'
p2069
I13
tp2070
a(I0
I1907
F0.125
S'optimized'
p2071
I13
tp2072
a(I0
I1931
F0.875
S'great'
p2073
I13
tp2074
a(I0
I1932
F0.875
S'great'
p2075
I13
tp2076
a(I0
I2088
F0.875
S'awesome'
p2077
I13
tp2078
a(I0
I2185
F1.0
S'good'
p2079
I13
tp2080
a(I0
I2241
I0
S'ant'
p2081
I13
tp2082
a(I0
I2241
F-0.5
S'extra'
p2083
I13
tp2084
a(I0
I2241
F-0.5
S'ordinary'
p2085
I13
tp2086
a(I0
I2517
F-0.625
S'real'
p2087
I13
tp2088
a(I0
I2876
F-0.125
S'overall'
p2089
I13
tp2090
a(I0
I3013
F-0.125
S'overall'
p2091
I13
tp2092
a(I0
I3013
F1.0
S'good'
p2093
I13
tp2094
a(I0
I3345
F0.625
S'okay'
p2095
I13
tp2096
a(I0
I3412
F-0.5
S'slow'
p2097
I13
tp2098
a(I0
I3534
F0.375
S'much'
p2099
I13
tp2100
a(I0
I3635
F1.0
S'good'
p2101
I13
tp2102
a(I0
I3642
F-1.0
S'bad'
p2103
I13
tp2104
a(I0
I3644
F-0.875
S'low'
p2105
I13
tp2106
a(I0
I3715
F1.0
S'best'
p2107
I13
tp2108
a(I0
I3716
F1.0
S'good'
p2109
I13
tp2110
a(I0
I3782
F1.0
S'good'
p2111
I13
tp2112
a(I0
I4010
F-0.625
S'other'
p2113
I13
tp2114
a(I0
I4054
F0.375
S'satisfied'
p2115
I13
tp2116
a(I0
I4295
F-0.125
S'overall'
p2117
I13
tp2118
a(I0
I4297
F0.5
S'similar'
p2119
I13
tp2120
a(I0
I4572
F-0.125
S'overall'
p2121
I13
tp2122
a(I0
I4572
F0.5
S'satisfactory'
p2123
I13
tp2124
a(I0
I4641
I-100
S'dosent'
p2125
I13
tp2126
a(I0
I4718
I0
S's'
p2127
I13
tp2128
a(I0
I4752
F-0.125
S'overall'
p2129
I13
tp2130
a(I0
I4757
F0.125
S'frequent'
p2131
I13
tp2132
a(I0
I4819
F-0.875
S'poor'
p2133
I13
tp2134
a(I0
I4835
F-0.875
S'poor'
p2135
I13
tp2136
a(I0
I4876
F0.875
S'brilliant'
p2137
I13
tp2138
a(I0
I5015
F1.0
S'good'
p2139
I13
tp2140
a(I0
I5081
F1.0
S'good'
p2141
I13
tp2142
a(I0
I5084
F1.0
S'good'
p2143
I13
tp2144
a(I0
I5333
F1.0
S'good'
p2145
I13
tp2146
a(I0
I5336
F1.0
S'good'
p2147
I13
tp2148
a(I0
I5337
F1.0
S'good'
p2149
I13
tp2150
a(I0
I5384
F1.0
S'good'
p2151
I13
tp2152
a(I0
I5429
F-0.125
S'overall'
p2153
I13
tp2154
a(I0
I5429
F0.5
S'satisfactory'
p2155
I13
tp2156
a(I0
I5493
F0.625
S'super'
p2157
I13
tp2158
a(I0
I5571
F-0.125
S'overall'
p2159
I13
tp2160
a(I0
I5574
F-0.875
S'poor'
p2161
I13
tp2162
a(I0
I5616
F-1.0
S'bad'
p2163
I13
tp2164
a(I0
I5619
F1.0
S'good'
p2165
I13
tp2166
a(I0
I5687
F0.625
S'okay'
p2167
I13
tp2168
a(I0
I5815
F1.0
S'good'
p2169
I13
tp2170
a(I0
I5839
I-100
S'possiblebetter'
p2171
I13
tp2172
a(I0
I5898
F0.875
S'awesome'
p2173
I13
tp2174
a(I0
I5999
F-0.5
S'slow'
p2175
I13
tp2176
a(I0
I6042
F-0.125
S'overall'
p2177
I13
tp2178
a(I0
I6052
F1.0
S'good'
p2179
I13
tp2180
a(I0
I6360
F-0.125
S'overall'
p2181
I13
tp2182
a(I0
I6397
F-0.875
S'poor'
p2183
I13
tp2184
a(I0
I6407
F1.0
S'good'
p2185
I13
tp2186
a(I0
I6593
I-100
S'itgood'
p2187
I13
tp2188
a(I0
I6619
F1.0
S'good'
p2189
I13
tp2190
a(I0
I6810
F0.875
S'great'
p2191
I13
tp2192
a(I0
I6914
I-100
S'awesomeoverall'
p2193
I13
tp2194
a(I0
I6944
F1.0
S'better'
p2195
I13
tp2196
a(I0
I6955
F0.875
S'happy'
p2197
I13
tp2198
a(I0
I6998
I-100
S'poorgood'
p2199
I13
tp2200
a(I0
I7001
F0.875
S'awesome'
p2201
I13
tp2202
a(I0
I7005
I0
S'serious'
p2203
I13
tp2204
a(I0
I7005
I-100
S'issueexcellent'
p2205
I13
tp2206
a(I0
I7053
F-0.875
S'poor'
p2207
I13
tp2208
a(I0
I7055
F-0.75
S'sufficient'
p2209
I13
tp2210
a(I0
I7062
F0.25
S'spectacular'
p2211
I13
tp2212
a(I0
I7082
F-0.875
S'low'
p2213
I13
tp2214
a(I0
I7132
F-0.875
S'poor'
p2215
I13
tp2216
a(I0
I7287
F-0.875
S'poor'
p2217
I13
tp2218
a(I0
I7438
F0.375
S'much'
p2219
I13
tp2220
a(I0
I7438
F1.0
S'better'
p2221
I13
tp2222
a(I0
I7644
F-0.875
S'poor'
p2223
I13
tp2224
a(I0
I7649
F0.875
S'awesome'
p2225
I13
tp2226
a(I0
I7649
I0
S'more'
p2227
I13
tp2228
a(I0
I7776
F0.75
S'regard'
p2229
I13
tp2230
a(I0
I7777
F0.375
S'full'
p2231
I13
tp2232
a(I0
I7791
F0.875
S'decent'
p2233
I13
tp2234
a(I0
I7825
F1.0
S'good'
p2235
I13
tp2236
a(I0
I7895
F1.0
S'good'
p2237
I13
tp2238
a(I0
I8312
F0.375
S'ok'
p2239
I13
tp2240
as(S'better'
p2241
S'than'
p2242
S'yureka'
p2243
tp2244
(lp2245
(I0
I2551
F1.0
g950
I0
tp2246
a(I0
I6353
F1.0
g996
I0
tp2247
a(I0
I7166
F-0.5
g1004
I0
tp2248
a(I0
I7545
F1.0
g1006
I0
tp2249
a(I0
I8239
F1.0
g1025
I0
tp2250
a(I0
I8395
I-100
S'faltu'
p2251
I0
tp2252
as(S'poor'
p2253
S'battery'
p2254
S'life'
p2255
tp2256
(lp2257
(I0
I2228
F-0.875
S'poor'
p2258
I0
tp2259
a(I0
I4432
I-100
S'toooo'
p2260
I0
tp2261
a(I0
I4432
F-0.875
S'poor'
p2262
I0
tp2263
a(I0
I4437
F-0.875
S'poor'
p2264
I0
tp2265
a(I0
I4994
F-0.875
S'poor'
p2266
I0
tp2267
a(I0
I5089
F-0.875
S'low'
p2268
I0
tp2269
a(I0
I5089
F-0.875
S'poor'
p2270
I0
tp2271
a(I0
I5449
F0.5
S'heat'
p2272
I0
tp2273
a(I0
I5449
F-0.875
S'poor'
p2274
I0
tp2275
a(I0
I5660
F1.0
S'good'
p2276
I0
tp2277
a(I0
I5660
F-0.875
S'poor'
p2278
I0
tp2279
a(I0
I5778
F-0.25
S'battery'
p2280
I0
tp2281
a(I0
I5778
F0.375
S'much'
p2282
I0
tp2283
a(I0
I5778
F-0.875
S'poor'
p2284
I0
tp2285
a(I0
I6633
F-0.875
S'poor'
p2286
I0
tp2287
a(I0
I7168
F-0.875
S'poor'
p2288
I0
tp2289
a(I0
I7610
F-0.875
S'poor'
p2290
I0
tp2291
a(I0
I8112
F-0.875
S'poor'
p2292
I0
tp2293
a(I0
I22
F-0.75
S'short'
p2294
I3
tp2295
a(I0
I46
F-1.0
S'worse'
p2296
I3
tp2297
a(I0
I504
F-0.625
S'spontaneous'
p2298
I3
tp2299
a(I0
I504
F1.0
S'good'
p2300
I3
tp2301
a(I0
I590
F-0.625
S'average'
p2302
I3
tp2303
a(I0
I796
F-0.625
S'average'
p2304
I3
tp2305
a(I0
I1460
F1.0
S'good'
p2306
I3
tp2307
a(I0
I1460
F1.0
S'better'
p2308
I3
tp2309
a(I0
I1870
F0.375
S'much'
p2310
I3
tp2311
a(I0
I2205
F-0.25
S'battery'
p2312
I3
tp2313
a(I0
I2228
F-0.875
g2258
I3
tp2314
a(I0
I2240
F-0.875
S'pathetic'
p2315
I3
tp2316
a(I0
I2275
F-0.875
S'small'
p2317
I3
tp2318
a(I0
I2421
F-0.875
S'pathetic'
p2319
I3
tp2320
a(I0
I2653
F-0.875
S'low'
p2321
I3
tp2322
a(I0
I2713
F-0.625
g230
I3
tp2323
a(I0
I2713
F0.875
g232
I3
tp2324
a(I0
I2822
F-0.375
S'tolerable'
p2325
I3
tp2326
a(I0
I2822
I0
S'below'
p2327
I3
tp2328
a(I0
I2822
F-0.625
S'average'
p2329
I3
tp2330
a(I0
I2875
F-0.75
S'neutral'
p2331
I3
tp2332
a(I0
I3380
F-0.75
S'hopeless'
p2333
I3
tp2334
a(I0
I3593
F-0.875
S'pathetic'
p2335
I3
tp2336
a(I0
I3597
F-0.25
S'battery'
p2337
I3
tp2338
a(I0
I3936
F-0.5
S'less'
p2339
I3
tp2340
a(I0
I3958
F-0.625
S'last'
p2341
I3
tp2342
a(I0
I3977
F-0.25
S'battery'
p2343
I3
tp2344
a(I0
I4169
F-0.75
S'stupid'
p2345
I3
tp2346
a(I0
I4300
I0
S'below'
p2347
I3
tp2348
a(I0
I4300
F-0.625
S'average'
p2349
I3
tp2350
a(I0
I4432
F-0.875
g2262
I3
tp2351
a(I0
I4437
F-0.875
g2264
I3
tp2352
a(I0
I4994
F-0.875
g2266
I3
tp2353
a(I0
I5042
F-0.25
S'battery'
p2354
I3
tp2355
a(I0
I5042
F-1.0
S'bad'
p2356
I3
tp2357
a(I0
I5089
F-0.875
g2268
I3
tp2358
a(I0
I5089
F-0.875
g2270
I3
tp2359
a(I0
I5200
F-0.25
S'battery'
p2360
I3
tp2361
a(I0
I5332
F-1.0
S'worst'
p2362
I3
tp2363
a(I0
I5356
F1.0
S'good'
p2364
I3
tp2365
a(I0
I5449
F0.5
g2272
I3
tp2366
a(I0
I5449
F-0.875
g2274
I3
tp2367
a(I0
I5573
F0.375
S'impressive'
p2368
I3
tp2369
a(I0
I5660
F1.0
g2276
I3
tp2370
a(I0
I5660
F-0.875
g2278
I3
tp2371
a(I0
I5710
F-0.75
S'short'
p2372
I3
tp2373
a(I0
I5756
F-0.875
S'low'
p2374
I3
tp2375
a(I0
I5778
F-0.25
g2280
I3
tp2376
a(I0
I5778
F0.375
g2282
I3
tp2377
a(I0
I5778
F-0.875
g2284
I3
tp2378
a(I0
I5808
F-0.25
S'battery'
p2379
I3
tp2380
a(I0
I5808
F-0.75
S'little'
p2381
I3
tp2382
a(I0
I6633
F-0.875
g2286
I3
tp2383
a(I0
I6650
I-100
S'comebattery'
p2384
I3
tp2385
a(I0
I6650
F0.875
S'important'
p2386
I3
tp2387
a(I0
I6671
F1.0
S'good'
p2388
I3
tp2389
a(I0
I6671
F-0.25
S'battery'
p2390
I3
tp2391
a(I0
I6855
I0
S'u'
p2392
I3
tp2393
a(I0
I6855
F-0.25
S'battery'
p2394
I3
tp2395
a(I0
I7073
F0.5
S'improved'
p2396
I3
tp2397
a(I0
I7091
F1.0
S'good'
p2398
I3
tp2399
a(I0
I7168
F-0.875
g2288
I3
tp2400
a(I0
I7237
F-0.875
S'pathetic'
p2401
I3
tp2402
a(I0
I7297
F-1.0
S'bad'
p2403
I3
tp2404
a(I0
I7480
F-0.25
S'battery'
p2405
I3
tp2406
a(I0
I7610
F-0.875
g2290
I3
tp2407
a(I0
I8112
F-0.875
g2292
I3
tp2408
a(I0
I8245
F-0.875
S'low'
p2409
I3
tp2410
a(I0
I46
F-1.0
g2296
I8
tp2411
a(I0
I504
F1.0
g2300
I8
tp2412
a(I0
I796
F-0.625
g2304
I8
tp2413
a(I0
I1421
F0.5
S'true'
p2414
I8
tp2415
a(I0
I1460
F1.0
g2306
I8
tp2416
a(I0
I1870
F0.375
g2310
I8
tp2417
a(I0
I2205
F-0.25
g2312
I8
tp2418
a(I0
I2240
F-0.875
g2315
I8
tp2419
a(I0
I2242
F-0.625
S'real'
p2420
I8
tp2421
a(I0
I2275
F-0.875
g2317
I8
tp2422
a(I0
I2421
F-0.875
g2319
I8
tp2423
a(I0
I2822
I0
g2327
I8
tp2424
a(I0
I2822
F-0.625
g2329
I8
tp2425
a(I0
I3380
F-0.75
g2333
I8
tp2426
a(I0
I3593
F-0.875
g2335
I8
tp2427
a(I0
I3597
F-0.25
g2337
I8
tp2428
a(I0
I3936
F-0.5
g2339
I8
tp2429
a(I0
I3977
F-0.25
g2343
I8
tp2430
a(I0
I4300
I0
g2347
I8
tp2431
a(I0
I4300
F-0.625
g2349
I8
tp2432
a(I0
I4994
F-0.875
g2266
I8
tp2433
a(I0
I5042
F-0.25
g2354
I8
tp2434
a(I0
I5042
F-1.0
g2356
I8
tp2435
a(I0
I5089
F-0.875
g2270
I8
tp2436
a(I0
I5200
F-0.25
g2360
I8
tp2437
a(I0
I5356
F1.0
g2364
I8
tp2438
a(I0
I5573
F0.375
g2368
I8
tp2439
a(I0
I5660
F-0.875
g2278
I8
tp2440
a(I0
I5710
F-0.75
g2372
I8
tp2441
a(I0
I5756
F-0.875
g2374
I8
tp2442
a(I0
I5778
F-0.25
g2280
I8
tp2443
a(I0
I5778
F0.375
g2282
I8
tp2444
a(I0
I5778
F-0.875
g2284
I8
tp2445
a(I0
I5808
F-0.25
g2379
I8
tp2446
a(I0
I5808
F-0.75
g2381
I8
tp2447
a(I0
I6650
F0.875
g2386
I8
tp2448
a(I0
I6671
F-0.25
g2390
I8
tp2449
a(I0
I6855
I0
g2392
I8
tp2450
a(I0
I6855
F-0.25
g2394
I8
tp2451
a(I0
I7091
F1.0
g2398
I8
tp2452
a(I0
I7297
F-1.0
g2403
I8
tp2453
a(I0
I7480
F-0.25
g2405
I8
tp2454
a(I0
I7610
F-0.875
g2290
I8
tp2455
a(I0
I8112
F-0.875
g2292
I8
tp2456
as(S'micro'
p2457
S'sd'
p2458
tp2459
(lp2460
(I0
I7330
F-0.25
S'micro'
p2461
I0
tp2462
as(S'in'
p2463
S'low'
p2464
S'light'
p2465
tp2466
(lp2467
(I0
I484
F-0.875
S'low'
p2468
I2
tp2469
a(I0
I581
F-0.875
S'low'
p2470
I2
tp2471
a(I0
I581
F-1.0
S'worse'
p2472
I2
tp2473
a(I0
I1910
F-0.625
S'natural'
p2474
I2
tp2475
a(I0
I1910
F-0.875
S'low'
p2476
I2
tp2477
a(I0
I2542
F-0.875
S'low'
p2478
I2
tp2479
a(I0
I2553
F-0.875
S'low'
p2480
I2
tp2481
a(I0
I2628
F-0.875
S'low'
p2482
I2
tp2483
a(I0
I3703
F-0.875
S'low'
p2484
I2
tp2485
a(I0
I3704
F-0.875
S'low'
p2486
I2
tp2487
a(I0
I5160
F-0.875
S'low'
p2488
I2
tp2489
a(I0
I7883
F-0.875
S'low'
p2490
I2
tp2491
as(S'drains'
p2492
S'very'
p2493
S'fast'
p2494
tp2495
(lp2496
(I0
I6622
F0.75
g248
I1
tp2497
a(I0
I639
F0.5
g222
I5
tp2498
a(I0
I6622
F0.75
g248
I5
tp2499
as(S'gorilla'
p2500
S'glass'
p2501
tp2502
(lp2503
(I0
I298
I-100
S'gorrila'
p2504
I2
tp2505
a(I0
I392
F0.875
S'great'
p2506
I2
tp2507
a(I0
I2118
I0
S'tempered'
p2508
I2
tp2509
a(I0
I2768
I0
S'gorilla'
p2510
I2
tp2511
a(I0
I5190
I0
S't'
p2512
I2
tp2513
a(I0
I6750
I0
S'gorilla'
p2514
I2
tp2515
a(I0
I7629
F0.25
S'able'
p2516
I2
tp2517
as(S'dont'
p2518
S'buy'
p2519
tp2520
(lp2521
(I0
I1721
F0.875
S'great'
p2522
I8
tp2523
a(I0
I1721
F0.375
S'much'
p2524
I8
tp2525
a(I0
I1961
I-100
S'dnt'
p2526
I8
tp2527
a(I0
I5696
I0
S'u'
p2528
I8
tp2529
a(I0
I5834
F-0.625
S'useless'
p2530
I8
tp2531
a(I0
I7891
F0.875
S'great'
p2532
I8
tp2533
as(S'make'
p2534
S'a'
p2535
S'call'
p2536
tp2537
(lp2538
(I0
I2286
F-0.75
S'unable'
p2539
I0
tp2540
a(I0
I4195
F-0.375
S'same'
p2541
I0
tp2542
a(I0
I5195
F0.25
S'able'
p2543
I0
tp2544
as(S'build'
p2545
S'quality'
p2546
tp2547
(lp2548
(I0
I1009
I0
S'build'
p2549
I2
tp2550
a(I0
I1009
I0
S'build'
p2551
I2
tp2552
a(I0
I1401
I0
S'build'
p2553
I2
tp2554
a(I0
I1912
I0
S'build'
p2555
I2
tp2556
a(I0
I1912
I-100
S'litte'
p2557
I2
tp2558
a(I0
I1941
F1.0
g1637
I2
tp2559
a(I0
I2084
I0
S'build'
p2560
I2
tp2561
a(I0
I2117
I0
g1641
I2
tp2562
a(I0
I2117
F1.0
g1643
I2
tp2563
a(I0
I2776
I0
S'build'
p2564
I2
tp2565
a(I0
I2776
F-0.875
S'cheap'
p2566
I2
tp2567
a(I0
I2806
F-0.5
g291
I2
tp2568
a(I0
I2806
F1.0
g293
I2
tp2569
a(I0
I2806
I0
g295
I2
tp2570
a(I0
I2806
F1.0
g297
I2
tp2571
a(I0
I2938
F1.0
S'good'
p2572
I2
tp2573
a(I0
I2950
I0
S'robust'
p2574
I2
tp2575
a(I0
I3396
F0.5
S'sturdy'
p2576
I2
tp2577
a(I0
I3396
F0.75
S'easy'
p2578
I2
tp2579
a(I0
I3438
I0
S'build'
p2580
I2
tp2581
a(I0
I4053
I0
g329
I2
tp2582
a(I0
I4053
F1.0
g331
I2
tp2583
a(I0
I4819
F0.625
S'fine'
p2584
I2
tp2585
a(I0
I5190
F1.0
g1685
I2
tp2586
a(I0
I5420
F1.0
S'good'
p2587
I2
tp2588
a(I0
I6223
I0
S'build'
p2589
I2
tp2590
a(I0
I6231
F0.375
S'ok'
p2591
I2
tp2592
a(I0
I7631
F0.875
g698
I2
tp2593
as(S'times'
p2594
g2535
S'day'
p2595
tp2596
(lp2597
(I0
I4255
F-0.25
S'i'
p2598
I1
tp2599
a(I0
I4506
I0
S'many'
p2600
I1
tp2601
a(I0
I4636
F0.375
S'full'
p2602
I1
tp2603
a(I0
I4636
I0
S'many'
p2604
I1
tp2605
a(I0
I5196
F0.625
S'fine'
p2606
I1
tp2607
a(I0
I6554
F0.125
S'mobile'
p2608
I1
tp2609
a(I0
I595
F1.0
S'best'
p2610
I11
tp2611
a(I0
I688
I0
S'least'
p2612
I11
tp2613
a(I0
I1243
I0
S'many'
p2614
I11
tp2615
a(I0
I1247
I0
S'many'
p2616
I11
tp2617
a(I0
I1247
F0.5
S'possible'
p2618
I11
tp2619
a(I0
I2050
I0
S'more'
p2620
I11
tp2621
a(I0
I2871
I0
S'many'
p2622
I11
tp2623
a(I0
I3335
F-0.75
S'difficult'
p2624
I11
tp2625
a(I0
I3473
F0.375
S'full'
p2626
I11
tp2627
a(I0
I3890
I0
S'many'
p2628
I11
tp2629
a(I0
I4027
I0
S'replacement'
p2630
I11
tp2631
a(I0
I4027
F0.75
S'due'
p2632
I11
tp2633
a(I0
I4255
F-0.25
g2598
I11
tp2634
a(I0
I4425
F-0.5
S'several'
p2635
I11
tp2636
a(I0
I4506
I0
g2600
I11
tp2637
a(I0
I4579
I0
S'many'
p2638
I11
tp2639
a(I0
I4636
I0
g2604
I11
tp2640
a(I0
I4769
I0
S'many'
p2641
I11
tp2642
a(I0
I5196
F0.625
g2606
I11
tp2643
a(I0
I5274
I0
S'few'
p2644
I11
tp2645
a(I0
I5673
I0
S'many'
p2646
I11
tp2647
a(I0
I5778
I0
S'hot'
p2648
I11
tp2649
a(I0
I5778
I0
S'many'
p2650
I11
tp2651
a(I0
I5796
F0.5
S'touch'
p2652
I11
tp2653
a(I0
I6064
F-0.5
S'several'
p2654
I11
tp2655
a(I0
I6121
F0.375
S'much'
p2656
I11
tp2657
a(I0
I6121
F-0.75
S'impossible'
p2658
I11
tp2659
a(I0
I6387
I0
S'hot'
p2660
I11
tp2661
a(I0
I6554
F0.125
g2608
I11
tp2662
a(I0
I6719
I0
S'many'
p2663
I11
tp2664
a(I0
I6811
I0
S'few'
p2665
I11
tp2666
a(I0
I7499
F-0.75
S'difficult'
p2667
I11
tp2668
a(I0
I7536
F-0.5
S'several'
p2669
I11
tp2670
a(I0
I7594
I0
S'many'
p2671
I11
tp2672
a(I0
I7595
F-0.625
S'irritating'
p2673
I11
tp2674
a(I0
I7658
I0
S'many'
p2675
I11
tp2676
as(S'in'
p2677
S'yu'
p2678
S'yureka'
p2679
tp2680
(lp2681
(I0
I396
I0
g918
I0
tp2682
a(I0
I604
F1.0
g921
I0
tp2683
a(I0
I1317
F-0.625
g832
I0
tp2684
a(I0
I1473
F-0.5
g932
I0
tp2685
a(I0
I1569
F0.125
g934
I0
tp2686
a(I0
I1791
F1.0
g840
I0
tp2687
a(I0
I1796
I0
g844
I0
tp2688
a(I0
I2096
F0.125
g848
I0
tp2689
a(I0
I2305
I0
g947
I0
tp2690
a(I0
I2460
F0.25
g852
I0
tp2691
a(I0
I2798
F-0.25
g858
I0
tp2692
a(I0
I2916
F0.25
g953
I0
tp2693
a(I0
I3111
F0.625
g860
I0
tp2694
a(I0
I3170
F1.0
g956
I0
tp2695
a(I0
I3237
F-0.625
g862
I0
tp2696
a(I0
I3529
F1.0
g961
I0
tp2697
a(I0
I3529
I0
g963
I0
tp2698
a(I0
I3551
F0.75
g866
I0
tp2699
a(I0
I4250
F-0.25
g968
I0
tp2700
a(I0
I4885
I0
g880
I0
tp2701
a(I0
I5062
I0
g978
I0
tp2702
a(I0
I5132
F-0.375
g980
I0
tp2703
a(I0
I5420
F-0.5
g884
I0
tp2704
a(I0
I5732
F1.0
g888
I0
tp2705
a(I0
I5763
F0.125
g987
I0
tp2706
a(I0
I5960
F0.375
g890
I0
tp2707
a(I0
I6170
I0
g892
I0
tp2708
a(I0
I6288
F-0.625
g991
I0
tp2709
a(I0
I6310
F-0.5
g894
I0
tp2710
a(I0
I6411
F0.375
g998
I0
tp2711
a(I0
I6636
I0
g896
I0
tp2712
a(I0
I6638
F-0.625
g898
I0
tp2713
a(I0
I6787
F-0.25
g1002
I0
tp2714
a(I0
I7166
F-0.5
g1004
I0
tp2715
a(I0
I7881
F-0.5
g1012
I0
tp2716
a(I0
I8160
F-0.625
g1018
I0
tp2717
a(I0
I8162
F-0.625
g1020
I0
tp2718
a(I0
I8162
I0
g1022
I0
tp2719
a(I0
I8206
F-0.625
g916
I0
tp2720
a(I0
I8314
F-0.25
g1027
I0
tp2721
as(S'android'
p2722
tp2723
(lp2724
(I0
I812
F1.0
S'best'
p2725
I3
tp2726
a(I0
I812
I0
S'customized'
p2727
I3
tp2728
a(I0
I1566
F-0.125
S'next'
p2729
I3
tp2730
a(I0
I1635
F0.5
S'possible'
p2731
I3
tp2732
a(I0
I1672
I-100
S'vannila'
p2733
I3
tp2734
a(I0
I2032
F-1.0
S'bad'
p2735
I3
tp2736
a(I0
I4334
F-1.0
S'worst'
p2737
I3
tp2738
a(I0
I7336
F1.0
S'good'
p2739
I3
tp2740
as(S'lenovo'
p2741
S'k3'
p2742
S'note'
p2743
tp2744
(lp2745
(I0
I2089
F1.0
S'better'
p2746
I0
tp2747
a(I0
I3252
F1.0
S'good'
p2748
I0
tp2749
a(I0
I877
F0.375
S'available'
p2750
I0
tp2751
a(I0
I2089
F1.0
g2746
I0
tp2752
a(I0
I2530
I0
S's'
p2753
I0
tp2754
a(I0
I7813
F1.0
S'better'
p2755
I0
tp2756
a(I0
I2112
F-0.25
S'i'
p2757
I0
tp2758
a(I0
I2112
F-0.625
S'fast'
p2759
I0
tp2760
a(I0
I2116
F1.0
S'better'
p2761
I0
tp2762
a(I0
I2515
F0.875
S'great'
p2763
I0
tp2764
a(I0
I3252
F1.0
g2748
I0
tp2765
a(I0
I1220
I-100
S'higher2'
p2766
I1
tp2767
a(I0
I2112
F-0.25
g2757
I1
tp2768
a(I0
I2112
F-0.625
g2759
I1
tp2769
a(I0
I2116
F1.0
g2761
I1
tp2770
a(I0
I2515
F0.875
g2763
I1
tp2771
a(I0
I2528
I-100
S'fork3'
p2772
I1
tp2773
a(I0
I3252
F1.0
g2748
I1
tp2774
as(S'much'
p2775
S'heating'
p2776
S'problem'
p2777
tp2778
(lp2779
(I0
I612
F0.75
g1990
I0
tp2780
a(I0
I3890
F0.375
g64
I0
tp2781
a(I0
I4461
F0.375
g1473
I0
tp2782
a(I0
I4709
F0.375
g1965
I0
tp2783
a(I0
I4714
F0.375
g1967
I0
tp2784
a(I0
I4954
F0.375
S'much'
p2785
I0
tp2786
a(I0
I5049
F0.125
g94
I0
tp2787
a(I0
I5049
F0.375
g96
I0
tp2788
a(I0
I5524
F0.375
g1491
I0
tp2789
a(I0
I5582
F0.375
g2006
I0
tp2790
a(I0
I5811
F0.375
g2009
I0
tp2791
a(I0
I5811
I0
S'u'
p2792
I0
tp2793
a(I0
I6062
F0.375
g124
I0
tp2794
a(I0
I7044
F0.375
g1521
I0
tp2795
a(I0
I7234
F0.375
g1979
I0
tp2796
a(I0
I7239
F0.375
S'much'
p2797
I0
tp2798
a(I0
I7244
F0.375
g2020
I0
tp2799
a(I0
I7295
F0.375
g1981
I0
tp2800
a(I0
I7641
F0.375
g1534
I0
tp2801
a(I0
I7670
F0.375
g1984
I0
tp2802
a(I0
I8028
F0.375
g1536
I0
tp2803
as(g2535
S'good'
p2804
S'product'
p2805
tp2806
(lp2807
(I0
I468
F0.125
S'mobile'
p2808
I2
tp2809
a(I0
I468
F-1.0
S'worst'
p2810
I2
tp2811
a(I0
I2323
F1.0
S'good'
p2812
I2
tp2813
a(I0
I2742
F1.0
S'good'
p2814
I2
tp2815
a(I0
I2827
F1.0
S'good'
p2816
I2
tp2817
a(I0
I2829
F1.0
S'good'
p2818
I2
tp2819
a(I0
I3133
F-0.875
S'poor'
p2820
I2
tp2821
a(I0
I3177
F1.0
S'good'
p2822
I2
tp2823
a(I0
I3428
F1.0
S'good'
p2824
I2
tp2825
a(I0
I3483
I0
S'indian'
p2826
I2
tp2827
a(I0
I3556
F1.0
S'good'
p2828
I2
tp2829
a(I0
I3994
F1.0
S'good'
p2830
I2
tp2831
a(I0
I4105
F1.0
S'good'
p2832
I2
tp2833
a(I0
I4465
F-0.125
S'overall'
p2834
I2
tp2835
a(I0
I4941
F1.0
S'good'
p2836
I2
tp2837
a(I0
I5063
F1.0
S'good'
p2838
I2
tp2839
a(I0
I5084
F-0.125
S'overall'
p2840
I2
tp2841
a(I0
I5226
F1.0
S'good'
p2842
I2
tp2843
a(I0
I5341
F-0.125
g529
I2
tp2844
a(I0
I5596
F1.0
S'good'
p2845
I2
tp2846
a(I0
I5643
I0
S'serious'
p2847
I2
tp2848
a(I0
I5643
F1.0
S'good'
p2849
I2
tp2850
a(I0
I5648
F1.0
S'good'
p2851
I2
tp2852
a(I0
I5801
F1.0
S'good'
p2853
I2
tp2854
a(I0
I5838
F1.0
S'good'
p2855
I2
tp2856
a(I0
I5901
F0.875
S'nice'
p2857
I2
tp2858
a(I0
I5923
F1.0
S'good'
p2859
I2
tp2860
a(I0
I5967
F1.0
S'good'
p2861
I2
tp2862
a(I0
I5973
F-0.25
S'i'
p2863
I2
tp2864
a(I0
I5973
F1.0
S'good'
p2865
I2
tp2866
a(I0
I6073
F0.625
S'first'
p2867
I2
tp2868
a(I0
I6119
F1.0
S'good'
p2869
I2
tp2870
a(I0
I6137
F1.0
S'good'
p2871
I2
tp2872
a(I0
I6158
F1.0
S'good'
p2873
I2
tp2874
a(I0
I6211
F-0.125
S'overall'
p2875
I2
tp2876
a(I0
I6211
F1.0
S'good'
p2877
I2
tp2878
a(I0
I6310
F-0.125
S'overall'
p2879
I2
tp2880
a(I0
I6310
F1.0
S'good'
p2881
I2
tp2882
a(I0
I6328
F1.0
S'good'
p2883
I2
tp2884
a(I0
I6373
F1.0
S'good'
p2885
I2
tp2886
a(I0
I6433
F1.0
S'good'
p2887
I2
tp2888
a(I0
I6593
F1.0
S'good'
p2889
I2
tp2890
a(I0
I6619
F1.0
S'good'
p2891
I2
tp2892
a(I0
I6685
F0.5
S'satisfactory'
p2893
I2
tp2894
a(I0
I6730
F1.0
S'good'
p2895
I2
tp2896
a(I0
I7039
F1.0
S'good'
p2897
I2
tp2898
a(I0
I7229
F0.875
S'awesome'
p2899
I2
tp2900
a(I0
I7241
F1.0
S'good'
p2901
I2
tp2902
a(I0
I7272
F1.0
S'good'
p2903
I2
tp2904
a(I0
I7274
F1.0
S'good'
p2905
I2
tp2906
a(I0
I7307
F0.875
S'nice'
p2907
I2
tp2908
a(I0
I7307
I0
S'waste'
p2909
I2
tp2910
a(I0
I7348
F1.0
S'good'
p2911
I2
tp2912
a(I0
I7378
F1.0
S'good'
p2913
I2
tp2914
a(I0
I7389
F1.0
S'good'
p2915
I2
tp2916
a(I0
I7399
F1.0
S'good'
p2917
I2
tp2918
a(I0
I7783
F1.0
S'good'
p2919
I2
tp2920
a(I0
I7793
F-0.5
S'dump'
p2921
I2
tp2922
a(I0
I7879
F1.0
S'good'
p2923
I2
tp2924
a(I0
I8338
F1.0
S'excellent'
p2925
I2
tp2926
a(I0
I8353
F1.0
S'good'
p2927
I2
tp2928
a(I0
I8383
F-0.125
S'overall'
p2929
I2
tp2930
a(I0
I8383
F1.0
S'good'
p2931
I2
tp2932
a(I0
I468
F0.125
g2808
I5
tp2933
a(I0
I468
F-1.0
g2810
I5
tp2934
a(I0
I2323
F1.0
g2812
I5
tp2935
a(I0
I2742
F1.0
g2814
I5
tp2936
a(I0
I2827
F1.0
g2816
I5
tp2937
a(I0
I2829
F1.0
g2818
I5
tp2938
a(I0
I3133
F-0.875
g2820
I5
tp2939
a(I0
I3177
F1.0
g2822
I5
tp2940
a(I0
I3428
F1.0
g2824
I5
tp2941
a(I0
I3483
I0
g2826
I5
tp2942
a(I0
I3556
F1.0
g2828
I5
tp2943
a(I0
I3994
F1.0
g2830
I5
tp2944
a(I0
I4105
F1.0
g2832
I5
tp2945
a(I0
I4465
F-0.125
g2834
I5
tp2946
a(I0
I4732
F1.0
S'good'
p2947
I5
tp2948
a(I0
I4770
I-100
S'goodworst'
p2949
I5
tp2950
a(I0
I4941
F1.0
g2836
I5
tp2951
a(I0
I5063
F1.0
g2838
I5
tp2952
a(I0
I5078
I-100
S'heatedexcellent'
p2953
I5
tp2954
a(I0
I5084
F-0.125
g2840
I5
tp2955
a(I0
I5226
F1.0
g2842
I5
tp2956
a(I0
I5341
F-0.125
g529
I5
tp2957
a(I0
I5391
I-100
S'goodthis'
p2958
I5
tp2959
a(I0
I5596
F1.0
g2845
I5
tp2960
a(I0
I5643
I0
g2847
I5
tp2961
a(I0
I5643
I-100
S'issuethe'
p2962
I5
tp2963
a(I0
I5643
F1.0
g2849
I5
tp2964
a(I0
I5647
F1.0
S'good'
p2965
I5
tp2966
a(I0
I5648
F1.0
g2851
I5
tp2967
a(I0
I5665
I-100
S'priceawesome'
p2968
I5
tp2969
a(I0
I5801
F1.0
g2853
I5
tp2970
a(I0
I5838
F1.0
g2855
I5
tp2971
a(I0
I5901
F0.875
g2857
I5
tp2972
a(I0
I5923
F1.0
g2859
I5
tp2973
a(I0
I5967
F1.0
g2861
I5
tp2974
a(I0
I5973
F-0.25
g2863
I5
tp2975
a(I0
I5973
F1.0
g2865
I5
tp2976
a(I0
I6073
I-100
S'somethingdefective'
p2977
I5
tp2978
a(I0
I6073
F0.625
g2867
I5
tp2979
a(I0
I6119
F1.0
g2869
I5
tp2980
a(I0
I6137
F1.0
g2871
I5
tp2981
a(I0
I6158
F1.0
g2873
I5
tp2982
a(I0
I6211
F-0.125
g2875
I5
tp2983
a(I0
I6211
F1.0
g2877
I5
tp2984
a(I0
I6308
F1.0
S'good'
p2985
I5
tp2986
a(I0
I6310
F-0.125
g2879
I5
tp2987
a(I0
I6310
F1.0
g2881
I5
tp2988
a(I0
I6328
F1.0
g2883
I5
tp2989
a(I0
I6353
I-100
S'thisgood'
p2990
I5
tp2991
a(I0
I6373
F1.0
g2885
I5
tp2992
a(I0
I6433
F1.0
g2887
I5
tp2993
a(I0
I6519
I-100
S'charginggood'
p2994
I5
tp2995
a(I0
I6593
F1.0
g2889
I5
tp2996
a(I0
I6619
I-100
S'goodits'
p2997
I5
tp2998
a(I0
I6619
F1.0
g2891
I5
tp2999
a(I0
I6685
F0.5
g2893
I5
tp3000
a(I0
I6730
F1.0
g2895
I5
tp3001
a(I0
I7039
F1.0
g2897
I5
tp3002
a(I0
I7229
F0.875
g2899
I5
tp3003
a(I0
I7241
F1.0
g2901
I5
tp3004
a(I0
I7265
I-100
S'issuesgot'
p3005
I5
tp3006
a(I0
I7272
F1.0
g2903
I5
tp3007
a(I0
I7274
F1.0
g2905
I5
tp3008
a(I0
I7307
F0.875
g2907
I5
tp3009
a(I0
I7307
I0
g2909
I5
tp3010
a(I0
I7348
F1.0
g2911
I5
tp3011
a(I0
I7378
F1.0
g2913
I5
tp3012
a(I0
I7389
F1.0
g2915
I5
tp3013
a(I0
I7397
I-100
S'operatinggood'
p3014
I5
tp3015
a(I0
I7399
F1.0
g2917
I5
tp3016
a(I0
I7755
F1.0
S'good'
p3017
I5
tp3018
a(I0
I7783
F1.0
g2919
I5
tp3019
a(I0
I7793
F-0.5
g2921
I5
tp3020
a(I0
I7819
F1.0
S'good'
p3021
I5
tp3022
a(I0
I7879
F1.0
g2923
I5
tp3023
a(I0
I8338
F1.0
g2925
I5
tp3024
a(I0
I8353
F1.0
g2927
I5
tp3025
a(I0
I8383
F-0.125
g2929
I5
tp3026
a(I0
I8383
F1.0
g2931
I5
tp3027
as(S'service'
p3028
S'center'
p3029
tp3030
(lp3031
(I0
I1578
F0.125
S'mobile'
p3032
I5
tp3033
a(I0
I3018
F-0.625
S'horrible'
p3034
I5
tp3035
a(I0
I4182
F-0.875
S'terrible'
p3036
I5
tp3037
a(I0
I4259
I0
S'more'
p3038
I5
tp3039
a(I0
I4259
F-0.375
S'authorized'
p3040
I5
tp3041
a(I0
I5226
F0.25
S'able'
p3042
I5
tp3043
a(I0
I5399
F-1.0
S'worst'
p3044
I5
tp3045
as(S'front'
p3046
S'camera'
p3047
tp3048
(lp3049
(I0
I63
F-0.125
g383
I6
tp3050
a(I0
I63
F1.0
g385
I6
tp3051
a(I0
I342
F-0.375
S'flawless'
p3052
I6
tp3053
a(I0
I581
F1.0
g391
I6
tp3054
a(I0
I581
F0.125
g393
I6
tp3055
a(I0
I581
I0
g395
I6
tp3056
a(I0
I581
F-1.0
g397
I6
tp3057
a(I0
I581
F-0.125
g399
I6
tp3058
a(I0
I1174
F1.0
g407
I6
tp3059
a(I0
I1442
F1.0
g417
I6
tp3060
a(I0
I1566
F0.625
S'fine'
p3061
I6
tp3062
a(I0
I1942
I0
S'rear'
p3063
I6
tp3064
a(I0
I1942
F1.0
S'excellent'
p3065
I6
tp3066
a(I0
I2398
I0
S'n'
p3067
I6
tp3068
a(I0
I2979
F1.0
g303
I6
tp3069
a(I0
I3039
F1.0
g307
I6
tp3070
a(I0
I3395
F1.0
g323
I6
tp3071
a(I0
I3430
F1.0
g478
I6
tp3072
a(I0
I3686
I0
g482
I6
tp3073
a(I0
I3686
F1.0
g484
I6
tp3074
a(I0
I4228
F1.0
g499
I6
tp3075
a(I0
I4236
F-0.125
S'front'
p3076
I6
tp3077
a(I0
I4403
F0.875
S'great'
p3078
I6
tp3079
a(I0
I4403
I0
S'rear'
p3080
I6
tp3081
a(I0
I4415
F0.875
S'nice'
p3082
I6
tp3083
a(I0
I4618
F1.0
g511
I6
tp3084
a(I0
I4683
F1.0
g514
I6
tp3085
a(I0
I4708
F0.875
S'nice'
p3086
I6
tp3087
a(I0
I4708
F-0.125
S'front'
p3088
I6
tp3089
a(I0
I4756
F-0.75
S'defective'
p3090
I6
tp3091
a(I0
I4785
F-0.125
g343
I6
tp3092
a(I0
I5519
F-0.125
S'front'
p3093
I6
tp3094
a(I0
I5825
F-0.125
S'front'
p3095
I6
tp3096
a(I0
I6236
F1.0
S'better'
p3097
I6
tp3098
a(I0
I6605
F0.5
S'touch'
p3099
I6
tp3100
a(I0
I7392
F-0.125
g580
I6
tp3101
a(I0
I7700
I0
g588
I6
tp3102
a(I0
I7700
F-0.125
g590
I6
tp3103
a(I0
I8005
F-0.5
S'weak'
p3104
I6
tp3105
a(I0
I1566
F0.625
g3061
I14
tp3106
a(I0
I1942
I0
g3063
I14
tp3107
a(I0
I1942
F1.0
g3065
I14
tp3108
a(I0
I2162
F-1.0
S'worst'
p3109
I14
tp3110
a(I0
I2398
I0
g3067
I14
tp3111
a(I0
I2475
F0.875
S'nice'
p3112
I14
tp3113
a(I0
I3040
I0
S'sometimes'
p3114
I14
tp3115
a(I0
I4756
F-0.75
g3090
I14
tp3116
a(I0
I6605
F0.5
g3099
I14
tp3117
as(S'heats'
p3118
tp3119
(lp3120
(I0
I1927
F0.375
S'much'
p3121
I8
tp3122
a(I0
I1965
F0.375
S'much'
p3123
I8
tp3124
a(I0
I2290
F0.375
S'much'
p3125
I8
tp3126
a(I0
I4812
F0.375
S'much'
p3127
I8
tp3128
a(I0
I5004
I0
S'heater'
p3129
I8
tp3130
a(I0
I5136
I0
S'more'
p3131
I8
tp3132
a(I0
I6050
F-0.875
S'low'
p3133
I8
tp3134
as(S'service'
p3135
S'by'
p3136
S'amazon'
p3137
tp3138
(lp3139
(I0
I3270
F0.875
S'awesome'
p3140
I0
tp3141
a(I0
I5049
F-1.0
S'bad'
p3142
I0
tp3143
a(I0
I5922
F1.0
S'excellent'
p3144
I0
tp3145
a(I0
I6340
F0.125
S'amazon'
p3146
I0
tp3147
a(I0
I6593
F0.875
S'great'
p3148
I0
tp3149
a(I0
I7493
F0.875
S'great'
p3150
I0
tp3151
a(I0
I893
I0
S's'
p3152
I0
tp3153
a(I0
I956
F-0.5
S'disappointed'
p3154
I0
tp3155
a(I0
I1047
F1.0
S'good'
p3156
I0
tp3157
a(I0
I1146
I0
S'ur'
p3158
I0
tp3159
a(I0
I1171
F0.125
S'usual'
p3160
I0
tp3161
a(I0
I1619
F-0.75
S'unlucky'
p3162
I0
tp3163
a(I0
I1702
F0.875
S'great'
p3164
I0
tp3165
a(I0
I2009
F0.375
S'satisfied'
p3166
I0
tp3167
a(I0
I2313
F0.125
S'mobile'
p3168
I0
tp3169
a(I0
I3133
F0.375
S'much'
p3170
I0
tp3171
a(I0
I3270
F0.875
g3140
I0
tp3172
a(I0
I3488
F-0.625
S'fast'
p3173
I0
tp3174
a(I0
I4148
I0
S'more'
p3175
I0
tp3176
a(I0
I4271
F0.75
S'dear'
p3177
I0
tp3178
a(I0
I4351
F0.375
S'much'
p3179
I0
tp3180
a(I0
I4652
I0
S'least'
p3181
I0
tp3182
a(I0
I4758
F1.0
S'good'
p3183
I0
tp3184
a(I0
I5112
I0
S's'
p3185
I0
tp3186
a(I0
I5718
F0.875
S'amazing'
p3187
I0
tp3188
a(I0
I5866
F0.125
S'usual'
p3189
I0
tp3190
a(I0
I6533
F-0.75
S'complain'
p3191
I0
tp3192
a(I0
I7153
F0.875
S'happy'
p3193
I0
tp3194
a(I0
I7493
F0.875
g3150
I0
tp3195
a(I0
I8075
F0.25
S'able'
p3196
I0
tp3197
as(S'heating'
p3198
S'issues'
p3199
tp3200
(lp3201
(I0
I796
F0.375
S'heating'
p3202
I0
tp3203
a(I0
I1045
I0
S'lagging'
p3204
I0
tp3205
a(I0
I1850
F-0.625
S'other'
p3206
I0
tp3207
a(I0
I2398
F-0.625
S'other'
p3208
I0
tp3209
a(I0
I2398
F-0.75
S'minor'
p3210
I0
tp3211
a(I0
I2927
F0.625
S'major'
p3212
I0
tp3213
a(I0
I4521
F1.0
g82
I0
tp3214
a(I0
I4521
I0
S'many'
p3215
I0
tp3216
a(I0
I4521
F-0.125
S'such'
p3217
I0
tp3218
a(I0
I4757
F-0.875
S'poor'
p3219
I0
tp3220
a(I0
I5483
F-0.625
S'other'
p3221
I0
tp3222
a(I0
I5690
I0
g108
I0
tp3223
a(I0
I6062
F0.375
g124
I0
tp3224
a(I0
I6161
I0
g130
I0
tp3225
a(I0
I6288
I0
S'many'
p3226
I0
tp3227
a(I0
I6689
F0.5
S'slight'
p3228
I0
tp3229
a(I0
I6707
I0
S'update'
p3230
I0
tp3231
a(I0
I6991
F0.625
g144
I0
tp3232
a(I0
I6991
I0
S'lagging'
p3233
I0
tp3234
a(I0
I7082
F-0.625
S'average'
p3235
I0
tp3236
a(I0
I7162
I0
S'only'
p3237
I0
tp3238
a(I0
I7513
I0
S'multiple'
p3239
I0
tp3240
a(I0
I8099
F-0.125
S'such'
p3241
I0
tp3242
a(I0
I19
F-0.778
S'common'
p3243
I4
tp3244
a(I0
I472
F0.375
S'early'
p3245
I4
tp3246
a(I0
I705
F0.625
S'major'
p3247
I4
tp3248
a(I0
I788
F-0.625
S'other'
p3249
I4
tp3250
a(I0
I788
F-0.75
S'secondary'
p3251
I4
tp3252
a(I0
I796
F0.375
g3202
I4
tp3253
a(I0
I888
F-0.375
S'same'
p3254
I4
tp3255
a(I0
I965
I0
S't'
p3256
I4
tp3257
a(I0
I1045
I0
g3204
I4
tp3258
a(I0
I1076
I0
S'update'
p3259
I4
tp3260
a(I0
I1786
F-0.125
S'such'
p3261
I4
tp3262
a(I0
I1850
F-0.625
g3206
I4
tp3263
a(I0
I1853
I0
S'multiple'
p3264
I4
tp3265
a(I0
I2120
F-0.125
S'such'
p3266
I4
tp3267
a(I0
I2272
F-0.625
S'other'
p3268
I4
tp3269
a(I0
I2398
F-0.625
g3208
I4
tp3270
a(I0
I2398
F-0.75
g3210
I4
tp3271
a(I0
I2645
I0
S't'
p3272
I4
tp3273
a(I0
I2712
F-0.75
S'unable'
p3274
I4
tp3275
a(I0
I2713
F-0.375
S'same'
p3276
I4
tp3277
a(I0
I2927
F0.625
g3212
I4
tp3278
a(I0
I3314
I0
S'many'
p3279
I4
tp3280
a(I0
I3464
F0.125
S'mobile'
p3281
I4
tp3282
a(I0
I3466
F0.75
S'due'
p3283
I4
tp3284
a(I0
I4179
F-0.75
S'stupid'
p3285
I4
tp3286
a(I0
I4521
I0
g3215
I4
tp3287
a(I0
I4521
F-0.125
g3217
I4
tp3288
a(I0
I4757
F-0.875
g3219
I4
tp3289
a(I0
I4931
F0.625
S'acceptable'
p3290
I4
tp3291
a(I0
I5483
I-100
S'weekother'
p3292
I4
tp3293
a(I0
I5483
F-0.625
g3221
I4
tp3294
a(I0
I5579
F0.375
S'much'
p3295
I4
tp3296
a(I0
I5716
I0
S'mentioned'
p3297
I4
tp3298
a(I0
I6288
I0
g3226
I4
tp3299
a(I0
I6316
I-100
S'disappointedgood'
p3300
I4
tp3301
a(I0
I6689
F0.5
g3228
I4
tp3302
a(I0
I6707
I0
g3230
I4
tp3303
a(I0
I6991
I0
g3233
I4
tp3304
a(I0
I7082
F-0.625
g3235
I4
tp3305
a(I0
I7157
I-100
S'toopoor'
p3306
I4
tp3307
a(I0
I7162
I0
g3237
I4
tp3308
a(I0
I7203
F-0.875
S'small'
p3309
I4
tp3310
a(I0
I7489
F0.625
S'major'
p3311
I4
tp3312
a(I0
I7513
I0
g3239
I4
tp3313
a(I0
I7638
I0
S'own'
p3314
I4
tp3315
a(I0
I7985
I0
S'many'
p3316
I4
tp3317
a(I0
I7985
F0.625
S'major'
p3318
I4
tp3319
a(I0
I8099
F-0.125
g3241
I4
tp3320
as(S't'
p3321
S'buy'
p3322
S'yu'
p3323
tp3324
(lp3325
(I0
I1348
F1.0
S'good'
p3326
I0
tp3327
a(I0
I2096
F0.125
g848
I0
tp3328
a(I0
I3709
I0
S't'
p3329
I0
tp3330
a(I0
I5049
I0
S't'
p3331
I0
tp3332
a(I0
I5049
F0.125
S'mobile'
p3333
I0
tp3334
a(I0
I6678
F0.125
S'don'
p3335
I0
tp3336
a(I0
I6909
I0
S'guys'
p3337
I0
tp3338
a(I0
I8118
I-100
S'phoneexcellentexcellentdon'
p3339
I0
tp3340
as(S'good'
p3341
S'battery'
p3342
S'backup'
p3343
tp3344
(lp3345
(I0
I749
F1.0
S'good'
p3346
I0
tp3347
a(I0
I1822
F1.0
S'good'
p3348
I0
tp3349
a(I0
I2186
F1.0
S'good'
p3350
I0
tp3351
a(I0
I2395
F-0.875
S'low'
p3352
I0
tp3353
a(I0
I2752
F1.0
S'good'
p3354
I0
tp3355
a(I0
I2848
F0.375
S'much'
p3356
I0
tp3357
a(I0
I3128
F1.0
S'good'
p3358
I0
tp3359
a(I0
I3263
F1.0
S'good'
p3360
I0
tp3361
a(I0
I3618
F1.0
S'good'
p3362
I0
tp3363
a(I0
I3703
F-1.0
S'worst'
p3364
I0
tp3365
a(I0
I4138
I0
S'veery'
p3366
I0
tp3367
a(I0
I4444
F1.0
S'good'
p3368
I0
tp3369
a(I0
I4582
F-0.875
S'low'
p3370
I0
tp3371
a(I0
I4706
F1.0
S'good'
p3372
I0
tp3373
a(I0
I5122
F1.0
S'good'
p3374
I0
tp3375
a(I0
I5409
F-0.875
S'poor'
p3376
I0
tp3377
a(I0
I5619
F1.0
S'better'
p3378
I0
tp3379
a(I0
I5619
F-0.875
S'poor'
p3380
I0
tp3381
a(I0
I5670
F1.0
S'good'
p3382
I0
tp3383
a(I0
I5690
F-1.0
S'bad'
p3384
I0
tp3385
a(I0
I5878
F1.0
S'good'
p3386
I0
tp3387
a(I0
I5878
F-0.875
S'poor'
p3388
I0
tp3389
a(I0
I5967
F-0.25
S'battery'
p3390
I0
tp3391
a(I0
I6328
F-0.875
S'low'
p3392
I0
tp3393
a(I0
I6474
F-0.875
S'poor'
p3394
I0
tp3395
a(I0
I6596
F0.625
S'accept'
p3396
I0
tp3397
a(I0
I7157
F-0.25
S'battery'
p3398
I0
tp3399
a(I0
I7207
F-0.875
S'low'
p3400
I0
tp3401
a(I0
I7207
F-0.125
S'overall'
p3402
I0
tp3403
a(I0
I7313
F1.0
S'good'
p3404
I0
tp3405
a(I0
I7313
F-0.75
S'little'
p3406
I0
tp3407
a(I0
I7434
F1.0
S'good'
p3408
I0
tp3409
a(I0
I7645
F1.0
S'good'
p3410
I0
tp3411
a(I0
I436
F1.0
S'good'
p3412
I1
tp3413
a(I0
I490
F-0.625
S'last'
p3414
I1
tp3415
a(I0
I504
F-0.625
g2298
I1
tp3416
a(I0
I548
F1.0
S'good'
p3417
I1
tp3418
a(I0
I851
F1.0
S'good'
p3419
I1
tp3420
a(I0
I1460
F1.0
g2308
I1
tp3421
a(I0
I1805
F-0.25
S'degree'
p3422
I1
tp3423
a(I0
I2186
F1.0
g3350
I1
tp3424
a(I0
I2567
F1.0
S'good'
p3425
I1
tp3426
a(I0
I2822
F-0.375
g2325
I1
tp3427
a(I0
I2848
F0.375
g3356
I1
tp3428
a(I0
I3081
F0.625
S'fine'
p3429
I1
tp3430
a(I0
I3128
F1.0
g3358
I1
tp3431
a(I0
I3483
F-0.875
g238
I1
tp3432
a(I0
I3618
F1.0
g3362
I1
tp3433
a(I0
I3822
F-0.875
S'low'
p3434
I1
tp3435
a(I0
I4469
F1.0
S'good'
p3436
I1
tp3437
a(I0
I4469
F0.875
S'awesome'
p3438
I1
tp3439
a(I0
I4572
F1.0
S'good'
p3440
I1
tp3441
a(I0
I4582
F-0.875
g3370
I1
tp3442
a(I0
I4706
F1.0
g3372
I1
tp3443
a(I0
I5045
I0
S'more'
p3444
I1
tp3445
a(I0
I5078
F-0.5
S'weak'
p3446
I1
tp3447
a(I0
I5204
F1.0
S'good'
p3448
I1
tp3449
a(I0
I5228
F1.0
S'good'
p3450
I1
tp3451
a(I0
I5228
F-1.0
S'bad'
p3452
I1
tp3453
a(I0
I5341
F-0.125
g529
I1
tp3454
a(I0
I5409
F-0.875
g3376
I1
tp3455
a(I0
I5444
F-0.875
S'poor'
p3456
I1
tp3457
a(I0
I5449
F0.5
g2272
I1
tp3458
a(I0
I5449
F-0.875
g2274
I1
tp3459
a(I0
I5567
I0
S'least'
p3460
I1
tp3461
a(I0
I5619
F1.0
g3378
I1
tp3462
a(I0
I5638
F0.25
S'basic'
p3463
I1
tp3464
a(I0
I5639
F1.0
S'good'
p3465
I1
tp3466
a(I0
I5639
I0
S'u'
p3467
I1
tp3468
a(I0
I5660
F1.0
g2276
I1
tp3469
a(I0
I5670
F1.0
g3382
I1
tp3470
a(I0
I5762
F0.375
S'much'
p3471
I1
tp3472
a(I0
I5805
F1.0
S'good'
p3473
I1
tp3474
a(I0
I5845
F1.0
S'best'
p3475
I1
tp3476
a(I0
I5878
F1.0
g3386
I1
tp3477
a(I0
I5950
F-1.0
S'bad'
p3478
I1
tp3479
a(I0
I5959
F-0.875
S'poor'
p3480
I1
tp3481
a(I0
I6099
F1.0
S'good'
p3482
I1
tp3483
a(I0
I6103
F-0.625
S'last'
p3484
I1
tp3485
a(I0
I6163
F1.0
S'good'
p3486
I1
tp3487
a(I0
I6328
F-0.875
g3392
I1
tp3488
a(I0
I6596
F0.625
g3396
I1
tp3489
a(I0
I6668
F1.0
S'good'
p3490
I1
tp3491
a(I0
I6668
F-0.625
S'last'
p3492
I1
tp3493
a(I0
I6671
F1.0
g2388
I1
tp3494
a(I0
I6751
I0
S'more'
p3495
I1
tp3496
a(I0
I6760
F1.0
S'good'
p3497
I1
tp3498
a(I0
I6818
F-0.625
S'horrible'
p3499
I1
tp3500
a(I0
I6893
F1.0
S'good'
p3501
I1
tp3502
a(I0
I6893
F1.0
S'good'
p3503
I1
tp3504
a(I0
I6986
F0.375
g250
I1
tp3505
a(I0
I6994
F-0.875
S'poor'
p3506
I1
tp3507
a(I0
I7036
F-0.875
S'poor'
p3508
I1
tp3509
a(I0
I7168
F-0.875
g2288
I1
tp3510
a(I0
I7195
F1.0
g254
I1
tp3511
a(I0
I7195
I0
g256
I1
tp3512
a(I0
I7207
F-0.875
g3400
I1
tp3513
a(I0
I7207
F-0.125
g3402
I1
tp3514
a(I0
I7234
F1.0
S'good'
p3515
I1
tp3516
a(I0
I7313
F1.0
g3404
I1
tp3517
as(S'subway'
p3518
S'surfer'
p3519
tp3520
(lp3521
(I0
I5297
F0.875
S'simple'
p3522
I0
tp3523
a(I0
I7486
I0
S'subway'
p3524
I0
tp3525
as(S'lot'
p3526
S'of'
p3527
S'problems'
p3528
tp3529
(lp3530
(I0
I22
F-0.625
S'other'
p3531
I1
tp3532
a(I0
I351
F0.125
S'mobile'
p3533
I1
tp3534
a(I0
I6748
F0.375
g1043
I1
tp3535
a(I0
I6748
F-0.25
S'i'
p3536
I1
tp3537
a(I0
I22
F-0.625
g3531
I8
tp3538
a(I0
I268
F0.375
S'much'
p3539
I8
tp3540
a(I0
I376
I0
S'many'
p3541
I8
tp3542
a(I0
I470
F0.375
S'early'
p3543
I8
tp3544
a(I0
I1008
F0.625
S'major'
p3545
I8
tp3546
a(I0
I1125
I0
S'above'
p3547
I8
tp3548
a(I0
I1414
F0.5
S'similar'
p3549
I8
tp3550
a(I0
I1775
F0.5
S'irritable'
p3551
I8
tp3552
a(I0
I1785
I0
S'many'
p3553
I8
tp3554
a(I0
I2899
F-0.625
S'new'
p3555
I8
tp3556
a(I0
I2899
F-0.625
S'new'
p3557
I8
tp3558
a(I0
I3096
I0
S'many'
p3559
I8
tp3560
a(I0
I3281
I0
S'many'
p3561
I8
tp3562
a(I0
I3281
I0
S'more'
p3563
I8
tp3564
a(I0
I3348
F0.75
S'due'
p3565
I8
tp3566
a(I0
I3348
F-0.625
S'other'
p3567
I8
tp3568
a(I0
I3520
F0.125
S'frequent'
p3569
I8
tp3570
a(I0
I3755
F-0.625
S'other'
p3571
I8
tp3572
a(I0
I3790
F-0.625
S'other'
p3573
I8
tp3574
a(I0
I4353
F-0.625
S'other'
p3575
I8
tp3576
a(I0
I4457
F0.625
S'major'
p3577
I8
tp3578
a(I0
I4747
F-0.75
S'little'
p3579
I8
tp3580
a(I0
I4822
I0
S'cool'
p3581
I8
tp3582
a(I0
I4885
F0.125
S'memory'
p3583
I8
tp3584
a(I0
I5011
I0
S'many'
p3585
I8
tp3586
a(I0
I5198
I0
S'update'
p3587
I8
tp3588
a(I0
I5233
I0
S'many'
p3589
I8
tp3590
a(I0
I5848
I0
S's'
p3591
I8
tp3592
a(I0
I6100
I0
S'u'
p3593
I8
tp3594
a(I0
I6748
F-0.25
g3536
I8
tp3595
a(I0
I6945
F0.125
S'usual'
p3596
I8
tp3597
a(I0
I6945
F-0.875
S'poor'
p3598
I8
tp3599
a(I0
I7051
F0.375
S'much'
p3600
I8
tp3601
a(I0
I7247
F-0.375
S'same'
p3602
I8
tp3603
a(I0
I7579
F-0.75
S'pure'
p3604
I8
tp3605
a(I0
I7698
F0.125
S'frequent'
p3606
I8
tp3607
a(I0
I7763
F0.125
S'mobile'
p3608
I8
tp3609
a(I0
I7763
I0
S'hot'
p3610
I8
tp3611
a(I0
I8122
I0
S'many'
p3612
I8
tp3613
a(I0
I8122
I0
S'many'
p3614
I8
tp3615
a(I0
I8152
F-0.25
S'battery'
p3616
I8
tp3617
as(S'worth'
p3618
tp3619
(lp3620
(I0
I1207
F-0.25
S'i'
p3621
I8
tp3622
a(I0
I1575
F-0.5
S'less'
p3623
I8
tp3624
a(I0
I4758
F0.125
S'mobile'
p3625
I8
tp3626
a(I0
I5345
I-100
S'buyunbearable'
p3627
I8
tp3628
as(g3321
S'buy'
p3629
S'mobile'
p3630
tp3631
(lp3632
(I0
I58
F0.125
S'mobile'
p3633
I0
tp3634
a(I0
I1076
I0
S'wifi'
p3635
I0
tp3636
a(I0
I3394
F1.0
S'good'
p3637
I0
tp3638
a(I0
I3573
F0.875
S'great'
p3639
I0
tp3640
a(I0
I3573
F0.875
S'great'
p3641
I0
tp3642
a(I0
I3573
F0.875
S'great'
p3643
I0
tp3644
a(I0
I5004
I-100
S'fastheating'
p3645
I0
tp3646
a(I0
I5004
I-100
S'problemcan'
p3647
I0
tp3648
a(I0
I5004
F1.0
S'better'
p3649
I0
tp3650
a(I0
I5049
I0
g3331
I0
tp3651
a(I0
I5049
F0.125
g3333
I0
tp3652
a(I0
I5096
F0.125
S'don'
p3653
I0
tp3654
a(I0
I5395
F-0.625
S'new'
p3655
I0
tp3656
a(I0
I5825
F1.0
g1744
I0
tp3657
a(I0
I6108
F0.875
S'nice'
p3658
I0
tp3659
a(I0
I6175
F-1.0
S'bad'
p3660
I0
tp3661
a(I0
I6559
F1.0
S'best'
p3662
I0
tp3663
a(I0
I6575
F-0.625
S'useless'
p3664
I0
tp3665
a(I0
I6678
F0.125
g3335
I0
tp3666
a(I0
I6909
I0
g3337
I0
tp3667
a(I0
I7307
F1.0
S'good'
p3668
I0
tp3669
a(I0
I7307
F-0.75
S'little'
p3670
I0
tp3671
a(I0
I7403
F0.875
S'awesome'
p3672
I0
tp3673
a(I0
I7450
F-1.0
S'worst'
p3674
I0
tp3675
a(I0
I7891
F0.875
g2532
I0
tp3676
a(I0
I7891
I-100
S'mobiledont'
p3677
I0
tp3678
a(I0
I8090
F1.0
S'better'
p3679
I0
tp3680
a(I0
I8090
F-0.625
S'other'
p3681
I0
tp3682
a(I0
I8338
F0.125
S'mobile'
p3683
I0
tp3684
as(S'has'
p3685
S'heating'
p3686
S'problem'
p3687
tp3688
(lp3689
(I0
I4469
F-0.5
g1475
I0
tp3690
a(I0
I4581
F0.75
S'give'
p3691
I0
tp3692
a(I0
I4581
I0
S'many'
p3693
I0
tp3694
a(I0
I4581
F-0.125
S'such'
p3695
I0
tp3696
a(I0
I4581
F0.125
S'mobile'
p3697
I0
tp3698
a(I0
I4903
F0.625
S'major'
p3699
I0
tp3700
a(I0
I5049
F0.125
g94
I0
tp3701
a(I0
I5049
F0.375
g96
I0
tp3702
a(I0
I5197
I0
g1485
I0
tp3703
a(I0
I5197
F-0.625
g1487
I0
tp3704
a(I0
I5945
I0
S'lags'
p3705
I0
tp3706
a(I0
I5945
F-0.875
S'severe'
p3707
I0
tp3708
a(I0
I6104
F-0.75
S'minor'
p3709
I0
tp3710
a(I0
I6914
I0
g1519
I0
tp3711
as(S'poor'
p3712
S'battery'
p3713
S'backup'
p3714
tp3715
(lp3716
(I0
I15
F0.75
S'due'
p3717
I2
tp3718
a(I0
I15
F-0.875
S'poor'
p3719
I2
tp3720
a(I0
I654
F-0.875
S'poor'
p3721
I2
tp3722
a(I0
I777
F-0.875
S'poor'
p3723
I2
tp3724
a(I0
I2300
F-0.875
S'poor'
p3725
I2
tp3726
a(I0
I2848
I-100
S'nicepoor'
p3727
I2
tp3728
a(I0
I2848
F0.375
g3356
I2
tp3729
a(I0
I3754
F-0.875
S'poor'
p3730
I2
tp3731
a(I0
I3860
F-0.875
S'poor'
p3732
I2
tp3733
a(I0
I4636
F-0.875
S'poor'
p3734
I2
tp3735
a(I0
I4722
F-0.875
S'poor'
p3736
I2
tp3737
a(I0
I5409
F-0.875
g3376
I2
tp3738
a(I0
I5619
F1.0
g3378
I2
tp3739
a(I0
I5619
F-0.875
g3380
I2
tp3740
a(I0
I5878
F1.0
g3386
I2
tp3741
a(I0
I5878
F-0.875
g3388
I2
tp3742
a(I0
I6374
F0.375
S'much'
p3743
I2
tp3744
a(I0
I6374
F-0.875
S'poor'
p3745
I2
tp3746
a(I0
I6474
F-0.875
g3394
I2
tp3747
a(I0
I6998
I-100
S'poorbattery'
p3748
I2
tp3749
a(I0
I7069
F-0.875
S'poor'
p3750
I2
tp3751
a(I0
I7157
F-0.25
g3398
I2
tp3752
a(I0
I7762
I-100
S'solwpoor'
p3753
I2
tp3754
a(I0
I7801
F-0.875
S'poor'
p3755
I2
tp3756
a(I0
I8335
F0.125
S'mobile'
p3757
I2
tp3758
a(I0
I8335
F-0.875
S'poor'
p3759
I2
tp3760
as(S'screen'
p3761
S'goes'
p3762
S'blank'
p3763
tp3764
(lp3765
(I0
I2104
F-0.625
S'blank'
p3766
I0
tp3767
a(I0
I3133
F-0.625
S'blank'
p3768
I0
tp3769
a(I0
I4838
F-0.625
S'blank'
p3770
I0
tp3771
a(I0
I5122
F-0.625
S'blank'
p3772
I0
tp3773
a(I0
I8403
F-0.625
S'blank'
p3774
I0
tp3775
as(S'blue'
p3776
S'shade'
p3777
tp3778
(lp3779
(I0
I2033
F-0.875
S'blue'
p3780
I0
tp3781
a(I0
I4109
I0
S'blueish'
p3782
I0
tp3783
a(I0
I7949
F-0.875
S'blue'
p3784
I0
tp3785
as(S'great'
p3786
tp3787
(lp3788
(I0
I5973
I-100
S'phonebig'
p3789
I5
tp3790
a(I0
I7339
F-0.875
S'smart'
p3791
I5
tp3792
as(S'meizu'
p3793
S'm2'
p3794
tp3795
(lp3796
(I0
I2688
F1.0
S'better'
p3797
I0
tp3798
a(I0
I2696
I0
S'm2'
p3799
I0
tp3800
as(S'need'
p3801
S'to'
p3802
S'charge'
p3803
tp3804
(lp3805
(I0
I7139
F-1.0
S'bad'
p3806
I1
tp3807
a(I0
I8232
F-1.0
S'bad'
p3808
I1
tp3809
a(I0
I1351
I0
S't'
p3810
I9
tp3811
a(I0
I1662
F0.25
S'able'
p3812
I9
tp3813
a(I0
I2124
I0
S'bigger'
p3814
I9
tp3815
a(I0
I3490
I0
S'u'
p3816
I9
tp3817
a(I0
I5643
F-0.5
S'flash'
p3818
I9
tp3819
a(I0
I6200
F0.375
S'satisfied'
p3820
I9
tp3821
a(I0
I6566
I0
S'u'
p3822
I9
tp3823
a(I0
I7139
F-1.0
g3806
I9
tp3824
a(I0
I7244
I-100
S'poori'
p3825
I9
tp3826
a(I0
I8232
F-1.0
g3808
I9
tp3827
as(S'awesome'
p3828
tp3829
(lp3830
(I0
I4533
F-0.125
S'overall'
p3831
I6
tp3832
a(I0
I6674
I-100
S'usejust'
p3833
I6
tp3834
a(I0
I7364
F-0.125
S'such'
p3835
I6
tp3836
a(I0
I7364
F0.375
S'heating'
p3837
I6
tp3838
as(S'calls'
p3839
tp3840
(lp3841
(I0
I1813
F-0.5
S'several'
p3842
I9
tp3843
a(I0
I2953
F0.375
S'ok'
p3844
I9
tp3845
a(I0
I4065
I0
S'screen'
p3846
I9
tp3847
a(I0
I4218
F-0.625
S'last'
p3848
I9
tp3849
a(I0
I4773
I0
S'many'
p3850
I9
tp3851
a(I0
I5272
F-0.75
S'difficult'
p3852
I9
tp3853
a(I0
I5646
I0
S'internet'
p3854
I9
tp3855
a(I0
I6456
F1.0
S'good'
p3856
I9
tp3857
a(I0
I7143
F0.75
S'proper'
p3858
I9
tp3859
as(S'octa'
p3860
S'core'
p3861
S'processor'
p3862
tp3863
(lp3864
(I0
I916
I0
S'quad'
p3865
I0
tp3866
as(S'update'
p3867
tp3868
(lp3869
(I0
I310
F0.25
S'recent'
p3870
I1
tp3871
a(I0
I320
F0.25
S'recent'
p3872
I1
tp3873
a(I0
I427
F0.375
S'available'
p3874
I1
tp3875
a(I0
I1332
F0.375
S'further'
p3876
I1
tp3877
a(I0
I1332
I0
S'above'
p3878
I1
tp3879
a(I0
I1566
I0
S'sure'
p3880
I1
tp3881
a(I0
I2220
F-0.125
S'next'
p3882
I1
tp3883
a(I0
I3460
F-0.125
S'next'
p3884
I1
tp3885
a(I0
I3753
F-0.125
S'next'
p3886
I1
tp3887
a(I0
I4515
F-0.125
S'next'
p3888
I1
tp3889
a(I0
I5408
F0.125
S'mobile'
p3890
I1
tp3891
a(I0
I5422
I0
S'subsequent'
p3892
I1
tp3893
a(I0
I5690
F-0.25
S'latest'
p3894
I1
tp3895
a(I0
I7837
F0.5
S'possible'
p3896
I1
tp3897
a(I0
I8212
F-0.125
S'next'
p3898
I1
tp3899
as(S'receive'
p3900
g2535
S'call'
p3901
tp3902
(lp3903
(I0
I2286
F-0.75
g2539
I0
tp3904
a(I0
I5122
I0
S'u'
p3905
I0
tp3906
a(I0
I5389
F0.25
S'able'
p3907
I0
tp3908
as(S'full'
p3909
S'hd'
p3910
S'display'
p3911
tp3912
(lp3913
(I0
I1056
I0
S'clear'
p3914
I0
tp3915
a(I0
I1056
F0.375
S'full'
p3916
I0
tp3917
a(I0
I1420
I0
S'inch'
p3918
I0
tp3919
a(I0
I1420
F0.375
S'full'
p3920
I0
tp3921
a(I0
I2142
F0.375
S'full'
p3922
I0
tp3923
a(I0
I2142
F0.875
S'nice'
p3924
I0
tp3925
a(I0
I2142
F0.75
S'beautiful'
p3926
I0
tp3927
a(I0
I2487
F-0.625
S'sharp'
p3928
I0
tp3929
a(I0
I2487
I0
S'bright'
p3930
I0
tp3931
a(I0
I2639
F0.375
S'full'
p3932
I0
tp3933
a(I0
I2976
F0.375
S'full'
p3934
I0
tp3935
a(I0
I3195
F0.5
S'touch'
p3936
I0
tp3937
a(I0
I3195
F1.0
S'good'
p3938
I0
tp3939
a(I0
I3202
F-0.625
S'sharp'
p3940
I0
tp3941
a(I0
I3202
I0
S'bright'
p3942
I0
tp3943
a(I0
I3461
F0.375
S'full'
p3944
I0
tp3945
a(I0
I3531
F0.375
S'full'
p3946
I0
tp3947
a(I0
I3531
I0
S'screen'
p3948
I0
tp3949
a(I0
I4162
F-0.625
S'sharp'
p3950
I0
tp3951
a(I0
I4162
I0
S'bright'
p3952
I0
tp3953
a(I0
I4234
F0.375
S'full'
p3954
I0
tp3955
a(I0
I4326
F0.375
S'full'
p3956
I0
tp3957
a(I0
I5114
F0.375
S'full'
p3958
I0
tp3959
a(I0
I5623
F0.375
S'full'
p3960
I0
tp3961
a(I0
I5906
I-100
S'awosm'
p3962
I0
tp3963
a(I0
I5906
F0.375
S'full'
p3964
I0
tp3965
a(I0
I7601
F0.375
S'full'
p3966
I0
tp3967
a(I0
I7601
F0.875
S'awesome'
p3968
I0
tp3969
a(I0
I103
I-100
S'positivescrystal'
p3970
I13
tp3971
a(I0
I103
I0
S'clear'
p3972
I13
tp3973
a(I0
I293
F-0.625
S'sharp'
p3974
I13
tp3975
a(I0
I299
F0.75
S'beautiful'
p3976
I13
tp3977
a(I0
I564
F-0.875
S'poor'
p3978
I13
tp3979
a(I0
I600
F0.5
S'large'
p3980
I13
tp3981
a(I0
I603
F-0.875
S'strong'
p3982
I13
tp3983
a(I0
I805
F1.0
S'better'
p3984
I13
tp3985
a(I0
I979
I0
S'screen'
p3986
I13
tp3987
a(I0
I1024
F0.5
S'high'
p3988
I13
tp3989
a(I0
I1056
I0
g3914
I13
tp3990
a(I0
I1076
F0.25
S'adaptive'
p3991
I13
tp3992
a(I0
I1421
F0.875
S'nice'
p3993
I13
tp3994
a(I0
I1421
F0.25
S'able'
p3995
I13
tp3996
a(I0
I1537
I0
S'big'
p3997
I13
tp3998
a(I0
I1749
I-100
S'sooo'
p3999
I13
tp4000
a(I0
I1749
F0.875
S'nice'
p4001
I13
tp4002
a(I0
I2085
F0.5
S'crisp'
p4003
I13
tp4004
a(I0
I2128
F1.0
S'good'
p4005
I13
tp4006
a(I0
I2129
F0.5
S'slim'
p4007
I13
tp4008
a(I0
I2129
I-100
S'weightthe'
p4009
I13
tp4010
a(I0
I2129
F0.875
S'amazing'
p4011
I13
tp4012
a(I0
I2214
I0
S'u'
p4013
I13
tp4014
a(I0
I2214
F1.0
S'better'
p4015
I13
tp4016
a(I0
I2392
F-0.625
S'blank'
p4017
I13
tp4018
a(I0
I2441
F0.875
S'great'
p4019
I13
tp4020
a(I0
I2487
F-0.625
g3928
I13
tp4021
a(I0
I2487
I0
g3930
I13
tp4022
a(I0
I2817
F1.0
S'good'
p4023
I13
tp4024
a(I0
I2863
F1.0
S'good'
p4025
I13
tp4026
a(I0
I2921
F1.0
S'good'
p4027
I13
tp4028
a(I0
I3180
F-0.625
S'average'
p4029
I13
tp4030
a(I0
I3180
F1.0
S'good'
p4031
I13
tp4032
a(I0
I3195
F1.0
g3938
I13
tp4033
a(I0
I3202
F-0.625
g3940
I13
tp4034
a(I0
I3202
I0
g3942
I13
tp4035
a(I0
I3282
F1.0
S'good'
p4036
I13
tp4037
a(I0
I3319
F1.0
S'good'
p4038
I13
tp4039
a(I0
I3455
I0
S'incoming'
p4040
I13
tp4041
a(I0
I3751
I0
S'cool'
p4042
I13
tp4043
a(I0
I3784
F1.0
S'good'
p4044
I13
tp4045
a(I0
I3810
F1.0
S'good'
p4046
I13
tp4047
a(I0
I3893
F0.875
S'nice'
p4048
I13
tp4049
a(I0
I4024
F1.0
S'good'
p4050
I13
tp4051
a(I0
I4088
F1.0
S'good'
p4052
I13
tp4053
a(I0
I4109
F-0.75
S'little'
p4054
I13
tp4055
a(I0
I4162
F-0.625
g3950
I13
tp4056
a(I0
I4162
I0
g3952
I13
tp4057
a(I0
I4560
F0.5
S'touch'
p4058
I13
tp4059
a(I0
I4742
F1.0
S'good'
p4060
I13
tp4061
a(I0
I4820
F1.0
S'good'
p4062
I13
tp4063
a(I0
I4879
F0.75
S'perfect'
p4064
I13
tp4065
a(I0
I5075
F0.5
S'large'
p4066
I13
tp4067
a(I0
I5132
F0.625
S'first'
p4068
I13
tp4069
a(I0
I5567
F0.5
S'large'
p4070
I13
tp4071
a(I0
I5567
I0
S'bright'
p4072
I13
tp4073
a(I0
I5927
F1.0
S'good'
p4074
I13
tp4075
a(I0
I6234
F-0.625
S'sharp'
p4076
I13
tp4077
a(I0
I6383
F0.875
S'awesome'
p4078
I13
tp4079
a(I0
I6399
F-1.0
S'worst'
p4080
I13
tp4081
a(I0
I6426
F0.75
S'fantastic'
p4082
I13
tp4083
a(I0
I6468
F0.5
S'higher'
p4084
I13
tp4085
a(I0
I6539
F1.0
S'good'
p4086
I13
tp4087
a(I0
I6768
F-0.75
S'black'
p4088
I13
tp4089
a(I0
I6882
I-100
S'goodbattery'
p4090
I13
tp4091
a(I0
I7599
F0.5
S'crisp'
p4092
I13
tp4093
a(I0
I7601
F0.875
g3968
I13
tp4094
a(I0
I7604
F1.0
S'good'
p4095
I13
tp4096
a(I0
I7628
I0
S'clear'
p4097
I13
tp4098
a(I0
I7700
F1.0
S'good'
p4099
I13
tp4100
a(I0
I7713
F-0.75
S'black'
p4101
I13
tp4102
a(I0
I8089
F1.0
S'good'
p4103
I13
tp4104
a(I0
I8246
F1.0
S'good'
p4105
I13
tp4106
a(I0
I8368
F1.0
S'good'
p4107
I13
tp4108
as(S'value'
p4109
S'for'
p4110
S'money'
p4111
tp4112
(lp4113
(I0
I1219
F1.0
S'good'
p4114
I4
tp4115
a(I0
I1294
F1.0
S'good'
p4116
I4
tp4117
a(I0
I1698
F-0.625
S'real'
p4118
I4
tp4119
a(I0
I2650
F1.0
S'best'
p4120
I4
tp4121
a(I0
I3350
F1.0
S'good'
p4122
I4
tp4123
a(I0
I3786
I0
S'v'
p4124
I4
tp4125
a(I0
I3812
F0.875
S'great'
p4126
I4
tp4127
a(I0
I4760
F1.0
S'good'
p4128
I4
tp4129
a(I0
I4951
F0.75
S'complete'
p4130
I4
tp4131
a(I0
I5819
F-0.625
S'real'
p4132
I4
tp4133
a(I0
I5820
F1.0
S'good'
p4134
I4
tp4135
a(I0
I5963
F0.5
S'true'
p4136
I4
tp4137
a(I0
I6161
F1.0
S'good'
p4138
I4
tp4139
a(I0
I6480
F1.0
S'good'
p4140
I4
tp4141
a(I0
I6566
F0.25
S'recent'
p4142
I4
tp4143
a(I0
I6740
I0
S'more'
p4144
I4
tp4145
a(I0
I6819
F1.0
S'best'
p4146
I4
tp4147
a(I0
I6945
F1.0
S'good'
p4148
I4
tp4149
a(I0
I7264
F0.125
S'mobile'
p4150
I4
tp4151
a(I0
I7324
F0.375
S'much'
p4152
I4
tp4153
a(I0
I7333
I-100
S'phonevalue'
p4154
I4
tp4155
a(I0
I7333
F0.25
S'worth'
p4156
I4
tp4157
a(I0
I7602
F-0.75
S'pure'
p4158
I4
tp4159
a(I0
I7759
I-100
S'comingexcellent'
p4160
I4
tp4161
a(I0
I1182
F0.125
S'mobile'
p4162
I7
tp4163
a(I0
I1219
F1.0
g4114
I7
tp4164
a(I0
I1294
F1.0
g4116
I7
tp4165
a(I0
I1698
F-0.625
g4118
I7
tp4166
a(I0
I2219
F-0.875
S'low'
p4167
I7
tp4168
a(I0
I2650
F1.0
g4120
I7
tp4169
a(I0
I3350
F1.0
g4122
I7
tp4170
a(I0
I3812
F0.875
g4126
I7
tp4171
a(I0
I4760
F1.0
g4128
I7
tp4172
a(I0
I4951
F0.75
g4130
I7
tp4173
a(I0
I5819
F-0.625
g4132
I7
tp4174
a(I0
I5820
F1.0
g4134
I7
tp4175
a(I0
I5946
F0.375
S'full'
p4176
I7
tp4177
a(I0
I5963
F0.5
g4136
I7
tp4178
a(I0
I6161
F1.0
g4138
I7
tp4179
a(I0
I6480
F1.0
g4140
I7
tp4180
a(I0
I6740
I0
g4144
I7
tp4181
a(I0
I6819
F1.0
g4146
I7
tp4182
a(I0
I6945
F1.0
g4148
I7
tp4183
a(I0
I7028
F1.0
S'best'
p4184
I7
tp4185
a(I0
I7170
F-0.5
S'less'
p4186
I7
tp4187
a(I0
I7264
F0.125
g4150
I7
tp4188
a(I0
I7324
F0.375
g4152
I7
tp4189
a(I0
I7602
F-0.75
g4158
I7
tp4190
a(I0
I7812
F-0.875
S'lower'
p4191
I7
tp4192
as(S'support'
p4193
tp4194
(lp4195
(I0
I1812
F-0.875
S'poor'
p4196
I12
tp4197
a(I0
I2055
F0.375
S'full'
p4198
I12
tp4199
a(I0
I2454
F-1.0
S'worst'
p4200
I12
tp4201
a(I0
I2785
I-100
S's.'
p4202
I12
tp4203
a(I0
I3175
I-100
S'coustumer'
p4204
I12
tp4205
a(I0
I4314
F1.0
S'good'
p4206
I12
tp4207
a(I0
I4314
F1.0
S'good'
p4208
I12
tp4209
a(I0
I4730
F0.5
S'technical'
p4210
I12
tp4211
a(I0
I4816
F1.0
S'excellent'
p4212
I12
tp4213
a(I0
I4947
F-0.875
S'poor'
p4214
I12
tp4215
a(I0
I4947
I0
S'least'
p4216
I12
tp4217
a(I0
I5420
F-0.875
S'poor'
p4218
I12
tp4219
a(I0
I5713
F-0.875
S'poor'
p4220
I12
tp4221
a(I0
I7048
F-0.125
S'os'
p4222
I12
tp4223
as(g2535
S'heating'
p4224
S'problem'
p4225
tp4226
(lp4227
(I0
I21
F-0.625
S'other'
p4228
I0
tp4229
a(I0
I144
I0
g1462
I0
tp4230
a(I0
I144
F0.625
g1464
I0
tp4231
a(I0
I193
F-0.125
S'such'
p4232
I0
tp4233
a(I0
I612
F0.75
g1990
I0
tp4234
a(I0
I1145
F-0.875
g1466
I0
tp4235
a(I0
I1805
F1.0
g1468
I0
tp4236
a(I0
I2035
F-0.125
S'nominal'
p4237
I0
tp4238
a(I0
I2047
F-0.875
S'severe'
p4239
I0
tp4240
a(I0
I3081
F-0.125
S'overall'
p4241
I0
tp4242
a(I0
I3105
I0
S'most'
p4243
I0
tp4244
a(I0
I3227
F-0.875
g1470
I0
tp4245
a(I0
I3797
I0
S'massive'
p4246
I0
tp4247
a(I0
I3890
F0.375
g64
I0
tp4248
a(I0
I4329
I-100
S'phonemuch'
p4249
I0
tp4250
a(I0
I4461
F0.375
g1473
I0
tp4251
a(I0
I4467
F-0.5
g78
I0
tp4252
a(I0
I4469
F-0.5
g1475
I0
tp4253
a(I0
I4524
F0.875
S'nice'
p4254
I0
tp4255
a(I0
I4524
F-0.125
S'overall'
p4256
I0
tp4257
a(I0
I4581
F0.75
g3691
I0
tp4258
a(I0
I4581
I0
g3693
I0
tp4259
a(I0
I4581
F-0.125
g3695
I0
tp4260
a(I0
I4581
F0.125
g3697
I0
tp4261
a(I0
I4619
F1.0
S'good'
p4262
I0
tp4263
a(I0
I4630
F-0.875
S'low'
p4264
I0
tp4265
a(I0
I4636
I0
g1477
I0
tp4266
a(I0
I4655
F-0.375
S'happen'
p4267
I0
tp4268
a(I0
I4709
F0.375
g1965
I0
tp4269
a(I0
I4714
F0.375
g1967
I0
tp4270
a(I0
I4724
F0.625
g1479
I0
tp4271
a(I0
I4756
F-0.125
g1481
I0
tp4272
a(I0
I4823
F-0.75
S'little'
p4273
I0
tp4274
a(I0
I4903
F0.625
g3699
I0
tp4275
a(I0
I4954
F0.375
g2785
I0
tp4276
a(I0
I4966
I0
S'big'
p4277
I0
tp4278
a(I0
I4996
I0
S't'
p4279
I0
tp4280
a(I0
I5049
F0.125
g94
I0
tp4281
a(I0
I5049
F0.375
g96
I0
tp4282
a(I0
I5197
I0
g1485
I0
tp4283
a(I0
I5197
F-0.625
g1487
I0
tp4284
a(I0
I5462
F0.625
g1489
I0
tp4285
a(I0
I5524
F0.375
g1491
I0
tp4286
a(I0
I5541
F1.0
S'good'
p4287
I0
tp4288
a(I0
I5542
F1.0
g1493
I0
tp4289
a(I0
I5542
I0
g1495
I0
tp4290
a(I0
I5582
F0.375
g2006
I0
tp4291
a(I0
I5612
F-0.5
g1497
I0
tp4292
a(I0
I5811
F0.375
g2009
I0
tp4293
a(I0
I5811
I0
g2792
I0
tp4294
a(I0
I5945
I0
g3705
I0
tp4295
a(I0
I5945
F-0.875
g3707
I0
tp4296
a(I0
I5959
F-0.778
g118
I0
tp4297
a(I0
I6062
F0.375
g124
I0
tp4298
a(I0
I6085
I0
g1501
I0
tp4299
a(I0
I6102
F-1.0
S'bad'
p4300
I0
tp4301
a(I0
I6190
F-0.875
S'poor'
p4302
I0
tp4303
a(I0
I6199
F0.875
g1503
I0
tp4304
a(I0
I6199
F0.75
g1505
I0
tp4305
a(I0
I6327
I0
S'serious'
p4306
I0
tp4307
a(I0
I6396
I0
S'big'
p4308
I0
tp4309
a(I0
I6418
I0
S'big'
p4310
I0
tp4311
a(I0
I6450
I0
S'only'
p4312
I0
tp4313
a(I0
I6518
I0
g1507
I0
tp4314
a(I0
I6558
I0
g1509
I0
tp4315
a(I0
I6558
I0
g1511
I0
tp4316
a(I0
I6558
I0
g1513
I0
tp4317
a(I0
I6689
I0
g1515
I0
tp4318
a(I0
I6689
I0
g1517
I0
tp4319
a(I0
I6730
F-0.125
S'overall'
p4320
I0
tp4321
a(I0
I6764
I-100
S'lil'
p4322
I0
tp4323
a(I0
I6764
F-0.5
S'problematic'
p4324
I0
tp4325
a(I0
I6780
I0
S'only'
p4326
I0
tp4327
a(I0
I6914
I0
g1519
I0
tp4328
a(I0
I7044
F0.375
g1521
I0
tp4329
a(I0
I7075
I-100
S'departmentsthere'
p4330
I0
tp4331
a(I0
I7078
I0
g1523
I0
tp4332
a(I0
I7085
F-0.5
g1045
I0
tp4333
a(I0
I7143
F0.125
g1525
I0
tp4334
a(I0
I7143
F-0.125
g1527
I0
tp4335
a(I0
I7143
I0
g1529
I0
tp4336
a(I0
I7198
F-0.5
S'excessive'
p4337
I0
tp4338
a(I0
I7234
F0.375
g1979
I0
tp4339
a(I0
I7239
F0.375
g2797
I0
tp4340
a(I0
I7244
F0.375
g2020
I0
tp4341
a(I0
I7251
F0.5
S'second'
p4342
I0
tp4343
a(I0
I7295
F0.375
g1981
I0
tp4344
a(I0
I7334
I0
g160
I0
tp4345
a(I0
I7366
F1.0
S'good'
p4346
I0
tp4347
a(I0
I7366
F-0.75
S'little'
p4348
I0
tp4349
a(I0
I7371
F-0.875
S'low'
p4350
I0
tp4351
a(I0
I7378
F-0.375
g1532
I0
tp4352
a(I0
I7429
I0
S'big'
p4353
I0
tp4354
a(I0
I7641
F0.375
g1534
I0
tp4355
a(I0
I7670
F0.375
g1984
I0
tp4356
a(I0
I7786
F-0.75
S'dead'
p4357
I0
tp4358
a(I0
I7886
F0.5
S'slight'
p4359
I0
tp4360
a(I0
I8028
F0.375
g1536
I0
tp4361
as(S'at'
p4362
S'price'
p4363
S'range'
p4364
tp4365
(lp4366
(I0
I5942
F-0.25
S'i'
p4367
I0
tp4368
a(I0
I6367
F0.5
S'high'
p4369
I0
tp4370
a(I0
I6787
F0.875
S'happy'
p4371
I0
tp4372
a(I0
I7201
F1.0
S'good'
p4373
I0
tp4374
as(S'multi'
p4375
S'tasking'
p4376
tp4377
(lp4378
(I0
I2790
I-100
S'multi'
p4379
I2
tp4380
a(I0
I8363
F-0.5
S'sluggish'
p4381
I2
tp4382
as(S'yu'
p4383
S'yureka'
p4384
S'mobile'
p4385
tp4386
(lp4387
(I0
I1569
F0.125
g934
I0
tp4388
a(I0
I1928
F1.0
g1735
I0
tp4389
a(I0
I1928
F1.0
g1737
I0
tp4390
a(I0
I2916
F1.0
S'best'
p4391
I0
tp4392
a(I0
I2916
F0.25
g953
I0
tp4393
a(I0
I2916
F1.0
S'best'
p4394
I0
tp4395
a(I0
I3573
F0.875
g3639
I0
tp4396
a(I0
I3573
F0.875
g3641
I0
tp4397
a(I0
I3573
F0.875
g3643
I0
tp4398
a(I0
I5046
F0.125
g974
I0
tp4399
a(I0
I5454
F1.0
S'good'
p4400
I0
tp4401
a(I0
I5732
F1.0
g888
I0
tp4402
a(I0
I5763
F0.125
g987
I0
tp4403
a(I0
I5786
F1.0
g1742
I0
tp4404
a(I0
I5825
F1.0
g1744
I0
tp4405
a(I0
I6743
F1.0
g1746
I0
tp4406
a(I0
I7641
F1.0
S'excellent'
p4407
I0
tp4408
a(I0
I7957
F-0.625
g906
I0
tp4409
a(I0
I7957
F0.75
g908
I0
tp4410
a(I0
I7957
F-0.625
g910
I0
tp4411
a(I0
I8206
F-0.625
g916
I0
tp4412
as(S'buy'
p4413
S'yureka'
p4414
S'plus'
p4415
tp4416
(lp4417
(I0
I2460
F0.25
g852
I0
tp4418
a(I0
I3651
F0.125
g872
I0
tp4419
a(I0
I3709
I0
g3329
I0
tp4420
a(I0
I5049
I0
g3331
I0
tp4421
a(I0
I5049
F0.125
g3333
I0
tp4422
as(S'to'
p4423
S'charge'
p4424
S'battery'
p4425
tp4426
(lp4427
(I0
I548
F1.0
g3417
I0
tp4428
a(I0
I1027
F0.375
S'full'
p4429
I0
tp4430
a(I0
I2040
I0
S'more'
p4431
I0
tp4432
a(I0
I2848
F0.375
g3356
I0
tp4433
a(I0
I2848
F0.375
g1393
I0
tp4434
a(I0
I2882
I0
S'more'
p4435
I0
tp4436
a(I0
I2882
I0
S'oven'
p4437
I0
tp4438
a(I0
I2882
F-0.625
S'last'
p4439
I0
tp4440
a(I0
I3311
F-0.625
g236
I0
tp4441
a(I0
I5449
F0.5
g2272
I0
tp4442
a(I0
I5449
F-0.875
g2274
I0
tp4443
a(I0
I5671
F0.375
S'full'
p4444
I0
tp4445
a(I0
I5693
F0.375
S'full'
p4446
I0
tp4447
a(I0
I5901
F-0.875
S'low'
p4448
I0
tp4449
a(I0
I6103
F-0.625
g3484
I0
tp4450
a(I0
I7738
F-0.5
S'slow'
p4451
I0
tp4452
a(I0
I8395
I0
g262
I0
tp4453
as(S'viewing'
p4454
S'angles'
p4455
tp4456
(lp4457
(I0
I294
F0.875
S'great'
p4458
I0
tp4459
a(I0
I1421
F0.875
S'great'
p4460
I0
tp4461
a(I0
I1421
I0
S'extreme'
p4462
I0
tp4463
a(I0
I2490
F0.875
S'great'
p4464
I0
tp4465
a(I0
I3205
F0.875
S'great'
p4466
I0
tp4467
a(I0
I6346
F0.875
S'great'
p4468
I0
tp4469
as(g1
S'days'
p4470
tp4471
(lp4472
(I0
I695
I0
S'initial'
p4473
I2
tp4474
a(I0
I695
I0
S'normal'
p4475
I2
tp4476
a(I0
I2809
I0
S'more'
p4477
I2
tp4478
a(I0
I2809
F-0.75
S'unable'
p4479
I2
tp4480
a(I0
I3077
I0
S'dint'
p4481
I2
tp4482
a(I0
I4495
F-0.625
S'last'
p4483
I2
tp4484
a(I0
I4495
I0
S'aug'
p4485
I2
tp4486
a(I0
I6366
F1.0
S'good'
p4487
I2
tp4488
a(I0
I8173
F-0.625
S'last'
p4489
I2
tp4490
as(S'in'
p4491
S'price'
p4492
S'range'
p4493
tp4494
(lp4495
(I0
I576
F-0.375
S'same'
p4496
I0
tp4497
a(I0
I3228
F0.625
S'acceptable'
p4498
I0
tp4499
a(I0
I3821
F-0.375
S'same'
p4500
I0
tp4501
a(I0
I4396
F-0.375
S'same'
p4502
I0
tp4503
a(I0
I4704
I0
S's'
p4504
I0
tp4505
a(I0
I5942
F-0.25
g4367
I0
tp4506
a(I0
I6367
F0.5
g4369
I0
tp4507
a(I0
I6787
F0.875
g4371
I0
tp4508
a(I0
I7201
F1.0
g4373
I0
tp4509
a(I0
I7433
F1.0
S'best'
p4510
I0
tp4511
a(I0
I576
F-0.375
g4496
I13
tp4512
a(I0
I3228
F0.625
g4498
I13
tp4513
a(I0
I3821
F-0.375
g4500
I13
tp4514
a(I0
I4396
F-0.375
g4502
I13
tp4515
a(I0
I4704
I0
g4504
I13
tp4516
a(I0
I4918
F0.375
S'ok'
p4517
I13
tp4518
a(I0
I5942
F-0.25
g4367
I13
tp4519
a(I0
I6367
F0.5
g4369
I13
tp4520
a(I0
I6787
F0.875
g4371
I13
tp4521
a(I0
I7201
F1.0
g4373
I13
tp4522
a(I0
I7433
F1.0
g4510
I13
tp4523
as(S'https'
p4524
S'www'
p4525
tp4526
(lp4527
(I0
I7720
I0
S'website'
p4528
I0
tp4529
as(S'everything'
p4530
tp4531
(lp4532
(I0
I653
F0.875
S'awesome'
p4533
I8
tp4534
a(I0
I1308
F0.625
S'fine'
p4535
I8
tp4536
a(I0
I2365
F0.875
S'great'
p4537
I8
tp4538
a(I0
I2838
F0.625
S'fine'
p4539
I8
tp4540
a(I0
I3105
F0.375
S'ok'
p4541
I8
tp4542
a(I0
I3483
F0.625
S'fine'
p4543
I8
tp4544
a(I0
I3615
F0.625
S'fine'
p4545
I8
tp4546
a(I0
I3679
F-1.0
S'bad'
p4547
I8
tp4548
a(I0
I4371
I0
S'okey'
p4549
I8
tp4550
a(I0
I4682
F1.0
S'good'
p4551
I8
tp4552
a(I0
I4759
I0
S'n'
p4553
I8
tp4554
a(I0
I4759
F-0.625
S'other'
p4555
I8
tp4556
a(I0
I4759
F0.625
S'fine'
p4557
I8
tp4558
a(I0
I4759
F1.0
S'good'
p4559
I8
tp4560
a(I0
I4869
F0.75
S'perfect'
p4561
I8
tp4562
a(I0
I4959
F0.375
S'ok'
p4563
I8
tp4564
a(I0
I5120
F0.625
S'fine'
p4565
I8
tp4566
a(I0
I5172
F0.5
S'touch'
p4567
I8
tp4568
a(I0
I5172
I0
S'cool'
p4569
I8
tp4570
a(I0
I5362
F1.0
S'good'
p4571
I8
tp4572
a(I0
I5807
F1.0
S'excellent'
p4573
I8
tp4574
a(I0
I6011
F0.625
S'fine'
p4575
I8
tp4576
a(I0
I6152
F0.375
S'ok'
p4577
I8
tp4578
a(I0
I6326
F0.625
S'fine'
p4579
I8
tp4580
a(I0
I6482
F0.625
S'fine'
p4581
I8
tp4582
a(I0
I6525
F0.375
S'ok'
p4583
I8
tp4584
a(I0
I6807
F0.625
S'fine'
p4585
I8
tp4586
a(I0
I7035
F0.375
S'ok'
p4587
I8
tp4588
a(I0
I7036
F1.0
S'good'
p4589
I8
tp4590
a(I0
I7090
F0.625
S'fine'
p4591
I8
tp4592
a(I0
I7137
I-100
S'soonperfect'
p4593
I8
tp4594
a(I0
I7491
I0
S'lesson'
p4595
I8
tp4596
a(I0
I7491
I-100
S'donot'
p4597
I8
tp4598
a(I0
I7790
F0.875
S'great'
p4599
I8
tp4600
a(I0
I8317
F0.875
S'great'
p4601
I8
tp4602
a(I0
I8327
F0.625
S'fine'
p4603
I8
tp4604
as(S'heating'
p4605
S'and'
p4606
S'battery'
p4607
tp4608
(lp4609
(I0
I1065
I0
S'biggest'
p4610
I0
tp4611
a(I0
I1805
F1.0
g1468
I0
tp4612
a(I0
I1805
F-0.25
g3422
I0
tp4613
a(I0
I2822
F-0.375
g2325
I0
tp4614
a(I0
I3131
F0.375
g1957
I0
tp4615
a(I0
I3136
F-0.625
g234
I0
tp4616
a(I0
I3227
F-0.875
g1470
I0
tp4617
a(I0
I3311
F-0.625
g236
I0
tp4618
a(I0
I3531
I-100
S'annoyingoverall'
p4619
I0
tp4620
a(I0
I3615
I-100
S'chutiyapaaexcept'
p4621
I0
tp4622
a(I0
I3890
F0.375
g64
I0
tp4623
a(I0
I4373
I0
S's'
p4624
I0
tp4625
a(I0
I4461
F0.375
g1473
I0
tp4626
a(I0
I4469
F1.0
g3436
I0
tp4627
a(I0
I4469
F0.875
g3438
I0
tp4628
a(I0
I4507
F-1.0
S'bad'
p4629
I0
tp4630
a(I0
I4582
F0.375
g1963
I0
tp4631
a(I0
I4582
F-0.875
g3370
I0
tp4632
a(I0
I4636
F-0.875
g3734
I0
tp4633
a(I0
I5049
F0.125
g94
I0
tp4634
a(I0
I5049
F0.375
g96
I0
tp4635
a(I0
I5160
I-100
S'functionigwrote'
p4636
I0
tp4637
a(I0
I5332
F-1.0
g2362
I0
tp4638
a(I0
I5409
F-0.875
g3376
I0
tp4639
a(I0
I5418
F0.375
g2002
I0
tp4640
a(I0
I5546
F0.375
g246
I0
tp4641
a(I0
I5560
F0.375
g1971
I0
tp4642
a(I0
I5560
F-0.875
S'poor'
p4643
I0
tp4644
a(I0
I5609
F-0.875
S'low'
p4645
I0
tp4646
a(I0
I5610
I-100
S'heatand'
p4647
I0
tp4648
a(I0
I5610
I-100
S'bedcharging'
p4649
I0
tp4650
a(I0
I5612
F-0.5
g1497
I0
tp4651
a(I0
I5612
I-100
S'draing'
p4652
I0
tp4653
a(I0
I5690
I0
g108
I0
tp4654
a(I0
I5959
F-0.875
g3480
I0
tp4655
a(I0
I5959
F-0.778
g118
I0
tp4656
a(I0
I6062
F-0.5
S'less'
p4657
I0
tp4658
a(I0
I6062
F0.375
g124
I0
tp4659
a(I0
I6069
F0.5
g126
I0
tp4660
a(I0
I6069
I-100
S'issuebest'
p4661
I0
tp4662
a(I0
I6199
F0.875
g1503
I0
tp4663
a(I0
I6287
I-100
S'goodbadwifi'
p4664
I0
tp4665
a(I0
I6328
F-0.875
g3392
I0
tp4666
a(I0
I6374
F0.375
g3743
I0
tp4667
a(I0
I6434
I0
S's'
p4668
I0
tp4669
a(I0
I6691
F-0.875
S'poor'
p4670
I0
tp4671
a(I0
I6760
F1.0
g3497
I0
tp4672
a(I0
I6909
F-0.5
g2016
I0
tp4673
a(I0
I7063
F-0.875
S'low'
p4674
I0
tp4675
a(I0
I7063
I-100
S'highthis'
p4676
I0
tp4677
a(I0
I7078
I-100
S'goodjust'
p4678
I0
tp4679
a(I0
I7139
I-100
S'hellcontonuous'
p4680
I0
tp4681
a(I0
I7143
F0.125
g1525
I0
tp4682
a(I0
I7143
F-0.125
g1527
I0
tp4683
a(I0
I7143
I0
g1529
I0
tp4684
a(I0
I7143
F-0.875
S'poor'
p4685
I0
tp4686
a(I0
I7225
I0
S'n'
p4687
I0
tp4688
a(I0
I7290
F-0.875
S'poor'
p4689
I0
tp4690
a(I0
I8333
F0.375
g1987
I0
tp4691
a(I0
I8354
F-0.875
S'poor'
p4692
I0
tp4693
as(S'full'
p4694
S'hd'
p4695
S'screen'
p4696
tp4697
(lp4698
(I0
I1056
I0
S'big'
p4699
I0
tp4700
a(I0
I1056
I0
S'crystal'
p4701
I0
tp4702
a(I0
I1056
F0.375
g3916
I0
tp4703
a(I0
I1914
F0.375
S'full'
p4704
I0
tp4705
a(I0
I2949
F0.375
S'full'
p4706
I0
tp4707
a(I0
I2949
F-0.5
S'unbeatable'
p4708
I0
tp4709
a(I0
I3073
F0.375
S'full'
p4710
I0
tp4711
a(I0
I3075
I0
S'screen'
p4712
I0
tp4713
a(I0
I3075
F0.875
S'nice'
p4714
I0
tp4715
a(I0
I3531
F0.375
g3946
I0
tp4716
a(I0
I3531
I0
g3948
I0
tp4717
a(I0
I4167
F0.375
S'full'
p4718
I0
tp4719
a(I0
I4234
F0.375
g3954
I0
tp4720
a(I0
I6129
F1.0
S'good'
p4721
I0
tp4722
a(I0
I8182
F0.375
S'full'
p4723
I0
tp4724
a(I0
I8282
F0.375
S'full'
p4725
I0
tp4726
a(I0
I8343
F0.375
S'full'
p4727
I0
tp4728
a(I0
I14
F-0.625
S'useless'
p4729
I0
tp4730
a(I0
I1056
F0.375
g3916
I0
tp4731
a(I0
I1420
I0
g3918
I0
tp4732
a(I0
I1420
F0.375
g3920
I0
tp4733
a(I0
I1914
F0.375
g4704
I0
tp4734
a(I0
I2142
F0.375
g3922
I0
tp4735
a(I0
I2142
F0.875
g3924
I0
tp4736
a(I0
I2142
F0.75
g3926
I0
tp4737
a(I0
I2554
F0.375
S'full'
p4738
I0
tp4739
a(I0
I2639
F0.375
g3932
I0
tp4740
a(I0
I2949
F0.375
g4706
I0
tp4741
a(I0
I2976
F0.375
g3934
I0
tp4742
a(I0
I3073
F0.375
g4710
I0
tp4743
a(I0
I3075
I0
g4712
I0
tp4744
a(I0
I3075
F0.875
g4714
I0
tp4745
a(I0
I3195
F0.5
g3936
I0
tp4746
a(I0
I3461
F0.375
g3944
I0
tp4747
a(I0
I3531
F0.375
g3946
I0
tp4748
a(I0
I3531
I0
g3948
I0
tp4749
a(I0
I3815
F0.375
S'full'
p4750
I0
tp4751
a(I0
I4045
F0.375
S'full'
p4752
I0
tp4753
a(I0
I4167
F0.375
g4718
I0
tp4754
a(I0
I4234
F0.375
g3954
I0
tp4755
a(I0
I4326
F0.375
g3956
I0
tp4756
a(I0
I4686
F0.375
S'full'
p4757
I0
tp4758
a(I0
I5114
F0.375
g3958
I0
tp4759
a(I0
I5623
F0.375
g3960
I0
tp4760
a(I0
I5906
F0.375
g3964
I0
tp4761
a(I0
I6129
F1.0
g4721
I0
tp4762
a(I0
I6277
F0.375
S'sleek'
p4763
I0
tp4764
a(I0
I6952
F0.375
S'full'
p4765
I0
tp4766
a(I0
I6952
F-0.25
S'i'
p4767
I0
tp4768
a(I0
I7601
F0.375
g3966
I0
tp4769
a(I0
I7734
I0
S'dolby'
p4770
I0
tp4771
a(I0
I8182
F0.375
g4723
I0
tp4772
a(I0
I8282
F0.375
g4725
I0
tp4773
a(I0
I8343
F0.375
g4727
I0
tp4774
a(I0
I3195
F0.5
g3936
I14
tp4775
a(I0
I6277
F0.375
g4763
I14
tp4776
as(S'games'
p4777
tp4778
(lp4779
(I0
I214
I0
S'installed'
p4780
I5
tp4781
a(I0
I366
F-0.875
S'small'
p4782
I5
tp4783
a(I0
I479
F0.25
S'basic'
p4784
I5
tp4785
a(I0
I577
I-100
S'i.'
p4786
I5
tp4787
a(I0
I577
F0.375
S'e'
p4788
I5
tp4789
a(I0
I599
F0.5
S'large'
p4790
I5
tp4791
a(I0
I809
F0.5
S'high'
p4792
I5
tp4793
a(I0
I809
F0.625
S'graphic'
p4794
I5
tp4795
a(I0
I896
F0.5
S'intense'
p4796
I5
tp4797
a(I0
I1040
I0
S'normal'
p4798
I5
tp4799
a(I0
I1321
F0.875
S'simple'
p4800
I5
tp4801
a(I0
I1321
F-0.125
S'such'
p4802
I5
tp4803
a(I0
I1479
F0.625
S'evident'
p4804
I5
tp4805
a(I0
I1743
F-0.5
S'heavy'
p4806
I5
tp4807
a(I0
I1746
F-0.5
S'heavy'
p4808
I5
tp4809
a(I0
I1755
F0.5
S'high'
p4810
I5
tp4811
a(I0
I1755
F0.625
S'graphic'
p4812
I5
tp4813
a(I0
I1762
F0.5
S'high'
p4814
I5
tp4815
a(I0
I1762
F0.625
S'graphic'
p4816
I5
tp4817
a(I0
I1932
F0.5
S'large'
p4818
I5
tp4819
a(I0
I2076
I0
S'light'
p4820
I5
tp4821
a(I0
I2076
I0
S'big'
p4822
I5
tp4823
a(I0
I2112
F-0.5
S'heavy'
p4824
I5
tp4825
a(I0
I2257
F0.375
S'much'
p4826
I5
tp4827
a(I0
I2257
F-0.625
S'faster'
p4828
I5
tp4829
a(I0
I2257
I0
S'u'
p4830
I5
tp4831
a(I0
I2298
F-0.625
S'real'
p4832
I5
tp4833
a(I0
I2414
F-0.625
S'other'
p4834
I5
tp4835
a(I0
I2515
F-0.5
S'less'
p4836
I5
tp4837
a(I0
I2699
F0.625
S'graphic'
p4838
I5
tp4839
a(I0
I2699
F0.5
S'intensive'
p4840
I5
tp4841
a(I0
I2699
F-0.5
S'heavy'
p4842
I5
tp4843
a(I0
I2744
F0.625
S'graphic'
p4844
I5
tp4845
a(I0
I3040
I0
S'hot'
p4846
I5
tp4847
a(I0
I3130
I0
S'hot'
p4848
I5
tp4849
a(I0
I3359
F-0.5
S'heavy'
p4850
I5
tp4851
a(I0
I3359
F0.875
S'great'
p4852
I5
tp4853
a(I0
I3394
I0
S'big'
p4854
I5
tp4855
a(I0
I3394
I0
S'more'
p4856
I5
tp4857
a(I0
I3535
I0
S'internet'
p4858
I5
tp4859
a(I0
I3693
F-0.5
S'heavy'
p4860
I5
tp4861
a(I0
I4654
F-0.25
S'i'
p4862
I5
tp4863
a(I0
I5561
F-0.5
S'heavy'
p4864
I5
tp4865
a(I0
I5620
F-0.5
S'heavy'
p4866
I5
tp4867
a(I0
I5733
F-0.5
S'heavy'
p4868
I5
tp4869
a(I0
I6794
I0
S'online'
p4870
I5
tp4871
as(S'heating'
p4872
S'problem'
p4873
S'while'
p4874
tp4875
(lp4876
(I0
I2047
F-0.875
g4239
I0
tp4877
a(I0
I3890
F0.375
g64
I0
tp4878
a(I0
I4467
F-0.5
g78
I0
tp4879
a(I0
I5197
I0
g1485
I0
tp4880
a(I0
I5197
F-0.625
g1487
I0
tp4881
a(I0
I6914
I0
g1519
I0
tp4882
as(S'some'
p4883
S'heating'
p4884
S'problem'
p4885
tp4886
(lp4887
(I0
I3081
F-0.125
g4241
I1
tp4888
a(I0
I3890
F0.375
g64
I1
tp4889
a(I0
I4467
F-0.5
g78
I1
tp4890
a(I0
I4469
F-0.5
g1475
I1
tp4891
a(I0
I4524
F0.875
g4254
I1
tp4892
a(I0
I4524
F-0.125
g4256
I1
tp4893
a(I0
I4619
F1.0
g4262
I1
tp4894
a(I0
I5811
F0.375
g2009
I1
tp4895
a(I0
I5811
I0
g2792
I1
tp4896
a(I0
I5945
I0
g3705
I1
tp4897
a(I0
I5945
F-0.875
g3707
I1
tp4898
a(I0
I6085
I0
g1501
I1
tp4899
a(I0
I6327
I0
g4306
I1
tp4900
a(I0
I6730
F-0.125
g4320
I1
tp4901
a(I0
I6914
I0
g1519
I1
tp4902
a(I0
I7078
I0
g1523
I1
tp4903
a(I0
I7295
F0.375
g1981
I1
tp4904
a(I0
I21
F-0.625
g4228
I6
tp4905
a(I0
I144
I0
g1462
I6
tp4906
a(I0
I144
F0.625
g1464
I6
tp4907
a(I0
I193
F-0.125
g4232
I6
tp4908
a(I0
I612
F0.75
g1990
I6
tp4909
a(I0
I1145
F-0.875
g1466
I6
tp4910
a(I0
I1805
F1.0
g1468
I6
tp4911
a(I0
I2035
F-0.125
g4237
I6
tp4912
a(I0
I2047
F-0.875
g4239
I6
tp4913
a(I0
I3081
F-0.125
g4241
I6
tp4914
a(I0
I3105
I0
g4243
I6
tp4915
a(I0
I3227
F-0.875
g1470
I6
tp4916
a(I0
I3797
I0
g4246
I6
tp4917
a(I0
I3890
F0.375
g64
I6
tp4918
a(I0
I4461
F0.375
g1473
I6
tp4919
a(I0
I4467
F-0.5
g78
I6
tp4920
a(I0
I4469
F-0.5
g1475
I6
tp4921
a(I0
I4524
F0.875
g4254
I6
tp4922
a(I0
I4524
F-0.125
g4256
I6
tp4923
a(I0
I4581
F0.75
g3691
I6
tp4924
a(I0
I4581
I0
g3693
I6
tp4925
a(I0
I4581
F-0.125
g3695
I6
tp4926
a(I0
I4581
F0.125
g3697
I6
tp4927
a(I0
I4619
F1.0
g4262
I6
tp4928
a(I0
I4630
F-0.875
g4264
I6
tp4929
a(I0
I4636
I0
g1477
I6
tp4930
a(I0
I4655
F-0.375
g4267
I6
tp4931
a(I0
I4709
F0.375
g1965
I6
tp4932
a(I0
I4714
F0.375
g1967
I6
tp4933
a(I0
I4724
F0.625
g1479
I6
tp4934
a(I0
I4756
F-0.125
g1481
I6
tp4935
a(I0
I4823
F-0.75
g4273
I6
tp4936
a(I0
I4903
F0.625
g3699
I6
tp4937
a(I0
I4954
F0.375
g2785
I6
tp4938
a(I0
I4966
I0
g4277
I6
tp4939
a(I0
I4996
I0
g4279
I6
tp4940
a(I0
I5049
F0.125
g94
I6
tp4941
a(I0
I5049
F0.375
g96
I6
tp4942
a(I0
I5197
I0
g1485
I6
tp4943
a(I0
I5197
F-0.625
g1487
I6
tp4944
a(I0
I5462
F0.625
g1489
I6
tp4945
a(I0
I5524
F0.375
g1491
I6
tp4946
a(I0
I5541
F1.0
g4287
I6
tp4947
a(I0
I5542
F1.0
g1493
I6
tp4948
a(I0
I5542
I0
g1495
I6
tp4949
a(I0
I5582
F0.375
g2006
I6
tp4950
a(I0
I5612
F-0.5
g1497
I6
tp4951
a(I0
I5811
F0.375
g2009
I6
tp4952
a(I0
I5811
I0
g2792
I6
tp4953
a(I0
I5945
I0
g3705
I6
tp4954
a(I0
I5945
F-0.875
g3707
I6
tp4955
a(I0
I5959
F-0.778
g118
I6
tp4956
a(I0
I6062
F0.375
g124
I6
tp4957
a(I0
I6085
I0
g1501
I6
tp4958
a(I0
I6102
F-1.0
g4300
I6
tp4959
a(I0
I6190
F-0.875
g4302
I6
tp4960
a(I0
I6199
F0.875
g1503
I6
tp4961
a(I0
I6199
F0.75
g1505
I6
tp4962
a(I0
I6327
I0
g4306
I6
tp4963
a(I0
I6396
I0
g4308
I6
tp4964
a(I0
I6418
I0
g4310
I6
tp4965
a(I0
I6450
I0
g4312
I6
tp4966
a(I0
I6518
I0
g1507
I6
tp4967
a(I0
I6558
I0
g1509
I6
tp4968
a(I0
I6558
I0
g1511
I6
tp4969
a(I0
I6558
I0
g1513
I6
tp4970
a(I0
I6689
I0
g1515
I6
tp4971
a(I0
I6689
I0
g1517
I6
tp4972
a(I0
I6730
F-0.125
g4320
I6
tp4973
a(I0
I6764
F-0.5
g4324
I6
tp4974
a(I0
I6780
I0
g4326
I6
tp4975
a(I0
I6914
I0
g1519
I6
tp4976
a(I0
I7044
F0.375
g1521
I6
tp4977
a(I0
I7078
I0
g1523
I6
tp4978
a(I0
I7085
F-0.5
g1045
I6
tp4979
a(I0
I7143
F0.125
g1525
I6
tp4980
a(I0
I7143
F-0.125
g1527
I6
tp4981
a(I0
I7143
I0
g1529
I6
tp4982
a(I0
I7198
F-0.5
g4337
I6
tp4983
a(I0
I7234
F0.375
g1979
I6
tp4984
a(I0
I7239
F0.375
g2797
I6
tp4985
a(I0
I7244
F0.375
g2020
I6
tp4986
a(I0
I7251
F0.5
g4342
I6
tp4987
a(I0
I7295
F0.375
g1981
I6
tp4988
a(I0
I7334
I0
g160
I6
tp4989
a(I0
I7366
F1.0
g4346
I6
tp4990
a(I0
I7366
F-0.75
g4348
I6
tp4991
a(I0
I7371
F-0.875
g4350
I6
tp4992
a(I0
I7378
F-0.375
g1532
I6
tp4993
a(I0
I7429
I0
g4353
I6
tp4994
a(I0
I7641
F0.375
g1534
I6
tp4995
a(I0
I7670
F0.375
g1984
I6
tp4996
a(I0
I7786
F-0.75
g4357
I6
tp4997
a(I0
I7886
F0.5
g4359
I6
tp4998
a(I0
I8028
F0.375
g1536
I6
tp4999
as(S'very'
p5000
S'poor'
p5001
S'battery'
p5002
tp5003
(lp5004
(I0
I15
F0.75
g3717
I1
tp5005
a(I0
I15
F-0.875
g3719
I1
tp5006
a(I0
I189
F-0.875
S'poor'
p5007
I1
tp5008
a(I0
I654
F-0.875
g3721
I1
tp5009
a(I0
I2848
F0.375
g3356
I1
tp5010
a(I0
I3483
F-0.875
g238
I1
tp5011
a(I0
I4636
F-0.875
g3734
I1
tp5012
a(I0
I4705
F-0.875
S'poor'
p5013
I1
tp5014
a(I0
I5025
F-0.875
S'poor'
p5015
I1
tp5016
a(I0
I5089
F-0.875
g2268
I1
tp5017
a(I0
I5409
F-0.875
g3376
I1
tp5018
a(I0
I5444
F-0.875
g3456
I1
tp5019
a(I0
I5449
F0.5
g2272
I1
tp5020
a(I0
I5449
F-0.875
g2274
I1
tp5021
a(I0
I5560
F-0.875
g4643
I1
tp5022
a(I0
I5959
F-0.875
g3480
I1
tp5023
a(I0
I5962
F-0.875
S'poor'
p5024
I1
tp5025
a(I0
I6190
F-0.75
S'disappointing'
p5026
I1
tp5027
a(I0
I6190
F-1.0
S'sad'
p5028
I1
tp5029
a(I0
I6305
F-0.875
S'poor'
p5030
I1
tp5031
a(I0
I6572
F-0.875
S'poor'
p5032
I1
tp5033
a(I0
I6633
F-0.875
g2286
I1
tp5034
a(I0
I7036
F-0.875
g3508
I1
tp5035
a(I0
I7168
F-0.875
g2288
I1
tp5036
a(I0
I8126
F-0.875
S'poor'
p5037
I1
tp5038
a(I0
I8335
F0.125
g3757
I1
tp5039
a(I0
I8352
F-0.875
S'poor'
p5040
I1
tp5041
a(I0
I8354
F-0.875
g4692
I1
tp5042
a(I0
I15
F0.75
g3717
I3
tp5043
a(I0
I15
F-0.875
g3719
I3
tp5044
a(I0
I189
F-0.875
g5007
I3
tp5045
a(I0
I368
F-0.875
S'poor'
p5046
I3
tp5047
a(I0
I654
F-0.875
g3721
I3
tp5048
a(I0
I1198
F-0.875
S'poor'
p5049
I3
tp5050
a(I0
I2228
F-0.875
g2258
I3
tp5051
a(I0
I2300
F-0.875
g3725
I3
tp5052
a(I0
I2848
F0.375
g3356
I3
tp5053
a(I0
I3162
F-0.875
S'poor'
p5054
I3
tp5055
a(I0
I3483
F-0.875
g238
I3
tp5056
a(I0
I4432
F-0.875
g2262
I3
tp5057
a(I0
I4437
F-0.875
g2264
I3
tp5058
a(I0
I4450
F-0.875
S'poor'
p5059
I3
tp5060
a(I0
I4636
F-0.875
g3734
I3
tp5061
a(I0
I4705
F-0.875
g5013
I3
tp5062
a(I0
I5025
F-0.875
g5015
I3
tp5063
a(I0
I5089
F-0.875
g2268
I3
tp5064
a(I0
I5260
F-0.875
S'poor'
p5065
I3
tp5066
a(I0
I5409
F-0.875
g3376
I3
tp5067
a(I0
I5444
F-0.875
g3456
I3
tp5068
a(I0
I5449
F0.5
g2272
I3
tp5069
a(I0
I5449
F-0.875
g2274
I3
tp5070
a(I0
I5560
F-0.875
g4643
I3
tp5071
a(I0
I5619
F1.0
g3378
I3
tp5072
a(I0
I5660
F1.0
g2276
I3
tp5073
a(I0
I5878
F1.0
g3386
I3
tp5074
a(I0
I5959
F-0.875
g3480
I3
tp5075
a(I0
I5962
F-0.875
g5024
I3
tp5076
a(I0
I6032
F-0.875
S'poor'
p5077
I3
tp5078
a(I0
I6190
F-0.75
g5026
I3
tp5079
a(I0
I6190
F-1.0
g5028
I3
tp5080
a(I0
I6305
F-0.875
g5030
I3
tp5081
a(I0
I6374
F0.375
g3743
I3
tp5082
a(I0
I6553
F-0.875
S'poor'
p5083
I3
tp5084
a(I0
I6572
F-0.875
g5032
I3
tp5085
a(I0
I6598
F-0.875
S'poor'
p5086
I3
tp5087
a(I0
I6633
F-0.875
g2286
I3
tp5088
a(I0
I6691
F-0.875
g4670
I3
tp5089
a(I0
I6994
F-0.875
g3506
I3
tp5090
a(I0
I7036
F-0.875
g3508
I3
tp5091
a(I0
I7069
F-0.875
g3750
I3
tp5092
a(I0
I7143
F-0.875
g4685
I3
tp5093
a(I0
I7168
F-0.875
g2288
I3
tp5094
a(I0
I7290
F-0.875
g4689
I3
tp5095
a(I0
I8126
F-0.875
g5037
I3
tp5096
a(I0
I8335
F0.125
g3757
I3
tp5097
a(I0
I8352
F-0.875
g5040
I3
tp5098
a(I0
I8354
F-0.875
g4692
I3
tp5099
as(S'battery'
p5100
S'drain'
p5101
tp5102
(lp5103
(I0
I92
I0
g220
I3
tp5104
a(I0
I673
F-0.25
S'drained'
p5105
I3
tp5106
a(I0
I878
F-0.125
g224
I3
tp5107
a(I0
I1065
I0
g4610
I3
tp5108
a(I0
I1074
I0
S'u'
p5109
I3
tp5110
a(I0
I1318
F0.5
g226
I3
tp5111
a(I0
I1805
F-0.25
g3422
I3
tp5112
a(I0
I2098
I0
S'quick'
p5113
I3
tp5114
a(I0
I2447
F-0.25
S'drained'
p5115
I3
tp5116
a(I0
I2713
F-0.625
g230
I3
tp5117
a(I0
I2713
F0.875
g232
I3
tp5118
a(I0
I2941
F-0.5
S'slow'
p5119
I3
tp5120
a(I0
I3136
F-0.625
g234
I3
tp5121
a(I0
I3311
F-0.625
g236
I3
tp5122
a(I0
I3431
F0.125
S'mobile'
p5123
I3
tp5124
a(I0
I3483
F-0.875
g238
I3
tp5125
a(I0
I4664
I0
S'internet'
p5126
I3
tp5127
a(I0
I4674
F-0.625
g240
I3
tp5128
a(I0
I4853
I0
S'hot'
p5129
I3
tp5130
a(I0
I5025
F-0.875
g5015
I3
tp5131
a(I0
I5045
I0
g3444
I3
tp5132
a(I0
I5160
I-100
S'fastadaptive'
p5133
I3
tp5134
a(I0
I5281
F0.375
g242
I3
tp5135
a(I0
I5416
F0.5
S'high'
p5136
I3
tp5137
a(I0
I5510
F-0.625
g244
I3
tp5138
a(I0
I5546
F0.375
g246
I3
tp5139
a(I0
I5671
F0.375
g4444
I3
tp5140
a(I0
I5825
F0.125
S'mobile'
p5141
I3
tp5142
a(I0
I6986
F0.375
g250
I3
tp5143
a(I0
I7195
F1.0
g254
I3
tp5144
a(I0
I7195
I0
g256
I3
tp5145
a(I0
I7225
I0
g4687
I3
tp5146
a(I0
I7499
I0
g258
I3
tp5147
a(I0
I7806
F-0.25
S'i'
p5148
I3
tp5149
a(I0
I7836
F-0.625
g260
I3
tp5150
a(I0
I7923
F-0.5
S'weak'
p5151
I3
tp5152
a(I0
I8395
I0
g262
I3
tp5153
as(S'and'
p5154
S'battery'
p5155
S'backup'
p5156
tp5157
(lp5158
(I0
I1822
F1.0
g3348
I3
tp5159
a(I0
I2395
F-0.875
g3352
I3
tp5160
a(I0
I3703
F-1.0
g3364
I3
tp5161
a(I0
I3754
F-0.875
g3730
I3
tp5162
a(I0
I3785
I0
S'more'
p5163
I3
tp5164
a(I0
I4138
I-100
S'workingbattery'
p5165
I3
tp5166
a(I0
I4138
I0
g3366
I3
tp5167
a(I0
I4582
F-0.875
g3370
I3
tp5168
a(I0
I4636
F-0.875
g3734
I3
tp5169
a(I0
I4778
F0.5
S'reasonable'
p5170
I3
tp5171
a(I0
I5122
F1.0
g3374
I3
tp5172
a(I0
I5409
F-0.875
g3376
I3
tp5173
a(I0
I5476
F-1.0
S'bad'
p5174
I3
tp5175
a(I0
I5476
F0.875
S'nice'
p5176
I3
tp5177
a(I0
I5609
F-0.875
g4645
I3
tp5178
a(I0
I5619
F1.0
g3378
I3
tp5179
a(I0
I5619
F-0.875
g3380
I3
tp5180
a(I0
I5690
F-1.0
g3384
I3
tp5181
a(I0
I5768
F-1.0
S'bad'
p5182
I3
tp5183
a(I0
I6328
F-0.875
g3392
I3
tp5184
a(I0
I6374
F0.375
g3743
I3
tp5185
a(I0
I6374
F-0.875
g3745
I3
tp5186
a(I0
I6474
F-0.875
g3394
I3
tp5187
a(I0
I6837
I0
S'hrs'
p5188
I3
tp5189
a(I0
I7114
I-100
S'upbattery'
p5190
I3
tp5191
a(I0
I7157
F-0.25
g3398
I3
tp5192
a(I0
I7649
F0.875
S'decent'
p5193
I3
tp5194
a(I0
I7801
F-0.875
g3755
I3
tp5195
as(S'think'
p5196
tp5197
(lp5198
(I0
I926
I0
S'waste'
p5199
I16
tp5200
a(I0
I1132
F-0.25
S'i'
p5201
I16
tp5202
a(I0
I3573
I0
S't'
p5203
I16
tp5204
as(S'not'
p5205
S'good'
p5206
S'heating'
p5207
tp5208
(lp5209
(I0
I1805
F1.0
g1468
I0
tp5210
a(I0
I2037
F0.375
g1955
I0
tp5211
a(I0
I4521
F1.0
g82
I0
tp5212
a(I0
I4582
F0.375
g1963
I0
tp5213
a(I0
I5049
F0.125
g94
I0
tp5214
a(I0
I5049
F0.375
g96
I0
tp5215
a(I0
I5541
F1.0
g4287
I0
tp5216
a(I0
I5959
F-0.778
g118
I0
tp5217
a(I0
I7044
F0.375
g1521
I0
tp5218
a(I0
I7234
F0.375
g1979
I0
tp5219
a(I0
I7641
F0.375
g1534
I0
tp5220
as(S'of'
p5221
S'yu'
p5222
S'yureka'
p5223
tp5224
(lp5225
(I0
I397
F-0.625
g828
I0
tp5226
a(I0
I1317
F-0.625
g832
I0
tp5227
a(I0
I1449
F0.5
g930
I0
tp5228
a(I0
I2798
F-0.25
g858
I0
tp5229
a(I0
I2916
F0.25
g953
I0
tp5230
a(I0
I3237
F-0.625
g862
I0
tp5231
a(I0
I4250
F-0.25
g968
I0
tp5232
a(I0
I5763
F0.125
g987
I0
tp5233
a(I0
I6170
I0
g892
I0
tp5234
a(I0
I6288
F-0.625
g991
I0
tp5235
a(I0
I6411
F0.375
g998
I0
tp5236
a(I0
I6638
F-0.625
g898
I0
tp5237
a(I0
I6787
F-0.25
g1002
I0
tp5238
a(I0
I7701
I0
g1010
I0
tp5239
a(I0
I8314
F-0.25
g1027
I0
tp5240
as(g2535
S'good'
p5241
S'mobile'
p5242
tp5243
(lp5244
(I0
I875
F-0.625
S'last'
p5245
I1
tp5246
a(I0
I1076
I0
g3635
I1
tp5247
a(I0
I1928
F1.0
g1735
I1
tp5248
a(I0
I1928
F1.0
g1737
I1
tp5249
a(I0
I3357
F1.0
S'good'
p5250
I1
tp5251
a(I0
I3394
F1.0
g3637
I1
tp5252
a(I0
I3783
F0.5
S'heat'
p5253
I1
tp5254
a(I0
I3959
F-0.625
S'other'
p5255
I1
tp5256
a(I0
I3959
F1.0
S'good'
p5257
I1
tp5258
a(I0
I3974
F1.0
S'good'
p5259
I1
tp5260
a(I0
I4582
F1.0
S'good'
p5261
I1
tp5262
a(I0
I4693
F-0.125
S'overall'
p5263
I1
tp5264
a(I0
I4693
F1.0
S'good'
p5265
I1
tp5266
a(I0
I4788
F1.0
S'good'
p5267
I1
tp5268
a(I0
I5042
F1.0
S'good'
p5269
I1
tp5270
a(I0
I5404
F1.0
S'good'
p5271
I1
tp5272
a(I0
I5454
F1.0
g4400
I1
tp5273
a(I0
I5786
F1.0
g1742
I1
tp5274
a(I0
I6108
F0.875
g3658
I1
tp5275
a(I0
I6575
F-0.625
g3664
I1
tp5276
a(I0
I6643
F1.0
S'good'
p5277
I1
tp5278
a(I0
I6694
I0
S'hot'
p5279
I1
tp5280
a(I0
I6694
F1.0
S'good'
p5281
I1
tp5282
a(I0
I6739
F1.0
S'good'
p5283
I1
tp5284
a(I0
I6760
F1.0
S'good'
p5285
I1
tp5286
a(I0
I6879
F0.875
S'nice'
p5287
I1
tp5288
a(I0
I6981
F1.0
S'good'
p5289
I1
tp5290
a(I0
I7023
F1.0
S'good'
p5291
I1
tp5292
a(I0
I7095
F1.0
S'best'
p5293
I1
tp5294
a(I0
I7307
F1.0
g3668
I1
tp5295
a(I0
I7307
F-0.75
g3670
I1
tp5296
a(I0
I7373
F-0.25
S'i'
p5297
I1
tp5298
a(I0
I7374
F0.875
S'awesome'
p5299
I1
tp5300
a(I0
I7417
F1.0
S'good'
p5301
I1
tp5302
a(I0
I7439
F1.0
S'good'
p5303
I1
tp5304
a(I0
I7641
F1.0
g4407
I1
tp5305
a(I0
I7932
F1.0
S'good'
p5306
I1
tp5307
as(S'hangs'
p5308
g2535
S'lot'
p5309
tp5310
(lp5311
(I0
I3786
I-100
S'setbacksit'
p5312
I0
tp5313
a(I0
I5400
I-100
S'lotn'
p5314
I0
tp5315
a(I0
I6684
I0
g1041
I0
tp5316
as(S'device'
p5317
tp5318
(lp5319
(I0
I21
F0.625
S'fine'
p5320
I11
tp5321
a(I0
I64
F-0.875
S'unhappy'
p5322
I11
tp5323
a(I0
I156
F0.375
S'heating'
p5324
I11
tp5325
a(I0
I339
I0
S'more'
p5326
I11
tp5327
a(I0
I348
F0.625
S'sexy'
p5328
I11
tp5329
a(I0
I431
F-0.625
S'useless'
p5330
I11
tp5331
a(I0
I566
I0
S'different'
p5332
I11
tp5333
a(I0
I577
F0.375
S'enable'
p5334
I11
tp5335
a(I0
I625
F-0.625
S'other'
p5336
I11
tp5337
a(I0
I625
F-0.375
S'same'
p5338
I11
tp5339
a(I0
I633
F-0.625
S'new'
p5340
I11
tp5341
a(I0
I639
F0.875
S'simple'
p5342
I11
tp5343
a(I0
I677
F0.75
S'due'
p5344
I11
tp5345
a(I0
I677
F-0.75
S'likely'
p5346
I11
tp5347
a(I0
I774
I0
S'normal'
p5348
I11
tp5349
a(I0
I876
F-0.5
S'less'
p5350
I11
tp5351
a(I0
I877
F-0.625
S'other'
p5352
I11
tp5353
a(I0
I877
F0.375
S'available'
p5354
I11
tp5355
a(I0
I943
F-0.875
S'cheap'
p5356
I11
tp5357
a(I0
I1178
F-0.75
S'dead'
p5358
I11
tp5359
a(I0
I1588
F0.375
S'ok'
p5360
I11
tp5361
a(I0
I1588
F0.875
S'happy'
p5362
I11
tp5363
a(I0
I1759
F0.75
S'beautiful'
p5364
I11
tp5365
a(I0
I1760
I-100
S'yeahh'
p5366
I11
tp5367
a(I0
I1760
F0.875
S'awesome'
p5368
I11
tp5369
a(I0
I2023
F0.5
S'true'
p5370
I11
tp5371
a(I0
I2169
F1.0
S'better'
p5372
I11
tp5373
a(I0
I2200
F-1.0
S'bad'
p5374
I11
tp5375
a(I0
I2391
F0.75
S'beautiful'
p5376
I11
tp5377
a(I0
I2479
F-0.125
S'overall'
p5378
I11
tp5379
a(I0
I3153
I0
S'u'
p5380
I11
tp5381
a(I0
I3159
F0.75
S'beautiful'
p5382
I11
tp5383
a(I0
I3159
F0.5
S'powerful'
p5384
I11
tp5385
a(I0
I3168
F0.875
S'great'
p5386
I11
tp5387
a(I0
I3483
F1.0
S'good'
p5388
I11
tp5389
a(I0
I3483
F0.125
S'mobile'
p5390
I11
tp5391
a(I0
I3585
F-1.0
S'bad'
p5392
I11
tp5393
a(I0
I3821
F1.0
S'better'
p5394
I11
tp5395
a(I0
I3890
F0.875
S'important'
p5396
I11
tp5397
a(I0
I4199
F-0.625
S'new'
p5398
I11
tp5399
a(I0
I4283
F0.875
S'happy'
p5400
I11
tp5401
a(I0
I4312
F0.875
S'happy'
p5402
I11
tp5403
a(I0
I4471
F-0.75
S'defective'
p5404
I11
tp5405
a(I0
I4725
F1.0
S'good'
p5406
I11
tp5407
a(I0
I5121
I-100
S'itthe'
p5408
I11
tp5409
a(I0
I5185
I0
S'useful'
p5410
I11
tp5411
a(I0
I5527
I0
S't'
p5412
I11
tp5413
a(I0
I5798
F-0.625
S'useless'
p5414
I11
tp5415
a(I0
I6148
F1.0
S'good'
p5416
I11
tp5417
a(I0
I6277
I-100
S'awesomevery'
p5418
I11
tp5419
a(I0
I6303
I-100
S'goodthe'
p5420
I11
tp5421
a(I0
I6303
F-0.75
S'dead'
p5422
I11
tp5423
a(I0
I6379
F-0.875
S'low'
p5424
I11
tp5425
a(I0
I6379
F0.125
S'signal'
p5426
I11
tp5427
a(I0
I6687
F0.875
S'great'
p5428
I11
tp5429
a(I0
I6794
F1.0
S'good'
p5430
I11
tp5431
a(I0
I6958
F-0.875
S'poor'
p5432
I11
tp5433
a(I0
I6964
I0
S'android'
p5434
I11
tp5435
a(I0
I7094
F1.0
S'good'
p5436
I11
tp5437
a(I0
I7276
F0.875
S'nice'
p5438
I11
tp5439
a(I0
I7678
I0
S'tag'
p5440
I11
tp5441
a(I0
I7733
I-100
S'muchgood'
p5442
I11
tp5443
a(I0
I7779
F0.75
S'perfect'
p5444
I11
tp5445
a(I0
I7779
F0.125
S'mobile'
p5446
I11
tp5447
a(I0
I7779
I-100
S'goodawesome'
p5448
I11
tp5449
a(I0
I7970
F1.0
S'excellent'
p5450
I11
tp5451
as(S'for'
p5452
S'yu'
p5453
S'yureka'
p5454
tp5455
(lp5456
(I0
I397
F-0.625
g828
I0
tp5457
a(I0
I604
F1.0
g921
I0
tp5458
a(I0
I1449
F0.5
g930
I0
tp5459
a(I0
I1569
F0.125
g934
I0
tp5460
a(I0
I1791
F1.0
g840
I0
tp5461
a(I0
I2244
F-0.5
g945
I0
tp5462
a(I0
I2916
F0.25
g953
I0
tp5463
a(I0
I3237
F-0.625
g862
I0
tp5464
a(I0
I4565
F1.0
g878
I0
tp5465
a(I0
I5132
F-0.375
g980
I0
tp5466
a(I0
I5517
I0
g983
I0
tp5467
a(I0
I5763
F0.125
g987
I0
tp5468
a(I0
I5960
F0.375
g890
I0
tp5469
a(I0
I6170
I0
g892
I0
tp5470
a(I0
I6288
F-0.625
g991
I0
tp5471
a(I0
I6353
F1.0
g996
I0
tp5472
a(I0
I7701
I0
g1010
I0
tp5473
a(I0
I8206
F-0.625
g916
I0
tp5474
as(S'mat'
p5475
S'lena'
p5476
tp5477
(lp5478
(I0
I5195
I0
S'lena'
p5479
I0
tp5480
as(S'heating'
p5481
S'problem'
p5482
S'battery'
p5483
tp5484
(lp5485
(I0
I193
F-0.125
g4232
I0
tp5486
a(I0
I1145
F-0.875
g1466
I0
tp5487
a(I0
I1805
F1.0
g1468
I0
tp5488
a(I0
I1805
F-0.25
g3422
I0
tp5489
a(I0
I2822
F-0.375
g2325
I0
tp5490
a(I0
I3081
F0.625
g3429
I0
tp5491
a(I0
I3081
F-0.125
g4241
I0
tp5492
a(I0
I3227
F-0.875
g1470
I0
tp5493
a(I0
I3890
F0.375
g64
I0
tp5494
a(I0
I4373
I0
g4624
I0
tp5495
a(I0
I4461
F0.375
g1473
I0
tp5496
a(I0
I4469
F-0.5
g1475
I0
tp5497
a(I0
I4469
F1.0
g3436
I0
tp5498
a(I0
I4469
F0.875
g3438
I0
tp5499
a(I0
I4507
F-1.0
g4629
I0
tp5500
a(I0
I4581
F0.75
g3691
I0
tp5501
a(I0
I4581
I0
g3693
I0
tp5502
a(I0
I4581
F-0.125
g3695
I0
tp5503
a(I0
I4581
F0.125
g3697
I0
tp5504
a(I0
I4630
F-0.875
g4264
I0
tp5505
a(I0
I4636
I0
g1477
I0
tp5506
a(I0
I4636
F-0.875
g3734
I0
tp5507
a(I0
I4724
F0.625
g1479
I0
tp5508
a(I0
I4903
F0.625
g3699
I0
tp5509
a(I0
I5049
F0.125
g94
I0
tp5510
a(I0
I5049
F0.375
g96
I0
tp5511
a(I0
I5332
F-1.0
g2362
I0
tp5512
a(I0
I5409
F-0.875
g3376
I0
tp5513
a(I0
I5546
F0.375
g246
I0
tp5514
a(I0
I5609
F-0.875
g4645
I0
tp5515
a(I0
I5612
F-0.5
g1497
I0
tp5516
a(I0
I5845
F1.0
g3475
I0
tp5517
a(I0
I5959
F-0.875
g3480
I0
tp5518
a(I0
I5959
F-0.778
g118
I0
tp5519
a(I0
I6062
F-0.5
g4657
I0
tp5520
a(I0
I6062
F0.375
g124
I0
tp5521
a(I0
I6085
I0
g1501
I0
tp5522
a(I0
I6190
F-0.75
g5026
I0
tp5523
a(I0
I6190
F-1.0
g5028
I0
tp5524
a(I0
I6190
F-0.875
g4302
I0
tp5525
a(I0
I6199
F0.875
g1503
I0
tp5526
a(I0
I6199
F0.75
g1505
I0
tp5527
a(I0
I6328
F-0.875
g3392
I0
tp5528
a(I0
I6434
I0
g4668
I0
tp5529
a(I0
I6518
I0
g1507
I0
tp5530
a(I0
I6689
I0
g1515
I0
tp5531
a(I0
I6689
I0
g1517
I0
tp5532
a(I0
I6760
F1.0
g3497
I0
tp5533
a(I0
I7078
I0
g1523
I0
tp5534
a(I0
I7143
F0.125
g1525
I0
tp5535
a(I0
I7143
F-0.125
g1527
I0
tp5536
a(I0
I7143
I0
g1529
I0
tp5537
a(I0
I7143
F-0.875
g4685
I0
tp5538
a(I0
I7234
F0.375
g1979
I0
tp5539
a(I0
I7234
F1.0
g3515
I0
tp5540
a(I0
I7244
F0.375
g2020
I0
tp5541
a(I0
I7371
F-0.875
g4350
I0
tp5542
a(I0
I7670
F0.375
g1984
I0
tp5543
a(I0
I7786
F-0.75
g4357
I0
tp5544
a(I0
I22
F0.125
S'enough'
p5545
I0
tp5546
a(I0
I22
F-0.75
g2294
I0
tp5547
a(I0
I193
F-0.125
g4232
I0
tp5548
a(I0
I490
F-0.625
g3414
I0
tp5549
a(I0
I599
F-0.125
S'present'
p5550
I0
tp5551
a(I0
I599
I0
S'normal'
p5552
I0
tp5553
a(I0
I851
F1.0
g3419
I0
tp5554
a(I0
I1145
F-0.875
g1466
I0
tp5555
a(I0
I1365
F0.875
S'important'
p5556
I0
tp5557
a(I0
I1365
F-0.375
S'charge'
p5558
I0
tp5559
a(I0
I1612
F0.625
S'first'
p5560
I0
tp5561
a(I0
I1612
F0.5
S'second'
p5562
I0
tp5563
a(I0
I1805
F-0.25
g3422
I0
tp5564
a(I0
I2328
I0
S'ur'
p5565
I0
tp5566
a(I0
I2397
I0
S'different'
p5567
I0
tp5568
a(I0
I2397
F0.875
S'nice'
p5569
I0
tp5570
a(I0
I2822
F-0.375
g2325
I0
tp5571
a(I0
I3081
F0.625
g3429
I0
tp5572
a(I0
I3081
F-0.125
g4241
I0
tp5573
a(I0
I3087
I0
S'main'
p5574
I0
tp5575
a(I0
I3359
I0
S'only'
p5576
I0
tp5577
a(I0
I3939
I0
S'main'
p5578
I0
tp5579
a(I0
I4373
I0
g4624
I0
tp5580
a(I0
I4432
F-0.875
g2262
I0
tp5581
a(I0
I4469
F-0.5
g1475
I0
tp5582
a(I0
I4469
F1.0
g3436
I0
tp5583
a(I0
I4469
F0.875
g3438
I0
tp5584
a(I0
I4507
F-1.0
g4629
I0
tp5585
a(I0
I4581
F0.75
g3691
I0
tp5586
a(I0
I4581
I0
g3693
I0
tp5587
a(I0
I4581
F-0.125
g3695
I0
tp5588
a(I0
I4581
F0.125
g3697
I0
tp5589
a(I0
I4630
F-0.875
g4264
I0
tp5590
a(I0
I4636
I0
g1477
I0
tp5591
a(I0
I4636
F-0.875
g3734
I0
tp5592
a(I0
I4724
F0.625
g1479
I0
tp5593
a(I0
I4782
F-0.778
S'common'
p5594
I0
tp5595
a(I0
I4822
F-0.875
S'low'
p5596
I0
tp5597
a(I0
I5332
F-1.0
g2362
I0
tp5598
a(I0
I5409
F-0.875
g3376
I0
tp5599
a(I0
I5476
F-1.0
g5174
I0
tp5600
a(I0
I5546
F0.375
g246
I0
tp5601
a(I0
I5609
F-0.875
g4645
I0
tp5602
a(I0
I5639
F1.0
g3465
I0
tp5603
a(I0
I5639
I0
g3467
I0
tp5604
a(I0
I5845
F1.0
g3475
I0
tp5605
a(I0
I5918
I0
S'hot'
p5606
I0
tp5607
a(I0
I5959
F-0.875
g3480
I0
tp5608
a(I0
I6062
F-0.5
g4657
I0
tp5609
a(I0
I6085
I0
g1501
I0
tp5610
a(I0
I6103
F-0.625
g3484
I0
tp5611
a(I0
I6190
F-0.75
g5026
I0
tp5612
a(I0
I6190
F-1.0
g5028
I0
tp5613
a(I0
I6199
F0.75
g1505
I0
tp5614
a(I0
I6318
I0
S'big'
p5615
I0
tp5616
a(I0
I6328
F-0.875
g3392
I0
tp5617
a(I0
I6434
I0
g4668
I0
tp5618
a(I0
I6518
I0
g1507
I0
tp5619
a(I0
I6648
I0
S'only'
p5620
I0
tp5621
a(I0
I6689
I0
g1515
I0
tp5622
a(I0
I6689
I0
g1517
I0
tp5623
a(I0
I6760
F1.0
g3497
I0
tp5624
a(I0
I7078
I0
g1523
I0
tp5625
a(I0
I7143
F-0.875
g4685
I0
tp5626
a(I0
I7234
F1.0
g3515
I0
tp5627
a(I0
I7371
F-0.875
g4350
I0
tp5628
a(I0
I7713
F0.625
S'major'
p5629
I0
tp5630
a(I0
I7786
F-0.75
g4357
I0
tp5631
as(S'apps'
p5632
tp5633
(lp5634
(I0
I56
F-1.0
S'worst'
p5635
I4
tp5636
a(I0
I56
F0.125
S'mobile'
p5637
I4
tp5638
a(I0
I155
F0.5
S'intense'
p5639
I4
tp5640
a(I0
I247
F-0.75
S'weird'
p5641
I4
tp5642
a(I0
I260
F-0.625
S'other'
p5643
I4
tp5644
a(I0
I541
F0.25
S'basic'
p5645
I4
tp5646
a(I0
I577
I0
S'sure'
p5647
I4
tp5648
a(I0
I578
I0
S'u'
p5649
I4
tp5650
a(I0
I578
F-0.625
S'new'
p5651
I4
tp5652
a(I0
I710
I0
S'n'
p5653
I4
tp5654
a(I0
I848
I0
S'more'
p5655
I4
tp5656
a(I0
I877
I0
S'multiple'
p5657
I4
tp5658
a(I0
I877
F0.25
S'basic'
p5659
I4
tp5660
a(I0
I994
I0
S'additional'
p5661
I4
tp5662
a(I0
I1007
F1.0
S'better'
p5663
I4
tp5664
a(I0
I1059
F-0.25
S'google'
p5665
I4
tp5666
a(I0
I1106
F0.375
S'much'
p5667
I4
tp5668
a(I0
I1473
F-0.5
S'longer'
p5669
I4
tp5670
a(I0
I1636
F-0.75
S'unused'
p5671
I4
tp5672
a(I0
I1848
I0
S'multiple'
p5673
I4
tp5674
a(I0
I1923
F-0.625
S'other'
p5675
I4
tp5676
a(I0
I2383
F-0.5
S'unwanted'
p5677
I4
tp5678
a(I0
I2716
F0.25
S'basic'
p5679
I4
tp5680
a(I0
I2985
F0.25
S'basic'
p5681
I4
tp5682
a(I0
I3475
I0
S'light'
p5683
I4
tp5684
a(I0
I3497
I0
S'few'
p5685
I4
tp5686
a(I0
I3497
I0
S'unnecessary'
p5687
I4
tp5688
a(I0
I4008
I0
S'few'
p5689
I4
tp5690
a(I0
I4008
F-0.75
S'free'
p5691
I4
tp5692
a(I0
I4616
F0.75
S'essential'
p5693
I4
tp5694
a(I0
I4917
F-0.5
S'slow'
p5695
I4
tp5696
a(I0
I5041
F0.25
S'basic'
p5697
I4
tp5698
a(I0
I5176
I0
S'few'
p5699
I4
tp5700
a(I0
I5269
F-0.625
S'other'
p5701
I4
tp5702
a(I0
I5534
I0
S'multiple'
p5703
I4
tp5704
a(I0
I5664
I0
S'multiple'
p5705
I4
tp5706
a(I0
I5766
F0.25
S'basic'
p5707
I4
tp5708
a(I0
I6857
I0
S'reboot'
p5709
I4
tp5710
a(I0
I6857
I0
S'few'
p5711
I4
tp5712
a(I0
I7486
F-0.5
S'heavy'
p5713
I4
tp5714
a(I0
I7501
F0.625
S'certain'
p5715
I4
tp5716
a(I0
I7504
F0.625
S'certain'
p5717
I4
tp5718
a(I0
I7504
I0
S'clear'
p5719
I4
tp5720
as(S'temple'
p5721
S'run'
p5722
tp5723
(lp5724
(I0
I865
F0.125
S'temple'
p5725
I0
tp5726
a(I0
I943
F0.125
S'temple'
p5727
I0
tp5728
a(I0
I2048
F0.125
S'temple'
p5729
I0
tp5730
a(I0
I7486
F0.125
S'temple'
p5731
I0
tp5732
as(S'days'
p5733
S'of'
p5734
S'usage'
p5735
tp5736
(lp5737
(I0
I138
I0
S'few'
p5738
I0
tp5739
a(I0
I138
F-1.0
S'bad'
p5740
I0
tp5741
a(I0
I1076
F-0.5
S'repent'
p5742
I0
tp5743
a(I0
I1076
I0
S'few'
p5744
I0
tp5745
a(I0
I2569
F-0.5
S'heavy'
p5746
I0
tp5747
a(I0
I5401
I0
S'few'
p5748
I0
tp5749
a(I0
I8271
F-0.5
S'heavy'
p5750
I0
tp5751
a(I0
I89
F-0.75
S'warm'
p5752
I8
tp5753
a(I0
I138
F-1.0
g5740
I8
tp5754
a(I0
I332
I0
S'normal'
p5755
I8
tp5756
a(I0
I455
F-0.5
S'heavy'
p5757
I8
tp5758
a(I0
I656
I0
S'normal'
p5759
I8
tp5760
a(I0
I674
F0.75
S'due'
p5761
I8
tp5762
a(I0
I674
F-0.5
S'excessive'
p5763
I8
tp5764
a(I0
I811
F-0.5
S'continuous'
p5765
I8
tp5766
a(I0
I814
I0
S'net'
p5767
I8
tp5768
a(I0
I854
I0
S'actual'
p5769
I8
tp5770
a(I0
I856
F0.5
S'daily'
p5771
I8
tp5772
a(I0
I1022
I0
S'normal'
p5773
I8
tp5774
a(I0
I1450
F-0.5
S'heavy'
p5775
I8
tp5776
a(I0
I1460
F-0.5
S'heavier'
p5777
I8
tp5778
a(I0
I1757
F-0.625
S'moderate'
p5779
I8
tp5780
a(I0
I2082
F-0.625
S'moderate'
p5781
I8
tp5782
a(I0
I2136
F-0.125
S'general'
p5783
I8
tp5784
a(I0
I2422
F-0.625
S'moderate'
p5785
I8
tp5786
a(I0
I2503
F-0.625
S'fast'
p5787
I8
tp5788
a(I0
I2503
F0.625
S'smooth'
p5789
I8
tp5790
a(I0
I2562
F-0.5
S'heavy'
p5791
I8
tp5792
a(I0
I2569
F-0.5
g5746
I8
tp5793
a(I0
I2654
F-0.5
S'heavy'
p5794
I8
tp5795
a(I0
I2703
F-0.625
S'moderate'
p5796
I8
tp5797
a(I0
I2815
F-0.625
S'moderate'
p5798
I8
tp5799
a(I0
I2883
F-0.75
S'little'
p5800
I8
tp5801
a(I0
I3220
F-0.625
S'average'
p5802
I8
tp5803
a(I0
I3690
F-0.625
S'moderate'
p5804
I8
tp5805
a(I0
I4169
I0
S'normal'
p5806
I8
tp5807
a(I0
I4599
I0
S'ur'
p5808
I8
tp5809
a(I0
I4712
F-0.5
S'heavy'
p5810
I8
tp5811
a(I0
I5520
F-0.5
S'heavy'
p5812
I8
tp5813
a(I0
I5522
F1.0
S'good'
p5814
I8
tp5815
a(I0
I5569
F-0.625
S'moderate'
p5816
I8
tp5817
a(I0
I5646
F1.0
S'good'
p5818
I8
tp5819
a(I0
I5859
I0
S'net'
p5820
I8
tp5821
a(I0
I5959
F-0.5
S'heavy'
p5822
I8
tp5823
a(I0
I5989
I0
S'normal'
p5824
I8
tp5825
a(I0
I6806
I0
S'minimal'
p5826
I8
tp5827
a(I0
I6890
I0
S'minimal'
p5828
I8
tp5829
a(I0
I6949
I0
S'normal'
p5830
I8
tp5831
a(I0
I7118
F-0.5
S'less'
p5832
I8
tp5833
a(I0
I7267
F-0.875
S'small'
p5834
I8
tp5835
a(I0
I7494
F0.375
S'extensive'
p5836
I8
tp5837
a(I0
I7697
F-0.875
S'unfriendly'
p5838
I8
tp5839
a(I0
I7697
I0
S'most'
p5840
I8
tp5841
a(I0
I7904
F-0.625
S'moderate'
p5842
I8
tp5843
a(I0
I8127
F-0.625
S'moderate'
p5844
I8
tp5845
a(I0
I8271
F-0.5
g5750
I8
tp5846
as(S'lot'
p5847
S'of'
p5848
S'time'
p5849
tp5850
(lp5851
(I0
I2704
F0.375
S'full'
p5852
I1
tp5853
a(I0
I8135
I0
S'most'
p5854
I1
tp5855
as.