(dp0
(S'at'
p1
S'price'
p2
S'range'
p3
tp4
(lp5
(I1096
I18
F0.875
S'great'
p6
I0
tp7
a(I1189
I5
F1.0
S'good'
p8
I0
tp9
a(I1191
I8
F1.0
S'good'
p10
I0
tp11
a(I1299
I1
I0
S'more'
p12
I0
tp13
a(I1322
I2
F1.0
S'best'
p14
I0
tp15
a(I1322
I2
F1.0
S'good'
p16
I0
tp17
a(I1361
I1
F-0.375
S'same'
p18
I0
tp19
a(I1361
I1
F-0.75
S'little'
p20
I0
tp21
a(I1427
I1
I0
S's'
p22
I0
tp23
a(I1581
I3
I0
S'local'
p24
I0
tp25
a(I1636
I0
F-0.5
S'ecstatic'
p26
I0
tp27
as(S'quad'
p28
S'core'
p29
S'processor'
p30
tp31
(lp32
(I354
I7
F1.0
S'good'
p33
I0
tp34
a(I1597
I0
I0
S'quad'
p35
I0
tp36
a(I25
I1
F-0.5
S'less'
p37
I8
tp38
a(I36
I1
F-0.625
S'fast'
p39
I8
tp40
a(I36
I1
F0.625
S'reliable'
p41
I8
tp42
a(I159
I4
F1.0
S'good'
p43
I8
tp44
a(I196
I1
F-0.625
S'fast'
p45
I8
tp46
a(I196
I1
F0.625
S'reliable'
p47
I8
tp48
a(I201
I13
F0.75
S'due'
p49
I8
tp50
a(I201
I13
F-0.875
S'low'
p51
I8
tp52
a(I354
I7
F1.0
g33
I8
tp53
a(I576
I18
I0
S'n'
p54
I8
tp55
a(I754
I1
F-0.625
S'fast'
p56
I8
tp57
a(I754
I1
F0.625
S'reliable'
p58
I8
tp59
a(I848
I0
F1.0
S'good'
p60
I8
tp61
a(I1022
I1
F1.0
S'good'
p62
I8
tp63
a(I1067
I24
F1.0
S'good'
p64
I8
tp65
a(I1079
I4
F-0.5
S'slow'
p66
I8
tp67
a(I1171
I1
F0.875
S'great'
p68
I8
tp69
a(I1178
I5
F1.0
S'better'
p70
I8
tp71
a(I1232
I0
F1.0
S'good'
p72
I8
tp73
a(I1254
I6
I0
S's'
p74
I8
tp75
a(I1254
I6
F-0.5
S'slow'
p76
I8
tp77
a(I1318
I3
F-0.75
S'little'
p78
I8
tp79
a(I1318
I3
F-0.5
S'slow'
p80
I8
tp81
a(I1390
I3
F1.0
S'good'
p82
I8
tp83
a(I1437
I1
F-0.625
S'fast'
p84
I8
tp85
a(I1437
I1
F0.625
S'reliable'
p86
I8
tp87
a(I1482
I1
F-0.625
S'fast'
p88
I8
tp89
a(I1482
I1
F0.625
S'reliable'
p90
I8
tp91
a(I1533
I12
F1.0
S'good'
p92
I8
tp93
a(I1583
I0
F-0.5
S'slow'
p94
I8
tp95
a(I1597
I0
I0
g35
I8
tp96
a(I1709
I0
F0.875
S'decent'
p97
I8
tp98
a(I1740
I2
I0
S'inch'
p99
I8
tp100
a(I1740
I2
F0.875
S'great'
p101
I8
tp102
as(S'2'
p103
S'gb'
p104
S'ram'
p105
tp106
(lp107
(I18
I25
F1.0
S'good'
p108
I4
tp109
a(I146
I15
F0.5
S'internal'
p110
I4
tp111
a(I354
I8
F1.0
S'good'
p112
I4
tp113
a(I354
I8
F-0.25
S'purpose'
p114
I4
tp115
a(I502
I21
F-0.625
S'fast'
p116
I4
tp117
a(I502
I21
I0
S'lag'
p118
I4
tp119
a(I502
I21
F-0.75
S'free'
p120
I4
tp121
a(I580
I0
F0.875
S'great'
p122
I4
tp123
a(I580
I0
F0.5
S'internal'
p124
I4
tp125
a(I600
I0
F1.0
S'good'
p126
I4
tp127
a(I880
I20
F1.0
S'good'
p128
I4
tp129
a(I896
I0
F-0.625
S'average'
p130
I4
tp131
a(I1039
I2
F-0.75
S'free'
p132
I4
tp133
a(I1041
I0
I0
S'own'
p134
I4
tp135
a(I1041
I0
I0
S'gb'
p136
I4
tp137
a(I1041
I0
F-0.75
S'free'
p138
I4
tp139
a(I1041
I0
F-0.125
S'overall'
p140
I4
tp141
a(I1096
I10
F-0.75
S'free'
p142
I4
tp143
a(I1096
I10
I0
S'more'
p144
I4
tp145
a(I1109
I0
I0
S'more'
p146
I4
tp147
a(I1109
I0
F0.25
S'future'
p148
I4
tp149
a(I1218
I2
F1.0
S'good'
p150
I4
tp151
a(I1352
I16
I0
S'screen'
p152
I4
tp153
a(I1623
I12
F-0.75
S'sufficient'
p154
I4
tp155
a(I18
I25
F1.0
g108
I9
tp156
a(I48
I1
F-0.75
S'free'
p157
I9
tp158
a(I89
I1
F-0.75
S'free'
p159
I9
tp160
a(I146
I14
F-0.75
S'free'
p161
I9
tp162
a(I146
I14
F0.125
S'enough'
p163
I9
tp164
a(I146
I14
F0.25
S'usable'
p165
I9
tp166
a(I146
I15
F0.5
g110
I9
tp167
a(I186
I4
F0.25
S'able'
p168
I9
tp169
a(I186
I4
I0
S'more'
p170
I9
tp171
a(I354
I8
F1.0
g112
I9
tp172
a(I354
I8
F-0.25
g114
I9
tp173
a(I502
I21
F-0.625
g116
I9
tp174
a(I502
I21
I0
g118
I9
tp175
a(I502
I21
F-0.75
g120
I9
tp176
a(I573
I1
F-0.75
S'free'
p177
I9
tp178
a(I580
I0
F0.875
g122
I9
tp179
a(I580
I0
F0.5
g124
I9
tp180
a(I600
I0
F1.0
g126
I9
tp181
a(I640
I1
F-0.75
S'free'
p182
I9
tp183
a(I880
I20
F1.0
g128
I9
tp184
a(I893
I8
F-0.75
S'free'
p185
I9
tp186
a(I896
I0
F-0.625
g130
I9
tp187
a(I1039
I2
F-0.75
g132
I9
tp188
a(I1041
I0
I0
g134
I9
tp189
a(I1041
I0
I0
g136
I9
tp190
a(I1041
I0
F-0.75
g138
I9
tp191
a(I1041
I0
F-0.125
g140
I9
tp192
a(I1096
I10
F-0.75
g142
I9
tp193
a(I1096
I10
I0
g144
I9
tp194
a(I1109
I0
I0
g146
I9
tp195
a(I1109
I0
F0.25
g148
I9
tp196
a(I1218
I2
F1.0
g150
I9
tp197
a(I1219
I3
I0
S'g'
p198
I9
tp199
a(I1352
I16
I0
g152
I9
tp200
a(I1468
I7
I0
S'gb'
p201
I9
tp202
a(I1623
I12
F-0.75
g154
I9
tp203
a(I146
I15
F0.5
g110
I7
tp204
a(I354
I8
F1.0
g112
I7
tp205
a(I354
I8
F-0.25
g114
I7
tp206
a(I580
I0
F0.5
g124
I7
tp207
a(I601
I0
F0.375
S'available'
p208
I7
tp209
a(I1096
I10
I0
g144
I7
tp210
a(I1281
I1
F0.5
S'internal'
p211
I7
tp212
a(I1352
I16
I0
g152
I7
tp213
as(S'high'
p214
S'end'
p215
S'games'
p216
tp217
(lp218
(I51
I23
F0.875
S'amazing'
p219
I0
tp220
a(I51
I23
F-0.75
S'casual'
p221
I0
tp222
a(I51
I23
F-0.125
S'such'
p223
I0
tp224
a(I51
I23
F0.5
S'high'
p225
I0
tp226
a(I88
I1
F0.5
S'high'
p227
I0
tp228
a(I145
I36
F0.5
S'high'
p229
I0
tp230
a(I146
I14
I0
S'many'
p231
I0
tp232
a(I146
I14
F0.5
S'high'
p233
I0
tp234
a(I197
I23
F0.875
S'amazing'
p235
I0
tp236
a(I197
I23
F-0.75
S'casual'
p237
I0
tp238
a(I197
I23
F-0.125
S'such'
p239
I0
tp240
a(I197
I23
F0.5
S'high'
p241
I0
tp242
a(I777
I2
F0.5
S'high'
p243
I0
tp244
a(I781
I3
F0.5
S'high'
p245
I0
tp246
a(I798
I5
F0.25
S'able'
p247
I0
tp248
a(I798
I5
F0.5
S'high'
p249
I0
tp250
a(I880
I12
F-0.75
S'casual'
p251
I0
tp252
a(I880
I12
F-0.125
S'such'
p253
I0
tp254
a(I880
I12
F0.5
S'high'
p255
I0
tp256
a(I997
I6
F0.5
S'high'
p257
I0
tp258
a(I1416
I0
F0.5
S'high'
p259
I0
tp260
a(I1670
I1
F0.5
S'high'
p261
I0
tp262
a(I51
I23
F0.5
g225
I0
tp263
a(I88
I1
F0.5
g227
I0
tp264
a(I145
I36
F0.5
g229
I0
tp265
a(I146
I14
I0
g231
I0
tp266
a(I146
I14
F0.5
g233
I0
tp267
a(I178
I4
F0.5
S'high'
p268
I0
tp269
a(I197
I23
F0.5
g241
I0
tp270
a(I326
I29
F0.5
S'high'
p271
I0
tp272
a(I326
I32
F0.5
S'high'
p273
I0
tp274
a(I411
I0
F0.5
S'high'
p275
I0
tp276
a(I437
I1
F0.5
S'high'
p277
I0
tp278
a(I623
I4
F0.5
S'high'
p279
I0
tp280
a(I777
I2
F0.5
g243
I0
tp281
a(I781
I3
F0.5
g245
I0
tp282
a(I798
I5
F0.25
g247
I0
tp283
a(I798
I5
F0.5
g249
I0
tp284
a(I880
I12
F0.5
g255
I0
tp285
a(I997
I6
F0.5
g257
I0
tp286
a(I1279
I8
F0.5
S'high'
p287
I0
tp288
a(I1406
I6
F0.5
S'high'
p289
I0
tp290
a(I1416
I0
F0.5
g259
I0
tp291
a(I1485
I2
F0.5
S'high'
p292
I0
tp293
a(I1534
I6
F0.5
S'high'
p294
I0
tp295
a(I1670
I1
F0.5
g261
I0
tp296
a(I1808
I0
F0.5
S'high'
p297
I0
tp298
a(I51
I23
F0.875
g219
I5
tp299
a(I51
I23
F-0.75
g221
I5
tp300
a(I51
I23
F-0.125
g223
I5
tp301
a(I132
I8
I0
S'big'
p302
I5
tp303
a(I197
I23
F0.875
g235
I5
tp304
a(I197
I23
F-0.75
g237
I5
tp305
a(I197
I23
F-0.125
g239
I5
tp306
a(I199
I24
F-0.5
S'heavy'
p307
I5
tp308
a(I201
I13
F-0.625
S'last'
p309
I5
tp310
a(I201
I13
I0
S'least'
p311
I5
tp312
a(I227
I5
F-0.625
S'last'
p313
I5
tp314
a(I306
I1
F0.125
S'mobile'
p315
I5
tp316
a(I306
I1
F-0.25
S'hang'
p317
I5
tp318
a(I354
I5
F0.375
S'much'
p319
I5
tp320
a(I437
I15
F-0.5
S'heavy'
p321
I5
tp322
a(I439
I2
F0.125
S'mobile'
p323
I5
tp324
a(I478
I2
I0
S'android'
p325
I5
tp326
a(I502
I22
I0
S'big'
p327
I5
tp328
a(I577
I2
I0
S't'
p329
I5
tp330
a(I577
I2
I0
S'many'
p331
I5
tp332
a(I577
I2
F-0.5
S'heavy'
p333
I5
tp334
a(I580
I0
F-0.5
S'heavy'
p335
I5
tp336
a(I714
I0
F-0.5
S'heavy'
p337
I5
tp338
a(I781
I2
F0.25
S'basic'
p339
I5
tp340
a(I822
I30
F-0.5
S'heavy'
p341
I5
tp342
a(I822
I30
I0
S'asphalt'
p343
I5
tp344
a(I829
I4
F0.875
S'nice'
p345
I5
tp346
a(I880
I12
F-0.75
g251
I5
tp347
a(I880
I12
F-0.125
g253
I5
tp348
a(I1039
I2
F0.125
S'temple'
p349
I5
tp350
a(I1179
I0
I0
S'few'
p351
I5
tp352
a(I1179
I0
F-0.625
S'other'
p353
I5
tp354
a(I1339
I1
F-0.5
S'heavy'
p355
I5
tp356
a(I1367
I3
F-0.75
S'casual'
p357
I5
tp358
a(I1367
I3
F-0.5
S'heavy'
p359
I5
tp360
a(I1378
I3
F0.25
S'basic'
p361
I5
tp362
a(I1505
I11
I0
S'light'
p363
I5
tp364
a(I1580
I1
F-0.5
S'heavy'
p365
I5
tp366
a(I1613
I0
F-0.875
S'small'
p367
I5
tp368
a(I1613
I0
F0.625
S'fine'
p369
I5
tp370
a(I1638
I3
I0
S'graphical'
p371
I5
tp372
a(I1670
I5
I0
S'most'
p373
I5
tp374
a(I1697
I3
F-0.5
S'heavy'
p375
I5
tp376
a(I1767
I4
F-0.5
S'heavy'
p377
I5
tp378
a(I1801
I5
F-0.5
S'heavy'
p379
I5
tp380
as(S'5'
p381
S'inch'
p382
S'display'
p383
tp384
(lp385
(I134
I6
I0
S'inch'
p386
I0
tp387
a(I356
I7
I0
S'inch'
p388
I0
tp389
a(I356
I7
F0.5
S'large'
p390
I0
tp391
a(I356
I7
F1.0
S'best'
p392
I0
tp393
a(I572
I18
F1.0
S'good'
p394
I0
tp395
a(I774
I1
I0
S'inch'
p396
I0
tp397
a(I1039
I1
I0
S'inch'
p398
I0
tp399
a(I1039
I1
I0
S'big'
p400
I0
tp401
a(I1808
I2
F0.875
S'nice'
p402
I0
tp403
a(I1601
I2
F1.0
S'good'
p404
I0
tp405
a(I134
I6
I0
g386
I0
tp406
a(I146
I1
F0.5
S'large'
p407
I0
tp408
a(I356
I7
I0
g388
I0
tp409
a(I356
I7
F0.5
g390
I0
tp410
a(I356
I7
F1.0
g392
I0
tp411
a(I572
I18
F1.0
g394
I0
tp412
a(I774
I1
I0
g396
I0
tp413
a(I857
I1
F0.875
S'great'
p414
I0
tp415
a(I1039
I1
I0
g398
I0
tp416
a(I1039
I1
I0
g400
I0
tp417
a(I1766
I1
F0.5
S'crisp'
p418
I0
tp419
a(I1808
I2
F0.875
g402
I0
tp420
a(I1601
I2
F1.0
g404
I0
tp421
a(I65
I2
F-0.875
S'smart'
p422
I13
tp423
a(I69
I25
F0.875
S'nice'
p424
I13
tp425
a(I69
I25
F0.875
S'great'
p426
I13
tp427
a(I108
I2
F0.875
S'fabulous'
p428
I13
tp429
a(I109
I2
I0
S'bright'
p430
I13
tp431
a(I134
I6
I0
g386
I13
tp432
a(I134
I7
F1.0
S'good'
p433
I13
tp434
a(I139
I6
F-0.125
S'such'
p435
I13
tp436
a(I139
I6
I0
S'big'
p437
I13
tp438
a(I146
I1
F0.5
g407
I13
tp439
a(I152
I1
F-0.625
S'sharp'
p440
I13
tp441
a(I152
I1
I0
S'clear'
p442
I13
tp443
a(I178
I14
F-0.5
S'broken'
p444
I13
tp445
a(I181
I2
F0.875
S'awesome'
p446
I13
tp447
a(I274
I4
F-0.75
S'black'
p448
I13
tp449
a(I308
I0
F1.0
S'good'
p450
I13
tp451
a(I343
I6
F-0.875
S'smart'
p452
I13
tp453
a(I346
I1
F0.875
S'awesome'
p454
I13
tp455
a(I356
I7
I0
g388
I13
tp456
a(I356
I7
F0.5
g390
I13
tp457
a(I356
I7
F1.0
g392
I13
tp458
a(I379
I2
F0.75
S'sound'
p459
I13
tp460
a(I382
I1
F0.875
S'nice'
p461
I13
tp462
a(I393
I5
F1.0
S'good'
p463
I13
tp464
a(I442
I13
F-0.75
S'black'
p465
I13
tp466
a(I447
I11
I0
S'sunlight'
p467
I13
tp468
a(I512
I5
F0.875
S'superb'
p469
I13
tp470
a(I543
I0
F-0.75
S'pure'
p471
I13
tp472
a(I543
I0
F0.75
S'white'
p473
I13
tp474
a(I572
I18
F1.0
g394
I13
tp475
a(I625
I0
F1.0
S'good'
p476
I13
tp477
a(I641
I3
I0
S'bright'
p478
I13
tp479
a(I642
I8
F1.0
S'good'
p480
I13
tp481
a(I654
I8
F1.0
S'good'
p482
I13
tp483
a(I682
I1
F1.0
S'good'
p484
I13
tp485
a(I703
I5
F1.0
S'excellent'
p486
I13
tp487
a(I722
I4
F1.0
S'good'
p488
I13
tp489
a(I774
I1
I0
g396
I13
tp490
a(I791
I0
F0.5
S'large'
p491
I13
tp492
a(I801
I0
F0.875
S'great'
p493
I13
tp494
a(I822
I11
F1.0
S'good'
p495
I13
tp496
a(I835
I12
F1.0
S'good'
p497
I13
tp498
a(I841
I0
F1.0
S'excellent'
p499
I13
tp500
a(I849
I0
F0.625
S'fine'
p501
I13
tp502
a(I857
I1
F0.875
g414
I13
tp503
a(I872
I13
F1.0
S'good'
p504
I13
tp505
a(I879
I0
F1.0
S'good'
p506
I13
tp507
a(I922
I1
F0.875
S'awesome'
p508
I13
tp509
a(I922
I1
F1.0
S'good'
p510
I13
tp511
a(I922
I17
I0
S'most'
p512
I13
tp513
a(I931
I1
F-0.625
S'sensitive'
p514
I13
tp515
a(I938
I0
F1.0
S'good'
p516
I13
tp517
a(I964
I0
F1.0
S'good'
p518
I13
tp519
a(I968
I1
F1.0
S'best'
p520
I13
tp521
a(I975
I0
F0.5
S'internal'
p522
I13
tp523
a(I997
I5
F0.875
S'superb'
p524
I13
tp525
a(I1039
I1
I0
g398
I13
tp526
a(I1039
I1
I0
g400
I13
tp527
a(I1054
I2
F-0.5
S'dull'
p528
I13
tp529
a(I1078
I0
F0.75
S'outstanding'
p530
I13
tp531
a(I1161
I3
F1.0
S'good'
p532
I13
tp533
a(I1179
I2
F0.875
S'decent'
p534
I13
tp535
a(I1213
I1
F1.0
S'good'
p536
I13
tp537
a(I1261
I2
F0.875
S'great'
p538
I13
tp539
a(I1325
I0
I0
S'clear'
p540
I13
tp541
a(I1369
I3
F-0.5
S'dull'
p542
I13
tp543
a(I1373
I1
F0.375
S'satisfied'
p544
I13
tp545
a(I1485
I0
F0.875
S'great'
p546
I13
tp547
a(I1533
I9
I0
S'crystal'
p548
I13
tp549
a(I1533
I9
I0
S'clear'
p550
I13
tp551
a(I1579
I1
F0.875
S'nice'
p552
I13
tp553
a(I1579
I1
I0
S'n'
p554
I13
tp555
a(I1609
I5
F1.0
S'good'
p556
I13
tp557
a(I1609
I5
I0
S'bright'
p558
I13
tp559
a(I1619
I1
F1.0
S'excellent'
p560
I13
tp561
a(I1619
I7
F1.0
S'best'
p562
I13
tp563
a(I1623
I10
F0.5
S'royal'
p564
I13
tp565
a(I1635
I1
F0.875
S'awesome'
p566
I13
tp567
a(I1651
I18
F-0.125
S'overall'
p568
I13
tp569
a(I1653
I0
I0
S'screen'
p570
I13
tp571
a(I1653
I0
F1.0
S'good'
p572
I13
tp573
a(I1655
I0
F1.0
S'best'
p574
I13
tp575
a(I1674
I0
F1.0
S'good'
p576
I13
tp577
a(I1710
I2
F0.5
S'large'
p578
I13
tp579
a(I1710
I2
F1.0
S'excellent'
p580
I13
tp581
a(I1730
I1
F1.0
S'good'
p582
I13
tp583
a(I1731
I3
F-0.875
S'smart'
p584
I13
tp585
a(I1763
I2
F0.5
S'large'
p586
I13
tp587
a(I1766
I1
F0.5
g418
I13
tp588
a(I1782
I0
F1.0
S'good'
p589
I13
tp590
a(I1808
I2
F0.875
g402
I13
tp591
a(I1815
I0
F0.875
S'awesome'
p592
I13
tp593
a(I1840
I1
I0
S'screen'
p594
I13
tp595
a(I1843
I4
F0.875
S'happy'
p596
I13
tp597
as(S'for'
p598
S'price'
p599
S'range'
p600
tp601
(lp602
(I812
I0
F-0.375
S'same'
p603
I0
tp604
a(I1096
I18
F0.875
g6
I0
tp605
a(I1299
I1
I0
g12
I0
tp606
a(I1322
I2
F1.0
g14
I0
tp607
a(I1322
I2
F1.0
g16
I0
tp608
a(I1636
I0
F-0.5
g26
I0
tp609
as(S'call'
p610
S'quality'
p611
tp612
(lp613
(I135
I1
F1.0
S'good'
p614
I1
tp615
a(I241
I0
F1.0
S'good'
p616
I1
tp617
a(I279
I2
F0.875
S'nice'
p618
I1
tp619
a(I388
I1
F0.875
S'awesome'
p620
I1
tp621
a(I463
I0
F0.875
S'decent'
p622
I1
tp623
a(I566
I3
F0.875
S'great'
p624
I1
tp625
a(I723
I5
F0.875
S'right'
p626
I1
tp627
a(I769
I1
F1.0
S'excellent'
p628
I1
tp629
a(I775
I0
F1.0
S'good'
p630
I1
tp631
a(I829
I13
F-0.5
S'call'
p632
I1
tp633
a(I829
I13
F0.875
S'awesome'
p634
I1
tp635
a(I829
I13
F0.375
S'much'
p636
I1
tp637
a(I829
I13
I0
S'clear'
p638
I1
tp639
a(I829
I13
F0.75
S'grand'
p640
I1
tp641
a(I835
I21
F1.0
S'excellent'
p642
I1
tp643
a(I932
I11
F-0.5
S'call'
p644
I1
tp645
a(I932
I11
F0.875
S'awesome'
p646
I1
tp647
a(I956
I19
F1.0
S'excellent'
p648
I1
tp649
a(I1341
I1
F-0.5
S'call'
p650
I1
tp651
a(I1341
I1
F1.0
S'good'
p652
I1
tp653
a(I1570
I2
F-1.0
S'bad'
p654
I1
tp655
a(I1570
I2
F-0.625
S'other'
p656
I1
tp657
a(I1670
I8
F1.0
S'good'
p658
I1
tp659
a(I1670
I8
F0.875
S'great'
p660
I1
tp661
as(S'good'
p662
S'features'
p663
tp664
(lp665
(I46
I1
F0.875
S'nice'
p666
I0
tp667
a(I63
I1
F0.875
S'great'
p668
I0
tp669
a(I65
I0
F1.0
S'good'
p670
I0
tp671
a(I145
I14
F-0.625
S'other'
p672
I0
tp673
a(I326
I29
F1.0
S'good'
p674
I0
tp675
a(I344
I0
F1.0
S'good'
p676
I0
tp677
a(I370
I0
F-0.875
S'positive'
p678
I0
tp679
a(I502
I4
F1.0
S'good'
p680
I0
tp681
a(I517
I6
F0.875
S'great'
p682
I0
tp683
a(I532
I5
F1.0
S'good'
p684
I0
tp685
a(I650
I1
I0
S'few'
p686
I0
tp687
a(I650
I1
F1.0
S'good'
p688
I0
tp689
a(I798
I2
F-0.625
S'other'
p690
I0
tp691
a(I798
I2
F1.0
S'good'
p692
I0
tp693
a(I974
I16
I0
S'cool'
p694
I0
tp695
a(I1191
I5
F1.0
S'good'
p696
I0
tp697
a(I1206
I0
F1.0
S'good'
p698
I0
tp699
a(I1207
I1
F1.0
S'good'
p700
I0
tp701
a(I1219
I4
F1.0
S'good'
p702
I0
tp703
a(I1276
I0
F1.0
S'good'
p704
I0
tp705
a(I1279
I4
I0
S'useful'
p706
I0
tp707
a(I1335
I0
F0.875
S'nice'
p708
I0
tp709
a(I1395
I4
F1.0
S'good'
p710
I0
tp711
a(I1417
I0
F1.0
S'good'
p712
I0
tp713
a(I1465
I1
I0
S'cool'
p714
I0
tp715
a(I1470
I1
I0
S'many'
p716
I0
tp717
a(I1623
I26
F1.0
S'good'
p718
I0
tp719
a(I1623
I30
F1.0
S'good'
p720
I0
tp721
a(I1633
I7
F-0.125
S'overall'
p722
I0
tp723
a(I1647
I25
F0.375
S'full'
p724
I0
tp725
a(I1651
I4
F1.0
S'good'
p726
I0
tp727
a(I1668
I9
F1.0
S'good'
p728
I0
tp729
a(I1683
I0
F1.0
S'good'
p730
I0
tp731
a(I1715
I5
F1.0
S'good'
p732
I0
tp733
a(I1769
I1
F1.0
S'good'
p734
I0
tp735
a(I1792
I1
F1.0
S'good'
p736
I0
tp737
a(I1840
I1
F0.875
S'awesome'
p738
I0
tp739
a(I1843
I4
F1.0
S'good'
p740
I0
tp741
as(S'superb'
p742
S'battery'
p743
S'backup'
p744
tp745
(lp746
(I856
I29
F0.875
S'superb'
p747
I0
tp748
a(I1174
I1
F0.875
S'superb'
p749
I0
tp750
a(I1227
I2
I0
S'n'
p751
I0
tp752
a(I437
I29
F0.875
S'superb'
p753
I0
tp754
a(I592
I0
F0.5
S'touch'
p755
I0
tp756
a(I634
I0
F0.5
S'dual'
p757
I0
tp758
a(I675
I0
F0.5
S'touch'
p759
I0
tp760
a(I942
I0
I0
S'zen'
p761
I0
tp762
a(I1169
I0
F0.25
S'standby'
p763
I0
tp764
a(I1381
I3
F-0.125
S'overall'
p765
I0
tp766
a(I1808
I17
F0.875
S'simple'
p767
I0
tp768
as(S'zenfone'
p769
g103
S'laser'
p770
tp771
(lp772
(I146
I27
F0.875
S'great'
p773
I0
tp774
a(I205
I1
F-0.875
S'smaller'
p775
I0
tp776
a(I206
I5
F1.0
S'best'
p777
I0
tp778
a(I442
I5
F-0.625
S'horrible'
p779
I0
tp780
a(I442
I5
I0
S'least'
p781
I0
tp782
a(I1079
I7
F1.0
S'good'
p783
I0
tp784
a(I1141
I1
I0
S'more'
p785
I0
tp786
a(I1472
I2
F0.5
S'true'
p787
I0
tp788
a(I1617
I9
F-0.625
S'double'
p789
I0
tp790
a(I146
I27
F0.875
g773
I0
tp791
a(I205
I1
F-0.875
g775
I0
tp792
a(I206
I5
F1.0
g777
I0
tp793
a(I442
I5
F-0.625
g779
I0
tp794
a(I442
I5
I0
g781
I0
tp795
a(I821
I3
F0.5
S'stable'
p796
I0
tp797
a(I821
I3
F0.625
S'smooth'
p798
I0
tp799
a(I1079
I7
F1.0
g783
I0
tp800
a(I1141
I1
I0
g785
I0
tp801
a(I1617
I9
F-0.625
g789
I0
tp802
a(I256
I0
F0.625
S'sexy'
p803
I0
tp804
a(I441
I5
F-0.625
S'other'
p805
I0
tp806
a(I442
I4
F-0.375
S'global'
p807
I0
tp808
a(I444
I3
F-0.5
S'disappointed'
p809
I0
tp810
a(I451
I0
F0.125
S'mobile'
p811
I0
tp812
a(I576
I11
F0.5
S'second'
p813
I0
tp814
a(I815
I12
F0.5
S'second'
p815
I0
tp816
a(I967
I1
F-0.625
S'last'
p817
I0
tp818
a(I1051
I0
I0
S'more'
p819
I0
tp820
a(I1217
I6
F1.0
S'good'
p821
I0
tp822
a(I1218
I0
I0
S'user'
p823
I0
tp824
a(I1219
I12
F0.75
S'wonderful'
p825
I0
tp826
a(I1472
I2
F0.5
g787
I0
tp827
a(I1483
I15
F0.875
S'brilliant'
p828
I0
tp829
a(I1529
I3
I0
S'u'
p830
I0
tp831
a(I140
I4
I0
S'autofocus'
p832
I0
tp833
a(I146
I27
F0.875
g773
I0
tp834
a(I189
I6
F-0.75
S'crappy'
p835
I0
tp836
a(I205
I1
F-0.875
g775
I0
tp837
a(I206
I5
F1.0
g777
I0
tp838
a(I442
I5
F-0.625
g779
I0
tp839
a(I442
I5
I0
g781
I0
tp840
a(I814
I5
F0.25
S'spectacular'
p841
I0
tp842
a(I821
I3
F0.5
g796
I0
tp843
a(I821
I3
F0.625
g798
I0
tp844
a(I1079
I7
F1.0
g783
I0
tp845
a(I1141
I1
I0
g785
I0
tp846
a(I1463
I1
F-0.625
S'new'
p847
I0
tp848
a(I1617
I9
F-0.625
g789
I0
tp849
as(S'average'
p850
tp851
(lp852
(I18
I2
F-0.625
S'average'
p853
I12
tp854
a(I18
I2
I0
S'below'
p855
I12
tp856
a(I133
I1
I0
S'above'
p857
I12
tp858
a(I154
I3
F-0.625
S'average'
p859
I12
tp860
a(I154
I3
I0
S'below'
p861
I12
tp862
a(I180
I5
F-0.125
S'overall'
p863
I12
tp864
a(I339
I0
I0
S'below'
p865
I12
tp866
a(I383
I3
I0
S'above'
p867
I12
tp868
a(I540
I11
I0
S'below'
p869
I12
tp870
a(I650
I1
I0
S'above'
p871
I12
tp872
a(I650
I1
F1.0
S'good'
p873
I12
tp874
a(I814
I0
I0
S'above'
p875
I12
tp876
a(I878
I4
F-0.625
S'average'
p877
I12
tp878
a(I878
I4
I0
S'below'
p879
I12
tp880
a(I1274
I6
F1.0
S'good'
p881
I12
tp882
a(I1274
I6
F0.125
S'mobile'
p883
I12
tp884
a(I1488
I19
F1.0
S'good'
p885
I12
tp886
a(I1488
I19
I0
S'above'
p887
I12
tp888
a(I1801
I1
I0
S'below'
p889
I12
tp890
as(S'speaker'
p891
tp892
(lp893
(I168
I0
F0.875
S'great'
p894
I16
tp895
a(I168
I0
F0.875
S'great'
p896
I16
tp897
a(I168
I0
F0.75
S'sound'
p898
I16
tp899
a(I289
I1
F-0.5
S'loud'
p900
I16
tp901
a(I289
I2
F-0.875
S'small'
p902
I16
tp903
a(I326
I16
I0
S's'
p904
I16
tp905
a(I347
I1
F1.0
S'good'
p906
I16
tp907
a(I377
I17
F1.0
S'better'
p908
I16
tp909
a(I610
I2
F1.0
S'good'
p910
I16
tp911
a(I638
I0
F1.0
S'good'
p912
I16
tp913
a(I641
I5
F-0.875
S'low'
p914
I16
tp915
a(I673
I1
F-0.875
S'low'
p916
I16
tp917
a(I734
I7
F-0.875
S'low'
p918
I16
tp919
a(I759
I52
F-0.5
S'loud'
p920
I16
tp921
a(I863
I1
F1.0
S'better'
p922
I16
tp923
a(I893
I5
F-0.5
S'loud'
p924
I16
tp925
a(I917
I0
F-0.5
S'loudest'
p926
I16
tp927
a(I922
I21
F-0.5
S'loud'
p928
I16
tp929
a(I939
I0
F-0.5
S'loud'
p930
I16
tp931
a(I1081
I1
F0.125
S'mobile'
p932
I16
tp933
a(I1081
I1
F-0.125
S'overall'
p934
I16
tp935
a(I1081
I1
F-0.625
S'average'
p936
I16
tp937
a(I1081
I1
F1.0
S'good'
p938
I16
tp939
a(I1081
I1
F-1.0
S'bad'
p940
I16
tp941
a(I1081
I1
F0.75
S'ear'
p942
I16
tp943
a(I1202
I3
F0.5
S'old'
p944
I16
tp945
a(I1533
I8
F1.0
S'good'
p946
I16
tp947
a(I1563
I3
F-0.25
S'external'
p948
I16
tp949
a(I1697
I2
F-0.25
S'i'
p950
I16
tp951
as(S'experience'
p952
tp953
(lp954
(I6
I3
F-0.375
S'same'
p955
I12
tp956
a(I48
I2
F0.875
S'nice'
p957
I12
tp958
a(I133
I13
F-0.625
S'joyful'
p959
I12
tp960
a(I134
I11
F1.0
S'good'
p961
I12
tp962
a(I145
I25
F1.0
S'best'
p963
I12
tp964
a(I204
I3
F0.625
S'smooth'
p965
I12
tp966
a(I326
I5
F0.875
S'amazing'
p967
I12
tp968
a(I437
I33
F0.5
S'personal'
p969
I12
tp970
a(I532
I0
F1.0
S'good'
p971
I12
tp972
a(I563
I16
F1.0
S'better'
p973
I12
tp974
a(I571
I3
F0.875
S'awesome'
p975
I12
tp976
a(I571
I6
I0
S'own'
p977
I12
tp978
a(I654
I13
F0.875
S'awesome'
p979
I12
tp980
a(I821
I8
F0.625
S'smooth'
p981
I12
tp982
a(I822
I21
F0.125
S'mobile'
p983
I12
tp984
a(I835
I1
I0
S'lag'
p985
I12
tp986
a(I835
I1
F-0.75
S'free'
p987
I12
tp988
a(I956
I2
F0.875
S'great'
p989
I12
tp990
a(I990
I5
F0.25
S'recent'
p991
I12
tp992
a(I1007
I1
F0.875
S'nice'
p993
I12
tp994
a(I1123
I2
F0.75
S'wonderful'
p995
I12
tp996
a(I1179
I10
F-0.125
S'overall'
p997
I12
tp998
a(I1179
I10
F-1.0
S'bad'
p999
I12
tp1000
a(I1256
I11
F1.0
S'best'
p1001
I12
tp1002
a(I1256
I11
I0
S'android'
p1003
I12
tp1004
a(I1482
I9
F-0.125
S'overall'
p1005
I12
tp1006
a(I1482
I9
F1.0
S'good'
p1007
I12
tp1008
a(I1524
I5
F-0.875
S'pathetic'
p1009
I12
tp1010
a(I1534
I0
F0.875
S'nice'
p1011
I12
tp1012
a(I1536
I0
F0.875
S'awesome'
p1013
I12
tp1014
a(I1623
I1
F0.875
S'awesome'
p1015
I12
tp1016
a(I1623
I9
F0.5
S'royal'
p1017
I12
tp1018
a(I1623
I9
F0.5
S'touch'
p1019
I12
tp1020
a(I1646
I2
F0.5
S'touch'
p1021
I12
tp1022
a(I1652
I3
F1.0
S'better'
p1023
I12
tp1024
a(I1670
I4
F0.875
S'awesome'
p1025
I12
tp1026
a(I1698
I1
F0.875
S'awesome'
p1027
I12
tp1028
a(I1726
I8
F1.0
S'good'
p1029
I12
tp1030
a(I1839
I6
F-0.125
S'overall'
p1031
I12
tp1032
a(I1839
I6
F1.0
S'good'
p1033
I12
tp1034
as(S'software'
p1035
tp1036
(lp1037
(I132
I19
F1.0
S'better'
p1038
I2
tp1039
a(I139
I9
I0
S'customised'
p1040
I2
tp1041
a(I139
I9
F1.0
S'good'
p1042
I2
tp1043
a(I139
I9
I0
S'lag'
p1044
I2
tp1045
a(I139
I9
F-0.75
S'free'
p1046
I2
tp1047
a(I317
I1
F-0.5
S'regular'
p1048
I2
tp1049
a(I444
I5
F1.0
S'good'
p1050
I2
tp1051
a(I444
I6
F0.25
S'recent'
p1052
I2
tp1053
a(I734
I8
F-0.375
S'various'
p1054
I2
tp1055
a(I946
I0
F-0.5
S'unwanted'
p1056
I2
tp1057
a(I1080
I1
I0
S'zen'
p1058
I2
tp1059
a(I1080
I1
F0.875
S'nice'
p1060
I2
tp1061
a(I1080
I2
F0.875
S'nice'
p1062
I2
tp1063
a(I1330
I1
F1.0
S'good'
p1064
I2
tp1065
a(I1466
I3
F-0.625
S'new'
p1066
I2
tp1067
a(I1538
I1
F0.75
S'easy'
p1068
I2
tp1069
a(I1573
I4
I0
S'update'
p1070
I2
tp1071
a(I1699
I24
I0
S'more'
p1072
I2
tp1073
a(I1734
I1
F1.0
S'good'
p1074
I2
tp1075
a(I1832
I0
F-0.75
S'warm'
p1076
I2
tp1077
as(S'reputed'
p1078
S'manufacturer'
p1079
tp1080
(lp1081
(I36
I2
I0
S'reputed'
p1082
I0
tp1083
a(I754
I2
I0
S'reputed'
p1084
I0
tp1085
a(I1437
I2
I0
S'reputed'
p1086
I0
tp1087
as(S'mode'
p1088
tp1089
(lp1090
(I39
I12
I0
S'light'
p1091
I13
tp1092
a(I39
I12
F0.75
S'perfect'
p1093
I13
tp1094
a(I115
I1
F0.5
S'safe'
p1095
I13
tp1096
a(I134
I10
F1.0
S'excellent'
p1097
I13
tp1098
a(I143
I0
F-0.125
S'sleep'
p1099
I13
tp1100
a(I185
I10
F0.5
S'safe'
p1101
I13
tp1102
a(I427
I6
I0
S'light'
p1103
I13
tp1104
a(I427
I6
F1.0
S'excellent'
p1105
I13
tp1106
a(I477
I0
F-0.125
S'sleep'
p1107
I13
tp1108
a(I814
I1
F0.5
S'high'
p1109
I13
tp1110
a(I822
I16
F-0.375
S'manual'
p1111
I13
tp1112
a(I822
I16
F1.0
S'good'
p1113
I13
tp1114
a(I909
I6
F0.75
S'easy'
p1115
I13
tp1116
a(I923
I6
F-0.375
S'manual'
p1117
I13
tp1118
a(I936
I1
F-0.375
S'manual'
p1119
I13
tp1120
a(I1178
I9
F-0.375
S'manual'
p1121
I13
tp1122
a(I1346
I1
F-0.625
S'other'
p1123
I13
tp1124
a(I1566
I0
F0.5
S'beauty'
p1125
I13
tp1126
a(I1566
I0
F-0.875
S'low'
p1127
I13
tp1128
a(I1566
I0
I0
S'light'
p1129
I13
tp1130
a(I1594
I0
F0.125
S'child'
p1131
I13
tp1132
a(I1652
I15
F-0.375
S'manual'
p1133
I13
tp1134
a(I1699
I9
F0.375
S'available'
p1135
I13
tp1136
a(I1808
I19
F-0.25
S'i'
p1137
I13
tp1138
a(I1808
I19
F-0.375
S'manual'
p1139
I13
tp1140
as(S'usage'
p1141
tp1142
(lp1143
(I39
I28
I0
S'normal'
p1144
I8
tp1145
a(I39
I28
F-0.625
S'last'
p1146
I8
tp1147
a(I51
I4
I0
S'normal'
p1148
I8
tp1149
a(I51
I4
F-0.5
S'heavy'
p1150
I8
tp1151
a(I51
I4
F-0.625
S'moderate'
p1152
I8
tp1153
a(I145
I28
I0
S'normal'
p1154
I8
tp1155
a(I197
I4
I0
S'normal'
p1156
I8
tp1157
a(I197
I4
F-0.5
S'heavy'
p1158
I8
tp1159
a(I197
I4
F-0.625
S'moderate'
p1160
I8
tp1161
a(I209
I4
F-0.5
S'heavy'
p1162
I8
tp1163
a(I216
I14
I0
S'normal'
p1164
I8
tp1165
a(I235
I0
F0.875
S'decent'
p1166
I8
tp1167
a(I253
I4
F-0.625
S'average'
p1168
I8
tp1169
a(I292
I0
F-0.25
S'ram'
p1170
I8
tp1171
a(I292
I0
F-0.75
S'free'
p1172
I8
tp1173
a(I311
I7
F-0.5
S'regular'
p1174
I8
tp1175
a(I349
I2
F-0.25
S'medium'
p1176
I8
tp1177
a(I351
I2
F-0.5
S'continuous'
p1178
I8
tp1179
a(I352
I17
F-0.5
S'heavy'
p1180
I8
tp1181
a(I354
I10
F-0.625
S'last'
p1182
I8
tp1183
a(I355
I0
F0.375
S'full'
p1184
I8
tp1185
a(I479
I0
I0
S'above'
p1186
I8
tp1187
a(I540
I17
F-0.5
S'regular'
p1188
I8
tp1189
a(I607
I1
F-0.5
S'heavy'
p1190
I8
tp1191
a(I640
I9
F-0.625
S'moderate'
p1192
I8
tp1193
a(I646
I2
I0
S'normal'
p1194
I8
tp1195
a(I676
I13
F-0.5
S'heavy'
p1196
I8
tp1197
a(I676
I24
F-0.5
S'heavy'
p1198
I8
tp1199
a(I679
I1
I0
S'normal'
p1200
I8
tp1201
a(I687
I4
I0
S'normal'
p1202
I8
tp1203
a(I855
I14
I0
S'normal'
p1204
I8
tp1205
a(I855
I14
F-0.625
S'last'
p1206
I8
tp1207
a(I880
I9
I0
S'normal'
p1208
I8
tp1209
a(I880
I9
F-0.625
S'last'
p1210
I8
tp1211
a(I956
I5
F-0.25
S'mixed'
p1212
I8
tp1213
a(I1233
I2
F-0.5
S'heavy'
p1214
I8
tp1215
a(I1312
I1
F0.5
S'daily'
p1216
I8
tp1217
a(I1362
I0
I0
S'normal'
p1218
I8
tp1219
a(I1412
I0
I0
S'android'
p1220
I8
tp1221
a(I1412
I0
F1.0
S'good'
p1222
I8
tp1223
a(I1412
I0
F-0.125
S'minimum'
p1224
I8
tp1225
a(I1477
I0
I0
S'normal'
p1226
I8
tp1227
a(I1661
I1
I0
S'normal'
p1228
I8
tp1229
a(I1661
I1
F-0.5
S'heavy'
p1230
I8
tp1231
a(I1686
I1
F-0.5
S'heavy'
p1232
I8
tp1233
a(I1733
I5
I0
S'normal'
p1234
I8
tp1235
a(I1766
I2
F-0.5
S'heavy'
p1236
I8
tp1237
a(I1811
I0
F-0.5
S'heavy'
p1238
I8
tp1239
a(I1827
I0
F-0.625
S'average'
p1240
I8
tp1241
as(S'gaming'
p1242
tp1243
(lp1244
(I474
I0
F1.0
S'best'
p1245
I5
tp1246
a(I759
I33
I0
S'normal'
p1247
I5
tp1248
a(I780
I2
F0.5
S'intensive'
p1249
I5
tp1250
a(I781
I1
F-0.625
S'average'
p1251
I5
tp1252
a(I1096
I13
F0.875
S'amazing'
p1253
I5
tp1254
a(I1096
I13
F1.0
S'good'
p1255
I5
tp1256
a(I1488
I6
F1.0
S'good'
p1257
I5
tp1258
as(S'love'
p1259
tp1260
(lp1261
(I1311
I2
F0.125
S'mobile'
p1262
I6
tp1263
as(S'volume'
p1264
tp1265
(lp1266
(I24
I1
F-0.875
S'low'
p1267
I2
tp1268
a(I39
I14
I0
S'rear'
p1269
I2
tp1270
a(I40
I13
F-0.75
S'little'
p1271
I2
tp1272
a(I80
I1
F1.0
S'good'
p1273
I2
tp1274
a(I228
I3
F-0.625
S'average'
p1275
I2
tp1276
a(I228
I3
F0.125
S'ring'
p1277
I2
tp1278
a(I228
I3
F0.5
S'high'
p1279
I2
tp1280
a(I264
I2
F-0.75
S'little'
p1281
I2
tp1282
a(I377
I10
I0
S'videos'
p1283
I2
tp1284
a(I377
I10
F0.875
S'superb'
p1285
I2
tp1286
a(I377
I16
F-0.875
S'low'
p1287
I2
tp1288
a(I430
I1
F-0.125
S'back'
p1289
I2
tp1290
a(I681
I1
F1.0
S'good'
p1291
I2
tp1292
a(I810
I0
F-0.75
S'little'
p1293
I2
tp1294
a(I810
I0
F-0.875
S'low'
p1295
I2
tp1296
a(I819
I1
F-0.75
S'sufficient'
p1297
I2
tp1298
a(I829
I4
F-0.875
S'low'
p1299
I2
tp1300
a(I856
I13
F-0.75
S'little'
p1301
I2
tp1302
a(I888
I13
F0.875
S'superb'
p1303
I2
tp1304
a(I924
I5
I0
S'speakerphone'
p1305
I2
tp1306
a(I980
I1
F-0.875
S'low'
p1307
I2
tp1308
a(I1219
I0
F-0.875
S'low'
p1309
I2
tp1310
a(I1386
I18
F-0.5
S'loud'
p1311
I2
tp1312
a(I1405
I0
F-0.75
S'little'
p1313
I2
tp1314
a(I1405
I0
F0.375
S'heated'
p1315
I2
tp1316
a(I1654
I0
F-0.75
S'little'
p1317
I2
tp1318
a(I1654
I0
F-0.5
S'less'
p1319
I2
tp1320
as(S'double'
p1321
S'tap'
p1322
tp1323
(lp1324
(I69
I8
F-0.625
S'double'
p1325
I0
tp1326
a(I88
I9
F-0.625
S'double'
p1327
I0
tp1328
a(I146
I9
F-0.625
S'double'
p1329
I0
tp1330
a(I168
I2
F-0.625
S'double'
p1331
I0
tp1332
a(I311
I24
F-0.625
S'double'
p1333
I0
tp1334
a(I326
I20
F-0.625
S'double'
p1335
I0
tp1336
a(I572
I20
F-0.625
S'double'
p1337
I0
tp1338
a(I572
I20
F-0.625
S'double'
p1339
I0
tp1340
a(I629
I0
F-0.625
S'double'
p1341
I0
tp1342
a(I728
I6
F-0.625
S'double'
p1343
I0
tp1344
a(I856
I29
F-0.625
S'double'
p1345
I0
tp1346
a(I856
I34
F-0.625
S'double'
p1347
I0
tp1348
a(I872
I14
F-0.625
S'double'
p1349
I0
tp1350
a(I909
I9
F-0.625
S'double'
p1351
I0
tp1352
a(I934
I0
F-0.625
S'double'
p1353
I0
tp1354
a(I1025
I1
F-0.625
S'double'
p1355
I0
tp1356
a(I1040
I5
F-0.625
S'double'
p1357
I0
tp1358
a(I1054
I5
F-0.625
S'double'
p1359
I0
tp1360
a(I1054
I5
F-0.625
S'double'
p1361
I0
tp1362
a(I1345
I1
F-0.625
S'double'
p1363
I0
tp1364
a(I1386
I11
F-0.625
S'double'
p1365
I0
tp1366
a(I1611
I2
F-0.625
S'double'
p1367
I0
tp1368
a(I1667
I4
F-0.625
S'double'
p1369
I0
tp1370
a(I1715
I4
F-0.625
S'double'
p1371
I0
tp1372
a(I1766
I7
F-0.625
S'double'
p1373
I0
tp1374
as(S'zen'
p1375
S'ui'
p1376
tp1377
(lp1378
(I39
I33
I0
S'zen'
p1379
I0
tp1380
a(I65
I0
F0.625
S'smooth'
p1381
I0
tp1382
a(I65
I0
F0.75
S'easy'
p1383
I0
tp1384
a(I132
I5
F0.75
S'due'
p1385
I0
tp1386
a(I201
I3
F1.0
S'best'
p1387
I0
tp1388
a(I253
I6
F1.0
S'best'
p1389
I0
tp1390
a(I253
I6
I0
S'user'
p1391
I0
tp1392
a(I253
I6
F0.75
S'easy'
p1393
I0
tp1394
a(I326
I19
F0.875
S'superb'
p1395
I0
tp1396
a(I326
I19
I0
S'many'
p1397
I0
tp1398
a(I384
I1
F1.0
S'best'
p1399
I0
tp1400
a(I441
I0
I0
S'minimal'
p1401
I0
tp1402
a(I459
I1
F0.625
S'smooth'
p1403
I0
tp1404
a(I476
I5
F-0.625
S'other'
p1405
I0
tp1406
a(I581
I1
F1.0
S'good'
p1407
I0
tp1408
a(I598
I6
F0.875
S'great'
p1409
I0
tp1410
a(I683
I1
F1.0
S'good'
p1411
I0
tp1412
a(I759
I32
F1.0
S'good'
p1413
I0
tp1414
a(I814
I7
F1.0
S'good'
p1415
I0
tp1416
a(I855
I19
I0
S'zen'
p1417
I0
tp1418
a(I909
I1
F-0.625
S'new'
p1419
I0
tp1420
a(I909
I4
F0.875
S'great'
p1421
I0
tp1422
a(I935
I0
F0.875
S'nice'
p1423
I0
tp1424
a(I1131
I13
F0.5
S'efficient'
p1425
I0
tp1426
a(I1131
I13
I0
S'zen'
p1427
I0
tp1428
a(I1329
I6
F1.0
S'best'
p1429
I0
tp1430
a(I1377
I16
F1.0
S'good'
p1431
I0
tp1432
a(I1483
I19
F1.0
S'excellent'
p1433
I0
tp1434
a(I1562
I2
F0.25
S'intuitive'
p1435
I0
tp1436
as(S'no'
p1437
S'heating'
p1438
S'issue'
p1439
tp1440
(lp1441
(I383
I1
F0.375
S'heating'
p1442
I0
tp1443
a(I663
I1
F-0.625
S'other'
p1444
I0
tp1445
a(I665
I3
I0
S'more'
p1446
I0
tp1447
a(I820
I6
F0.375
S'heating'
p1448
I0
tp1449
a(I879
I0
F1.0
S'good'
p1450
I0
tp1451
a(I893
I13
F0.375
S'heating'
p1452
I0
tp1453
a(I905
I11
F0.375
S'heating'
p1454
I0
tp1455
a(I905
I11
I0
S'clear'
p1456
I0
tp1457
a(I1213
I1
F0.375
S'heating'
p1458
I0
tp1459
a(I1213
I1
F1.0
S'good'
p1460
I0
tp1461
a(I1216
I3
F1.0
S'good'
p1462
I0
tp1463
a(I1337
I20
F0.375
S'heating'
p1464
I0
tp1465
a(I1395
I3
F0.375
S'heating'
p1466
I0
tp1467
a(I1536
I2
F-0.125
S'flaws'
p1468
I0
tp1469
a(I133
I23
F0.375
S'heating'
p1470
I2
tp1471
a(I150
I1
I0
S'wifi'
p1472
I2
tp1473
a(I383
I1
F0.375
g1442
I2
tp1474
a(I429
I4
F0.75
S'due'
p1475
I2
tp1476
a(I429
I4
F-0.875
S'severe'
p1477
I2
tp1478
a(I663
I1
F-0.625
g1444
I2
tp1479
a(I665
I3
I0
g1446
I2
tp1480
a(I820
I6
F0.375
g1448
I2
tp1481
a(I879
I0
F1.0
g1450
I2
tp1482
a(I893
I13
F0.375
g1452
I2
tp1483
a(I905
I11
F0.375
g1454
I2
tp1484
a(I905
I11
I0
g1456
I2
tp1485
a(I1213
I1
F0.375
g1458
I2
tp1486
a(I1213
I1
F1.0
g1460
I2
tp1487
a(I1216
I3
F1.0
g1462
I2
tp1488
a(I1337
I20
F0.375
g1464
I2
tp1489
a(I1395
I3
F0.375
g1466
I2
tp1490
a(I1536
I2
F-0.125
g1468
I2
tp1491
as(S'in'
p1492
S'low'
p1493
S'light'
p1494
tp1495
(lp1496
(I8
I1
F-0.875
S'low'
p1497
I2
tp1498
a(I49
I1
F-0.875
S'low'
p1499
I2
tp1500
a(I65
I1
F-0.875
S'low'
p1501
I2
tp1502
a(I65
I1
F1.0
S'good'
p1503
I2
tp1504
a(I77
I0
F-0.875
S'low'
p1505
I2
tp1506
a(I146
I20
F-0.875
S'low'
p1507
I2
tp1508
a(I146
I20
I0
S'grainy'
p1509
I2
tp1510
a(I288
I1
F-0.875
S'low'
p1511
I2
tp1512
a(I341
I0
F-0.875
S'low'
p1513
I2
tp1514
a(I343
I5
F-0.875
S'low'
p1515
I2
tp1516
a(I343
I5
F1.0
S'good'
p1517
I2
tp1518
a(I352
I7
F1.0
S'good'
p1519
I2
tp1520
a(I352
I7
F-0.875
S'low'
p1521
I2
tp1522
a(I534
I10
F-0.875
S'low'
p1523
I2
tp1524
a(I557
I3
F-0.875
S'low'
p1525
I2
tp1526
a(I579
I9
F-0.875
S'low'
p1527
I2
tp1528
a(I640
I3
F-0.875
S'low'
p1529
I2
tp1530
a(I703
I7
F-0.875
S'low'
p1531
I2
tp1532
a(I856
I32
F-0.875
S'low'
p1533
I2
tp1534
a(I923
I4
F-0.875
S'low'
p1535
I2
tp1536
a(I1141
I0
F-0.875
S'low'
p1537
I2
tp1538
a(I1275
I7
F-0.875
S'low'
p1539
I2
tp1540
a(I1377
I2
F-0.875
S'low'
p1541
I2
tp1542
a(I1580
I0
F-0.875
S'low'
p1543
I2
tp1544
a(I1580
I0
F1.0
S'good'
p1545
I2
tp1546
a(I1631
I13
F-0.875
S'low'
p1547
I2
tp1548
a(I1731
I2
F-0.875
S'low'
p1549
I2
tp1550
a(I1731
I2
F1.0
S'good'
p1551
I2
tp1552
a(I1737
I5
F-0.875
S'low'
p1553
I2
tp1554
a(I1808
I6
F-0.875
S'low'
p1555
I2
tp1556
a(I8
I1
F-0.875
g1497
I2
tp1557
a(I49
I1
F-0.875
g1499
I2
tp1558
a(I65
I1
F-0.875
g1501
I2
tp1559
a(I65
I1
F1.0
g1503
I2
tp1560
a(I77
I0
F-0.875
g1505
I2
tp1561
a(I146
I20
F-0.875
g1507
I2
tp1562
a(I146
I20
I0
g1509
I2
tp1563
a(I163
I0
F-0.875
S'low'
p1564
I2
tp1565
a(I288
I1
F-0.875
g1511
I2
tp1566
a(I341
I0
F-0.875
g1513
I2
tp1567
a(I343
I5
F-0.875
g1515
I2
tp1568
a(I343
I5
F1.0
g1517
I2
tp1569
a(I352
I7
F1.0
g1519
I2
tp1570
a(I352
I7
F-0.875
g1521
I2
tp1571
a(I484
I1
F-0.875
S'low'
p1572
I2
tp1573
a(I534
I10
F-0.875
g1523
I2
tp1574
a(I557
I3
F-0.875
g1525
I2
tp1575
a(I579
I9
F-0.875
g1527
I2
tp1576
a(I640
I3
F-0.875
g1529
I2
tp1577
a(I676
I12
F-0.875
S'low'
p1578
I2
tp1579
a(I703
I7
F-0.875
g1531
I2
tp1580
a(I776
I1
F-0.875
S'low'
p1581
I2
tp1582
a(I814
I5
F-0.875
S'low'
p1583
I2
tp1584
a(I856
I32
F-0.875
g1533
I2
tp1585
a(I923
I4
F-0.875
g1535
I2
tp1586
a(I1131
I4
F0.5
S'slight'
p1587
I2
tp1588
a(I1131
I4
I0
S'yellowish'
p1589
I2
tp1590
a(I1141
I0
F-0.875
g1537
I2
tp1591
a(I1275
I7
F-0.875
g1539
I2
tp1592
a(I1377
I2
F-0.875
g1541
I2
tp1593
a(I1580
I0
F-0.875
g1543
I2
tp1594
a(I1580
I0
F1.0
g1545
I2
tp1595
a(I1631
I13
F-0.875
g1547
I2
tp1596
a(I1731
I2
F-0.875
g1549
I2
tp1597
a(I1731
I2
F1.0
g1551
I2
tp1598
a(I1737
I5
F-0.875
g1553
I2
tp1599
a(I1808
I6
F-0.875
g1555
I2
tp1600
a(I8
I1
F-0.875
g1497
I14
tp1601
a(I49
I1
F-0.875
g1499
I14
tp1602
a(I65
I1
F-0.875
g1501
I14
tp1603
a(I65
I1
F1.0
g1503
I14
tp1604
a(I77
I0
F-0.875
g1505
I14
tp1605
a(I132
I11
F0.125
S'ample'
p1606
I14
tp1607
a(I139
I8
F-0.625
S'red'
p1608
I14
tp1609
a(I139
I8
F-0.75
S'green'
p1610
I14
tp1611
a(I146
I20
F-0.875
g1507
I14
tp1612
a(I146
I20
I0
g1509
I14
tp1613
a(I154
I1
F0.25
S'deem'
p1614
I14
tp1615
a(I154
I1
F-0.75
S'artificial'
p1616
I14
tp1617
a(I163
I0
F-0.875
g1564
I14
tp1618
a(I219
I1
F0.25
S'deem'
p1619
I14
tp1620
a(I219
I1
F-0.75
S'artificial'
p1621
I14
tp1622
a(I219
I5
F-0.125
S'back'
p1623
I14
tp1624
a(I288
I1
F-0.875
g1511
I14
tp1625
a(I341
I0
F-0.875
g1513
I14
tp1626
a(I343
I5
F-0.875
g1515
I14
tp1627
a(I343
I5
F1.0
g1517
I14
tp1628
a(I352
I7
F1.0
g1519
I14
tp1629
a(I352
I7
F-0.875
g1521
I14
tp1630
a(I484
I1
F-0.875
g1572
I14
tp1631
a(I534
I10
F-0.875
g1523
I14
tp1632
a(I557
I3
F-0.875
g1525
I14
tp1633
a(I579
I3
F1.0
S'good'
p1634
I14
tp1635
a(I579
I9
F-0.875
g1527
I14
tp1636
a(I640
I3
F-0.875
g1529
I14
tp1637
a(I674
I7
F0.625
S'led'
p1638
I14
tp1639
a(I676
I12
F-0.875
g1578
I14
tp1640
a(I703
I7
F-0.875
g1531
I14
tp1641
a(I776
I1
F-0.875
g1581
I14
tp1642
a(I814
I5
F-0.875
g1583
I14
tp1643
a(I856
I32
F-0.875
g1533
I14
tp1644
a(I923
I4
F-0.875
g1535
I14
tp1645
a(I956
I11
F-0.625
S'natural'
p1646
I14
tp1647
a(I956
I18
I0
S'sensor'
p1648
I14
tp1649
a(I1131
I4
F0.5
g1587
I14
tp1650
a(I1131
I4
I0
g1589
I14
tp1651
a(I1141
I0
F-0.875
g1537
I14
tp1652
a(I1275
I7
F-0.875
g1539
I14
tp1653
a(I1377
I2
F-0.875
g1541
I14
tp1654
a(I1580
I0
F-0.875
g1543
I14
tp1655
a(I1580
I0
F1.0
g1545
I14
tp1656
a(I1631
I13
F-0.875
g1547
I14
tp1657
a(I1670
I7
F1.0
S'good'
p1658
I14
tp1659
a(I1670
I7
F1.0
S'good'
p1660
I14
tp1661
a(I1731
I2
F-0.875
g1549
I14
tp1662
a(I1731
I2
F1.0
g1551
I14
tp1663
a(I1737
I5
F-0.875
g1553
I14
tp1664
a(I1808
I6
F-0.875
g1555
I14
tp1665
as(S'laser'
p1666
S'auto'
p1667
S'focus'
p1668
tp1669
(lp1670
(I51
I12
F-0.625
S'fast'
p1671
I0
tp1672
a(I88
I4
I0
S'quick'
p1673
I0
tp1674
a(I140
I4
I0
g832
I0
tp1675
a(I197
I12
F-0.625
S'fast'
p1676
I0
tp1677
a(I579
I6
I0
S'laser'
p1678
I0
tp1679
a(I579
I6
F0.875
S'great'
p1680
I0
tp1681
a(I579
I7
I0
S'laser'
p1682
I0
tp1683
a(I815
I7
F0.875
S'nice'
p1684
I0
tp1685
a(I815
I7
I0
S'quick'
p1686
I0
tp1687
a(I1623
I15
I0
S'laser'
p1688
I0
tp1689
a(I1662
I4
F-0.625
S'fast'
p1690
I0
tp1691
a(I1763
I7
I0
S'laser'
p1692
I0
tp1693
a(I39
I2
F0.875
S'simple'
p1694
I7
tp1695
a(I39
I16
F0.125
S'mobile'
p1696
I7
tp1697
a(I39
I16
I0
S'zen'
p1698
I7
tp1699
a(I40
I3
F0.875
S'happy'
p1700
I7
tp1701
a(I111
I2
I0
S'laser'
p1702
I7
tp1703
a(I199
I2
F0.875
S'simple'
p1704
I7
tp1705
a(I259
I1
F1.0
S'good'
p1706
I7
tp1707
a(I577
I4
F0.25
S'prevent'
p1708
I7
tp1709
a(I579
I6
I0
g1678
I7
tp1710
a(I579
I7
I0
g1682
I7
tp1711
a(I757
I2
F0.875
S'simple'
p1712
I7
tp1713
a(I776
I3
F0.5
S'accurate'
p1714
I7
tp1715
a(I815
I7
F0.875
g1684
I7
tp1716
a(I815
I7
I0
g1686
I7
tp1717
a(I856
I3
F0.875
S'happy'
p1718
I7
tp1719
a(I1440
I2
F0.875
S'simple'
p1720
I7
tp1721
a(I1623
I15
I0
g1688
I7
tp1722
a(I1763
I7
I0
g1692
I7
tp1723
as(S'pre'
p1724
S'installed'
p1725
S'apps'
p1726
tp1727
(lp1728
(I18
I21
I0
S'many'
p1729
I0
tp1730
a(I55
I1
F-0.375
S'various'
p1731
I0
tp1732
a(I219
I7
I0
S'more'
p1733
I0
tp1734
a(I326
I19
I0
S'useful'
p1735
I0
tp1736
a(I640
I6
I0
S'useful'
p1737
I0
tp1738
a(I656
I1
F-0.375
S'various'
p1739
I0
tp1740
a(I759
I62
I0
S'many'
p1741
I0
tp1742
a(I829
I1
I0
S'many'
p1743
I0
tp1744
a(I880
I16
I0
S'many'
p1745
I0
tp1746
a(I1152
I0
F-0.375
S'various'
p1747
I0
tp1748
a(I1419
I1
F-0.375
S'various'
p1749
I0
tp1750
a(I1483
I28
F0.75
S'due'
p1751
I0
tp1752
a(I1483
I28
F-0.5
S'slow'
p1753
I0
tp1754
a(I1619
I12
F-0.5
S'unwanted'
p1755
I0
tp1756
a(I18
I21
I0
g1729
I4
tp1757
a(I39
I16
F-0.5
S'unwanted'
p1758
I4
tp1759
a(I69
I30
F-0.625
S'useless'
p1760
I4
tp1761
a(I132
I23
I0
S'most'
p1762
I4
tp1763
a(I201
I1
I0
S'inbuilt'
p1764
I4
tp1765
a(I219
I7
I0
g1733
I4
tp1766
a(I273
I1
I0
S'useful'
p1767
I4
tp1768
a(I326
I19
I0
g1735
I4
tp1769
a(I442
I0
F0.75
S'fair'
p1770
I4
tp1771
a(I478
I1
F0.125
S'mobile'
p1772
I4
tp1773
a(I489
I8
I0
S'multiple'
p1774
I4
tp1775
a(I517
I9
F-0.375
S'various'
p1776
I4
tp1777
a(I568
I3
F-0.75
S'open'
p1778
I4
tp1779
a(I581
I2
I0
S'many'
p1780
I4
tp1781
a(I581
I3
F0.125
S'frequent'
p1782
I4
tp1783
a(I581
I4
F-0.625
S'new'
p1784
I4
tp1785
a(I600
I1
I0
S'many'
p1786
I4
tp1787
a(I640
I6
I0
g1737
I4
tp1788
a(I641
I9
F0.5
S'similar'
p1789
I4
tp1790
a(I641
I9
F0.25
S'lots'
p1791
I4
tp1792
a(I759
I62
I0
g1741
I4
tp1793
a(I777
I2
I0
S'inbuilt'
p1794
I4
tp1795
a(I798
I3
I0
S'many'
p1796
I4
tp1797
a(I798
I3
F-0.625
S'useless'
p1798
I4
tp1799
a(I829
I1
I0
g1743
I4
tp1800
a(I880
I16
I0
g1745
I4
tp1801
a(I909
I8
I0
S'useful'
p1802
I4
tp1803
a(I948
I0
F-0.5
S'unwanted'
p1804
I4
tp1805
a(I980
I2
F-0.875
S'small'
p1806
I4
tp1807
a(I1007
I6
F-0.5
S'separate'
p1808
I4
tp1809
a(I1019
I0
I0
S'multiple'
p1810
I4
tp1811
a(I1020
I0
F0.375
S'unnecessarily'
p1812
I4
tp1813
a(I1020
I0
I0
S'updated'
p1814
I4
tp1815
a(I1020
I3
I0
S'useful'
p1816
I4
tp1817
a(I1039
I2
F-0.5
S'unwanted'
p1818
I4
tp1819
a(I1057
I0
I0
S'net'
p1820
I4
tp1821
a(I1063
I5
F-0.75
S'ugly'
p1822
I4
tp1823
a(I1075
I13
F0.5
S'internal'
p1824
I4
tp1825
a(I1135
I0
F0.625
S'necessary'
p1826
I4
tp1827
a(I1226
I2
I0
S'many'
p1828
I4
tp1829
a(I1329
I5
F0.875
S'nice'
p1830
I4
tp1831
a(I1371
I2
I0
S'more'
p1832
I4
tp1833
a(I1405
I12
I0
S'built'
p1834
I4
tp1835
a(I1405
I12
I0
S'more'
p1836
I4
tp1837
a(I1413
I7
I0
S'inbuilt'
p1838
I4
tp1839
a(I1477
I1
F-0.5
S'unwanted'
p1840
I4
tp1841
a(I1483
I28
F0.75
g1751
I4
tp1842
a(I1483
I28
F-0.5
g1753
I4
tp1843
a(I1538
I1
F0.25
S'worth'
p1844
I4
tp1845
a(I1580
I1
F-0.5
S'heavy'
p1846
I4
tp1847
a(I1580
I1
F-0.875
S'smart'
p1848
I4
tp1849
a(I1605
I4
I0
S'more'
p1850
I4
tp1851
a(I1619
I12
F-0.5
g1755
I4
tp1852
a(I1631
I11
F0.75
S'due'
p1853
I4
tp1854
a(I1646
I0
I0
S'own'
p1855
I4
tp1856
a(I1670
I5
F-0.625
S'new'
p1857
I4
tp1858
a(I1698
I4
F-0.5
S'unwanted'
p1859
I4
tp1860
a(I1705
I5
I0
S'many'
p1861
I4
tp1862
a(I1762
I6
I0
S'most'
p1863
I4
tp1864
a(I1762
I6
I0
S'unnecessary'
p1865
I4
tp1866
a(I1762
I10
I0
S'installed'
p1867
I4
tp1868
a(I1808
I9
I0
S'own'
p1869
I4
tp1870
as(S'build'
p1871
S'quality'
p1872
tp1873
(lp1874
(I40
I20
F1.0
S'good'
p1875
I2
tp1876
a(I51
I21
I0
S'build'
p1877
I2
tp1878
a(I51
I21
F1.0
S'good'
p1879
I2
tp1880
a(I69
I25
I0
S'build'
p1881
I2
tp1882
a(I110
I11
F0.875
S'solid'
p1883
I2
tp1884
a(I143
I9
F-0.625
S'last'
p1885
I2
tp1886
a(I143
I9
I0
S'build'
p1887
I2
tp1888
a(I165
I0
F1.0
S'good'
p1889
I2
tp1890
a(I197
I21
I0
S'build'
p1891
I2
tp1892
a(I197
I21
F1.0
S'good'
p1893
I2
tp1894
a(I217
I11
I0
S'build'
p1895
I2
tp1896
a(I217
I11
F1.0
S'good'
p1897
I2
tp1898
a(I320
I2
F1.0
S'better'
p1899
I2
tp1900
a(I386
I1
F1.0
S'good'
p1901
I2
tp1902
a(I427
I7
F1.0
S'good'
p1903
I2
tp1904
a(I427
I11
I0
S'build'
p1905
I2
tp1906
a(I449
I15
I0
S'build'
p1907
I2
tp1908
a(I572
I2
F1.0
S'good'
p1909
I2
tp1910
a(I653
I0
F1.0
S'good'
p1911
I2
tp1912
a(I759
I43
F1.0
S'good'
p1913
I2
tp1914
a(I802
I3
I0
S'build'
p1915
I2
tp1916
a(I802
I3
F0.875
S'great'
p1917
I2
tp1918
a(I821
I4
I0
S'build'
p1919
I2
tp1920
a(I856
I20
F1.0
S'good'
p1921
I2
tp1922
a(I870
I1
I0
S'build'
p1923
I2
tp1924
a(I870
I1
F0.75
S'outstanding'
p1925
I2
tp1926
a(I957
I19
F1.0
S'excellent'
p1927
I2
tp1928
a(I957
I19
I0
S'build'
p1929
I2
tp1930
a(I957
I19
F0.5
S'stylish'
p1931
I2
tp1932
a(I997
I13
F0.875
S'superb'
p1933
I2
tp1934
a(I1020
I2
F1.0
S'good'
p1935
I2
tp1936
a(I1020
I2
F1.0
S'good'
p1937
I2
tp1938
a(I1094
I2
F1.0
S'good'
p1939
I2
tp1940
a(I1573
I14
F1.0
S'good'
p1941
I2
tp1942
a(I1663
I1
I0
S'build'
p1943
I2
tp1944
a(I1663
I1
F1.0
S'good'
p1945
I2
tp1946
a(I1670
I6
F0.875
S'great'
p1947
I2
tp1948
a(I1699
I22
F1.0
S'good'
p1949
I2
tp1950
a(I1772
I4
F1.0
S'excellent'
p1951
I2
tp1952
a(I1800
I0
I0
S'build'
p1953
I2
tp1954
as(S'1'
p1955
g381
S'days'
p1956
tp1957
(lp1958
(I354
I10
F0.375
S'full'
p1959
I0
tp1960
a(I654
I3
F-0.625
S'last'
p1961
I0
tp1962
a(I1754
I0
F0.875
S'happy'
p1963
I0
tp1964
a(I354
I10
F0.375
g1959
I2
tp1965
a(I397
I0
F-0.5
S'continuous'
p1966
I2
tp1967
a(I576
I14
F0.875
S'decent'
p1968
I2
tp1969
a(I654
I3
F-0.625
g1961
I2
tp1970
a(I773
I4
F0.375
S'much'
p1971
I2
tp1972
a(I1754
I0
F0.875
g1963
I2
tp1973
as(S'go'
p1974
S'for'
p1975
S'asus'
p1976
tp1977
(lp1978
(I56
I1
F1.0
S'excellent'
p1979
I0
tp1980
a(I657
I1
F1.0
S'excellent'
p1981
I0
tp1982
a(I1420
I1
F1.0
S'excellent'
p1983
I0
tp1984
as(S'power'
p1985
tp1986
(lp1987
(I180
I2
F0.625
S'super'
p1988
I5
tp1989
a(I259
I3
F0.125
S'key'
p1990
I5
tp1991
a(I563
I4
F0.625
S'super'
p1992
I5
tp1993
a(I611
I0
F-0.625
S'other'
p1994
I5
tp1995
a(I611
I0
F0.5
S'very'
p1996
I5
tp1997
a(I611
I0
F0.875
S'nice'
p1998
I5
tp1999
a(I1018
I0
F-0.25
S'drain'
p2000
I5
tp2001
a(I1039
I2
I0
S'additional'
p2002
I5
tp2003
a(I1279
I8
F1.0
S'good'
p2004
I5
tp2005
a(I1279
I8
F-0.625
S'other'
p2006
I5
tp2007
a(I1623
I16
F0.375
S'much'
p2008
I5
tp2009
a(I1623
I16
F-0.25
S'battery'
p2010
I5
tp2011
as(S'months'
p2012
tp2013
(lp2014
(I435
I11
F1.0
S'good'
p2015
I7
tp2016
a(I478
I0
F-0.625
S'last'
p2017
I7
tp2018
a(I482
I0
F-0.5
S'sudden'
p2019
I7
tp2020
a(I494
I0
F0.125
S'mobile'
p2021
I7
tp2022
a(I557
I9
F-0.625
S'last'
p2023
I7
tp2024
a(I650
I0
F-0.125
S'such'
p2025
I7
tp2026
a(I990
I4
F0.875
S'happy'
p2027
I7
tp2028
a(I1132
I3
I0
S't'
p2029
I7
tp2030
a(I1166
I1
F-0.25
S'past'
p2031
I7
tp2032
a(I1167
I5
F0.125
S'mobile'
p2033
I7
tp2034
a(I1170
I3
I0
S'few'
p2035
I7
tp2036
a(I1234
I7
F-0.625
S'last'
p2037
I7
tp2038
a(I1257
I0
F-0.625
S'last'
p2039
I7
tp2040
a(I1280
I1
I0
S'few'
p2041
I7
tp2042
a(I1290
I0
F-0.25
S'past'
p2043
I7
tp2044
a(I1322
I1
F-0.625
S'last'
p2045
I7
tp2046
a(I1337
I16
F-0.625
S'last'
p2047
I7
tp2048
a(I1359
I0
I0
S'few'
p2049
I7
tp2050
a(I1448
I5
F-0.25
S'past'
p2051
I7
tp2052
a(I1465
I16
F-0.625
S'last'
p2053
I7
tp2054
a(I1616
I4
I0
S'more'
p2055
I7
tp2056
a(I1628
I0
F-0.625
S'last'
p2057
I7
tp2058
a(I1699
I18
I0
S'few'
p2059
I7
tp2060
a(I1808
I12
F-0.625
S'last'
p2061
I7
tp2062
a(I1808
I12
I0
S't'
p2063
I7
tp2064
a(I1843
I1
F-0.25
S'i'
p2065
I7
tp2066
as(S'good'
p2067
S'front'
p2068
S'camera'
p2069
tp2070
(lp2071
(I140
I5
F1.0
S'good'
p2072
I0
tp2073
a(I172
I0
F1.0
S'good'
p2074
I0
tp2075
a(I287
I2
F1.0
S'good'
p2076
I0
tp2077
a(I437
I5
F1.0
S'good'
p2078
I0
tp2079
a(I470
I1
F1.0
S'good'
p2080
I0
tp2081
a(I490
I15
F-0.125
S'front'
p2082
I0
tp2083
a(I540
I9
F1.0
S'good'
p2084
I0
tp2085
a(I579
I3
F-0.125
S'front'
p2086
I0
tp2087
a(I579
I3
F0.875
S'great'
p2088
I0
tp2089
a(I637
I3
F1.0
S'good'
p2090
I0
tp2091
a(I674
I11
I0
S'rear'
p2092
I0
tp2093
a(I678
I1
F1.0
S'good'
p2094
I0
tp2095
a(I701
I0
F1.0
S'good'
p2096
I0
tp2097
a(I893
I2
F1.0
S'good'
p2098
I0
tp2099
a(I893
I2
I0
S'rear'
p2100
I0
tp2101
a(I1083
I2
F1.0
S'good'
p2102
I0
tp2103
a(I1083
I2
I0
S'rear'
p2104
I0
tp2105
a(I1117
I1
I0
S'rear'
p2106
I0
tp2107
a(I1117
I1
F1.0
S'good'
p2108
I0
tp2109
a(I1117
I1
F-0.125
S'front'
p2110
I0
tp2111
a(I1133
I2
F1.0
S'good'
p2112
I0
tp2113
a(I1206
I0
F1.0
S'good'
p2114
I0
tp2115
a(I1212
I1
F1.0
S'good'
p2116
I0
tp2117
a(I1377
I20
F1.0
S'good'
p2118
I0
tp2119
a(I1391
I1
F-0.125
S'front'
p2120
I0
tp2121
a(I1412
I1
F1.0
S'good'
p2122
I0
tp2123
a(I1631
I24
F1.0
S'good'
p2124
I0
tp2125
a(I1635
I6
F-0.125
S'front'
p2126
I0
tp2127
a(I1635
I6
F1.0
S'good'
p2128
I0
tp2129
a(I1682
I1
F1.0
S'good'
p2130
I0
tp2131
a(I1699
I9
F1.0
S'good'
p2132
I0
tp2133
a(I1699
I9
F1.0
S'good'
p2134
I0
tp2135
a(I1699
I9
F-0.125
S'front'
p2136
I0
tp2137
a(I26
I0
F0.25
S'able'
p2138
I6
tp2139
a(I115
I0
F-0.5
S'sudden'
p2140
I6
tp2141
a(I140
I5
F1.0
g2072
I6
tp2142
a(I140
I6
I0
S'clear'
p2143
I6
tp2144
a(I140
I6
F-0.125
S'front'
p2145
I6
tp2146
a(I145
I0
F-0.75
S'appreciative'
p2147
I6
tp2148
a(I159
I2
F0.625
S'okay'
p2149
I6
tp2150
a(I172
I0
F1.0
g2074
I6
tp2151
a(I272
I2
F1.0
S'excellent'
p2152
I6
tp2153
a(I287
I2
F1.0
g2076
I6
tp2154
a(I365
I0
I0
S'pretty'
p2155
I6
tp2156
a(I365
I0
F0.875
S'decent'
p2157
I6
tp2158
a(I365
I0
F-0.125
S'front'
p2159
I6
tp2160
a(I437
I5
F1.0
g2078
I6
tp2161
a(I470
I1
F1.0
g2080
I6
tp2162
a(I485
I2
F0.875
S'awesome'
p2163
I6
tp2164
a(I490
I15
F-0.125
g2082
I6
tp2165
a(I502
I5
F-0.125
S'front'
p2166
I6
tp2167
a(I502
I31
F0.375
S'ok'
p2168
I6
tp2169
a(I540
I9
F1.0
g2084
I6
tp2170
a(I563
I16
F-0.125
S'front'
p2171
I6
tp2172
a(I563
I16
F1.0
S'excellent'
p2173
I6
tp2174
a(I579
I3
F-0.125
g2086
I6
tp2175
a(I579
I3
F0.875
g2088
I6
tp2176
a(I579
I9
F-0.125
S'front'
p2177
I6
tp2178
a(I637
I3
F1.0
g2090
I6
tp2179
a(I642
I9
I0
S'main'
p2180
I6
tp2181
a(I658
I1
F-0.125
S'front'
p2182
I6
tp2183
a(I674
I11
I0
g2092
I6
tp2184
a(I678
I1
F1.0
g2094
I6
tp2185
a(I701
I0
F1.0
g2096
I6
tp2186
a(I724
I9
F-0.125
S'front'
p2187
I6
tp2188
a(I724
I9
F-0.625
S'wide'
p2189
I6
tp2190
a(I724
I9
F-0.625
S'sharp'
p2191
I6
tp2192
a(I776
I7
F0.875
S'nice'
p2193
I6
tp2194
a(I791
I6
F-0.125
S'front'
p2195
I6
tp2196
a(I791
I6
I0
S'rear'
p2197
I6
tp2198
a(I791
I6
F1.0
S'better'
p2199
I6
tp2200
a(I855
I1
F-0.125
S'front'
p2201
I6
tp2202
a(I893
I2
F1.0
g2098
I6
tp2203
a(I893
I2
I0
g2100
I6
tp2204
a(I959
I1
F-0.125
S'front'
p2205
I6
tp2206
a(I962
I2
F-0.125
S'front'
p2207
I6
tp2208
a(I962
I2
F1.0
S'excellent'
p2209
I6
tp2210
a(I1083
I2
F1.0
g2102
I6
tp2211
a(I1083
I2
I0
g2104
I6
tp2212
a(I1106
I10
F0.625
S'alright'
p2213
I6
tp2214
a(I1117
I1
I0
g2106
I6
tp2215
a(I1117
I1
F1.0
g2108
I6
tp2216
a(I1117
I1
F-0.125
g2110
I6
tp2217
a(I1133
I2
F1.0
g2112
I6
tp2218
a(I1154
I1
F1.0
S'better'
p2219
I6
tp2220
a(I1206
I0
F1.0
g2114
I6
tp2221
a(I1212
I1
F1.0
g2116
I6
tp2222
a(I1273
I2
F-0.125
S'front'
p2223
I6
tp2224
a(I1347
I1
I0
S'cool'
p2225
I6
tp2226
a(I1377
I20
F1.0
g2118
I6
tp2227
a(I1391
I1
F-0.125
g2120
I6
tp2228
a(I1394
I0
F-0.125
S'front'
p2229
I6
tp2230
a(I1394
I0
F0.875
S'great'
p2231
I6
tp2232
a(I1412
I1
F1.0
g2122
I6
tp2233
a(I1500
I9
F-0.125
S'front'
p2234
I6
tp2235
a(I1509
I6
F-0.125
S'back'
p2236
I6
tp2237
a(I1521
I14
F-0.125
S'front'
p2238
I6
tp2239
a(I1521
I14
F0.875
S'nice'
p2240
I6
tp2241
a(I1525
I0
F-0.125
S'front'
p2242
I6
tp2243
a(I1525
I0
F-0.875
S'poor'
p2244
I6
tp2245
a(I1619
I14
F-0.125
S'front'
p2246
I6
tp2247
a(I1631
I24
F1.0
g2124
I6
tp2248
a(I1635
I6
F-0.125
g2126
I6
tp2249
a(I1635
I6
F1.0
g2128
I6
tp2250
a(I1654
I4
F0.625
S'super'
p2251
I6
tp2252
a(I1654
I4
F0.625
S'fine'
p2253
I6
tp2254
a(I1682
I1
F1.0
g2130
I6
tp2255
a(I1697
I4
F-0.125
S'front'
p2256
I6
tp2257
a(I1699
I5
F0.625
S'fine'
p2258
I6
tp2259
a(I1699
I9
F1.0
g2132
I6
tp2260
a(I1699
I9
F1.0
g2134
I6
tp2261
a(I1699
I9
F-0.125
g2136
I6
tp2262
a(I1710
I10
F1.0
S'best'
p2263
I6
tp2264
a(I1785
I0
F-0.125
S'front'
p2265
I6
tp2266
a(I1785
I0
F-0.625
S'average'
p2267
I6
tp2268
a(I115
I0
F-0.5
g2140
I14
tp2269
a(I353
I1
F1.0
S'good'
p2270
I14
tp2271
a(I678
I1
F1.0
g2094
I14
tp2272
a(I893
I2
F1.0
g2098
I14
tp2273
a(I974
I16
I0
S'rear'
p2274
I14
tp2275
a(I974
I16
I0
S'nd'
p2276
I14
tp2277
a(I1133
I2
F1.0
g2112
I14
tp2278
a(I1212
I1
F1.0
g2116
I14
tp2279
a(I1258
I0
F1.0
S'excellent'
p2280
I14
tp2281
a(I1377
I20
F1.0
g2118
I14
tp2282
a(I1602
I1
F1.0
S'excellent'
p2283
I14
tp2284
a(I1631
I24
F1.0
g2124
I14
tp2285
a(I1654
I4
F0.625
g2253
I14
tp2286
a(I1697
I4
F-0.125
g2256
I14
tp2287
a(I1772
I9
F1.0
S'good'
p2288
I14
tp2289
as(S'design'
p2290
tp2291
(lp2292
(I39
I9
I0
S'arc'
p2293
I4
tp2294
a(I139
I3
F0.875
S'great'
p2295
I4
tp2296
a(I139
I3
F-0.375
S'tolerable'
p2297
I4
tp2298
a(I139
I11
F-0.875
S'poor'
p2299
I4
tp2300
a(I209
I2
F0.875
S'awesome'
p2301
I4
tp2302
a(I216
I4
F0.375
S'sleek'
p2303
I4
tp2304
a(I216
I4
F0.625
S'sexy'
p2305
I4
tp2306
a(I216
I5
F0.75
S'beautiful'
p2307
I4
tp2308
a(I272
I3
F0.875
S'superb'
p2309
I4
tp2310
a(I272
I3
F0.625
S'orthodox'
p2311
I4
tp2312
a(I324
I1
F-0.375
S'top'
p2313
I4
tp2314
a(I424
I2
F0.375
S'sleek'
p2315
I4
tp2316
a(I517
I12
F1.0
S'excellent'
p2317
I4
tp2318
a(I639
I1
F0.5
S'uncommon'
p2319
I4
tp2320
a(I666
I0
F0.875
S'great'
p2321
I4
tp2322
a(I726
I0
F-0.5
S'heavy'
p2323
I4
tp2324
a(I726
I0
F0.5
S'large'
p2325
I4
tp2326
a(I802
I2
I0
S'big'
p2327
I4
tp2328
a(I802
I2
I0
S'curved'
p2329
I4
tp2330
a(I802
I2
F0.5
S'slim'
p2331
I4
tp2332
a(I829
I0
F1.0
S'good'
p2333
I4
tp2334
a(I903
I0
I0
S'curved'
p2335
I4
tp2336
a(I903
I0
F0.625
S'manageable'
p2337
I4
tp2338
a(I905
I9
F0.75
S'beautiful'
p2339
I4
tp2340
a(I905
I9
F1.0
S'good'
p2341
I4
tp2342
a(I1081
I0
F0.875
S'great'
p2343
I4
tp2344
a(I1186
I0
I0
S'different'
p2345
I4
tp2346
a(I1215
I0
F0.875
S'neat'
p2347
I4
tp2348
a(I1215
I0
F0.75
S'easy'
p2349
I4
tp2350
a(I1218
I1
F1.0
S'good'
p2351
I4
tp2352
a(I1251
I3
I0
S'more'
p2353
I4
tp2354
a(I1317
I6
F1.0
S'good'
p2355
I4
tp2356
a(I1323
I0
F0.875
S'neat'
p2357
I4
tp2358
a(I1323
I0
F0.75
S'easy'
p2359
I4
tp2360
a(I1413
I0
F1.0
S'good'
p2361
I4
tp2362
a(I1413
I3
F-0.25
S'i'
p2363
I4
tp2364
a(I1413
I3
F1.0
S'good'
p2365
I4
tp2366
a(I1415
I0
F0.625
S'superior'
p2367
I4
tp2368
a(I1415
I0
F0.625
S'finish'
p2369
I4
tp2370
a(I1633
I4
I0
S'more'
p2371
I4
tp2372
a(I1634
I2
F1.0
S'good'
p2373
I4
tp2374
a(I1810
I0
F0.875
S'awesome'
p2375
I4
tp2376
a(I1826
I0
F1.0
S'good'
p2377
I4
tp2378
a(I1826
I0
I0
S'light'
p2379
I4
tp2380
as(S'a'
p2381
S'long'
p2382
S'time'
p2383
tp2384
(lp2385
(I52
I2
F-0.5
S'long'
p2386
I0
tp2387
a(I198
I2
F-0.5
S'long'
p2388
I0
tp2389
a(I377
I12
F-0.5
S'long'
p2390
I0
tp2391
a(I444
I3
F-0.5
S'long'
p2392
I0
tp2393
a(I820
I7
F-0.5
S'longer'
p2394
I0
tp2395
a(I820
I7
F0.75
S'due'
p2396
I0
tp2397
a(I893
I9
F-0.5
S'longer'
p2398
I0
tp2399
a(I1178
I4
F-0.5
S'long'
p2400
I0
tp2401
a(I1179
I4
F-0.5
S'long'
p2402
I0
tp2403
a(I1413
I3
F-0.5
S'long'
p2404
I0
tp2405
a(I1448
I1
F-0.5
S'long'
p2406
I0
tp2407
a(I1492
I5
F-0.5
S'long'
p2408
I0
tp2409
a(I1492
I5
F-0.5
S'long'
p2410
I0
tp2411
a(I1705
I0
F-0.5
S'long'
p2412
I0
tp2413
a(I1733
I4
F-0.5
S'long'
p2414
I0
tp2415
as(S'android'
p2416
tp2417
(lp2418
(I326
I19
F0.5
S'touch'
p2419
I3
tp2420
a(I760
I0
F0.625
S'first'
p2421
I3
tp2422
a(I777
I0
F1.0
S'best'
p2423
I3
tp2424
a(I777
I0
I0
S'customized'
p2425
I3
tp2426
a(I819
I17
F0.875
S'decent'
p2427
I3
tp2428
a(I982
I2
I0
S'more'
p2429
I3
tp2430
a(I1067
I14
F0.625
S'first'
p2431
I3
tp2432
a(I1067
I14
I0
S'more'
p2433
I3
tp2434
a(I1407
I0
I0
S'fist'
p2435
I3
tp2436
a(I1612
I2
F-0.25
S'latest'
p2437
I3
tp2438
as(S'for'
p2439
g103
S'days'
p2440
tp2441
(lp2442
(I39
I7
F-0.25
S'i'
p2443
I0
tp2444
a(I262
I3
F0.375
S'full'
p2445
I0
tp2446
a(I326
I12
I0
S'big'
p2447
I0
tp2448
a(I326
I24
F-0.625
S'last'
p2449
I0
tp2450
a(I354
I10
F0.375
g1959
I0
tp2451
a(I449
I3
F-0.625
S'last'
p2452
I0
tp2453
a(I779
I2
F0.875
S'awesome'
p2454
I0
tp2455
a(I1768
I1
F-0.25
S'i'
p2456
I0
tp2457
a(I39
I7
F-0.25
g2443
I2
tp2458
a(I50
I0
F0.5
S'possible'
p2459
I2
tp2460
a(I107
I4
F0.375
S'full'
p2461
I2
tp2462
a(I203
I0
F0.125
S'mobile'
p2463
I2
tp2464
a(I262
I3
F0.375
g2445
I2
tp2465
a(I326
I12
I0
g2447
I2
tp2466
a(I326
I24
F-0.625
g2449
I2
tp2467
a(I354
I10
F0.375
g1959
I2
tp2468
a(I355
I6
F-0.5
S'regular'
p2469
I2
tp2470
a(I379
I6
I0
S'least'
p2471
I2
tp2472
a(I381
I2
F0.375
S'much'
p2473
I2
tp2474
a(I436
I0
F-0.5
S'several'
p2475
I2
tp2476
a(I449
I3
F-0.625
g2452
I2
tp2477
a(I576
I14
F0.875
g1968
I2
tp2478
a(I759
I33
F-0.375
S'half'
p2479
I2
tp2480
a(I779
I2
F0.875
g2454
I2
tp2481
a(I1352
I14
F0.375
S'full'
p2482
I2
tp2483
a(I1768
I1
F-0.25
g2456
I2
tp2484
as(S'pros'
p2485
S'and'
p2486
S'cons'
p2487
tp2488
(lp2489
(I856
I35
F-0.75
S'little'
p2490
I0
tp2491
a(I642
I4
I0
S'many'
p2492
I2
tp2493
a(I975
I14
F1.0
S'good'
p2494
I2
tp2495
a(I1075
I5
I0
S'more'
p2496
I2
tp2497
a(I1706
I0
F1.0
S'good'
p2498
I2
tp2499
a(I13
I2
F-0.25
S'i'
p2500
I8
tp2501
a(I52
I0
I0
S'few'
p2502
I8
tp2503
a(I198
I0
I0
S'few'
p2504
I8
tp2505
a(I280
I2
F0.625
S'major'
p2506
I8
tp2507
a(I704
I5
I0
S'pros'
p2508
I8
tp2509
a(I770
I0
F0.625
S'adjustable'
p2510
I8
tp2511
a(I856
I35
F-0.75
g2490
I8
tp2512
a(I934
I4
F-0.625
S'other'
p2513
I8
tp2514
a(I974
I13
I0
S'only'
p2515
I8
tp2516
a(I1075
I5
I0
S'more'
p2517
I8
tp2518
a(I1107
I0
I0
S'many'
p2519
I8
tp2520
a(I1508
I0
F-0.25
S'i'
p2521
I8
tp2522
a(I1560
I9
I0
S'few'
p2523
I8
tp2524
as(S'excellent'
p2525
S'battery'
p2526
S'life'
p2527
tp2528
(lp2529
(I39
I27
F1.0
S'excellent'
p2530
I0
tp2531
a(I262
I1
F1.0
S'excellent'
p2532
I0
tp2533
a(I332
I2
F1.0
S'excellent'
p2534
I0
tp2535
a(I365
I2
F1.0
S'excellent'
p2536
I0
tp2537
a(I855
I13
F1.0
S'excellent'
p2538
I0
tp2539
a(I880
I8
F1.0
S'excellent'
p2540
I0
tp2541
a(I1010
I8
F0.625
S'rich'
p2542
I0
tp2543
a(I39
I27
F1.0
g2530
I0
tp2544
a(I262
I1
F1.0
g2532
I0
tp2545
a(I311
I6
F1.0
S'excellent'
p2546
I0
tp2547
a(I332
I2
F1.0
g2534
I0
tp2548
a(I838
I0
F1.0
S'excellent'
p2549
I0
tp2550
a(I855
I13
F1.0
g2538
I0
tp2551
a(I880
I8
F1.0
g2540
I0
tp2552
a(I1001
I0
F1.0
S'excellent'
p2553
I0
tp2554
a(I1215
I0
F1.0
S'excellent'
p2555
I0
tp2556
a(I1323
I0
F1.0
S'excellent'
p2557
I0
tp2558
a(I1330
I2
F1.0
S'excellent'
p2559
I0
tp2560
a(I1470
I3
F1.0
S'excellent'
p2561
I0
tp2562
a(I1624
I0
F1.0
S'excellent'
p2563
I0
tp2564
a(I1652
I17
F1.0
S'excellent'
p2565
I0
tp2566
a(I1843
I2
F1.0
S'excellent'
p2567
I0
tp2568
a(I796
I0
F0.5
S'touch'
p2569
I4
tp2570
as(S'lenovo'
p2571
S'k3'
p2572
S'note'
p2573
tp2574
(lp2575
(I39
I13
F0.5
S'effective'
p2576
I0
tp2577
a(I274
I6
F1.0
S'better'
p2578
I0
tp2579
a(I39
I13
F0.5
g2576
I0
tp2580
a(I86
I5
F-0.75
S'defective'
p2581
I0
tp2582
a(I133
I2
F0.375
S'famous'
p2583
I0
tp2584
a(I274
I6
F1.0
g2578
I0
tp2585
a(I668
I0
F1.0
S'better'
p2586
I0
tp2587
a(I879
I0
F0.75
S'due'
p2588
I0
tp2589
a(I1770
I12
F1.0
S'better'
p2590
I0
tp2591
a(I133
I2
F0.375
g2583
I1
tp2592
a(I230
I0
I0
S't'
p2593
I1
tp2594
a(I274
I6
F1.0
g2578
I1
tp2595
a(I534
I4
F1.0
S'good'
p2596
I1
tp2597
a(I668
I0
F1.0
g2586
I1
tp2598
a(I879
I0
F0.75
g2588
I1
tp2599
a(I39
I13
F0.5
g2576
I1
tp2600
a(I998
I8
F1.0
S'better'
p2601
I1
tp2602
a(I1472
I3
F1.0
S'good'
p2603
I1
tp2604
a(I1839
I12
F1.0
S'better'
p2605
I1
tp2606
as(S'no'
p2607
S'heating'
p2608
S'problem'
p2609
tp2610
(lp2611
(I663
I1
F-0.125
S'such'
p2612
I1
tp2613
a(I665
I3
I0
g1446
I1
tp2614
a(I879
I0
F1.0
S'better'
p2615
I1
tp2616
a(I1229
I1
F-0.75
S'minor'
p2617
I1
tp2618
a(I1296
I3
F1.0
S'good'
p2619
I1
tp2620
a(I663
I1
F-0.125
g2612
I6
tp2621
a(I665
I3
I0
g1446
I6
tp2622
a(I879
I0
F1.0
g2615
I6
tp2623
a(I1229
I1
F-0.75
g2617
I6
tp2624
a(I1296
I3
F1.0
g2619
I6
tp2625
a(I1315
I4
I0
S'light'
p2626
I6
tp2627
a(I1727
I0
F-0.75
S'little'
p2628
I6
tp2629
as(S'no'
p2630
S'heating'
p2631
S'issues'
p2632
tp2633
(lp2634
(I132
I16
F0.375
S'heating'
p2635
I0
tp2636
a(I206
I1
F0.625
S'major'
p2637
I0
tp2638
a(I665
I3
I0
g1446
I0
tp2639
a(I1216
I3
F1.0
g1462
I0
tp2640
a(I1536
I2
F-0.125
g1468
I0
tp2641
a(I1616
I7
F0.375
S'satisfied'
p2642
I0
tp2643
a(I132
I16
F0.375
g2635
I0
tp2644
a(I206
I1
F0.625
g2637
I0
tp2645
a(I429
I4
F0.75
g1475
I0
tp2646
a(I429
I4
F-0.875
g1477
I0
tp2647
a(I665
I3
I0
g1446
I0
tp2648
a(I1166
I1
F0.375
S'heating'
p2649
I0
tp2650
a(I1216
I3
F1.0
g1462
I0
tp2651
a(I1536
I2
F-0.125
g1468
I0
tp2652
a(I1616
I7
F0.375
g2642
I0
tp2653
a(I132
I16
F0.375
g2635
I4
tp2654
a(I142
I0
F0.125
S'following'
p2655
I4
tp2656
a(I206
I1
F0.625
g2637
I4
tp2657
a(I312
I7
I0
S'technician'
p2658
I4
tp2659
a(I442
I17
F0.5
S'similar'
p2660
I4
tp2661
a(I650
I0
I0
S'big'
p2662
I4
tp2663
a(I704
I1
F0.5
S'technical'
p2664
I4
tp2665
a(I704
I4
F0.5
S'technical'
p2666
I4
tp2667
a(I923
I14
F-0.778
S'common'
p2668
I4
tp2669
a(I924
I4
I0
S'sure'
p2670
I4
tp2671
a(I1110
I2
I0
S'few'
p2672
I4
tp2673
a(I1166
I1
F0.375
g2649
I4
tp2674
a(I1257
I1
F-0.25
S'encountered'
p2675
I4
tp2676
a(I1257
I1
F0.375
S'much'
p2677
I4
tp2678
a(I1336
I0
F0.625
S'major'
p2679
I4
tp2680
a(I1466
I2
I0
S't'
p2681
I4
tp2682
a(I1552
I1
F-0.875
S'low'
p2683
I4
tp2684
a(I1573
I3
I0
S'intermittent'
p2685
I4
tp2686
a(I1616
I7
F0.375
g2642
I4
tp2687
a(I1617
I6
F0.625
S'major'
p2688
I4
tp2689
as(g2381
S'good'
p2690
S'product'
p2691
tp2692
(lp2693
(I535
I6
F1.0
S'good'
p2694
I2
tp2695
a(I658
I4
F0.875
S'awesome'
p2696
I2
tp2697
a(I658
I4
F1.0
S'good'
p2698
I2
tp2699
a(I665
I0
F1.0
S'good'
p2700
I2
tp2701
a(I704
I0
F1.0
S'good'
p2702
I2
tp2703
a(I713
I5
F1.0
S'good'
p2704
I2
tp2705
a(I798
I0
F1.0
S'good'
p2706
I2
tp2707
a(I874
I1
F1.0
S'good'
p2708
I2
tp2709
a(I879
I0
F0.875
S'happy'
p2710
I2
tp2711
a(I977
I5
F1.0
S'good'
p2712
I2
tp2713
a(I993
I0
F1.0
S'good'
p2714
I2
tp2715
a(I1020
I12
F1.0
S'good'
p2716
I2
tp2717
a(I1041
I0
F1.0
S'good'
p2718
I2
tp2719
a(I1083
I4
F1.0
S'good'
p2720
I2
tp2721
a(I1096
I13
F0.875
S'worthy'
p2722
I2
tp2723
a(I1097
I0
F1.0
S'good'
p2724
I2
tp2725
a(I1131
I10
F1.0
S'good'
p2726
I2
tp2727
a(I1158
I3
F1.0
S'good'
p2728
I2
tp2729
a(I1163
I0
F1.0
S'good'
p2730
I2
tp2731
a(I1163
I2
F1.0
S'good'
p2732
I2
tp2733
a(I1163
I9
F1.0
S'good'
p2734
I2
tp2735
a(I1163
I9
F1.0
S'good'
p2736
I2
tp2737
a(I1165
I0
F1.0
S'good'
p2738
I2
tp2739
a(I1170
I0
F1.0
S'good'
p2740
I2
tp2741
a(I1220
I0
F-0.375
S'same'
p2742
I2
tp2743
a(I1227
I0
F1.0
S'good'
p2744
I2
tp2745
a(I1233
I4
I0
S's'
p2746
I2
tp2747
a(I1233
I4
F1.0
S'good'
p2748
I2
tp2749
a(I1263
I0
F1.0
S'good'
p2750
I2
tp2751
a(I1279
I19
F1.0
S'good'
p2752
I2
tp2753
a(I1377
I25
F1.0
S'good'
p2754
I2
tp2755
a(I1392
I2
F1.0
S'good'
p2756
I2
tp2757
a(I1465
I10
F1.0
S'good'
p2758
I2
tp2759
a(I1500
I10
F-0.125
S'overall'
p2760
I2
tp2761
a(I1500
I10
F1.0
S'good'
p2762
I2
tp2763
a(I1522
I1
F0.875
S'great'
p2764
I2
tp2765
a(I1631
I0
F1.0
S'good'
p2766
I2
tp2767
a(I1631
I10
F-0.125
S'overall'
p2768
I2
tp2769
a(I1631
I10
F1.0
S'good'
p2770
I2
tp2771
a(I1772
I14
F0.75
S'perfect'
p2772
I2
tp2773
a(I1809
I8
F-0.5
S'less'
p2774
I2
tp2775
a(I1809
I8
F1.0
S'good'
p2776
I2
tp2777
a(I535
I6
F1.0
g2694
I5
tp2778
a(I658
I4
F0.875
g2696
I5
tp2779
a(I658
I4
F1.0
g2698
I5
tp2780
a(I665
I0
F1.0
g2700
I5
tp2781
a(I704
I0
F1.0
g2702
I5
tp2782
a(I713
I5
F1.0
g2704
I5
tp2783
a(I798
I0
F1.0
g2706
I5
tp2784
a(I874
I1
F1.0
g2708
I5
tp2785
a(I879
I0
F0.875
g2710
I5
tp2786
a(I935
I4
F1.0
S'good'
p2787
I5
tp2788
a(I977
I5
F1.0
g2712
I5
tp2789
a(I993
I0
F1.0
g2714
I5
tp2790
a(I1020
I12
F1.0
g2716
I5
tp2791
a(I1041
I0
F1.0
g2718
I5
tp2792
a(I1083
I4
F1.0
g2720
I5
tp2793
a(I1096
I13
F0.875
g2722
I5
tp2794
a(I1097
I0
F1.0
g2724
I5
tp2795
a(I1131
I10
F1.0
g2726
I5
tp2796
a(I1158
I3
F1.0
g2728
I5
tp2797
a(I1163
I0
F1.0
g2730
I5
tp2798
a(I1163
I2
F1.0
g2732
I5
tp2799
a(I1163
I9
F1.0
g2734
I5
tp2800
a(I1163
I9
F1.0
g2736
I5
tp2801
a(I1165
I0
F1.0
g2738
I5
tp2802
a(I1170
I0
F1.0
g2740
I5
tp2803
a(I1170
I4
F1.0
S'good'
p2804
I5
tp2805
a(I1191
I3
F1.0
S'good'
p2806
I5
tp2807
a(I1211
I0
F1.0
S'good'
p2808
I5
tp2809
a(I1219
I8
F1.0
S'good'
p2810
I5
tp2811
a(I1220
I0
F-0.375
g2742
I5
tp2812
a(I1227
I0
F1.0
g2744
I5
tp2813
a(I1233
I4
I0
g2746
I5
tp2814
a(I1233
I4
F1.0
g2748
I5
tp2815
a(I1263
I0
F1.0
g2750
I5
tp2816
a(I1279
I19
F1.0
g2752
I5
tp2817
a(I1328
I0
F1.0
S'good'
p2818
I5
tp2819
a(I1377
I25
F1.0
g2754
I5
tp2820
a(I1382
I0
F1.0
S'good'
p2821
I5
tp2822
a(I1392
I2
F1.0
g2756
I5
tp2823
a(I1465
I10
F1.0
g2758
I5
tp2824
a(I1492
I0
F1.0
S'good'
p2825
I5
tp2826
a(I1500
I10
F-0.125
g2760
I5
tp2827
a(I1500
I10
F1.0
g2762
I5
tp2828
a(I1522
I1
F0.875
g2764
I5
tp2829
a(I1528
I1
F1.0
S'good'
p2830
I5
tp2831
a(I1623
I25
F1.0
S'good'
p2832
I5
tp2833
a(I1631
I0
F1.0
g2766
I5
tp2834
a(I1631
I10
F-0.125
g2768
I5
tp2835
a(I1631
I10
F1.0
g2770
I5
tp2836
a(I1658
I0
F1.0
S'good'
p2837
I5
tp2838
a(I1762
I26
F1.0
S'good'
p2839
I5
tp2840
a(I1772
I14
F0.75
g2772
I5
tp2841
a(I1809
I8
F-0.5
g2774
I5
tp2842
a(I1809
I8
F1.0
g2776
I5
tp2843
a(I1839
I4
F1.0
S'good'
p2844
I5
tp2845
as(S'4'
p2846
S'gorilla'
p2847
S'glass'
p2848
tp2849
(lp2850
(I253
I11
F-0.875
S'strongest'
p2851
I0
tp2852
a(I388
I8
F0.875
S'great'
p2853
I0
tp2854
a(I1255
I0
F0.5
S'safe'
p2855
I0
tp2856
a(I1445
I0
F-0.5
S'unbelievable'
p2857
I0
tp2858
a(I1568
I0
I0
S'gorilla'
p2859
I0
tp2860
a(I253
I11
F-0.875
g2851
I2
tp2861
a(I388
I8
F0.875
g2853
I2
tp2862
a(I609
I0
F-0.875
S'poor'
p2863
I2
tp2864
a(I641
I14
I0
S'gorilla'
p2865
I2
tp2866
a(I641
I14
I0
S'tempered'
p2867
I2
tp2868
a(I1255
I0
F0.5
g2855
I2
tp2869
a(I1445
I0
F-0.5
g2857
I2
tp2870
a(I1568
I0
I0
g2859
I2
tp2871
a(I344
I1
I0
S'screen'
p2872
I3
tp2873
a(I344
I1
F0.875
S'great'
p2874
I3
tp2875
a(I6
I5
I0
S'tempered'
p2876
I10
tp2877
a(I216
I32
I0
S'tempered'
p2878
I10
tp2879
a(I253
I11
F-0.875
g2851
I10
tp2880
a(I388
I8
F0.875
g2853
I10
tp2881
a(I413
I0
I0
S'tempered'
p2882
I10
tp2883
a(I421
I7
F-0.25
S'i'
p2884
I10
tp2885
a(I609
I0
F-0.875
g2863
I10
tp2886
a(I609
I1
I0
S'tampered'
p2887
I10
tp2888
a(I641
I14
I0
g2865
I10
tp2889
a(I641
I14
I0
g2867
I10
tp2890
a(I856
I33
F0.5
S'careful'
p2891
I10
tp2892
a(I856
I33
I0
S'tempered'
p2893
I10
tp2894
a(I870
I4
I0
S'tempered'
p2895
I10
tp2896
a(I870
I5
I0
S'tempered'
p2897
I10
tp2898
a(I870
I7
I0
S'tempered'
p2899
I10
tp2900
a(I1067
I19
I0
S'tempered'
p2901
I10
tp2902
a(I1067
I20
I0
S'tempered'
p2903
I10
tp2904
a(I1255
I0
F0.5
g2855
I10
tp2905
a(I1445
I0
F-0.5
g2857
I10
tp2906
a(I1568
I0
I0
g2859
I10
tp2907
a(I1619
I13
F1.0
S'good'
p2908
I10
tp2909
a(I1619
I13
I0
S'tempered'
p2910
I10
tp2911
a(I1619
I13
I0
S'tempered'
p2912
I10
tp2913
as(S'delivery'
p2914
S'of'
p2915
S'flipkart'
p2916
tp2917
(lp2918
(I18
I0
F0.875
S'awesome'
p2919
I0
tp2920
a(I154
I2
F1.0
S'good'
p2921
I0
tp2922
a(I437
I23
F0.375
S'appreciate'
p2923
I0
tp2924
a(I437
I23
F0.75
S'proper'
p2925
I0
tp2926
a(I437
I23
F-0.5
S'systematic'
p2927
I0
tp2928
a(I437
I23
F-0.625
S'fastest'
p2929
I0
tp2930
a(I878
I2
F0.875
S'awesome'
p2931
I0
tp2932
a(I1161
I2
F1.0
S'good'
p2933
I0
tp2934
a(I1242
I0
F-0.625
S'fastest'
p2935
I0
tp2936
a(I1704
I1
F0.875
S'awesome'
p2937
I0
tp2938
as(S'hours'
p2939
tp2940
(lp2941
(I39
I21
I0
S'least'
p2942
I14
tp2943
a(I39
I29
I0
S'more'
p2944
I14
tp2945
a(I107
I6
I0
S'specific'
p2946
I14
tp2947
a(I209
I4
F0.375
S'full'
p2948
I14
tp2949
a(I209
I4
F-0.625
S'moderate'
p2950
I14
tp2951
a(I216
I18
I0
S'few'
p2952
I14
tp2953
a(I253
I4
F-0.625
S'last'
p2954
I14
tp2955
a(I311
I7
I0
S'more'
p2956
I14
tp2957
a(I449
I3
F-0.625
S'last'
p2958
I14
tp2959
a(I449
I3
F0.5
S'efficient'
p2960
I14
tp2961
a(I479
I2
F-0.25
S'i'
p2962
I14
tp2963
a(I693
I0
F-0.625
S'last'
p2964
I14
tp2965
a(I693
I0
I0
S'more'
p2966
I14
tp2967
a(I696
I0
I0
S't'
p2968
I14
tp2969
a(I779
I3
F-0.5
S'backup'
p2970
I14
tp2971
a(I855
I15
I0
S'more'
p2972
I14
tp2973
a(I880
I10
I0
S'more'
p2974
I14
tp2975
a(I934
I3
I0
S'more'
p2976
I14
tp2977
a(I1619
I8
F1.0
S'good'
p2978
I14
tp2979
a(I1811
I0
F0.375
S'full'
p2980
I14
tp2981
a(I1811
I0
F-0.625
S'moderate'
p2982
I14
tp2983
as(S'good'
p2984
S'sound'
p2985
S'quality'
p2986
tp2987
(lp2988
(I437
I27
F0.75
S'sound'
p2989
I0
tp2990
a(I437
I27
F1.0
S'good'
p2991
I0
tp2992
a(I472
I0
F0.75
S'sound'
p2993
I0
tp2994
a(I472
I0
F1.0
S'good'
p2995
I0
tp2996
a(I556
I1
F1.0
S'good'
p2997
I0
tp2998
a(I576
I1
F0.75
S'sound'
p2999
I0
tp3000
a(I576
I1
F1.0
S'good'
p3001
I0
tp3002
a(I594
I0
F0.75
S'sound'
p3003
I0
tp3004
a(I594
I0
F1.0
S'good'
p3005
I0
tp3006
a(I594
I0
F-0.5
S'loud'
p3007
I0
tp3008
a(I922
I20
F0.75
S'sound'
p3009
I0
tp3010
a(I922
I20
F1.0
S'good'
p3011
I0
tp3012
a(I974
I3
F-0.75
S'little'
p3013
I0
tp3014
a(I974
I3
F0.5
S'thin'
p3015
I0
tp3016
a(I1004
I0
F1.0
S'good'
p3017
I0
tp3018
a(I1040
I3
F1.0
S'good'
p3019
I0
tp3020
a(I1086
I4
F1.0
S'good'
p3021
I0
tp3022
a(I1269
I5
F0.5
S'high'
p3023
I0
tp3024
a(I1269
I5
F1.0
S'good'
p3025
I0
tp3026
a(I1269
I5
F0.875
S'amazing'
p3027
I0
tp3028
a(I1279
I5
F0.75
S'sound'
p3029
I0
tp3030
a(I1279
I5
F1.0
S'good'
p3031
I0
tp3032
a(I1375
I3
F1.0
S'good'
p3033
I0
tp3034
a(I1406
I7
F1.0
S'good'
p3035
I0
tp3036
a(I1488
I21
F0.75
S'sound'
p3037
I0
tp3038
a(I6
I1
F0.75
S'sound'
p3039
I5
tp3040
a(I6
I1
F0.875
S'nice'
p3041
I5
tp3042
a(I11
I0
F0.75
S'sound'
p3043
I5
tp3044
a(I51
I9
F-0.5
S'damn'
p3045
I5
tp3046
a(I51
I9
F-0.5
S'loud'
p3047
I5
tp3048
a(I51
I9
I0
S'clear'
p3049
I5
tp3050
a(I51
I9
F0.75
S'sound'
p3051
I5
tp3052
a(I69
I14
F-0.875
S'poor'
p3053
I5
tp3054
a(I197
I9
F-0.5
S'damn'
p3055
I5
tp3056
a(I197
I9
F-0.5
S'loud'
p3057
I5
tp3058
a(I197
I9
I0
S'clear'
p3059
I5
tp3060
a(I197
I9
F0.75
S'sound'
p3061
I5
tp3062
a(I437
I27
F0.75
g2989
I5
tp3063
a(I437
I27
F1.0
g2991
I5
tp3064
a(I472
I0
F0.75
g2993
I5
tp3065
a(I472
I0
F1.0
g2995
I5
tp3066
a(I492
I7
F-0.625
S'average'
p3067
I5
tp3068
a(I536
I1
F0.75
S'sound'
p3069
I5
tp3070
a(I556
I1
F1.0
g2997
I5
tp3071
a(I566
I6
F0.75
S'sound'
p3072
I5
tp3073
a(I566
I6
F-0.75
S'little'
p3074
I5
tp3075
a(I566
I6
F-0.875
S'low'
p3076
I5
tp3077
a(I566
I9
F0.75
S'sound'
p3078
I5
tp3079
a(I576
I1
F0.75
g2999
I5
tp3080
a(I576
I1
F1.0
g3001
I5
tp3081
a(I594
I0
F0.75
g3003
I5
tp3082
a(I594
I0
F1.0
g3005
I5
tp3083
a(I594
I0
F-0.5
g3007
I5
tp3084
a(I676
I10
F0.75
S'sound'
p3085
I5
tp3086
a(I676
I11
F0.75
S'fantastic'
p3087
I5
tp3088
a(I881
I0
F0.875
S'great'
p3089
I5
tp3090
a(I922
I20
F0.75
g3009
I5
tp3091
a(I922
I20
F1.0
g3011
I5
tp3092
a(I956
I19
F1.0
g648
I5
tp3093
a(I974
I3
F-0.75
g3013
I5
tp3094
a(I974
I3
F0.5
g3015
I5
tp3095
a(I974
I14
F0.75
S'sound'
p3096
I5
tp3097
a(I1004
I0
F1.0
g3017
I5
tp3098
a(I1040
I3
F1.0
g3019
I5
tp3099
a(I1079
I1
F0.75
S'sound'
p3100
I5
tp3101
a(I1079
I1
F-0.5
S'slow'
p3102
I5
tp3103
a(I1086
I4
F1.0
g3021
I5
tp3104
a(I1095
I4
F0.75
S'sound'
p3105
I5
tp3106
a(I1096
I8
F0.75
S'sound'
p3107
I5
tp3108
a(I1158
I9
F-0.875
S'low'
p3109
I5
tp3110
a(I1162
I0
F0.75
S'sound'
p3111
I5
tp3112
a(I1179
I1
F0.875
S'great'
p3113
I5
tp3114
a(I1269
I5
F0.5
g3023
I5
tp3115
a(I1269
I5
F1.0
g3025
I5
tp3116
a(I1269
I5
F0.875
g3027
I5
tp3117
a(I1279
I5
F0.75
g3029
I5
tp3118
a(I1279
I5
F1.0
g3031
I5
tp3119
a(I1375
I3
F1.0
g3033
I5
tp3120
a(I1406
I7
F1.0
g3035
I5
tp3121
a(I1488
I21
F0.75
g3037
I5
tp3122
a(I1509
I3
F0.75
S'sound'
p3123
I5
tp3124
a(I1700
I2
F0.75
S'sound'
p3125
I5
tp3126
a(I1726
I13
F0.75
S'sound'
p3127
I5
tp3128
a(I1808
I7
F0.75
S'sound'
p3129
I5
tp3130
a(I1808
I7
F0.875
S'nice'
p3131
I5
tp3132
a(I18
I3
F1.0
S'good'
p3133
I0
tp3134
a(I39
I11
F1.0
S'good'
p3135
I0
tp3136
a(I40
I20
F1.0
g1875
I0
tp3137
a(I51
I21
I0
g1877
I0
tp3138
a(I51
I21
F1.0
g1879
I0
tp3139
a(I67
I0
F1.0
S'good'
p3140
I0
tp3141
a(I135
I1
F1.0
g614
I0
tp3142
a(I159
I1
F1.0
S'good'
p3143
I0
tp3144
a(I197
I21
I0
g1891
I0
tp3145
a(I197
I21
F1.0
g1893
I0
tp3146
a(I217
I11
I0
g1895
I0
tp3147
a(I217
I11
F1.0
g1897
I0
tp3148
a(I241
I0
F1.0
g616
I0
tp3149
a(I360
I3
F1.0
S'good'
p3150
I0
tp3151
a(I377
I1
F1.0
S'good'
p3152
I0
tp3153
a(I386
I1
F1.0
g1901
I0
tp3154
a(I421
I4
F0.5
S'touch'
p3155
I0
tp3156
a(I427
I5
F1.0
S'good'
p3157
I0
tp3158
a(I427
I7
F1.0
g1903
I0
tp3159
a(I437
I4
F1.0
S'good'
p3160
I0
tp3161
a(I437
I27
F0.75
g2989
I0
tp3162
a(I437
I27
F1.0
g2991
I0
tp3163
a(I472
I0
F0.75
g2993
I0
tp3164
a(I472
I0
F1.0
g2995
I0
tp3165
a(I476
I6
F1.0
S'good'
p3166
I0
tp3167
a(I484
I0
F1.0
S'good'
p3168
I0
tp3169
a(I486
I0
F1.0
S'good'
p3170
I0
tp3171
a(I490
I15
F1.0
S'good'
p3172
I0
tp3173
a(I572
I2
F1.0
g1909
I0
tp3174
a(I575
I2
F1.0
S'good'
p3175
I0
tp3176
a(I576
I1
F0.75
g2999
I0
tp3177
a(I576
I1
F1.0
g3001
I0
tp3178
a(I594
I0
F0.75
g3003
I0
tp3179
a(I594
I0
F1.0
g3005
I0
tp3180
a(I594
I0
F-0.5
g3007
I0
tp3181
a(I641
I9
F1.0
S'good'
p3182
I0
tp3183
a(I650
I2
F1.0
S'good'
p3184
I0
tp3185
a(I658
I8
F1.0
S'good'
p3186
I0
tp3187
a(I664
I1
F-0.875
S'poor'
p3188
I0
tp3189
a(I668
I0
F1.0
S'good'
p3190
I0
tp3191
a(I759
I30
F1.0
S'good'
p3192
I0
tp3193
a(I759
I45
F1.0
S'good'
p3194
I0
tp3195
a(I759
I45
F0.625
S'removable'
p3196
I0
tp3197
a(I759
I48
F1.0
S'good'
p3198
I0
tp3199
a(I775
I0
F1.0
g630
I0
tp3200
a(I775
I1
F1.0
S'good'
p3201
I0
tp3202
a(I819
I0
F0.875
S'music'
p3203
I0
tp3204
a(I819
I0
F1.0
S'good'
p3205
I0
tp3206
a(I820
I14
F1.0
S'good'
p3207
I0
tp3208
a(I856
I20
F1.0
g1921
I0
tp3209
a(I878
I5
F1.0
S'good'
p3210
I0
tp3211
a(I879
I0
F0.5
S'touch'
p3212
I0
tp3213
a(I880
I3
F1.0
S'good'
p3214
I0
tp3215
a(I922
I20
F1.0
g3011
I0
tp3216
a(I925
I0
F1.0
S'good'
p3217
I0
tp3218
a(I936
I1
F0.875
S'awesome'
p3219
I0
tp3220
a(I958
I10
F1.0
S'good'
p3221
I0
tp3222
a(I958
I10
F0.625
S'smooth'
p3223
I0
tp3224
a(I960
I1
F-0.125
S'overall'
p3225
I0
tp3226
a(I960
I1
F1.0
S'good'
p3227
I0
tp3228
a(I974
I3
F-0.75
g3013
I0
tp3229
a(I974
I3
F0.5
g3015
I0
tp3230
a(I993
I0
F-0.875
S'poor'
p3231
I0
tp3232
a(I1020
I2
F1.0
g1935
I0
tp3233
a(I1020
I2
F1.0
g1937
I0
tp3234
a(I1040
I3
F1.0
g3019
I0
tp3235
a(I1064
I0
F1.0
S'good'
p3236
I0
tp3237
a(I1075
I0
F1.0
S'good'
p3238
I0
tp3239
a(I1086
I4
F1.0
g3021
I0
tp3240
a(I1096
I0
F0.5
S'high'
p3241
I0
tp3242
a(I1106
I2
F1.0
S'good'
p3243
I0
tp3244
a(I1124
I9
F1.0
S'good'
p3245
I0
tp3246
a(I1163
I9
F1.0
S'good'
p3247
I0
tp3248
a(I1164
I1
F1.0
S'best'
p3249
I0
tp3250
a(I1166
I2
I0
S'built'
p3251
I0
tp3252
a(I1166
I2
F1.0
S'good'
p3253
I0
tp3254
a(I1174
I3
F0.625
S'manageable'
p3255
I0
tp3256
a(I1179
I13
F1.0
S'good'
p3257
I0
tp3258
a(I1182
I5
I0
S'clear'
p3259
I0
tp3260
a(I1183
I2
F1.0
S'good'
p3261
I0
tp3262
a(I1185
I0
F1.0
S'good'
p3263
I0
tp3264
a(I1216
I1
F1.0
S'good'
p3265
I0
tp3266
a(I1223
I0
F1.0
S'good'
p3267
I0
tp3268
a(I1227
I0
F0.875
S'great'
p3269
I0
tp3270
a(I1236
I2
F1.0
S'good'
p3271
I0
tp3272
a(I1266
I0
I0
S'screen'
p3273
I0
tp3274
a(I1266
I0
F1.0
S'good'
p3275
I0
tp3276
a(I1269
I5
F0.5
g3023
I0
tp3277
a(I1269
I5
F1.0
g3025
I0
tp3278
a(I1279
I5
F0.75
g3029
I0
tp3279
a(I1279
I5
F1.0
g3031
I0
tp3280
a(I1281
I1
F1.0
S'good'
p3281
I0
tp3282
a(I1317
I9
F1.0
S'good'
p3283
I0
tp3284
a(I1318
I2
F1.0
S'good'
p3285
I0
tp3286
a(I1341
I1
F-0.5
g650
I0
tp3287
a(I1341
I1
F1.0
g652
I0
tp3288
a(I1375
I3
F1.0
g3033
I0
tp3289
a(I1393
I0
F1.0
S'good'
p3290
I0
tp3291
a(I1397
I0
F1.0
S'good'
p3292
I0
tp3293
a(I1447
I1
F1.0
S'good'
p3294
I0
tp3295
a(I1488
I21
F0.75
g3037
I0
tp3296
a(I1505
I14
F1.0
S'good'
p3297
I0
tp3298
a(I1521
I3
F1.0
S'good'
p3299
I0
tp3300
a(I1524
I6
F0.5
S'high'
p3301
I0
tp3302
a(I1592
I0
F1.0
S'good'
p3303
I0
tp3304
a(I1647
I5
F1.0
S'good'
p3305
I0
tp3306
a(I1647
I25
F1.0
S'good'
p3307
I0
tp3308
a(I1663
I1
I0
g1943
I0
tp3309
a(I1663
I1
F1.0
g1945
I0
tp3310
a(I1670
I8
F1.0
g658
I0
tp3311
a(I1670
I8
F0.875
g660
I0
tp3312
a(I1699
I22
F1.0
g1949
I0
tp3313
a(I1710
I6
F1.0
S'good'
p3314
I0
tp3315
a(I1713
I2
F0.875
S'awesome'
p3316
I0
tp3317
a(I1731
I4
F1.0
S'good'
p3318
I0
tp3319
a(I1732
I2
F1.0
S'good'
p3320
I0
tp3321
a(I1737
I1
F1.0
S'good'
p3322
I0
tp3323
a(I1765
I0
F1.0
S'good'
p3324
I0
tp3325
a(I1808
I18
F1.0
S'good'
p3326
I0
tp3327
a(I1809
I1
F1.0
S'good'
p3328
I0
tp3329
a(I1809
I1
F1.0
S'good'
p3330
I0
tp3331
a(I1809
I1
I0
S'camera'
p3332
I0
tp3333
a(I1809
I7
F1.0
S'good'
p3334
I0
tp3335
a(I47
I1
F1.0
S'good'
p3336
I0
tp3337
a(I136
I0
F-0.778
S'mediocre'
p3338
I0
tp3339
a(I167
I0
F1.0
S'good'
p3340
I0
tp3341
a(I545
I0
F1.0
S'good'
p3342
I0
tp3343
a(I545
I0
F0.875
S'decent'
p3344
I0
tp3345
a(I556
I1
F1.0
g2997
I0
tp3346
a(I872
I18
F1.0
S'good'
p3347
I0
tp3348
a(I922
I20
F0.75
g3009
I0
tp3349
a(I1004
I0
F1.0
g3017
I0
tp3350
a(I1083
I1
F1.0
S'good'
p3351
I0
tp3352
a(I1106
I11
F1.0
S'good'
p3353
I0
tp3354
a(I1158
I1
F1.0
S'good'
p3355
I0
tp3356
a(I1181
I2
F1.0
S'good'
p3357
I0
tp3358
a(I1269
I5
F0.875
g3027
I0
tp3359
a(I1350
I1
F1.0
S'good'
p3360
I0
tp3361
a(I1406
I7
F1.0
g3035
I0
tp3362
a(I1483
I8
F1.0
S'good'
p3363
I0
tp3364
a(I1485
I0
F1.0
S'good'
p3365
I0
tp3366
a(I1690
I4
F-0.5
S'loud'
p3367
I0
tp3368
a(I1690
I4
I0
S'clear'
p3369
I0
tp3370
a(I18
I3
F1.0
g3133
I2
tp3371
a(I39
I11
F1.0
g3135
I2
tp3372
a(I40
I20
F1.0
g1875
I2
tp3373
a(I51
I21
I0
g1877
I2
tp3374
a(I51
I21
F1.0
g1879
I2
tp3375
a(I67
I0
F1.0
g3140
I2
tp3376
a(I135
I1
F1.0
g614
I2
tp3377
a(I159
I1
F1.0
g3143
I2
tp3378
a(I197
I21
I0
g1891
I2
tp3379
a(I197
I21
F1.0
g1893
I2
tp3380
a(I217
I11
I0
g1895
I2
tp3381
a(I217
I11
F1.0
g1897
I2
tp3382
a(I241
I0
F1.0
g616
I2
tp3383
a(I360
I3
F1.0
g3150
I2
tp3384
a(I377
I1
F1.0
g3152
I2
tp3385
a(I386
I1
F1.0
g1901
I2
tp3386
a(I421
I4
F0.5
g3155
I2
tp3387
a(I427
I5
F1.0
g3157
I2
tp3388
a(I427
I7
F1.0
g1903
I2
tp3389
a(I437
I4
F1.0
g3160
I2
tp3390
a(I437
I27
F0.75
g2989
I2
tp3391
a(I437
I27
F1.0
g2991
I2
tp3392
a(I472
I0
F0.75
g2993
I2
tp3393
a(I472
I0
F1.0
g2995
I2
tp3394
a(I476
I6
F1.0
g3166
I2
tp3395
a(I484
I0
F1.0
g3168
I2
tp3396
a(I486
I0
F1.0
g3170
I2
tp3397
a(I490
I15
F1.0
g3172
I2
tp3398
a(I572
I2
F1.0
g1909
I2
tp3399
a(I575
I2
F1.0
g3175
I2
tp3400
a(I576
I1
F0.75
g2999
I2
tp3401
a(I576
I1
F1.0
g3001
I2
tp3402
a(I594
I0
F0.75
g3003
I2
tp3403
a(I594
I0
F1.0
g3005
I2
tp3404
a(I594
I0
F-0.5
g3007
I2
tp3405
a(I641
I9
F1.0
g3182
I2
tp3406
a(I650
I2
F1.0
g3184
I2
tp3407
a(I658
I8
F1.0
g3186
I2
tp3408
a(I664
I1
F-0.875
g3188
I2
tp3409
a(I668
I0
F1.0
g3190
I2
tp3410
a(I759
I30
F1.0
g3192
I2
tp3411
a(I759
I45
F1.0
g3194
I2
tp3412
a(I759
I45
F0.625
g3196
I2
tp3413
a(I759
I48
F1.0
g3198
I2
tp3414
a(I775
I0
F1.0
g630
I2
tp3415
a(I775
I1
F1.0
g3201
I2
tp3416
a(I819
I0
F0.875
g3203
I2
tp3417
a(I819
I0
F1.0
g3205
I2
tp3418
a(I820
I14
F1.0
g3207
I2
tp3419
a(I856
I20
F1.0
g1921
I2
tp3420
a(I878
I5
F1.0
g3210
I2
tp3421
a(I879
I0
F0.5
g3212
I2
tp3422
a(I880
I3
F1.0
g3214
I2
tp3423
a(I922
I20
F1.0
g3011
I2
tp3424
a(I925
I0
F1.0
g3217
I2
tp3425
a(I936
I1
F0.875
g3219
I2
tp3426
a(I958
I10
F1.0
g3221
I2
tp3427
a(I958
I10
F0.625
g3223
I2
tp3428
a(I960
I1
F-0.125
g3225
I2
tp3429
a(I960
I1
F1.0
g3227
I2
tp3430
a(I974
I3
F-0.75
g3013
I2
tp3431
a(I974
I3
F0.5
g3015
I2
tp3432
a(I993
I0
F-0.875
g3231
I2
tp3433
a(I1020
I2
F1.0
g1935
I2
tp3434
a(I1020
I2
F1.0
g1937
I2
tp3435
a(I1040
I3
F1.0
g3019
I2
tp3436
a(I1064
I0
F1.0
g3236
I2
tp3437
a(I1075
I0
F1.0
g3238
I2
tp3438
a(I1086
I4
F1.0
g3021
I2
tp3439
a(I1096
I0
F0.5
g3241
I2
tp3440
a(I1106
I2
F1.0
g3243
I2
tp3441
a(I1124
I9
F1.0
g3245
I2
tp3442
a(I1163
I9
F1.0
g3247
I2
tp3443
a(I1164
I1
F1.0
g3249
I2
tp3444
a(I1166
I2
I0
g3251
I2
tp3445
a(I1166
I2
F1.0
g3253
I2
tp3446
a(I1174
I3
F0.625
g3255
I2
tp3447
a(I1179
I13
F1.0
g3257
I2
tp3448
a(I1182
I5
I0
g3259
I2
tp3449
a(I1183
I2
F1.0
g3261
I2
tp3450
a(I1185
I0
F1.0
g3263
I2
tp3451
a(I1216
I1
F1.0
g3265
I2
tp3452
a(I1223
I0
F1.0
g3267
I2
tp3453
a(I1227
I0
F0.875
g3269
I2
tp3454
a(I1236
I2
F1.0
g3271
I2
tp3455
a(I1266
I0
I0
g3273
I2
tp3456
a(I1266
I0
F1.0
g3275
I2
tp3457
a(I1269
I5
F0.5
g3023
I2
tp3458
a(I1269
I5
F1.0
g3025
I2
tp3459
a(I1279
I5
F0.75
g3029
I2
tp3460
a(I1279
I5
F1.0
g3031
I2
tp3461
a(I1281
I1
F1.0
g3281
I2
tp3462
a(I1317
I9
F1.0
g3283
I2
tp3463
a(I1318
I2
F1.0
g3285
I2
tp3464
a(I1341
I1
F-0.5
g650
I2
tp3465
a(I1341
I1
F1.0
g652
I2
tp3466
a(I1375
I3
F1.0
g3033
I2
tp3467
a(I1393
I0
F1.0
g3290
I2
tp3468
a(I1397
I0
F1.0
g3292
I2
tp3469
a(I1447
I1
F1.0
g3294
I2
tp3470
a(I1488
I21
F0.75
g3037
I2
tp3471
a(I1505
I14
F1.0
g3297
I2
tp3472
a(I1521
I3
F1.0
g3299
I2
tp3473
a(I1524
I6
F0.5
g3301
I2
tp3474
a(I1592
I0
F1.0
g3303
I2
tp3475
a(I1647
I5
F1.0
g3305
I2
tp3476
a(I1647
I25
F1.0
g3307
I2
tp3477
a(I1663
I1
I0
g1943
I2
tp3478
a(I1663
I1
F1.0
g1945
I2
tp3479
a(I1670
I8
F1.0
g658
I2
tp3480
a(I1670
I8
F0.875
g660
I2
tp3481
a(I1699
I22
F1.0
g1949
I2
tp3482
a(I1710
I6
F1.0
g3314
I2
tp3483
a(I1713
I2
F0.875
g3316
I2
tp3484
a(I1731
I4
F1.0
g3318
I2
tp3485
a(I1732
I2
F1.0
g3320
I2
tp3486
a(I1737
I1
F1.0
g3322
I2
tp3487
a(I1765
I0
F1.0
g3324
I2
tp3488
a(I1808
I18
F1.0
g3326
I2
tp3489
a(I1809
I1
F1.0
g3328
I2
tp3490
a(I1809
I1
F1.0
g3330
I2
tp3491
a(I1809
I1
I0
g3332
I2
tp3492
a(I1809
I7
F1.0
g3334
I2
tp3493
a(I13
I2
F1.0
S'best'
p3494
I15
tp3495
a(I47
I1
F1.0
g3336
I15
tp3496
a(I47
I4
F-0.5
S'loud'
p3497
I15
tp3498
a(I90
I1
F0.875
S'awesome'
p3499
I15
tp3500
a(I132
I32
F0.375
S'boom'
p3501
I15
tp3502
a(I136
I0
F-0.778
g3338
I15
tp3503
a(I145
I9
F0.5
S'powerful'
p3504
I15
tp3505
a(I145
I9
I0
S'clear'
p3506
I15
tp3507
a(I167
I0
F1.0
g3340
I15
tp3508
a(I228
I3
F0.875
S'decent'
p3509
I15
tp3510
a(I289
I1
F0.5
S'high'
p3511
I15
tp3512
a(I545
I0
F1.0
g3342
I15
tp3513
a(I545
I0
F0.875
g3344
I15
tp3514
a(I556
I1
F1.0
g2997
I15
tp3515
a(I615
I1
F-0.75
S'little'
p3516
I15
tp3517
a(I615
I1
F-0.875
S'low'
p3518
I15
tp3519
a(I658
I2
F-0.75
S'little'
p3520
I15
tp3521
a(I658
I2
F-0.875
S'low'
p3522
I15
tp3523
a(I658
I2
F-0.5
S'call'
p3524
I15
tp3525
a(I701
I1
F-0.5
S'loud'
p3526
I15
tp3527
a(I701
I1
F0.875
S'decent'
p3528
I15
tp3529
a(I854
I2
F0.875
S'nice'
p3530
I15
tp3531
a(I872
I18
F1.0
g3347
I15
tp3532
a(I922
I20
F0.75
g3009
I15
tp3533
a(I926
I0
F0.875
S'nice'
p3534
I15
tp3535
a(I959
I0
F-0.875
S'low'
p3536
I15
tp3537
a(I1004
I0
F1.0
g3017
I15
tp3538
a(I1054
I1
F-0.875
S'low'
p3539
I15
tp3540
a(I1083
I1
F1.0
g3351
I15
tp3541
a(I1106
I11
F1.0
g3353
I15
tp3542
a(I1158
I1
F1.0
g3355
I15
tp3543
a(I1158
I9
F-0.875
g3109
I15
tp3544
a(I1181
I2
F1.0
g3357
I15
tp3545
a(I1190
I3
F-0.5
S'less'
p3546
I15
tp3547
a(I1224
I0
F-0.75
S'little'
p3548
I15
tp3549
a(I1224
I0
F-0.875
S'low'
p3550
I15
tp3551
a(I1269
I5
F0.875
g3027
I15
tp3552
a(I1350
I1
F1.0
g3360
I15
tp3553
a(I1352
I14
F-0.875
S'low'
p3554
I15
tp3555
a(I1377
I23
F0.5
S'high'
p3556
I15
tp3557
a(I1406
I7
F1.0
g3035
I15
tp3558
a(I1483
I8
F1.0
g3363
I15
tp3559
a(I1485
I0
F1.0
g3365
I15
tp3560
a(I1488
I14
F0.875
S'decent'
p3561
I15
tp3562
a(I1504
I0
I0
S'crystal'
p3563
I15
tp3564
a(I1504
I0
I0
S'clear'
p3565
I15
tp3566
a(I1505
I16
F-0.875
S'low'
p3567
I15
tp3568
a(I1508
I0
F-0.875
S'low'
p3569
I15
tp3570
a(I1508
I0
F0.625
S'acceptable'
p3571
I15
tp3572
a(I1541
I1
F-0.875
S'low'
p3573
I15
tp3574
a(I1563
I3
F-0.5
S'feeble'
p3575
I15
tp3576
a(I1582
I0
F0.125
S'mobile'
p3577
I15
tp3578
a(I1582
I0
F-0.875
S'low'
p3579
I15
tp3580
a(I1582
I0
F-0.25
S'i'
p3581
I15
tp3582
a(I1582
I0
F0.875
S'happy'
p3583
I15
tp3584
a(I1690
I4
F-0.5
g3367
I15
tp3585
a(I1690
I4
I0
g3369
I15
tp3586
a(I1738
I6
F-0.625
S'average'
p3587
I15
tp3588
a(I1738
I6
F1.0
S'better'
p3589
I15
tp3590
as(S'proximity'
p3591
S'sensor'
p3592
tp3593
(lp3594
(I6
I5
F-0.25
S'i'
p3595
I0
tp3596
a(I23
I0
F0.625
S'fine'
p3597
I0
tp3598
a(I820
I0
F0.125
S'remote'
p3599
I0
tp3600
a(I820
I0
F-0.125
S'present'
p3601
I0
tp3602
a(I975
I12
F0.125
S'noticed'
p3603
I0
tp3604
a(I1010
I11
F0.875
S'nice'
p3605
I0
tp3606
as(S'good'
p3607
S'battery'
p3608
S'backup'
p3609
tp3610
(lp3611
(I68
I4
F1.0
S'good'
p3612
I0
tp3613
a(I87
I1
F1.0
S'good'
p3614
I0
tp3615
a(I141
I1
F1.0
S'good'
p3616
I0
tp3617
a(I155
I1
F1.0
S'good'
p3618
I0
tp3619
a(I177
I0
F1.0
S'good'
p3620
I0
tp3621
a(I246
I1
F1.0
S'good'
p3622
I0
tp3623
a(I274
I1
F1.0
S'excellent'
p3624
I0
tp3625
a(I349
I1
F1.0
S'good'
p3626
I0
tp3627
a(I352
I16
F1.0
S'good'
p3628
I0
tp3629
a(I428
I4
F1.0
S'good'
p3630
I0
tp3631
a(I449
I2
F1.0
S'good'
p3632
I0
tp3633
a(I452
I0
F1.0
S'good'
p3634
I0
tp3635
a(I467
I0
F1.0
S'good'
p3636
I0
tp3637
a(I501
I6
F1.0
S'good'
p3638
I0
tp3639
a(I513
I0
F1.0
S'good'
p3640
I0
tp3641
a(I540
I15
F1.0
S'good'
p3642
I0
tp3643
a(I577
I1
F1.0
S'good'
p3644
I0
tp3645
a(I612
I2
F1.0
S'good'
p3646
I0
tp3647
a(I791
I0
F1.0
S'good'
p3648
I0
tp3649
a(I822
I1
F1.0
S'good'
p3650
I0
tp3651
a(I855
I7
F1.0
S'good'
p3652
I0
tp3653
a(I965
I2
F-0.875
S'strong'
p3654
I0
tp3655
a(I965
I2
F0.5
S'large'
p3656
I0
tp3657
a(I970
I1
F-0.625
S'last'
p3658
I0
tp3659
a(I988
I2
F1.0
S'good'
p3660
I0
tp3661
a(I1040
I2
F1.0
S'good'
p3662
I0
tp3663
a(I1049
I0
F1.0
S'good'
p3664
I0
tp3665
a(I1053
I0
F1.0
S'good'
p3666
I0
tp3667
a(I1067
I2
F1.0
S'good'
p3668
I0
tp3669
a(I1086
I1
F1.0
S'good'
p3670
I0
tp3671
a(I1090
I1
F1.0
S'good'
p3672
I0
tp3673
a(I1103
I0
F0.875
S'decent'
p3674
I0
tp3675
a(I1103
I0
F0.875
S'great'
p3676
I0
tp3677
a(I1144
I2
F1.0
S'good'
p3678
I0
tp3679
a(I1156
I6
F1.0
S'good'
p3680
I0
tp3681
a(I1161
I3
F1.0
S'good'
p3682
I0
tp3683
a(I1163
I1
F1.0
S'good'
p3684
I0
tp3685
a(I1194
I2
F1.0
S'good'
p3686
I0
tp3687
a(I1209
I0
F1.0
S'good'
p3688
I0
tp3689
a(I1214
I0
F0.875
S'nice'
p3690
I0
tp3691
a(I1215
I0
F1.0
g2555
I0
tp3692
a(I1256
I3
F1.0
S'good'
p3693
I0
tp3694
a(I1323
I0
F1.0
g2557
I0
tp3695
a(I1361
I4
F1.0
S'good'
p3696
I0
tp3697
a(I1379
I2
F1.0
S'good'
p3698
I0
tp3699
a(I1389
I1
F1.0
S'good'
p3700
I0
tp3701
a(I1429
I4
F1.0
S'good'
p3702
I0
tp3703
a(I1429
I6
F1.0
S'good'
p3704
I0
tp3705
a(I1443
I0
F1.0
S'good'
p3706
I0
tp3707
a(I1492
I1
F1.0
S'good'
p3708
I0
tp3709
a(I1524
I6
F0.5
S'powerful'
p3710
I0
tp3711
a(I1549
I1
F1.0
S'good'
p3712
I0
tp3713
a(I1563
I12
F1.0
S'good'
p3714
I0
tp3715
a(I1569
I12
F1.0
S'good'
p3716
I0
tp3717
a(I1573
I14
F1.0
S'good'
p3718
I0
tp3719
a(I1575
I1
F1.0
S'good'
p3720
I0
tp3721
a(I1699
I27
F0.375
S'much'
p3722
I0
tp3723
a(I1710
I0
F1.0
S'good'
p3724
I0
tp3725
a(I1713
I2
F1.0
S'good'
p3726
I0
tp3727
as(S'little'
p3728
S'bit'
p3729
tp3730
(lp3731
(I145
I6
F-0.75
S'little'
p3732
I4
tp3733
a(I145
I6
F-0.75
S'uncomfortable'
p3734
I4
tp3735
a(I280
I3
F-0.75
S'little'
p3736
I4
tp3737
a(I280
I3
F-0.875
S'low'
p3738
I4
tp3739
a(I427
I13
F-0.75
S'little'
p3740
I4
tp3741
a(I427
I13
I0
S'noisy'
p3742
I4
tp3743
a(I801
I0
F0.5
S'reflective'
p3744
I4
tp3745
a(I829
I13
F-0.75
S'little'
p3746
I4
tp3747
a(I829
I13
F-0.875
S'low'
p3748
I4
tp3749
a(I905
I8
F-0.75
S'little'
p3750
I4
tp3751
a(I953
I1
F-0.75
S'little'
p3752
I4
tp3753
a(I1096
I23
F-0.75
S'little'
p3754
I4
tp3755
a(I1096
I23
I0
S'grainy'
p3756
I4
tp3757
a(I1213
I3
F-0.75
S'little'
p3758
I4
tp3759
a(I1213
I3
F-0.75
S'difficult'
p3760
I4
tp3761
a(I1237
I0
F-0.75
S'little'
p3762
I4
tp3763
a(I1237
I0
I0
S'big'
p3764
I4
tp3765
a(I1254
I4
F-0.75
S'little'
p3766
I4
tp3767
a(I1377
I26
F-0.75
S'little'
p3768
I4
tp3769
a(I1488
I14
F-0.75
S'little'
p3770
I4
tp3771
a(I1488
I14
F-0.875
S'low'
p3772
I4
tp3773
a(I1488
I16
F-0.75
S'little'
p3774
I4
tp3775
a(I1488
I16
F-1.0
S'sad'
p3776
I4
tp3777
a(I1500
I9
F-0.25
S'i'
p3778
I4
tp3779
a(I1500
I9
F-0.75
S'little'
p3780
I4
tp3781
a(I1575
I2
F0.125
S'mobile'
p3782
I4
tp3783
a(I1575
I2
F-0.75
S'little'
p3784
I4
tp3785
a(I1575
I2
I0
S'hot'
p3786
I4
tp3787
a(I1605
I8
F-0.75
S'little'
p3788
I4
tp3789
a(I1605
I8
F-0.75
S'afraid'
p3790
I4
tp3791
as(S'low'
p3792
S'sar'
p3793
S'value'
p3794
tp3795
(lp3796
(I58
I1
F0.5
S'high'
p3797
I0
tp3798
a(I375
I1
F-0.875
S'low'
p3799
I0
tp3800
a(I566
I4
F-0.875
S'low'
p3801
I0
tp3802
a(I675
I12
F-0.875
S'low'
p3803
I0
tp3804
a(I676
I22
F-0.875
S'low'
p3805
I0
tp3806
a(I1002
I0
F-0.875
S'low'
p3807
I0
tp3808
a(I1588
I0
F-0.875
S'low'
p3809
I0
tp3810
a(I58
I1
F0.5
g3797
I0
tp3811
a(I311
I27
F-0.5
S'less'
p3812
I0
tp3813
a(I375
I1
F-0.875
g3799
I0
tp3814
a(I566
I4
F-0.875
g3801
I0
tp3815
a(I675
I12
F-0.875
g3803
I0
tp3816
a(I676
I22
F-0.875
g3805
I0
tp3817
a(I1002
I0
F-0.875
g3807
I0
tp3818
a(I1067
I12
F0.5
S'higher'
p3819
I0
tp3820
a(I1217
I4
F0.5
S'high'
p3821
I0
tp3822
a(I1588
I0
F-0.875
g3809
I0
tp3823
a(I1714
I3
F1.0
S'good'
p3824
I0
tp3825
as(S'worth'
p3826
tp3827
(lp3828
(I1158
I2
F-0.125
S'overall'
p3829
I8
tp3830
as(S'thanks'
p3831
tp3832
(lp3833
(I216
I34
F-0.625
S'last'
p3834
I7
tp3835
a(I216
I34
I0
S'least'
p3836
I7
tp3837
a(I358
I5
F-0.75
S'free'
p3838
I7
tp3839
a(I873
I0
F0.875
S'nice'
p3840
I7
tp3841
a(I907
I0
I0
S'mm'
p3842
I7
tp3843
a(I923
I11
F-0.625
S'last'
p3844
I7
tp3845
a(I960
I0
F1.0
S'good'
p3846
I7
tp3847
a(I1314
I0
F1.0
S'better'
p3848
I7
tp3849
a(I1772
I1
F0.625
S'smooth'
p3850
I7
tp3851
as(S'remarkable'
p3852
S'change'
p3853
tp3854
(lp3855
(I38
I3
F0.375
S'remarkable'
p3856
I0
tp3857
a(I756
I3
F0.375
S'remarkable'
p3858
I0
tp3859
a(I1439
I3
F0.375
S'remarkable'
p3860
I0
tp3861
as(S'laser'
p3862
S'ze550kl'
p3863
tp3864
(lp3865
(I1150
I0
I0
S'affordable'
p3866
I0
tp3867
as(S'viewing'
p3868
S'angles'
p3869
tp3870
(lp3871
(I181
I2
F0.5
S'crisp'
p3872
I0
tp3873
a(I447
I12
F0.875
S'great'
p3874
I0
tp3875
a(I759
I70
F0.875
S'greater'
p3876
I0
tp3877
a(I774
I3
F-0.625
S'wide'
p3878
I0
tp3879
a(I813
I6
F0.875
S'great'
p3880
I0
tp3881
a(I1766
I1
F0.875
S'great'
p3882
I0
tp3883
as(S'3000'
p3884
S'mah'
p3885
S'battery'
p3886
tp3887
(lp3888
(I18
I12
F1.0
S'good'
p3889
I0
tp3890
a(I355
I6
F-0.625
S'last'
p3891
I0
tp3892
a(I496
I1
F1.0
S'best'
p3893
I0
tp3894
a(I759
I57
I0
S'more'
p3895
I0
tp3896
a(I901
I0
F0.625
S'removable'
p3897
I0
tp3898
a(I901
I0
I0
S'more'
p3899
I0
tp3900
a(I1255
I0
F-0.125
S'huge'
p3901
I0
tp3902
a(I1279
I7
F1.0
S'good'
p3903
I0
tp3904
a(I1464
I0
F0.375
S'enabled'
p3905
I0
tp3906
a(I1710
I0
F1.0
g3724
I0
tp3907
a(I1726
I14
I0
S'more'
p3908
I0
tp3909
a(I1766
I2
F0.125
S'enough'
p3910
I0
tp3911
as(S'product'
p3912
S'from'
p3913
S'asus'
p3914
tp3915
(lp3916
(I326
I28
F0.875
S'great'
p3917
I0
tp3918
a(I1131
I10
F1.0
g2726
I0
tp3919
a(I1299
I0
F0.875
S'nice'
p3920
I0
tp3921
a(I1387
I2
F0.875
S'happy'
p3922
I0
tp3923
a(I1786
I12
F1.0
S'better'
p3924
I0
tp3925
a(I27
I3
F-0.25
S'i'
p3926
I0
tp3927
a(I40
I26
F-0.625
S'new'
p3928
I0
tp3929
a(I56
I1
F1.0
g1979
I0
tp3930
a(I90
I1
I0
S'inbuilt'
p3931
I0
tp3932
a(I112
I6
F0.25
S'prompt'
p3933
I0
tp3934
a(I146
I29
I0
S'more'
p3935
I0
tp3936
a(I181
I2
F1.0
S'good'
p3937
I0
tp3938
a(I185
I13
F0.5
S'technical'
p3939
I0
tp3940
a(I186
I6
I0
S'many'
p3941
I0
tp3942
a(I186
I6
I0
S'rubbish'
p3943
I0
tp3944
a(I201
I14
F-0.5
S'original'
p3945
I0
tp3946
a(I201
I14
F0.5
S'costly'
p3947
I0
tp3948
a(I201
I14
I0
S'u'
p3949
I0
tp3950
a(I227
I8
I0
S'own'
p3951
I0
tp3952
a(I254
I4
F-0.125
S'overall'
p3953
I0
tp3954
a(I326
I8
F1.0
S'best'
p3955
I0
tp3956
a(I326
I9
F-0.625
S'other'
p3957
I0
tp3958
a(I360
I0
F0.125
S'mobile'
p3959
I0
tp3960
a(I427
I8
F0.875
S'great'
p3961
I0
tp3962
a(I437
I19
F-0.125
S'overall'
p3963
I0
tp3964
a(I441
I5
F-0.5
S'several'
p3965
I0
tp3966
a(I442
I18
F0.25
S'able'
p3967
I0
tp3968
a(I451
I0
F0.5
S'old'
p3969
I0
tp3970
a(I455
I1
F-0.375
S'authorized'
p3971
I0
tp3972
a(I464
I0
F-0.778
S'common'
p3973
I0
tp3974
a(I526
I3
I0
S'many'
p3975
I0
tp3976
a(I534
I9
F0.875
S'important'
p3977
I0
tp3978
a(I534
I9
F0.5
S'stable'
p3979
I0
tp3980
a(I534
I10
F0.5
S'stable'
p3981
I0
tp3982
a(I581
I2
I0
S'updating'
p3983
I0
tp3984
a(I582
I10
I0
S'active'
p3985
I0
tp3986
a(I598
I6
I0
S'customized'
p3987
I0
tp3988
a(I657
I1
F1.0
g1981
I0
tp3989
a(I822
I3
I0
S'2nd'
p3990
I0
tp3991
a(I829
I6
F1.0
S'better'
p3992
I0
tp3993
a(I874
I2
F1.0
S'best'
p3994
I0
tp3995
a(I956
I17
F-0.75
S'disabled'
p3996
I0
tp3997
a(I975
I7
F-0.5
S'disappointed'
p3998
I0
tp3999
a(I985
I10
I0
S'local'
p4000
I0
tp4001
a(I997
I13
F0.5
S'unique'
p4002
I0
tp4003
a(I1011
I0
F1.0
S'good'
p4004
I0
tp4005
a(I1058
I3
I0
S'iconic'
p4006
I0
tp4007
a(I1074
I0
F1.0
S'good'
p4008
I0
tp4009
a(I1078
I0
F-0.125
S'such'
p4010
I0
tp4011
a(I1086
I6
F1.0
S'best'
p4012
I0
tp4013
a(I1131
I12
F-0.625
S'other'
p4014
I0
tp4015
a(I1167
I4
F0.875
S'great'
p4016
I0
tp4017
a(I1178
I5
F0.5
S'old'
p4018
I0
tp4019
a(I1217
I8
F0.375
S'available'
p4020
I0
tp4021
a(I1219
I3
F1.0
S'better'
p4022
I0
tp4023
a(I1314
I4
F0.875
S'awesome'
p4024
I0
tp4025
a(I1373
I2
I0
S'guys'
p4026
I0
tp4027
a(I1387
I2
F0.875
g3922
I0
tp4028
a(I1396
I2
F-0.875
S'smart'
p4029
I0
tp4030
a(I1420
I1
F1.0
g1983
I0
tp4031
a(I1472
I6
F-0.25
S'i'
p4032
I0
tp4033
a(I1533
I3
F-0.5
S'tool'
p4034
I0
tp4035
a(I1533
I5
F0.25
S'usable'
p4036
I0
tp4037
a(I1684
I0
F-0.25
S'i'
p4038
I0
tp4039
a(I1684
I0
I0
S'incredible'
p4040
I0
tp4041
a(I1699
I25
F-0.375
S'same'
p4042
I0
tp4043
a(I1726
I11
F0.625
S'first'
p4044
I0
tp4045
a(I1786
I2
F0.125
S'mobile'
p4046
I0
tp4047
as(g381
S'mp'
p4048
S'front'
p4049
tp4050
(lp4051
(I121
I5
F1.0
S'good'
p4052
I0
tp4053
a(I437
I26
F1.0
S'good'
p4054
I0
tp4055
a(I579
I1
F-0.125
S'front'
p4056
I0
tp4057
a(I1772
I9
F1.0
g2288
I0
tp4058
a(I121
I5
F1.0
g4052
I0
tp4059
a(I437
I26
F1.0
g4054
I0
tp4060
a(I440
I5
I0
S's'
p4061
I0
tp4062
a(I563
I2
F-0.375
S'same'
p4063
I0
tp4064
a(I579
I1
F-0.125
g4056
I0
tp4065
a(I868
I0
F1.0
S'good'
p4066
I0
tp4067
as(S'back'
p4068
S'up'
p4069
S'good'
p4070
tp4071
(lp4072
(I502
I37
F1.0
S'good'
p4073
I0
tp4074
a(I970
I1
F-0.625
g3658
I0
tp4075
as(S'decent'
p4076
tp4077
(lp4078
(I997
I10
I0
S'pretty'
p4079
I4
tp4080
as(S'third'
p4081
S'party'
p4082
tp4083
(lp4084
(I299
I0
I0
S'third'
p4085
I0
tp4086
a(I640
I6
I0
S'many'
p4087
I0
tp4088
a(I640
I6
I0
S'third'
p4089
I0
tp4090
a(I909
I3
I0
S'third'
p4091
I0
tp4092
a(I1538
I1
I0
S'third'
p4093
I0
tp4094
as(S'service'
p4095
S'center'
p4096
tp4097
(lp4098
(I456
I5
I0
S'local'
p4099
I5
tp4100
a(I979
I7
I0
S'own'
p4101
I5
tp4102
a(I1215
I7
F1.0
S'good'
p4103
I5
tp4104
a(I1217
I9
F0.375
S'available'
p4105
I5
tp4106
as(S'smooth'
p4107
tp4108
(lp4109
(I518
I0
F0.5
S'touch'
p4110
I3
tp4111
a(I727
I0
F0.5
S'powerful'
p4112
I3
tp4113
a(I1670
I5
F-0.5
S'buttery'
p4114
I3
tp4115
a(I1670
I5
F-0.75
S'free'
p4116
I3
tp4117
as(S'good'
p4118
S'battery'
p4119
S'life'
p4120
tp4121
(lp4122
(I133
I11
F1.0
S'good'
p4123
I0
tp4124
a(I381
I5
F1.0
S'good'
p4125
I0
tp4126
a(I444
I0
F1.0
S'good'
p4127
I0
tp4128
a(I492
I1
F1.0
S'good'
p4129
I0
tp4130
a(I654
I9
F1.0
S'good'
p4131
I0
tp4132
a(I679
I1
F1.0
S'good'
p4133
I0
tp4134
a(I791
I7
F1.0
S'good'
p4135
I0
tp4136
a(I818
I2
F1.0
S'good'
p4137
I0
tp4138
a(I860
I1
F1.0
S'good'
p4139
I0
tp4140
a(I957
I21
F1.0
S'good'
p4141
I0
tp4142
a(I1040
I2
F1.0
g3662
I0
tp4143
a(I1158
I7
I0
S'more'
p4144
I0
tp4145
a(I1158
I7
F1.0
S'good'
p4146
I0
tp4147
a(I1164
I3
F1.0
S'good'
p4148
I0
tp4149
a(I1170
I1
F1.0
S'good'
p4150
I0
tp4151
a(I1189
I3
F1.0
S'good'
p4152
I0
tp4153
a(I1218
I3
F1.0
S'good'
p4154
I0
tp4155
a(I1233
I4
F1.0
S'good'
p4156
I0
tp4157
a(I1264
I0
F1.0
S'good'
p4158
I0
tp4159
a(I1265
I0
F1.0
S'good'
p4160
I0
tp4161
a(I1279
I7
F1.0
g3903
I0
tp4162
a(I1338
I1
F1.0
S'good'
p4163
I0
tp4164
a(I1338
I1
I0
S'more'
p4165
I0
tp4166
a(I1352
I7
F1.0
S'good'
p4167
I0
tp4168
a(I1377
I19
F1.0
S'good'
p4169
I0
tp4170
a(I1483
I29
F0.875
S'awesome'
p4171
I0
tp4172
a(I1511
I2
F1.0
S'good'
p4173
I0
tp4174
a(I1534
I4
F1.0
S'good'
p4175
I0
tp4176
a(I1534
I4
I0
S'more'
p4177
I0
tp4178
a(I1613
I3
F1.0
S'good'
p4179
I0
tp4180
a(I1634
I0
F-0.25
S'battery'
p4181
I0
tp4182
a(I1647
I13
F0.875
S'great'
p4183
I0
tp4184
a(I1682
I1
F1.0
S'good'
p4185
I0
tp4186
a(I1682
I1
F-0.5
S'loud'
p4187
I0
tp4188
a(I1683
I3
F1.0
S'good'
p4189
I0
tp4190
a(I1732
I9
F1.0
S'good'
p4191
I0
tp4192
a(I25
I0
F0.375
S'much'
p4193
I3
tp4194
a(I39
I27
F1.0
g2530
I3
tp4195
a(I107
I7
I0
S's'
p4196
I3
tp4197
a(I107
I7
I0
S'massive'
p4198
I3
tp4199
a(I113
I6
F-0.25
S'battery'
p4200
I3
tp4201
a(I113
I6
F0.875
S'important'
p4202
I3
tp4203
a(I132
I1
F1.0
S'better'
p4204
I3
tp4205
a(I133
I11
F1.0
g4123
I3
tp4206
a(I209
I4
F0.875
S'amazing'
p4207
I3
tp4208
a(I235
I0
F0.875
S'amazing'
p4209
I3
tp4210
a(I235
I0
F-0.625
S'last'
p4211
I3
tp4212
a(I262
I1
F1.0
g2532
I3
tp4213
a(I332
I2
F1.0
g2534
I3
tp4214
a(I365
I2
F1.0
g2536
I3
tp4215
a(I381
I5
F1.0
g4125
I3
tp4216
a(I444
I0
F1.0
g4127
I3
tp4217
a(I471
I0
F0.375
S'ok'
p4218
I3
tp4219
a(I492
I1
F1.0
g4129
I3
tp4220
a(I551
I4
F1.0
S'best'
p4221
I3
tp4222
a(I654
I9
F1.0
g4131
I3
tp4223
a(I672
I0
F-0.25
S'battery'
p4224
I3
tp4225
a(I679
I1
F1.0
g4133
I3
tp4226
a(I791
I7
F1.0
g4135
I3
tp4227
a(I804
I0
I0
S'biggest'
p4228
I3
tp4229
a(I818
I2
F1.0
g4137
I3
tp4230
a(I829
I6
F0.875
S'awesome'
p4231
I3
tp4232
a(I829
I6
F-0.375
S'same'
p4233
I3
tp4234
a(I855
I13
F1.0
g2538
I3
tp4235
a(I860
I1
F1.0
g4139
I3
tp4236
a(I880
I8
F1.0
g2540
I3
tp4237
a(I957
I21
F1.0
g4141
I3
tp4238
a(I966
I1
F0.875
S'superb'
p4239
I3
tp4240
a(I1010
I8
F0.625
g2542
I3
tp4241
a(I1040
I2
F1.0
g3662
I3
tp4242
a(I1158
I7
I0
g4144
I3
tp4243
a(I1158
I7
F1.0
g4146
I3
tp4244
a(I1164
I3
F1.0
g4148
I3
tp4245
a(I1170
I1
F1.0
g4150
I3
tp4246
a(I1178
I10
F0.875
S'great'
p4247
I3
tp4248
a(I1189
I3
F1.0
g4152
I3
tp4249
a(I1218
I3
F1.0
g4154
I3
tp4250
a(I1233
I4
F1.0
g4156
I3
tp4251
a(I1254
I2
F0.625
S'super'
p4252
I3
tp4253
a(I1264
I0
F1.0
g4158
I3
tp4254
a(I1265
I0
F1.0
g4160
I3
tp4255
a(I1269
I2
F-0.5
S'long'
p4256
I3
tp4257
a(I1279
I7
F1.0
g3903
I3
tp4258
a(I1338
I1
F1.0
g4163
I3
tp4259
a(I1338
I1
I0
g4165
I3
tp4260
a(I1352
I7
F1.0
g4167
I3
tp4261
a(I1377
I19
F1.0
g4169
I3
tp4262
a(I1483
I29
F0.875
g4171
I3
tp4263
a(I1511
I2
F1.0
g4173
I3
tp4264
a(I1534
I4
F1.0
g4175
I3
tp4265
a(I1534
I4
I0
g4177
I3
tp4266
a(I1613
I3
F1.0
g4179
I3
tp4267
a(I1629
I0
F0.875
S'great'
p4268
I3
tp4269
a(I1634
I0
F-0.25
g4181
I3
tp4270
a(I1647
I13
F0.875
g4183
I3
tp4271
a(I1652
I12
F0.875
S'decent'
p4272
I3
tp4273
a(I1652
I12
F0.875
S'great'
p4274
I3
tp4275
a(I1667
I3
F-0.25
S'battery'
p4276
I3
tp4277
a(I1682
I1
F1.0
g4185
I3
tp4278
a(I1682
I1
F-0.5
g4187
I3
tp4279
a(I1683
I3
F1.0
g4189
I3
tp4280
a(I1717
I0
F0.875
S'great'
p4281
I3
tp4282
a(I1731
I5
I0
S'u'
p4283
I3
tp4284
a(I1731
I5
I0
S'more'
p4285
I3
tp4286
a(I1732
I9
F1.0
g4191
I3
tp4287
a(I107
I7
I0
g4196
I8
tp4288
a(I107
I7
I0
g4198
I8
tp4289
a(I113
I6
F-0.25
g4200
I8
tp4290
a(I113
I6
F0.875
g4202
I8
tp4291
a(I132
I1
F1.0
g4204
I8
tp4292
a(I132
I25
F-0.625
S'real'
p4293
I8
tp4294
a(I133
I6
F-0.625
S'real'
p4295
I8
tp4296
a(I133
I11
F1.0
g4123
I8
tp4297
a(I235
I0
F-0.625
g4211
I8
tp4298
a(I310
I3
F0.75
S'easier'
p4299
I8
tp4300
a(I365
I2
F1.0
g2536
I8
tp4301
a(I430
I3
F0.75
S'easier'
p4302
I8
tp4303
a(I471
I0
F0.375
g4218
I8
tp4304
a(I492
I1
F1.0
g4129
I8
tp4305
a(I654
I9
F1.0
g4131
I8
tp4306
a(I672
I0
F-0.25
g4224
I8
tp4307
a(I791
I7
F1.0
g4135
I8
tp4308
a(I829
I6
F0.875
g4231
I8
tp4309
a(I829
I6
F-0.375
g4233
I8
tp4310
a(I957
I21
F1.0
g4141
I8
tp4311
a(I1010
I8
F0.625
g2542
I8
tp4312
a(I1158
I7
I0
g4144
I8
tp4313
a(I1158
I7
F1.0
g4146
I8
tp4314
a(I1164
I3
F1.0
g4148
I8
tp4315
a(I1170
I1
F1.0
g4150
I8
tp4316
a(I1218
I3
F1.0
g4154
I8
tp4317
a(I1233
I4
F1.0
g4156
I8
tp4318
a(I1265
I0
F1.0
g4160
I8
tp4319
a(I1338
I1
I0
g4165
I8
tp4320
a(I1483
I29
F0.875
g4171
I8
tp4321
a(I1511
I2
F1.0
g4173
I8
tp4322
a(I1534
I4
F1.0
g4175
I8
tp4323
a(I1534
I4
I0
g4177
I8
tp4324
a(I1634
I0
F-0.25
g4181
I8
tp4325
a(I1667
I3
F-0.25
g4276
I8
tp4326
a(I1682
I1
F-0.5
g4187
I8
tp4327
a(I1731
I5
I0
g4285
I8
tp4328
a(I1732
I9
F1.0
g4191
I8
tp4329
as(S'in'
p4330
S'10k'
p4331
S'range'
p4332
tp4333
(lp4334
(I675
I28
F1.0
S'best'
p4335
I0
tp4336
as(S'user'
p4337
tp4338
(lp4339
(I189
I11
F-0.625
S'other'
p4340
I9
tp4341
a(I189
I11
I0
S'online'
p4342
I9
tp4343
a(I381
I0
I0
S'actual'
p4344
I9
tp4345
a(I426
I0
F-0.625
S'moderate'
p4346
I9
tp4347
a(I478
I0
F-0.5
S'heavy'
p4348
I9
tp4349
a(I478
I1
F-0.5
S'heavy'
p4350
I9
tp4351
a(I557
I14
F0.5
S'similar'
p4352
I9
tp4353
a(I557
I14
F0.625
S'friendly'
p4354
I9
tp4355
a(I572
I6
F-0.5
S'heavy'
p4356
I9
tp4357
a(I572
I8
F-0.625
S'moderate'
p4358
I9
tp4359
a(I589
I3
F-0.875
S'low'
p4360
I9
tp4361
a(I589
I3
I0
S'many'
p4362
I9
tp4363
a(I658
I16
F1.0
S'good'
p4364
I9
tp4365
a(I779
I2
F0.25
S'basic'
p4366
I9
tp4367
a(I814
I3
F-0.625
S'average'
p4368
I9
tp4369
a(I822
I22
F0.75
S'beautiful'
p4370
I9
tp4371
a(I872
I15
F-0.5
S'heavy'
p4372
I9
tp4373
a(I873
I5
F-0.625
S'last'
p4374
I9
tp4375
a(I1139
I10
F-0.625
S'moderate'
p4376
I9
tp4377
a(I1329
I3
I0
S'normal'
p4378
I9
tp4379
a(I1335
I1
F0.875
S'happy'
p4380
I9
tp4381
a(I1337
I21
F-0.625
S'moderate'
p4382
I9
tp4383
a(I1374
I1
F-0.625
S'average'
p4384
I9
tp4385
a(I1374
I1
F-0.5
S'heavy'
p4386
I9
tp4387
a(I1428
I1
F0.625
S'friendly'
p4388
I9
tp4389
a(I1482
I6
F-0.625
S'average'
p4390
I9
tp4391
a(I1808
I0
F-0.125
S'general'
p4392
I9
tp4393
a(I1813
I0
F0.75
S'easy'
p4394
I9
tp4395
a(I1830
I0
F0.375
S'available'
p4396
I9
tp4397
as(S'very'
p4398
S'good'
p4399
S'camera'
p4400
tp4401
(lp4402
(I51
I6
F-0.625
S'sharp'
p4403
I0
tp4404
a(I51
I6
F1.0
S'best'
p4405
I0
tp4406
a(I197
I6
F-0.625
S'sharp'
p4407
I0
tp4408
a(I197
I6
F1.0
S'best'
p4409
I0
tp4410
a(I649
I7
F1.0
S'good'
p4411
I0
tp4412
a(I666
I0
F1.0
S'good'
p4413
I0
tp4414
a(I666
I0
F1.0
S'good'
p4415
I0
tp4416
a(I701
I0
F1.0
g2096
I0
tp4417
a(I821
I0
F1.0
S'good'
p4418
I0
tp4419
a(I821
I0
F0.875
S'awesome'
p4420
I0
tp4421
a(I856
I32
F1.0
S'good'
p4422
I0
tp4423
a(I868
I0
F-0.625
S'sharp'
p4424
I0
tp4425
a(I893
I2
I0
g2100
I0
tp4426
a(I965
I2
F1.0
S'good'
p4427
I0
tp4428
a(I1016
I0
F1.0
S'good'
p4429
I0
tp4430
a(I1038
I0
F1.0
S'good'
p4431
I0
tp4432
a(I1213
I1
F1.0
S'excellent'
p4433
I0
tp4434
a(I1214
I0
F1.0
S'good'
p4435
I0
tp4436
a(I1279
I0
F1.0
S'good'
p4437
I0
tp4438
a(I1279
I0
F1.0
S'good'
p4439
I0
tp4440
a(I1296
I3
F0.875
S'nice'
p4441
I0
tp4442
a(I1299
I1
F1.0
S'good'
p4443
I0
tp4444
a(I1299
I1
F-0.625
S'average'
p4445
I0
tp4446
a(I1361
I4
F1.0
S'good'
p4447
I0
tp4448
a(I1375
I3
F0.875
S'nice'
p4449
I0
tp4450
a(I1383
I1
F1.0
S'good'
p4451
I0
tp4452
a(I1383
I1
F1.0
S'good'
p4453
I0
tp4454
a(I1383
I1
F1.0
S'good'
p4455
I0
tp4456
a(I1386
I4
F1.0
S'good'
p4457
I0
tp4458
a(I1465
I5
I0
S'light'
p4459
I0
tp4460
a(I1465
I5
F1.0
S'good'
p4461
I0
tp4462
a(I1483
I22
F0.875
S'decent'
p4463
I0
tp4464
a(I1483
I29
F1.0
S'good'
p4465
I0
tp4466
a(I1487
I3
F1.0
S'good'
p4467
I0
tp4468
a(I1524
I6
F0.875
S'awesome'
p4469
I0
tp4470
a(I1573
I13
F0.875
S'great'
p4471
I0
tp4472
a(I1587
I0
F1.0
S'good'
p4473
I0
tp4474
a(I1631
I16
F0.625
S'super'
p4475
I0
tp4476
a(I1682
I1
F1.0
g2130
I0
tp4477
a(I1733
I2
F1.0
S'good'
p4478
I0
tp4479
a(I1753
I2
F-0.875
S'low'
p4480
I0
tp4481
a(I1768
I2
F1.0
S'good'
p4482
I0
tp4483
a(I1786
I11
F1.0
S'good'
p4484
I0
tp4485
a(I1843
I4
F1.0
S'good'
p4486
I0
tp4487
a(I39
I2
F1.0
S'good'
p4488
I3
tp4489
a(I46
I1
F1.0
S'good'
p4490
I3
tp4491
a(I51
I6
F-0.625
g4403
I3
tp4492
a(I51
I6
F1.0
g4405
I3
tp4493
a(I65
I1
F1.0
S'good'
p4494
I3
tp4495
a(I114
I3
F1.0
S'good'
p4496
I3
tp4497
a(I132
I11
F1.0
S'good'
p4498
I3
tp4499
a(I132
I16
F-0.875
S'wrong'
p4500
I3
tp4501
a(I132
I16
F1.0
S'good'
p4502
I3
tp4503
a(I132
I18
F1.0
S'good'
p4504
I3
tp4505
a(I140
I5
F1.0
g2072
I3
tp4506
a(I141
I0
F1.0
S'good'
p4507
I3
tp4508
a(I145
I14
F1.0
S'good'
p4509
I3
tp4510
a(I154
I1
F1.0
S'good'
p4511
I3
tp4512
a(I172
I0
F1.0
g2074
I3
tp4513
a(I197
I6
F-0.625
g4407
I3
tp4514
a(I197
I6
F1.0
g4409
I3
tp4515
a(I199
I2
F1.0
S'good'
p4516
I3
tp4517
a(I212
I1
F1.0
S'good'
p4518
I3
tp4519
a(I212
I1
F1.0
S'best'
p4520
I3
tp4521
a(I219
I1
F1.0
S'good'
p4522
I3
tp4523
a(I253
I8
F0.875
S'decent'
p4524
I3
tp4525
a(I287
I2
F1.0
g2076
I3
tp4526
a(I288
I1
I0
S'rear'
p4527
I3
tp4528
a(I289
I13
F1.0
S'good'
p4529
I3
tp4530
a(I343
I5
F1.0
S'good'
p4531
I3
tp4532
a(I360
I2
F1.0
S'good'
p4533
I3
tp4534
a(I386
I4
F1.0
S'good'
p4535
I3
tp4536
a(I386
I4
F1.0
S'best'
p4537
I3
tp4538
a(I421
I5
F1.0
S'good'
p4539
I3
tp4540
a(I421
I6
F1.0
S'good'
p4541
I3
tp4542
a(I428
I6
F1.0
S'good'
p4543
I3
tp4544
a(I437
I5
F1.0
g2078
I3
tp4545
a(I470
I1
F1.0
g2080
I3
tp4546
a(I477
I3
F1.0
S'good'
p4547
I3
tp4548
a(I477
I3
F1.0
S'good'
p4549
I3
tp4550
a(I490
I15
F-0.125
g2082
I3
tp4551
a(I502
I38
F1.0
S'good'
p4552
I3
tp4553
a(I534
I9
F1.0
S'good'
p4554
I3
tp4555
a(I537
I2
I0
S'guys'
p4556
I3
tp4557
a(I537
I2
F1.0
S'good'
p4558
I3
tp4559
a(I540
I9
F1.0
g2084
I3
tp4560
a(I554
I1
F1.0
S'good'
p4561
I3
tp4562
a(I579
I3
F-0.125
g2086
I3
tp4563
a(I579
I3
F0.875
g2088
I3
tp4564
a(I637
I3
F1.0
g2090
I3
tp4565
a(I653
I0
F0.875
S'nice'
p4566
I3
tp4567
a(I666
I0
F1.0
g4413
I3
tp4568
a(I666
I0
F1.0
g4415
I3
tp4569
a(I674
I11
I0
g2092
I3
tp4570
a(I701
I0
F1.0
g2096
I3
tp4571
a(I730
I1
F1.0
S'good'
p4572
I3
tp4573
a(I757
I2
F1.0
S'good'
p4574
I3
tp4575
a(I776
I0
I0
S'rear'
p4576
I3
tp4577
a(I776
I0
F1.0
S'good'
p4578
I3
tp4579
a(I798
I0
I0
S'rear'
p4580
I3
tp4581
a(I821
I0
F1.0
g4418
I3
tp4582
a(I821
I0
F0.875
g4420
I3
tp4583
a(I843
I0
F1.0
S'good'
p4584
I3
tp4585
a(I856
I32
F1.0
g4422
I3
tp4586
a(I868
I0
F-0.625
g4424
I3
tp4587
a(I872
I23
F0.75
S'primary'
p4588
I3
tp4589
a(I884
I0
F1.0
S'good'
p4590
I3
tp4591
a(I893
I2
I0
g2100
I3
tp4592
a(I905
I10
F1.0
S'good'
p4593
I3
tp4594
a(I935
I9
F1.0
S'good'
p4595
I3
tp4596
a(I936
I1
F1.0
S'good'
p4597
I3
tp4598
a(I936
I1
F-1.0
S'bad'
p4599
I3
tp4600
a(I965
I2
F1.0
g4427
I3
tp4601
a(I988
I0
F1.0
S'good'
p4602
I3
tp4603
a(I1000
I0
F1.0
S'good'
p4604
I3
tp4605
a(I1016
I0
F1.0
g4429
I3
tp4606
a(I1038
I0
F1.0
g4431
I3
tp4607
a(I1083
I2
F1.0
g2102
I3
tp4608
a(I1083
I2
I0
g2104
I3
tp4609
a(I1096
I0
F0.875
S'great'
p4610
I3
tp4611
a(I1117
I1
I0
g2106
I3
tp4612
a(I1117
I1
F1.0
g2108
I3
tp4613
a(I1117
I1
F-0.125
g2110
I3
tp4614
a(I1139
I6
F1.0
S'good'
p4615
I3
tp4616
a(I1145
I2
F1.0
S'good'
p4617
I3
tp4618
a(I1147
I0
F1.0
S'good'
p4619
I3
tp4620
a(I1158
I0
F1.0
S'good'
p4621
I3
tp4622
a(I1164
I0
F1.0
S'good'
p4623
I3
tp4624
a(I1164
I5
F1.0
S'good'
p4625
I3
tp4626
a(I1195
I5
F1.0
S'good'
p4627
I3
tp4628
a(I1200
I2
F1.0
S'good'
p4629
I3
tp4630
a(I1201
I2
F1.0
S'good'
p4631
I3
tp4632
a(I1201
I7
F1.0
S'good'
p4633
I3
tp4634
a(I1206
I0
F1.0
g2114
I3
tp4635
a(I1208
I0
F1.0
S'good'
p4636
I3
tp4637
a(I1213
I1
F1.0
g4433
I3
tp4638
a(I1214
I0
F1.0
g4435
I3
tp4639
a(I1227
I0
I0
S'lagging'
p4640
I3
tp4641
a(I1256
I6
F1.0
S'good'
p4642
I3
tp4643
a(I1275
I11
F1.0
S'good'
p4644
I3
tp4645
a(I1277
I0
F1.0
S'good'
p4646
I3
tp4647
a(I1279
I0
F1.0
g4437
I3
tp4648
a(I1279
I0
F1.0
g4439
I3
tp4649
a(I1296
I3
F0.875
g4441
I3
tp4650
a(I1299
I1
F1.0
g4443
I3
tp4651
a(I1299
I1
F-0.625
g4445
I3
tp4652
a(I1301
I3
I0
S'screen'
p4653
I3
tp4654
a(I1321
I2
F0.875
S'great'
p4655
I3
tp4656
a(I1323
I1
F1.0
S'excellent'
p4657
I3
tp4658
a(I1325
I0
F-0.875
S'poor'
p4659
I3
tp4660
a(I1329
I4
F1.0
S'good'
p4661
I3
tp4662
a(I1330
I3
F1.0
S'good'
p4663
I3
tp4664
a(I1330
I3
I0
S'daylight'
p4665
I3
tp4666
a(I1352
I7
F-0.625
S'average'
p4667
I3
tp4668
a(I1361
I4
F1.0
g4447
I3
tp4669
a(I1375
I3
F0.875
g4449
I3
tp4670
a(I1377
I12
F1.0
S'good'
p4671
I3
tp4672
a(I1383
I1
F1.0
g4451
I3
tp4673
a(I1383
I1
F1.0
g4453
I3
tp4674
a(I1383
I1
F1.0
g4455
I3
tp4675
a(I1386
I4
F1.0
g4457
I3
tp4676
a(I1391
I1
F-0.125
g2120
I3
tp4677
a(I1406
I3
F1.0
S'good'
p4678
I3
tp4679
a(I1406
I4
F1.0
S'good'
p4680
I3
tp4681
a(I1406
I9
F1.0
S'good'
p4682
I3
tp4683
a(I1412
I1
F1.0
g2122
I3
tp4684
a(I1440
I2
F1.0
S'good'
p4685
I3
tp4686
a(I1465
I5
I0
g4459
I3
tp4687
a(I1465
I5
F1.0
g4461
I3
tp4688
a(I1470
I1
F1.0
S'good'
p4689
I3
tp4690
a(I1477
I0
F1.0
S'good'
p4691
I3
tp4692
a(I1483
I1
F0.875
S'awesome'
p4693
I3
tp4694
a(I1483
I22
F0.875
g4463
I3
tp4695
a(I1483
I29
F1.0
g4465
I3
tp4696
a(I1485
I14
F1.0
S'good'
p4697
I3
tp4698
a(I1487
I3
F1.0
g4467
I3
tp4699
a(I1488
I16
F0.75
S'primary'
p4700
I3
tp4701
a(I1488
I19
F-0.75
S'little'
p4702
I3
tp4703
a(I1488
I19
F-0.75
S'disappointing'
p4704
I3
tp4705
a(I1524
I6
F0.875
g4469
I3
tp4706
a(I1555
I1
F1.0
S'good'
p4707
I3
tp4708
a(I1560
I6
F-0.625
S'average'
p4709
I3
tp4710
a(I1560
I6
F1.0
S'good'
p4711
I3
tp4712
a(I1560
I6
F1.0
S'best'
p4713
I3
tp4714
a(I1573
I13
F0.875
g4471
I3
tp4715
a(I1580
I0
F0.875
S'great'
p4716
I3
tp4717
a(I1587
I0
F1.0
g4473
I3
tp4718
a(I1605
I3
F1.0
S'good'
p4719
I3
tp4720
a(I1613
I1
F1.0
S'good'
p4721
I3
tp4722
a(I1620
I0
I0
S'rear'
p4723
I3
tp4724
a(I1623
I15
F1.0
S'good'
p4725
I3
tp4726
a(I1629
I2
F1.0
S'good'
p4727
I3
tp4728
a(I1631
I16
F0.625
g4475
I3
tp4729
a(I1633
I4
F0.875
S'great'
p4730
I3
tp4731
a(I1633
I4
F1.0
S'good'
p4732
I3
tp4733
a(I1634
I0
F1.0
S'good'
p4734
I3
tp4735
a(I1635
I6
F-0.125
g2126
I3
tp4736
a(I1635
I6
F1.0
g2128
I3
tp4737
a(I1644
I3
F1.0
S'good'
p4738
I3
tp4739
a(I1646
I3
F1.0
S'good'
p4740
I3
tp4741
a(I1647
I13
F1.0
S'good'
p4742
I3
tp4743
a(I1651
I12
F1.0
S'good'
p4744
I3
tp4745
a(I1651
I23
F-0.625
S'average'
p4746
I3
tp4747
a(I1651
I23
F1.0
S'good'
p4748
I3
tp4749
a(I1652
I15
F1.0
S'good'
p4750
I3
tp4751
a(I1682
I1
F1.0
g2130
I3
tp4752
a(I1682
I2
F1.0
S'good'
p4753
I3
tp4754
a(I1685
I0
F1.0
S'good'
p4755
I3
tp4756
a(I1699
I4
F1.0
S'good'
p4757
I3
tp4758
a(I1699
I9
F1.0
g2132
I3
tp4759
a(I1699
I9
F1.0
g2134
I3
tp4760
a(I1699
I9
F-0.125
g2136
I3
tp4761
a(I1709
I0
F1.0
S'good'
p4762
I3
tp4763
a(I1714
I2
F1.0
S'good'
p4764
I3
tp4765
a(I1731
I2
F1.0
S'good'
p4766
I3
tp4767
a(I1731
I7
F1.0
S'good'
p4768
I3
tp4769
a(I1732
I9
F1.0
S'good'
p4770
I3
tp4771
a(I1733
I2
F1.0
g4478
I3
tp4772
a(I1753
I2
F-0.875
g4480
I3
tp4773
a(I1768
I2
F1.0
g4482
I3
tp4774
a(I1770
I0
F0.5
S'high'
p4775
I3
tp4776
a(I1772
I6
F1.0
S'good'
p4777
I3
tp4778
a(I1786
I11
F1.0
g4484
I3
tp4779
a(I1831
I0
F1.0
S'good'
p4780
I3
tp4781
a(I1843
I4
F1.0
g4486
I3
tp4782
a(I39
I2
F1.0
g4488
I0
tp4783
a(I46
I1
F1.0
g4490
I0
tp4784
a(I51
I6
F-0.625
g4403
I0
tp4785
a(I51
I6
F1.0
g4405
I0
tp4786
a(I65
I1
F1.0
g4494
I0
tp4787
a(I114
I3
F1.0
g4496
I0
tp4788
a(I132
I11
F1.0
g4498
I0
tp4789
a(I132
I16
F-0.875
g4500
I0
tp4790
a(I132
I16
F1.0
g4502
I0
tp4791
a(I132
I18
F1.0
g4504
I0
tp4792
a(I140
I5
F1.0
g2072
I0
tp4793
a(I141
I0
F1.0
g4507
I0
tp4794
a(I145
I14
F1.0
g4509
I0
tp4795
a(I154
I1
F1.0
g4511
I0
tp4796
a(I172
I0
F1.0
g2074
I0
tp4797
a(I197
I6
F-0.625
g4407
I0
tp4798
a(I197
I6
F1.0
g4409
I0
tp4799
a(I199
I2
F1.0
g4516
I0
tp4800
a(I212
I1
F1.0
g4518
I0
tp4801
a(I212
I1
F1.0
g4520
I0
tp4802
a(I219
I1
F1.0
g4522
I0
tp4803
a(I253
I8
F0.875
g4524
I0
tp4804
a(I287
I2
F1.0
g2076
I0
tp4805
a(I288
I1
I0
g4527
I0
tp4806
a(I289
I13
F1.0
g4529
I0
tp4807
a(I343
I5
F1.0
g4531
I0
tp4808
a(I360
I2
F1.0
g4533
I0
tp4809
a(I386
I4
F1.0
g4535
I0
tp4810
a(I386
I4
F1.0
g4537
I0
tp4811
a(I421
I5
F1.0
g4539
I0
tp4812
a(I421
I6
F1.0
g4541
I0
tp4813
a(I428
I6
F1.0
g4543
I0
tp4814
a(I437
I5
F1.0
g2078
I0
tp4815
a(I470
I1
F1.0
g2080
I0
tp4816
a(I477
I3
F1.0
g4547
I0
tp4817
a(I477
I3
F1.0
g4549
I0
tp4818
a(I490
I15
F-0.125
g2082
I0
tp4819
a(I502
I38
F1.0
g4552
I0
tp4820
a(I534
I9
F1.0
g4554
I0
tp4821
a(I537
I2
I0
g4556
I0
tp4822
a(I537
I2
F1.0
g4558
I0
tp4823
a(I540
I9
F1.0
g2084
I0
tp4824
a(I554
I1
F1.0
g4561
I0
tp4825
a(I579
I3
F-0.125
g2086
I0
tp4826
a(I579
I3
F0.875
g2088
I0
tp4827
a(I637
I3
F1.0
g2090
I0
tp4828
a(I653
I0
F0.875
g4566
I0
tp4829
a(I666
I0
F1.0
g4413
I0
tp4830
a(I666
I0
F1.0
g4415
I0
tp4831
a(I674
I11
I0
g2092
I0
tp4832
a(I701
I0
F1.0
g2096
I0
tp4833
a(I730
I1
F1.0
g4572
I0
tp4834
a(I757
I2
F1.0
g4574
I0
tp4835
a(I776
I0
I0
g4576
I0
tp4836
a(I776
I0
F1.0
g4578
I0
tp4837
a(I798
I0
I0
g4580
I0
tp4838
a(I821
I0
F1.0
g4418
I0
tp4839
a(I821
I0
F0.875
g4420
I0
tp4840
a(I843
I0
F1.0
g4584
I0
tp4841
a(I856
I32
F1.0
g4422
I0
tp4842
a(I868
I0
F-0.625
g4424
I0
tp4843
a(I872
I23
F0.75
g4588
I0
tp4844
a(I884
I0
F1.0
g4590
I0
tp4845
a(I893
I2
I0
g2100
I0
tp4846
a(I905
I10
F1.0
g4593
I0
tp4847
a(I935
I9
F1.0
g4595
I0
tp4848
a(I936
I1
F1.0
g4597
I0
tp4849
a(I936
I1
F-1.0
g4599
I0
tp4850
a(I965
I2
F1.0
g4427
I0
tp4851
a(I988
I0
F1.0
g4602
I0
tp4852
a(I1000
I0
F1.0
g4604
I0
tp4853
a(I1016
I0
F1.0
g4429
I0
tp4854
a(I1038
I0
F1.0
g4431
I0
tp4855
a(I1083
I2
F1.0
g2102
I0
tp4856
a(I1083
I2
I0
g2104
I0
tp4857
a(I1096
I0
F0.875
g4610
I0
tp4858
a(I1117
I1
I0
g2106
I0
tp4859
a(I1117
I1
F1.0
g2108
I0
tp4860
a(I1117
I1
F-0.125
g2110
I0
tp4861
a(I1139
I6
F1.0
g4615
I0
tp4862
a(I1145
I2
F1.0
g4617
I0
tp4863
a(I1147
I0
F1.0
g4619
I0
tp4864
a(I1158
I0
F1.0
g4621
I0
tp4865
a(I1164
I0
F1.0
g4623
I0
tp4866
a(I1164
I5
F1.0
g4625
I0
tp4867
a(I1195
I5
F1.0
g4627
I0
tp4868
a(I1200
I2
F1.0
g4629
I0
tp4869
a(I1201
I2
F1.0
g4631
I0
tp4870
a(I1201
I7
F1.0
g4633
I0
tp4871
a(I1206
I0
F1.0
g2114
I0
tp4872
a(I1208
I0
F1.0
g4636
I0
tp4873
a(I1213
I1
F1.0
g4433
I0
tp4874
a(I1214
I0
F1.0
g4435
I0
tp4875
a(I1227
I0
I0
g4640
I0
tp4876
a(I1256
I6
F1.0
g4642
I0
tp4877
a(I1275
I11
F1.0
g4644
I0
tp4878
a(I1277
I0
F1.0
g4646
I0
tp4879
a(I1279
I0
F1.0
g4437
I0
tp4880
a(I1279
I0
F1.0
g4439
I0
tp4881
a(I1296
I3
F0.875
g4441
I0
tp4882
a(I1299
I1
F1.0
g4443
I0
tp4883
a(I1299
I1
F-0.625
g4445
I0
tp4884
a(I1301
I3
I0
g4653
I0
tp4885
a(I1321
I2
F0.875
g4655
I0
tp4886
a(I1323
I1
F1.0
g4657
I0
tp4887
a(I1325
I0
F-0.875
g4659
I0
tp4888
a(I1329
I4
F1.0
g4661
I0
tp4889
a(I1330
I3
F1.0
g4663
I0
tp4890
a(I1330
I3
I0
g4665
I0
tp4891
a(I1352
I7
F-0.625
g4667
I0
tp4892
a(I1361
I4
F1.0
g4447
I0
tp4893
a(I1375
I3
F0.875
g4449
I0
tp4894
a(I1377
I12
F1.0
g4671
I0
tp4895
a(I1383
I1
F1.0
g4451
I0
tp4896
a(I1383
I1
F1.0
g4453
I0
tp4897
a(I1383
I1
F1.0
g4455
I0
tp4898
a(I1386
I4
F1.0
g4457
I0
tp4899
a(I1391
I1
F-0.125
g2120
I0
tp4900
a(I1406
I3
F1.0
g4678
I0
tp4901
a(I1406
I4
F1.0
g4680
I0
tp4902
a(I1406
I9
F1.0
g4682
I0
tp4903
a(I1412
I1
F1.0
g2122
I0
tp4904
a(I1440
I2
F1.0
g4685
I0
tp4905
a(I1465
I5
I0
g4459
I0
tp4906
a(I1465
I5
F1.0
g4461
I0
tp4907
a(I1470
I1
F1.0
g4689
I0
tp4908
a(I1477
I0
F1.0
g4691
I0
tp4909
a(I1483
I1
F0.875
g4693
I0
tp4910
a(I1483
I22
F0.875
g4463
I0
tp4911
a(I1483
I29
F1.0
g4465
I0
tp4912
a(I1485
I14
F1.0
g4697
I0
tp4913
a(I1487
I3
F1.0
g4467
I0
tp4914
a(I1488
I16
F0.75
g4700
I0
tp4915
a(I1488
I19
F-0.75
g4702
I0
tp4916
a(I1488
I19
F-0.75
g4704
I0
tp4917
a(I1524
I6
F0.875
g4469
I0
tp4918
a(I1555
I1
F1.0
g4707
I0
tp4919
a(I1560
I6
F-0.625
g4709
I0
tp4920
a(I1560
I6
F1.0
g4711
I0
tp4921
a(I1560
I6
F1.0
g4713
I0
tp4922
a(I1573
I13
F0.875
g4471
I0
tp4923
a(I1580
I0
F0.875
g4716
I0
tp4924
a(I1587
I0
F1.0
g4473
I0
tp4925
a(I1605
I3
F1.0
g4719
I0
tp4926
a(I1613
I1
F1.0
g4721
I0
tp4927
a(I1620
I0
I0
g4723
I0
tp4928
a(I1623
I15
F1.0
g4725
I0
tp4929
a(I1629
I2
F1.0
g4727
I0
tp4930
a(I1631
I16
F0.625
g4475
I0
tp4931
a(I1633
I4
F0.875
g4730
I0
tp4932
a(I1633
I4
F1.0
g4732
I0
tp4933
a(I1634
I0
F1.0
g4734
I0
tp4934
a(I1635
I6
F-0.125
g2126
I0
tp4935
a(I1635
I6
F1.0
g2128
I0
tp4936
a(I1644
I3
F1.0
g4738
I0
tp4937
a(I1646
I3
F1.0
g4740
I0
tp4938
a(I1647
I13
F1.0
g4742
I0
tp4939
a(I1651
I12
F1.0
g4744
I0
tp4940
a(I1651
I23
F-0.625
g4746
I0
tp4941
a(I1651
I23
F1.0
g4748
I0
tp4942
a(I1652
I15
F1.0
g4750
I0
tp4943
a(I1682
I1
F1.0
g2130
I0
tp4944
a(I1682
I2
F1.0
g4753
I0
tp4945
a(I1685
I0
F1.0
g4755
I0
tp4946
a(I1699
I4
F1.0
g4757
I0
tp4947
a(I1699
I9
F1.0
g2132
I0
tp4948
a(I1699
I9
F1.0
g2134
I0
tp4949
a(I1699
I9
F-0.125
g2136
I0
tp4950
a(I1709
I0
F1.0
g4762
I0
tp4951
a(I1714
I2
F1.0
g4764
I0
tp4952
a(I1731
I2
F1.0
g4766
I0
tp4953
a(I1731
I7
F1.0
g4768
I0
tp4954
a(I1732
I9
F1.0
g4770
I0
tp4955
a(I1733
I2
F1.0
g4478
I0
tp4956
a(I1753
I2
F-0.875
g4480
I0
tp4957
a(I1768
I2
F1.0
g4482
I0
tp4958
a(I1770
I0
F0.5
g4775
I0
tp4959
a(I1772
I6
F1.0
g4777
I0
tp4960
a(I1786
I11
F1.0
g4484
I0
tp4961
a(I1831
I0
F1.0
g4780
I0
tp4962
a(I1843
I4
F1.0
g4486
I0
tp4963
as(S'feel'
p4964
tp4965
(lp4966
(I18
I19
F1.0
S'good'
p4967
I10
tp4968
a(I58
I1
F0.75
S'premium'
p4969
I10
tp4970
a(I68
I8
F-0.5
S'heavy'
p4971
I10
tp4972
a(I110
I12
I0
S't'
p4973
I10
tp4974
a(I132
I16
I0
S'build'
p4975
I10
tp4976
a(I189
I10
I0
S'u'
p4977
I10
tp4978
a(I361
I0
F0.875
S'great'
p4979
I10
tp4980
a(I492
I8
I0
S'u'
p4981
I10
tp4982
a(I633
I0
I0
S'light'
p4983
I10
tp4984
a(I880
I14
F1.0
S'good'
p4985
I10
tp4986
a(I958
I8
F0.625
S'smooth'
p4987
I10
tp4988
a(I958
I8
F1.0
S'good'
p4989
I10
tp4990
a(I1156
I3
F0.75
S'premium'
p4991
I10
tp4992
a(I1629
I1
F1.0
S'good'
p4993
I10
tp4994
a(I1795
I1
F0.5
S'touch'
p4995
I10
tp4996
as(S'satisfied'
p4997
S'with'
p4998
S'product'
p4999
tp5000
(lp5001
(I935
I3
F-0.125
S'overall'
p5002
I0
tp5003
a(I935
I3
F0.375
S'satisfied'
p5004
I0
tp5005
a(I1142
I0
F0.375
S'satisfied'
p5006
I0
tp5007
a(I1472
I7
F0.375
S'satisfied'
p5008
I0
tp5009
as(S'rear'
p5010
S'camera'
p5011
tp5012
(lp5013
(I19
I5
I0
S'rear'
p5014
I6
tp5015
a(I51
I6
F-0.625
g4403
I6
tp5016
a(I51
I6
F1.0
g4405
I6
tp5017
a(I140
I7
F-0.875
S'poor'
p5018
I6
tp5019
a(I140
I7
I0
S'rear'
p5020
I6
tp5021
a(I172
I0
F1.0
g2074
I6
tp5022
a(I172
I0
F-0.125
S'front'
p5023
I6
tp5024
a(I197
I6
F-0.625
g4407
I6
tp5025
a(I197
I6
F1.0
g4409
I6
tp5026
a(I288
I1
I0
g4527
I6
tp5027
a(I485
I2
F0.875
g2163
I6
tp5028
a(I540
I9
F1.0
g2084
I6
tp5029
a(I564
I0
I0
S'rear'
p5030
I6
tp5031
a(I564
I0
F0.875
S'decent'
p5032
I6
tp5033
a(I640
I3
F1.0
S'good'
p5034
I6
tp5035
a(I658
I2
I0
S'rear'
p5036
I6
tp5037
a(I674
I11
I0
g2092
I6
tp5038
a(I695
I0
F1.0
S'good'
p5039
I6
tp5040
a(I776
I0
I0
g4576
I6
tp5041
a(I776
I0
F1.0
g4578
I6
tp5042
a(I791
I6
F-0.125
g2195
I6
tp5043
a(I791
I6
I0
g2197
I6
tp5044
a(I791
I6
F1.0
g2199
I6
tp5045
a(I798
I0
I0
g4580
I6
tp5046
a(I814
I4
F1.0
S'excellent'
p5047
I6
tp5048
a(I868
I0
F-0.625
g4424
I6
tp5049
a(I893
I2
I0
g2100
I6
tp5050
a(I923
I1
F-0.5
S'disappointed'
p5051
I6
tp5052
a(I962
I2
F-0.125
g2207
I6
tp5053
a(I962
I2
F1.0
g2209
I6
tp5054
a(I1020
I1
I0
S'rear'
p5055
I6
tp5056
a(I1020
I1
I0
S'rear'
p5057
I6
tp5058
a(I1020
I9
I0
S'rear'
p5059
I6
tp5060
a(I1020
I9
F0.5
S'like'
p5061
I6
tp5062
a(I1083
I2
F1.0
g2102
I6
tp5063
a(I1083
I2
I0
g2104
I6
tp5064
a(I1117
I1
I0
g2106
I6
tp5065
a(I1117
I1
F1.0
g2108
I6
tp5066
a(I1117
I1
F-0.125
g2110
I6
tp5067
a(I1445
I2
F-0.375
S'same'
p5068
I6
tp5069
a(I1574
I7
F-1.0
S'bad'
p5070
I6
tp5071
a(I1602
I2
I0
S'rear'
p5072
I6
tp5073
a(I1602
I2
F0.75
S'beautiful'
p5074
I6
tp5075
a(I1620
I0
I0
g4723
I6
tp5076
a(I1654
I4
F0.625
g2251
I6
tp5077
a(I1682
I2
F0.125
S'mobile'
p5078
I6
tp5079
a(I1682
I2
F1.0
g4753
I6
tp5080
a(I172
I0
F-0.125
g5023
I7
tp5081
a(I640
I3
F1.0
g5034
I7
tp5082
a(I695
I0
F1.0
g5039
I7
tp5083
a(I1445
I2
F-0.375
g5068
I7
tp5084
a(I1541
I1
I0
S'clear'
p5085
I7
tp5086
a(I1682
I2
F0.125
g5078
I7
tp5087
as(S'update'
p5088
tp5089
(lp5090
(I86
I1
F0.375
S'further'
p5091
I1
tp5092
a(I199
I13
F-0.25
S'latest'
p5093
I1
tp5094
a(I200
I0
F-0.625
S'last'
p5095
I1
tp5096
a(I421
I5
F0.25
S'future'
p5097
I1
tp5098
a(I421
I5
I0
S'more'
p5099
I1
tp5100
a(I421
I5
F0.5
S'improved'
p5101
I1
tp5102
a(I432
I3
I0
S'firmware'
p5103
I1
tp5104
a(I440
I2
F0.25
S'recent'
p5105
I1
tp5106
a(I501
I1
F0.25
S'recent'
p5107
I1
tp5108
a(I826
I0
F-0.625
S'new'
p5109
I1
tp5110
a(I924
I6
I0
S'sw'
p5111
I1
tp5112
a(I1286
I1
F-0.25
S'latest'
p5113
I1
tp5114
a(I1466
I1
I0
S'u'
p5115
I1
tp5116
a(I1482
I7
F0.125
S'frequent'
p5117
I1
tp5118
a(I1690
I4
F0.625
S'first'
p5119
I1
tp5120
as(S'amazing'
p5121
tp5122
(lp5123
(I1188
I3
F1.0
S'good'
p5124
I1
tp5125
a(I1511
I3
F1.0
S'good'
p5126
I1
tp5127
as(S'value'
p5128
S'for'
p5129
S'money'
p5130
tp5131
(lp5132
(I20
I6
F1.0
S'best'
p5133
I4
tp5134
a(I49
I4
F-0.125
S'overall'
p5135
I4
tp5136
a(I133
I6
F0.375
S'usage'
p5137
I4
tp5138
a(I206
I7
F0.875
S'awesome'
p5139
I4
tp5140
a(I242
I0
F0.5
S'high'
p5141
I4
tp5142
a(I773
I0
F0.5
S'high'
p5143
I4
tp5144
a(I1096
I12
F-0.125
S'overall'
p5145
I4
tp5146
a(I1096
I17
F-0.625
S'real'
p5147
I4
tp5148
a(I1139
I5
F0.375
S'ok'
p5149
I4
tp5150
a(I1201
I1
F0.75
S'complete'
p5151
I4
tp5152
a(I1395
I17
F0.5
S'true'
p5153
I4
tp5154
a(I1560
I9
F1.0
S'good'
p5155
I4
tp5156
a(I1684
I1
F1.0
S'best'
p5157
I4
tp5158
a(I1731
I6
F0.875
S'great'
p5159
I4
tp5160
a(I1736
I0
F1.0
S'good'
p5161
I4
tp5162
a(I1801
I0
F0.5
S'maximum'
p5163
I4
tp5164
a(I49
I4
F-0.125
g5135
I7
tp5165
a(I133
I6
F0.375
g5137
I7
tp5166
a(I146
I28
F0.375
S'full'
p5167
I7
tp5168
a(I206
I7
F0.875
g5139
I7
tp5169
a(I242
I0
F0.5
g5141
I7
tp5170
a(I375
I1
F-0.875
g3799
I7
tp5171
a(I773
I0
F0.5
g5143
I7
tp5172
a(I1096
I12
F-0.125
g5145
I7
tp5173
a(I1096
I17
F-0.625
g5147
I7
tp5174
a(I1139
I5
F0.375
g5149
I7
tp5175
a(I1201
I1
F0.75
g5151
I7
tp5176
a(I1395
I17
F0.5
g5153
I7
tp5177
a(I1560
I9
F1.0
g5155
I7
tp5178
a(I1631
I0
F0.875
S'nice'
p5179
I7
tp5180
a(I1684
I1
F1.0
g5157
I7
tp5181
a(I1714
I3
F1.0
g3824
I7
tp5182
a(I1731
I6
F0.875
g5159
I7
tp5183
a(I1736
I0
F1.0
g5161
I7
tp5184
a(I1801
I0
F0.5
g5163
I7
tp5185
as(S'auto'
p5186
S'start'
p5187
S'manager'
p5188
tp5189
(lp5190
(I577
I4
F0.25
g1708
I0
tp5191
as(S'internal'
p5192
S'memory'
p5193
tp5194
(lp5195
(I201
I9
F0.5
S'internal'
p5196
I3
tp5197
a(I356
I5
I0
S'standard'
p5198
I3
tp5199
a(I356
I5
I0
S'inbuilt'
p5200
I3
tp5201
a(I819
I6
F0.5
S'internal'
p5202
I3
tp5203
a(I819
I6
I0
S'total'
p5204
I3
tp5205
a(I988
I1
F1.0
S'good'
p5206
I3
tp5207
a(I1014
I0
F0.5
S'internal'
p5208
I3
tp5209
a(I1383
I1
F0.5
S'internal'
p5210
I3
tp5211
a(I1579
I2
F0.5
S'internal'
p5212
I3
tp5213
a(I1631
I11
F0.375
S'available'
p5214
I3
tp5215
a(I1631
I11
F0.5
S'internal'
p5216
I3
tp5217
a(I1631
I11
F-0.5
S'less'
p5218
I3
tp5219
as(S'looks'
p5220
tp5221
(lp5222
(I37
I2
F0.5
S'stylish'
p5223
I14
tp5224
a(I37
I2
F0.375
S'sleek'
p5225
I14
tp5226
a(I37
I2
F0.5
S'expensive'
p5227
I14
tp5228
a(I63
I1
F0.5
S'stylish'
p5229
I14
tp5230
a(I68
I9
F0.75
S'premium'
p5231
I14
tp5232
a(I179
I1
F0.875
S'amazing'
p5233
I14
tp5234
a(I382
I2
F0.875
S'nice'
p5235
I14
tp5236
a(I532
I2
F1.0
S'good'
p5237
I14
tp5238
a(I532
I2
F1.0
S'good'
p5239
I14
tp5240
a(I639
I1
F0.375
S'feels'
p5241
I14
tp5242
a(I755
I2
F0.5
S'stylish'
p5243
I14
tp5244
a(I755
I2
F0.375
S'sleek'
p5245
I14
tp5246
a(I755
I2
F0.5
S'expensive'
p5247
I14
tp5248
a(I821
I4
F0.875
S'awesome'
p5249
I14
tp5250
a(I835
I14
F0.5
S'stylish'
p5251
I14
tp5252
a(I935
I0
F1.0
S'good'
p5253
I14
tp5254
a(I958
I10
F1.0
S'good'
p5255
I14
tp5256
a(I962
I16
F0.375
S'sleek'
p5257
I14
tp5258
a(I962
I16
F0.75
S'sophisticated'
p5259
I14
tp5260
a(I974
I17
F1.0
S'good'
p5261
I14
tp5262
a(I1139
I16
F0.875
S'great'
p5263
I14
tp5264
a(I1219
I2
F-0.125
S'overall'
p5265
I14
tp5266
a(I1219
I2
F0.5
S'elegant'
p5267
I14
tp5268
a(I1438
I2
F0.5
S'stylish'
p5269
I14
tp5270
a(I1438
I2
F0.375
S'sleek'
p5271
I14
tp5272
a(I1438
I2
F0.5
S'expensive'
p5273
I14
tp5274
a(I1560
I6
F0.875
S'nice'
p5275
I14
tp5276
a(I1613
I7
F1.0
S'good'
p5277
I14
tp5278
a(I1623
I4
F0.5
S'royal'
p5279
I14
tp5280
a(I1651
I9
F1.0
S'good'
p5281
I14
tp5282
as(S'auto'
p5283
S'brightness'
p5284
S'sensor'
p5285
tp5286
(lp5287
(I40
I3
F0.875
g1700
I0
tp5288
a(I856
I3
F0.875
g1718
I0
tp5289
a(I6
I5
F-0.25
g3595
I7
tp5290
a(I21
I0
F-0.875
S'small'
p5291
I7
tp5292
a(I23
I0
F0.625
g3597
I7
tp5293
a(I86
I2
F0.375
S'much'
p5294
I7
tp5295
a(I86
I2
F0.5
S'touch'
p5296
I7
tp5297
a(I111
I6
F-0.875
S'small'
p5298
I7
tp5299
a(I688
I5
I0
S't'
p5300
I7
tp5301
a(I766
I1
F0.625
S'fine'
p5302
I7
tp5303
a(I820
I0
F0.125
g3599
I7
tp5304
a(I820
I0
F-0.125
g3601
I7
tp5305
a(I846
I6
F0.375
S'available'
p5306
I7
tp5307
a(I981
I6
F-0.75
S'defective'
p5308
I7
tp5309
as(S'concentric'
p5310
S'circles'
p5311
tp5312
(lp5313
(I430
I7
I0
S'concentric'
p5314
I0
tp5315
as(S'in'
p5316
S'price'
p5317
S'range'
p5318
tp5319
(lp5320
(I812
I0
F-0.375
g603
I0
tp5321
a(I923
I13
F-0.375
S'same'
p5322
I0
tp5323
a(I1096
I18
F0.875
g6
I0
tp5324
a(I1191
I8
F1.0
g10
I0
tp5325
a(I1291
I1
I0
S'more'
p5326
I0
tp5327
a(I1299
I1
I0
g12
I0
tp5328
a(I1322
I2
F1.0
g14
I0
tp5329
a(I1322
I2
F1.0
g16
I0
tp5330
a(I1352
I1
I0
S'more'
p5331
I0
tp5332
a(I1361
I1
F-0.375
g18
I0
tp5333
a(I1361
I1
F-0.75
g20
I0
tp5334
a(I1581
I3
I0
g24
I0
tp5335
a(I1636
I0
F-0.5
g26
I0
tp5336
a(I1808
I26
F0.625
S'reliable'
p5337
I0
tp5338
a(I812
I0
F-0.375
g603
I13
tp5339
a(I923
I13
F-0.375
g5322
I13
tp5340
a(I1096
I18
F0.875
g6
I13
tp5341
a(I1189
I5
F1.0
g8
I13
tp5342
a(I1191
I8
F1.0
g10
I13
tp5343
a(I1207
I2
F0.25
S'worth'
p5344
I13
tp5345
a(I1291
I1
I0
g5326
I13
tp5346
a(I1299
I1
I0
g12
I13
tp5347
a(I1322
I2
F1.0
g14
I13
tp5348
a(I1322
I2
F1.0
g16
I13
tp5349
a(I1352
I1
I0
g5331
I13
tp5350
a(I1352
I6
F1.0
S'good'
p5351
I13
tp5352
a(I1361
I1
F-0.375
g18
I13
tp5353
a(I1361
I1
F-0.75
g20
I13
tp5354
a(I1427
I1
I0
g22
I13
tp5355
a(I1581
I3
I0
g24
I13
tp5356
a(I1636
I0
F-0.5
g26
I13
tp5357
a(I1808
I26
F0.625
g5337
I13
tp5358
as(S'i.'
p5359
S'e.'
p5360
tp5361
(lp5362
(I989
I11
F-0.5
S'less'
p5363
I0
tp5364
as(S'dead'
p5365
S'trigger'
p5366
tp5367
(lp5368
(I40
I17
F-0.75
S'dead'
p5369
I0
tp5370
a(I781
I3
F-0.75
S'dead'
p5371
I0
tp5372
a(I814
I0
F-0.75
S'dead'
p5373
I0
tp5374
a(I822
I30
F-0.75
S'dead'
p5375
I0
tp5376
a(I856
I17
F-0.75
S'dead'
p5377
I0
tp5378
as(S'13'
p5379
S'mp'
p5380
tp5381
(lp5382
(I440
I5
I0
g4061
I0
tp5383
a(I470
I0
F-1.0
S'bad'
p5384
I0
tp5385
a(I502
I28
F0.875
S'attractive'
p5386
I0
tp5387
a(I563
I2
F-0.375
g4063
I0
tp5388
a(I579
I1
F-0.125
g4056
I0
tp5389
a(I759
I47
F0.75
S'primary'
p5390
I0
tp5391
a(I868
I0
F1.0
g4066
I0
tp5392
a(I1488
I16
F1.0
S'good'
p5393
I0
tp5394
as(S'critical'
p5395
S'remarks'
p5396
tp5397
(lp5398
(I38
I0
I0
S'critical'
p5399
I0
tp5400
a(I756
I0
I0
S'critical'
p5401
I0
tp5402
a(I1439
I0
I0
S'critical'
p5403
I0
tp5404
as(S'upper'
p5405
S'limits'
p5406
tp5407
(lp5408
(I36
I3
F0.25
S'prescribed'
p5409
I0
tp5410
a(I36
I3
F0.75
S'upper'
p5411
I0
tp5412
a(I754
I3
F0.25
S'prescribed'
p5413
I0
tp5414
a(I754
I3
F0.75
S'upper'
p5415
I0
tp5416
a(I1437
I3
F0.25
S'prescribed'
p5417
I0
tp5418
a(I1437
I3
F0.75
S'upper'
p5419
I0
tp5420
as(S'range'
p5421
S'no'
p5422
S'heating'
p5423
tp5424
(lp5425
(I616
I6
F-0.125
S'such'
p5426
I0
tp5427
a(I616
I6
I0
S'mid'
p5428
I0
tp5429
a(I616
I6
F1.0
S'excellent'
p5430
I0
tp5431
as(S'great'
p5432
tp5433
(lp5434
(I1547
I1
F0.375
S'sleek'
p5435
I5
tp5436
as(S'very'
p5437
S'good'
p5438
S'mobile'
p5439
tp5440
(lp5441
(I476
I6
F0.875
S'awesome'
p5442
I0
tp5443
a(I476
I6
F0.875
S'superb'
p5444
I0
tp5445
a(I658
I6
F1.0
S'good'
p5446
I0
tp5447
a(I658
I6
F0.625
S'friendly'
p5448
I0
tp5449
a(I658
I6
F0.625
S'smooth'
p5450
I0
tp5451
a(I658
I6
F-0.625
S'other'
p5452
I0
tp5453
a(I875
I0
F1.0
S'good'
p5454
I0
tp5455
a(I978
I0
F1.0
S'good'
p5456
I0
tp5457
a(I1091
I2
F1.0
S'good'
p5458
I0
tp5459
a(I1125
I2
F1.0
S'good'
p5460
I0
tp5461
a(I1189
I0
F1.0
S'good'
p5462
I0
tp5463
a(I1215
I0
F1.0
S'good'
p5464
I0
tp5465
a(I1323
I0
F1.0
S'good'
p5466
I0
tp5467
a(I1405
I14
F1.0
S'good'
p5468
I0
tp5469
a(I1575
I0
F1.0
S'good'
p5470
I0
tp5471
a(I1575
I3
F-0.125
S'overall'
p5472
I0
tp5473
a(I1575
I3
F1.0
S'good'
p5474
I0
tp5475
a(I1607
I0
F1.0
S'good'
p5476
I0
tp5477
a(I1631
I16
F1.0
S'good'
p5478
I0
tp5479
a(I1631
I27
F1.0
S'good'
p5480
I0
tp5481
a(I1647
I7
F1.0
S'good'
p5482
I0
tp5483
a(I1753
I2
F1.0
S'good'
p5484
I0
tp5485
a(I84
I0
F1.0
S'good'
p5486
I1
tp5487
a(I476
I6
F0.875
g5442
I1
tp5488
a(I476
I6
F0.875
g5444
I1
tp5489
a(I532
I4
F1.0
S'good'
p5490
I1
tp5491
a(I563
I0
F1.0
S'good'
p5492
I1
tp5493
a(I658
I6
F1.0
g5446
I1
tp5494
a(I658
I6
F0.625
g5448
I1
tp5495
a(I658
I6
F0.625
g5450
I1
tp5496
a(I658
I6
F-0.625
g5452
I1
tp5497
a(I668
I0
F0.875
S'nice'
p5498
I1
tp5499
a(I734
I9
F1.0
S'good'
p5500
I1
tp5501
a(I746
I1
F1.0
S'good'
p5502
I1
tp5503
a(I798
I7
F0.625
S'sexy'
p5504
I1
tp5505
a(I822
I8
F1.0
S'good'
p5506
I1
tp5507
a(I875
I0
F1.0
g5454
I1
tp5508
a(I978
I0
F1.0
g5456
I1
tp5509
a(I995
I0
F1.0
S'good'
p5510
I1
tp5511
a(I1020
I4
F1.0
S'good'
p5512
I1
tp5513
a(I1091
I2
F1.0
g5458
I1
tp5514
a(I1125
I2
F1.0
g5460
I1
tp5515
a(I1138
I3
F0.5
S'weight'
p5516
I1
tp5517
a(I1156
I4
F1.0
S'good'
p5518
I1
tp5519
a(I1188
I0
F1.0
S'good'
p5520
I1
tp5521
a(I1188
I0
F1.0
S'good'
p5522
I1
tp5523
a(I1189
I0
F1.0
g5462
I1
tp5524
a(I1195
I4
F1.0
S'good'
p5525
I1
tp5526
a(I1207
I0
F1.0
S'good'
p5527
I1
tp5528
a(I1215
I0
F1.0
g5464
I1
tp5529
a(I1215
I7
F0.875
S'great'
p5530
I1
tp5531
a(I1221
I0
F1.0
S'good'
p5532
I1
tp5533
a(I1269
I5
F1.0
S'good'
p5534
I1
tp5535
a(I1291
I2
F1.0
S'good'
p5536
I1
tp5537
a(I1300
I6
F1.0
S'good'
p5538
I1
tp5539
a(I1300
I6
F0.875
S'amazing'
p5540
I1
tp5541
a(I1300
I6
F0.75
S'easy'
p5542
I1
tp5543
a(I1323
I0
F1.0
g5466
I1
tp5544
a(I1352
I2
F1.0
S'good'
p5545
I1
tp5546
a(I1405
I14
F1.0
g5468
I1
tp5547
a(I1535
I3
F1.0
S'good'
p5548
I1
tp5549
a(I1575
I0
F1.0
g5470
I1
tp5550
a(I1575
I3
F-0.125
g5472
I1
tp5551
a(I1575
I3
F1.0
g5474
I1
tp5552
a(I1607
I0
F1.0
g5476
I1
tp5553
a(I1631
I16
F1.0
g5478
I1
tp5554
a(I1631
I27
F1.0
g5480
I1
tp5555
a(I1647
I7
F1.0
g5482
I1
tp5556
a(I1753
I2
F1.0
g5484
I1
tp5557
a(I1770
I5
F1.0
S'good'
p5558
I1
tp5559
as(S'performance'
p5560
S'good'
p5561
tp5562
(lp5563
(I37
I2
F1.0
S'good'
p5564
I1
tp5565
a(I53
I1
F1.0
S'good'
p5566
I1
tp5567
a(I56
I1
F1.0
S'good'
p5568
I1
tp5569
a(I263
I1
F1.0
S'good'
p5570
I1
tp5571
a(I344
I0
F0.625
S'smooth'
p5572
I1
tp5573
a(I377
I19
F1.0
S'good'
p5574
I1
tp5575
a(I428
I1
F0.875
S'great'
p5576
I1
tp5577
a(I476
I0
F1.0
S'good'
p5578
I1
tp5579
a(I489
I6
F1.0
S'good'
p5580
I1
tp5581
a(I514
I0
F1.0
S'good'
p5582
I1
tp5583
a(I535
I7
F1.0
S'good'
p5584
I1
tp5585
a(I650
I1
F1.0
S'good'
p5586
I1
tp5587
a(I654
I15
F1.0
S'good'
p5588
I1
tp5589
a(I657
I1
F1.0
S'good'
p5590
I1
tp5591
a(I658
I12
F1.0
S'good'
p5592
I1
tp5593
a(I664
I0
F1.0
S'good'
p5594
I1
tp5595
a(I664
I1
F1.0
S'good'
p5596
I1
tp5597
a(I673
I1
F-0.125
S'overall'
p5598
I1
tp5599
a(I673
I1
F1.0
S'good'
p5600
I1
tp5601
a(I755
I2
F1.0
S'good'
p5602
I1
tp5603
a(I798
I7
F1.0
S'good'
p5604
I1
tp5605
a(I812
I0
F-0.125
S'overall'
p5606
I1
tp5607
a(I812
I4
F1.0
S'good'
p5608
I1
tp5609
a(I822
I0
F1.0
S'good'
p5610
I1
tp5611
a(I829
I0
F1.0
S'best'
p5612
I1
tp5613
a(I872
I10
F1.0
S'good'
p5614
I1
tp5615
a(I879
I0
F1.0
S'good'
p5616
I1
tp5617
a(I958
I0
F1.0
S'good'
p5618
I1
tp5619
a(I958
I1
F1.0
S'excellent'
p5620
I1
tp5621
a(I967
I1
F1.0
S'good'
p5622
I1
tp5623
a(I1006
I0
F0.875
S'happy'
p5624
I1
tp5625
a(I1012
I0
F1.0
S'good'
p5626
I1
tp5627
a(I1016
I0
F-0.5
S'flash'
p5628
I1
tp5629
a(I1035
I3
F1.0
S'good'
p5630
I1
tp5631
a(I1040
I3
F0.625
S'super'
p5632
I1
tp5633
a(I1040
I5
F0.375
S'ok'
p5634
I1
tp5635
a(I1040
I5
F1.0
S'good'
p5636
I1
tp5637
a(I1085
I4
F0.5
S'high'
p5638
I1
tp5639
a(I1086
I1
F-0.125
S'overall'
p5640
I1
tp5641
a(I1086
I1
F1.0
S'good'
p5642
I1
tp5643
a(I1088
I2
F-0.125
S'general'
p5644
I1
tp5645
a(I1088
I2
F1.0
S'good'
p5646
I1
tp5647
a(I1089
I1
F1.0
S'good'
p5648
I1
tp5649
a(I1089
I1
F1.0
S'better'
p5650
I1
tp5651
a(I1123
I5
F1.0
S'good'
p5652
I1
tp5653
a(I1126
I0
F1.0
S'good'
p5654
I1
tp5655
a(I1139
I14
F1.0
S'good'
p5656
I1
tp5657
a(I1140
I0
F1.0
S'good'
p5658
I1
tp5659
a(I1151
I1
F1.0
S'good'
p5660
I1
tp5661
a(I1164
I1
F1.0
S'best'
p5662
I1
tp5663
a(I1164
I1
F1.0
S'good'
p5664
I1
tp5665
a(I1169
I1
F1.0
S'good'
p5666
I1
tp5667
a(I1200
I1
F1.0
S'good'
p5668
I1
tp5669
a(I1205
I0
F1.0
S'good'
p5670
I1
tp5671
a(I1216
I3
F1.0
S'good'
p5672
I1
tp5673
a(I1296
I2
F1.0
S'good'
p5674
I1
tp5675
a(I1296
I2
F1.0
S'good'
p5676
I1
tp5677
a(I1299
I1
F1.0
S'good'
p5678
I1
tp5679
a(I1337
I10
F1.0
S'good'
p5680
I1
tp5681
a(I1337
I10
F0.375
S'round'
p5682
I1
tp5683
a(I1352
I7
F0.375
S'impressive'
p5684
I1
tp5685
a(I1386
I8
F1.0
S'good'
p5686
I1
tp5687
a(I1386
I12
F1.0
S'good'
p5688
I1
tp5689
a(I1408
I5
F1.0
S'good'
p5690
I1
tp5691
a(I1417
I2
F1.0
S'good'
p5692
I1
tp5693
a(I1420
I1
F1.0
S'good'
p5694
I1
tp5695
a(I1429
I4
F1.0
S'good'
p5696
I1
tp5697
a(I1438
I2
F1.0
S'good'
p5698
I1
tp5699
a(I1483
I18
F1.0
S'good'
p5700
I1
tp5701
a(I1524
I6
F0.75
S'fantastic'
p5702
I1
tp5703
a(I1614
I0
F1.0
S'good'
p5704
I1
tp5705
a(I1619
I7
F1.0
S'good'
p5706
I1
tp5707
a(I1631
I15
F0.5
S'satisfactory'
p5708
I1
tp5709
a(I1635
I2
F1.0
S'good'
p5710
I1
tp5711
a(I1647
I5
F0.875
S'nice'
p5712
I1
tp5713
a(I1651
I24
F1.0
S'good'
p5714
I1
tp5715
a(I1668
I10
F1.0
S'good'
p5716
I1
tp5717
a(I1840
I1
F1.0
S'good'
p5718
I1
tp5719
a(I37
I2
F1.0
g5564
I2
tp5720
a(I53
I1
F1.0
g5566
I2
tp5721
a(I56
I1
F1.0
g5568
I2
tp5722
a(I263
I1
F1.0
g5570
I2
tp5723
a(I344
I0
F0.625
g5572
I2
tp5724
a(I377
I19
F1.0
g5574
I2
tp5725
a(I428
I1
F0.875
g5576
I2
tp5726
a(I476
I0
F1.0
g5578
I2
tp5727
a(I489
I6
F1.0
g5580
I2
tp5728
a(I514
I0
F1.0
g5582
I2
tp5729
a(I535
I7
F1.0
g5584
I2
tp5730
a(I650
I1
F1.0
g5586
I2
tp5731
a(I654
I15
F1.0
g5588
I2
tp5732
a(I657
I1
F1.0
g5590
I2
tp5733
a(I658
I12
F1.0
g5592
I2
tp5734
a(I664
I0
F1.0
g5594
I2
tp5735
a(I664
I1
F1.0
g5596
I2
tp5736
a(I673
I1
F-0.125
g5598
I2
tp5737
a(I673
I1
F1.0
g5600
I2
tp5738
a(I755
I2
F1.0
g5602
I2
tp5739
a(I798
I7
F1.0
g5604
I2
tp5740
a(I812
I0
F-0.125
g5606
I2
tp5741
a(I812
I4
F1.0
g5608
I2
tp5742
a(I822
I0
F1.0
g5610
I2
tp5743
a(I829
I0
F1.0
g5612
I2
tp5744
a(I872
I10
F1.0
g5614
I2
tp5745
a(I879
I0
F1.0
g5616
I2
tp5746
a(I958
I0
F1.0
g5618
I2
tp5747
a(I958
I1
F1.0
g5620
I2
tp5748
a(I967
I1
F1.0
g5622
I2
tp5749
a(I1006
I0
F0.875
g5624
I2
tp5750
a(I1012
I0
F1.0
g5626
I2
tp5751
a(I1016
I0
F-0.5
g5628
I2
tp5752
a(I1035
I3
F1.0
g5630
I2
tp5753
a(I1040
I3
F0.625
g5632
I2
tp5754
a(I1040
I5
F0.375
g5634
I2
tp5755
a(I1040
I5
F1.0
g5636
I2
tp5756
a(I1085
I4
F0.5
g5638
I2
tp5757
a(I1086
I1
F-0.125
g5640
I2
tp5758
a(I1086
I1
F1.0
g5642
I2
tp5759
a(I1088
I2
F-0.125
g5644
I2
tp5760
a(I1088
I2
F1.0
g5646
I2
tp5761
a(I1089
I1
F1.0
g5648
I2
tp5762
a(I1089
I1
F1.0
g5650
I2
tp5763
a(I1123
I5
F1.0
g5652
I2
tp5764
a(I1126
I0
F1.0
g5654
I2
tp5765
a(I1139
I14
F1.0
g5656
I2
tp5766
a(I1140
I0
F1.0
g5658
I2
tp5767
a(I1151
I1
F1.0
g5660
I2
tp5768
a(I1164
I1
F1.0
g5662
I2
tp5769
a(I1164
I1
F1.0
g5664
I2
tp5770
a(I1169
I1
F1.0
g5666
I2
tp5771
a(I1200
I1
F1.0
g5668
I2
tp5772
a(I1205
I0
F1.0
g5670
I2
tp5773
a(I1216
I3
F1.0
g5672
I2
tp5774
a(I1296
I2
F1.0
g5674
I2
tp5775
a(I1296
I2
F1.0
g5676
I2
tp5776
a(I1299
I1
F1.0
g5678
I2
tp5777
a(I1337
I10
F1.0
g5680
I2
tp5778
a(I1337
I10
F0.375
g5682
I2
tp5779
a(I1352
I7
F0.375
g5684
I2
tp5780
a(I1386
I8
F1.0
g5686
I2
tp5781
a(I1386
I12
F1.0
g5688
I2
tp5782
a(I1408
I5
F1.0
g5690
I2
tp5783
a(I1417
I2
F1.0
g5692
I2
tp5784
a(I1420
I1
F1.0
g5694
I2
tp5785
a(I1429
I4
F1.0
g5696
I2
tp5786
a(I1438
I2
F1.0
g5698
I2
tp5787
a(I1483
I18
F1.0
g5700
I2
tp5788
a(I1524
I6
F0.75
g5702
I2
tp5789
a(I1614
I0
F1.0
g5704
I2
tp5790
a(I1619
I7
F1.0
g5706
I2
tp5791
a(I1631
I15
F0.5
g5708
I2
tp5792
a(I1635
I2
F1.0
g5710
I2
tp5793
a(I1647
I5
F0.875
g5712
I2
tp5794
a(I1651
I24
F1.0
g5714
I2
tp5795
a(I1668
I10
F1.0
g5716
I2
tp5796
a(I1840
I1
F1.0
g5718
I2
tp5797
a(I37
I2
F1.0
g5564
I13
tp5798
a(I40
I7
F-0.625
S'average'
p5799
I13
tp5800
a(I40
I16
F0.875
S'decent'
p5801
I13
tp5802
a(I53
I1
F1.0
g5566
I13
tp5803
a(I54
I1
F0.625
S'smooth'
p5804
I13
tp5805
a(I56
I1
F1.0
g5568
I13
tp5806
a(I132
I6
I0
S'most'
p5807
I13
tp5808
a(I143
I5
F-0.375
S'flawless'
p5809
I13
tp5810
a(I221
I1
F1.0
S'excellent'
p5811
I13
tp5812
a(I237
I0
F0.875
S'decent'
p5813
I13
tp5814
a(I263
I1
F1.0
g5570
I13
tp5815
a(I344
I0
F0.625
g5572
I13
tp5816
a(I359
I1
F-0.125
S'overall'
p5817
I13
tp5818
a(I373
I2
F0.75
S'fantastic'
p5819
I13
tp5820
a(I377
I5
F0.5
S'touch'
p5821
I13
tp5822
a(I377
I5
F0.625
S'smooth'
p5823
I13
tp5824
a(I377
I5
F0.875
S'fabulous'
p5825
I13
tp5826
a(I377
I19
F1.0
g5574
I13
tp5827
a(I428
I1
F0.875
g5576
I13
tp5828
a(I476
I0
F1.0
g5578
I13
tp5829
a(I487
I1
F-0.375
S'same'
p5830
I13
tp5831
a(I489
I6
F1.0
g5580
I13
tp5832
a(I492
I10
F0.875
S'great'
p5833
I13
tp5834
a(I514
I0
F1.0
g5582
I13
tp5835
a(I534
I2
I0
S'phones'
p5836
I13
tp5837
a(I535
I7
F1.0
g5584
I13
tp5838
a(I616
I4
F0.75
S'fair'
p5839
I13
tp5840
a(I616
I6
F1.0
S'best'
p5841
I13
tp5842
a(I641
I1
F0.25
S'fluid'
p5843
I13
tp5844
a(I650
I1
F1.0
g5586
I13
tp5845
a(I654
I15
F1.0
g5588
I13
tp5846
a(I655
I1
F0.625
S'smooth'
p5847
I13
tp5848
a(I657
I1
F1.0
g5590
I13
tp5849
a(I658
I12
F1.0
g5592
I13
tp5850
a(I664
I0
F1.0
g5594
I13
tp5851
a(I664
I1
F1.0
g5596
I13
tp5852
a(I665
I1
F0.625
S'smooth'
p5853
I13
tp5854
a(I673
I1
F-0.125
g5598
I13
tp5855
a(I673
I1
F1.0
g5600
I13
tp5856
a(I725
I0
F-0.25
S'i'
p5857
I13
tp5858
a(I755
I2
F1.0
g5602
I13
tp5859
a(I779
I3
F0.5
S'high'
p5860
I13
tp5861
a(I798
I7
F1.0
g5604
I13
tp5862
a(I812
I0
F-0.125
g5606
I13
tp5863
a(I812
I4
F1.0
g5608
I13
tp5864
a(I822
I0
F1.0
g5610
I13
tp5865
a(I829
I0
F1.0
g5612
I13
tp5866
a(I829
I3
F0.875
S'great'
p5867
I13
tp5868
a(I829
I3
F0.5
S'high'
p5869
I13
tp5870
a(I844
I0
F-0.125
S'overall'
p5871
I13
tp5872
a(I844
I0
F0.875
S'great'
p5873
I13
tp5874
a(I856
I7
F-0.625
S'average'
p5875
I13
tp5876
a(I856
I16
F0.875
S'decent'
p5877
I13
tp5878
a(I861
I1
I0
S'u'
p5879
I13
tp5880
a(I861
I1
I0
S'specs'
p5881
I13
tp5882
a(I861
I1
F0.875
S'great'
p5883
I13
tp5884
a(I869
I0
F1.0
S'excellent'
p5885
I13
tp5886
a(I872
I10
F1.0
g5614
I13
tp5887
a(I879
I0
F1.0
g5616
I13
tp5888
a(I880
I11
F0.875
S'decent'
p5889
I13
tp5890
a(I881
I2
F1.0
S'better'
p5891
I13
tp5892
a(I919
I1
I0
S'looks'
p5893
I13
tp5894
a(I919
I1
F0.875
S'decent'
p5895
I13
tp5896
a(I958
I0
F1.0
g5618
I13
tp5897
a(I958
I1
F1.0
g5620
I13
tp5898
a(I962
I17
F1.0
S'excellent'
p5899
I13
tp5900
a(I962
I17
I0
S'lag'
p5901
I13
tp5902
a(I962
I17
F-0.75
S'free'
p5903
I13
tp5904
a(I967
I1
F1.0
g5622
I13
tp5905
a(I1006
I0
F0.875
g5624
I13
tp5906
a(I1012
I0
F1.0
g5626
I13
tp5907
a(I1016
I0
F-0.5
g5628
I13
tp5908
a(I1035
I3
F1.0
g5630
I13
tp5909
a(I1040
I3
F0.625
g5632
I13
tp5910
a(I1040
I5
F0.375
g5634
I13
tp5911
a(I1040
I5
F1.0
g5636
I13
tp5912
a(I1043
I0
F0.875
S'great'
p5913
I13
tp5914
a(I1063
I2
F-0.5
S'underestimate'
p5915
I13
tp5916
a(I1065
I3
I0
S'screen'
p5917
I13
tp5918
a(I1080
I3
F0.875
S'nice'
p5919
I13
tp5920
a(I1085
I4
F0.5
g5638
I13
tp5921
a(I1086
I0
I0
S's'
p5922
I13
tp5923
a(I1086
I1
F-0.125
g5640
I13
tp5924
a(I1086
I1
F1.0
g5642
I13
tp5925
a(I1088
I2
F-0.125
g5644
I13
tp5926
a(I1088
I2
F1.0
g5646
I13
tp5927
a(I1089
I1
F1.0
g5648
I13
tp5928
a(I1089
I1
F1.0
g5650
I13
tp5929
a(I1096
I18
F0.875
S'decent'
p5930
I13
tp5931
a(I1123
I5
F1.0
g5652
I13
tp5932
a(I1126
I0
F1.0
g5654
I13
tp5933
a(I1139
I14
F1.0
g5656
I13
tp5934
a(I1140
I0
F1.0
g5658
I13
tp5935
a(I1151
I1
F1.0
g5660
I13
tp5936
a(I1164
I1
F1.0
g5662
I13
tp5937
a(I1164
I1
F1.0
g5664
I13
tp5938
a(I1168
I2
F1.0
S'best'
p5939
I13
tp5940
a(I1169
I1
F1.0
g5666
I13
tp5941
a(I1179
I6
F-0.875
S'poor'
p5942
I13
tp5943
a(I1195
I2
F1.0
S'best'
p5944
I13
tp5945
a(I1195
I10
F0.875
S'decent'
p5946
I13
tp5947
a(I1197
I2
F0.875
S'great'
p5948
I13
tp5949
a(I1200
I1
F1.0
g5668
I13
tp5950
a(I1205
I0
F1.0
g5670
I13
tp5951
a(I1215
I9
F1.0
S'excellent'
p5952
I13
tp5953
a(I1216
I3
F1.0
g5672
I13
tp5954
a(I1227
I2
F0.625
S'smooth'
p5955
I13
tp5956
a(I1260
I2
F0.875
S'nice'
p5957
I13
tp5958
a(I1296
I2
F1.0
g5674
I13
tp5959
a(I1296
I2
F1.0
g5676
I13
tp5960
a(I1299
I1
F1.0
g5678
I13
tp5961
a(I1302
I0
F0.625
S'extraordinary'
p5962
I13
tp5963
a(I1337
I10
F1.0
g5680
I13
tp5964
a(I1337
I10
F0.375
g5682
I13
tp5965
a(I1352
I7
F0.375
g5684
I13
tp5966
a(I1359
I0
F0.875
S'superb'
p5967
I13
tp5968
a(I1386
I8
F1.0
g5686
I13
tp5969
a(I1386
I12
F1.0
g5688
I13
tp5970
a(I1408
I5
F1.0
g5690
I13
tp5971
a(I1417
I2
F1.0
g5692
I13
tp5972
a(I1418
I1
F0.625
S'smooth'
p5973
I13
tp5974
a(I1420
I1
F1.0
g5694
I13
tp5975
a(I1429
I4
F1.0
g5696
I13
tp5976
a(I1438
I2
F1.0
g5698
I13
tp5977
a(I1441
I0
F0.875
S'great'
p5978
I13
tp5979
a(I1483
I18
F1.0
g5700
I13
tp5980
a(I1492
I2
F-0.375
S'mere'
p5981
I13
tp5982
a(I1524
I6
F0.75
g5702
I13
tp5983
a(I1532
I1
F0.125
S'signal'
p5984
I13
tp5985
a(I1569
I9
F-0.25
S'i'
p5986
I13
tp5987
a(I1573
I2
F-0.625
S'average'
p5988
I13
tp5989
a(I1574
I4
F0.875
S'awesome'
p5990
I13
tp5991
a(I1614
I0
F1.0
g5704
I13
tp5992
a(I1619
I7
F1.0
g5706
I13
tp5993
a(I1631
I15
F0.5
g5708
I13
tp5994
a(I1635
I2
F1.0
g5710
I13
tp5995
a(I1647
I5
F0.875
g5712
I13
tp5996
a(I1647
I6
F-0.375
S'flawless'
p5997
I13
tp5998
a(I1647
I14
F1.0
S'excellent'
p5999
I13
tp6000
a(I1651
I24
F1.0
g5714
I13
tp6001
a(I1668
I10
F1.0
g5716
I13
tp6002
a(I1710
I3
F-0.25
S'rest'
p6003
I13
tp6004
a(I1710
I3
F0.625
S'fine'
p6005
I13
tp6006
a(I1715
I7
I0
S'more'
p6007
I13
tp6008
a(I1786
I7
F1.0
S'better'
p6009
I13
tp6010
a(I1798
I0
F0.875
S'great'
p6011
I13
tp6012
a(I1840
I1
F1.0
g5718
I13
tp6013
as(S'asus'
p6014
S'zenfone'
p6015
S'laser'
p6016
tp6017
(lp6018
(I40
I26
F-0.625
g3928
I0
tp6019
a(I146
I27
F0.875
g773
I0
tp6020
a(I206
I5
F1.0
g777
I0
tp6021
a(I254
I4
F-0.125
g3953
I0
tp6022
a(I360
I0
F0.125
g3959
I0
tp6023
a(I437
I19
F-0.125
g3963
I0
tp6024
a(I451
I0
F0.125
g811
I0
tp6025
a(I451
I0
F0.5
g3969
I0
tp6026
a(I1079
I7
F1.0
g783
I0
tp6027
a(I1141
I1
I0
g785
I0
tp6028
a(I40
I26
F-0.625
g3928
I0
tp6029
a(I254
I4
F-0.125
g3953
I0
tp6030
a(I360
I0
F0.125
g3959
I0
tp6031
a(I437
I19
F-0.125
g3963
I0
tp6032
a(I441
I5
F-0.5
g3965
I0
tp6033
a(I441
I5
F-0.625
g805
I0
tp6034
a(I444
I3
F-0.5
g809
I0
tp6035
a(I451
I0
F0.125
g811
I0
tp6036
a(I451
I0
F0.5
g3969
I0
tp6037
a(I526
I3
I0
g3975
I0
tp6038
a(I967
I1
F-0.625
g817
I0
tp6039
a(I1051
I0
I0
g819
I0
tp6040
a(I1131
I12
F-0.625
g4014
I0
tp6041
a(I1219
I12
F0.75
g825
I0
tp6042
as(S'camera'
p6043
S'very'
p6044
S'nice'
p6045
tp6046
(lp6047
(I658
I2
I0
g5036
I0
tp6048
a(I776
I7
F0.875
g2193
I0
tp6049
a(I1079
I9
F0.875
S'nice'
p6050
I0
tp6051
a(I1194
I1
F0.875
S'nice'
p6052
I0
tp6053
a(I1214
I0
F1.0
g4435
I0
tp6054
a(I1279
I0
F1.0
g4437
I0
tp6055
a(I1279
I0
F1.0
g4439
I0
tp6056
a(I1296
I3
F0.875
g4441
I0
tp6057
a(I1337
I11
F0.875
S'nice'
p6058
I0
tp6059
a(I1375
I3
F0.875
g4449
I0
tp6060
a(I1390
I1
F0.875
S'nice'
p6061
I0
tp6062
a(I1682
I1
F1.0
g2130
I0
tp6063
a(I1808
I0
F0.875
S'nice'
p6064
I0
tp6065
as(S'works'
p6066
tp6067
(lp6068
(I1
I7
F0.5
S'high'
p6069
I3
tp6070
a(I1
I7
F0.625
S'fine'
p6071
I3
tp6072
a(I421
I6
F0.5
S'larger'
p6073
I3
tp6074
a(I1274
I1
F0.875
S'fabulous'
p6075
I3
tp6076
a(I1488
I2
F0.875
S'nice'
p6077
I3
tp6078
as(S'good'
p6079
S'camera'
p6080
S'quality'
p6081
tp6082
(lp6083
(I39
I11
F1.0
g3135
I0
tp6084
a(I46
I1
F1.0
g4490
I0
tp6085
a(I65
I1
F1.0
g4494
I0
tp6086
a(I114
I3
F1.0
g4496
I0
tp6087
a(I159
I1
F1.0
g3143
I0
tp6088
a(I343
I5
F1.0
g4531
I0
tp6089
a(I377
I1
F1.0
g3152
I0
tp6090
a(I427
I5
F1.0
g3157
I0
tp6091
a(I486
I0
F1.0
g3170
I0
tp6092
a(I490
I15
F1.0
g3172
I0
tp6093
a(I490
I15
F-0.125
g2082
I0
tp6094
a(I537
I2
I0
g4556
I0
tp6095
a(I537
I2
F1.0
g4558
I0
tp6096
a(I575
I2
F1.0
g3175
I0
tp6097
a(I650
I2
F1.0
g3184
I0
tp6098
a(I653
I0
F0.875
g4566
I0
tp6099
a(I658
I8
F1.0
g3186
I0
tp6100
a(I664
I1
F-0.875
g3188
I0
tp6101
a(I668
I0
F1.0
g3190
I0
tp6102
a(I701
I0
F1.0
g2096
I0
tp6103
a(I820
I14
F1.0
g3207
I0
tp6104
a(I879
I0
F0.5
g3212
I0
tp6105
a(I905
I10
F1.0
g4593
I0
tp6106
a(I925
I0
F1.0
g3217
I0
tp6107
a(I936
I1
F1.0
g4597
I0
tp6108
a(I936
I1
F-1.0
g4599
I0
tp6109
a(I936
I1
F0.875
g3219
I0
tp6110
a(I1000
I0
F1.0
g4604
I0
tp6111
a(I1020
I2
F1.0
g1935
I0
tp6112
a(I1020
I2
F1.0
g1937
I0
tp6113
a(I1040
I3
F1.0
g3019
I0
tp6114
a(I1096
I0
F0.5
g3241
I0
tp6115
a(I1096
I0
F0.875
g4610
I0
tp6116
a(I1164
I0
F1.0
g4623
I0
tp6117
a(I1174
I3
F0.625
g3255
I0
tp6118
a(I1183
I2
F1.0
g3261
I0
tp6119
a(I1185
I0
F1.0
g3263
I0
tp6120
a(I1201
I7
F1.0
g4633
I0
tp6121
a(I1223
I0
F1.0
g3267
I0
tp6122
a(I1227
I0
I0
g4640
I0
tp6123
a(I1227
I0
F0.875
g3269
I0
tp6124
a(I1236
I2
F1.0
g3271
I0
tp6125
a(I1256
I6
F1.0
g4642
I0
tp6126
a(I1275
I11
F1.0
g4644
I0
tp6127
a(I1281
I1
F1.0
g3281
I0
tp6128
a(I1317
I9
F1.0
g3283
I0
tp6129
a(I1318
I2
F1.0
g3285
I0
tp6130
a(I1325
I0
F-0.875
g4659
I0
tp6131
a(I1352
I7
F-0.625
g4667
I0
tp6132
a(I1375
I3
F1.0
g3033
I0
tp6133
a(I1375
I3
F0.875
g4449
I0
tp6134
a(I1386
I4
F1.0
g4457
I0
tp6135
a(I1393
I0
F1.0
g3290
I0
tp6136
a(I1397
I0
F1.0
g3292
I0
tp6137
a(I1447
I1
F1.0
g3294
I0
tp6138
a(I1488
I16
F0.75
g4700
I0
tp6139
a(I1524
I6
F0.5
g3301
I0
tp6140
a(I1524
I6
F0.875
g4469
I0
tp6141
a(I1555
I1
F1.0
g4707
I0
tp6142
a(I1580
I0
F0.875
g4716
I0
tp6143
a(I1647
I5
F1.0
g3305
I0
tp6144
a(I1651
I12
F1.0
g4744
I0
tp6145
a(I1682
I1
F1.0
g2130
I0
tp6146
a(I1710
I6
F1.0
g3314
I0
tp6147
a(I1713
I2
F0.875
g3316
I0
tp6148
a(I1731
I2
F1.0
g4766
I0
tp6149
a(I1731
I7
F1.0
g4768
I0
tp6150
a(I1732
I2
F1.0
g3320
I0
tp6151
a(I1737
I1
F1.0
g3322
I0
tp6152
a(I1765
I0
F1.0
g3324
I0
tp6153
a(I1808
I18
F1.0
g3326
I0
tp6154
a(I1809
I1
F1.0
g3328
I0
tp6155
a(I1809
I1
F1.0
g3330
I0
tp6156
a(I1809
I1
I0
g3332
I0
tp6157
a(I1809
I7
F1.0
g3334
I0
tp6158
a(I39
I11
F1.0
g3135
I0
tp6159
a(I46
I1
F1.0
g4490
I0
tp6160
a(I65
I1
F1.0
g4494
I0
tp6161
a(I114
I3
F1.0
g4496
I0
tp6162
a(I159
I1
F1.0
g3143
I0
tp6163
a(I343
I5
F1.0
g4531
I0
tp6164
a(I377
I1
F1.0
g3152
I0
tp6165
a(I427
I5
F1.0
g3157
I0
tp6166
a(I486
I0
F1.0
g3170
I0
tp6167
a(I490
I15
F1.0
g3172
I0
tp6168
a(I490
I15
F-0.125
g2082
I0
tp6169
a(I537
I2
I0
g4556
I0
tp6170
a(I537
I2
F1.0
g4558
I0
tp6171
a(I575
I2
F1.0
g3175
I0
tp6172
a(I650
I2
F1.0
g3184
I0
tp6173
a(I653
I0
F0.875
g4566
I0
tp6174
a(I658
I8
F1.0
g3186
I0
tp6175
a(I664
I1
F-0.875
g3188
I0
tp6176
a(I668
I0
F1.0
g3190
I0
tp6177
a(I701
I0
F1.0
g2096
I0
tp6178
a(I820
I14
F1.0
g3207
I0
tp6179
a(I879
I0
F0.5
g3212
I0
tp6180
a(I905
I10
F1.0
g4593
I0
tp6181
a(I925
I0
F1.0
g3217
I0
tp6182
a(I936
I1
F1.0
g4597
I0
tp6183
a(I936
I1
F-1.0
g4599
I0
tp6184
a(I936
I1
F0.875
g3219
I0
tp6185
a(I1000
I0
F1.0
g4604
I0
tp6186
a(I1020
I2
F1.0
g1935
I0
tp6187
a(I1020
I2
F1.0
g1937
I0
tp6188
a(I1040
I3
F1.0
g3019
I0
tp6189
a(I1096
I0
F0.5
g3241
I0
tp6190
a(I1096
I0
F0.875
g4610
I0
tp6191
a(I1164
I0
F1.0
g4623
I0
tp6192
a(I1174
I3
F0.625
g3255
I0
tp6193
a(I1183
I2
F1.0
g3261
I0
tp6194
a(I1185
I0
F1.0
g3263
I0
tp6195
a(I1201
I7
F1.0
g4633
I0
tp6196
a(I1223
I0
F1.0
g3267
I0
tp6197
a(I1227
I0
I0
g4640
I0
tp6198
a(I1227
I0
F0.875
g3269
I0
tp6199
a(I1236
I2
F1.0
g3271
I0
tp6200
a(I1256
I6
F1.0
g4642
I0
tp6201
a(I1275
I11
F1.0
g4644
I0
tp6202
a(I1281
I1
F1.0
g3281
I0
tp6203
a(I1317
I9
F1.0
g3283
I0
tp6204
a(I1318
I2
F1.0
g3285
I0
tp6205
a(I1325
I0
F-0.875
g4659
I0
tp6206
a(I1352
I7
F-0.625
g4667
I0
tp6207
a(I1375
I3
F1.0
g3033
I0
tp6208
a(I1375
I3
F0.875
g4449
I0
tp6209
a(I1386
I4
F1.0
g4457
I0
tp6210
a(I1393
I0
F1.0
g3290
I0
tp6211
a(I1397
I0
F1.0
g3292
I0
tp6212
a(I1447
I1
F1.0
g3294
I0
tp6213
a(I1488
I16
F0.75
g4700
I0
tp6214
a(I1524
I6
F0.5
g3301
I0
tp6215
a(I1524
I6
F0.875
g4469
I0
tp6216
a(I1555
I1
F1.0
g4707
I0
tp6217
a(I1580
I0
F0.875
g4716
I0
tp6218
a(I1647
I5
F1.0
g3305
I0
tp6219
a(I1651
I12
F1.0
g4744
I0
tp6220
a(I1682
I1
F1.0
g2130
I0
tp6221
a(I1710
I6
F1.0
g3314
I0
tp6222
a(I1713
I2
F0.875
g3316
I0
tp6223
a(I1731
I2
F1.0
g4766
I0
tp6224
a(I1731
I7
F1.0
g4768
I0
tp6225
a(I1732
I2
F1.0
g3320
I0
tp6226
a(I1737
I1
F1.0
g3322
I0
tp6227
a(I1765
I0
F1.0
g3324
I0
tp6228
a(I1808
I18
F1.0
g3326
I0
tp6229
a(I1809
I1
F1.0
g3328
I0
tp6230
a(I1809
I1
F1.0
g3330
I0
tp6231
a(I1809
I1
I0
g3332
I0
tp6232
a(I1809
I7
F1.0
g3334
I0
tp6233
a(I39
I11
F1.0
g3135
I14
tp6234
a(I39
I13
F-0.125
S'overall'
p6235
I14
tp6236
a(I46
I1
F1.0
g4490
I14
tp6237
a(I52
I5
F0.875
S'great'
p6238
I14
tp6239
a(I52
I5
I0
S'u'
p6240
I14
tp6241
a(I52
I5
F0.875
S'decent'
p6242
I14
tp6243
a(I65
I1
F1.0
g4494
I14
tp6244
a(I69
I4
F0.625
S'okay'
p6245
I14
tp6246
a(I114
I3
F1.0
g4496
I14
tp6247
a(I159
I1
F1.0
g3143
I14
tp6248
a(I189
I6
I0
S'more'
p6249
I14
tp6250
a(I198
I5
F0.875
S'great'
p6251
I14
tp6252
a(I198
I5
I0
S'u'
p6253
I14
tp6254
a(I198
I5
F0.875
S'decent'
p6255
I14
tp6256
a(I343
I5
F1.0
g4531
I14
tp6257
a(I377
I1
F1.0
g3152
I14
tp6258
a(I427
I5
F1.0
g3157
I14
tp6259
a(I440
I5
F0.125
S'equal'
p6260
I14
tp6261
a(I486
I0
F1.0
g3170
I14
tp6262
a(I490
I15
F1.0
g3172
I14
tp6263
a(I490
I15
F-0.125
g2082
I14
tp6264
a(I537
I2
I0
g4556
I14
tp6265
a(I537
I2
F1.0
g4558
I14
tp6266
a(I563
I1
F0.875
S'great'
p6267
I14
tp6268
a(I575
I2
F1.0
g3175
I14
tp6269
a(I650
I2
F1.0
g3184
I14
tp6270
a(I653
I0
F0.875
g4566
I14
tp6271
a(I658
I8
F1.0
g3186
I14
tp6272
a(I664
I1
F-0.875
g3188
I14
tp6273
a(I668
I0
F1.0
g3190
I14
tp6274
a(I701
I0
F1.0
g2096
I14
tp6275
a(I776
I7
F0.875
g2193
I14
tp6276
a(I815
I17
F-0.875
S'poor'
p6277
I14
tp6278
a(I820
I14
F1.0
g3207
I14
tp6279
a(I855
I1
F0.5
S'effective'
p6280
I14
tp6281
a(I855
I1
F-0.125
g2201
I14
tp6282
a(I868
I2
I0
S'update'
p6283
I14
tp6284
a(I879
I0
F0.5
g3212
I14
tp6285
a(I905
I10
F1.0
g4593
I14
tp6286
a(I925
I0
F1.0
g3217
I14
tp6287
a(I936
I1
F1.0
g4597
I14
tp6288
a(I936
I1
F-1.0
g4599
I14
tp6289
a(I936
I1
F0.875
g3219
I14
tp6290
a(I959
I1
F0.875
S'decent'
p6291
I14
tp6292
a(I959
I1
F-0.125
g2205
I14
tp6293
a(I986
I0
F-1.0
S'worst'
p6294
I14
tp6295
a(I1000
I0
F1.0
g4604
I14
tp6296
a(I1020
I2
F1.0
g1935
I14
tp6297
a(I1020
I2
F1.0
g1937
I14
tp6298
a(I1040
I3
F1.0
g3019
I14
tp6299
a(I1046
I0
F-0.875
S'poor'
p6300
I14
tp6301
a(I1075
I16
F1.0
S'excellent'
p6302
I14
tp6303
a(I1079
I1
F-0.875
S'poor'
p6304
I14
tp6305
a(I1079
I1
F0.75
g3100
I14
tp6306
a(I1079
I1
F-0.5
g3102
I14
tp6307
a(I1096
I0
F0.5
g3241
I14
tp6308
a(I1096
I0
F0.875
g4610
I14
tp6309
a(I1096
I8
F0.875
S'brilliant'
p6310
I14
tp6311
a(I1096
I8
F0.75
g3107
I14
tp6312
a(I1164
I0
F1.0
g4623
I14
tp6313
a(I1169
I0
F0.5
S'touch'
p6314
I14
tp6315
a(I1174
I1
F0.875
S'awesome'
p6316
I14
tp6317
a(I1174
I3
F0.625
g3255
I14
tp6318
a(I1183
I2
F1.0
g3261
I14
tp6319
a(I1185
I0
F1.0
g3263
I14
tp6320
a(I1201
I7
F1.0
g4633
I14
tp6321
a(I1201
I10
I0
S'screen'
p6322
I14
tp6323
a(I1201
I10
F1.0
S'best'
p6324
I14
tp6325
a(I1201
I10
F0.625
S'first'
p6326
I14
tp6327
a(I1223
I0
F1.0
g3267
I14
tp6328
a(I1227
I0
I0
g4640
I14
tp6329
a(I1227
I0
F0.875
g3269
I14
tp6330
a(I1236
I2
F1.0
g3271
I14
tp6331
a(I1256
I6
F1.0
g4642
I14
tp6332
a(I1275
I11
F1.0
g4644
I14
tp6333
a(I1281
I1
F1.0
g3281
I14
tp6334
a(I1290
I0
F0.875
S'nice'
p6335
I14
tp6336
a(I1314
I7
F1.0
S'excellent'
p6337
I14
tp6338
a(I1317
I9
F1.0
g3283
I14
tp6339
a(I1318
I2
F1.0
g3285
I14
tp6340
a(I1325
I0
F-0.875
g4659
I14
tp6341
a(I1352
I7
F-0.625
g4667
I14
tp6342
a(I1375
I3
F1.0
g3033
I14
tp6343
a(I1375
I3
F0.875
g4449
I14
tp6344
a(I1381
I3
I0
S'handy'
p6345
I14
tp6346
a(I1381
I3
F0.875
S'awesome'
p6347
I14
tp6348
a(I1386
I4
F1.0
g4457
I14
tp6349
a(I1393
I0
F1.0
g3290
I14
tp6350
a(I1397
I0
F1.0
g3292
I14
tp6351
a(I1398
I0
F-0.375
S'same'
p6352
I14
tp6353
a(I1447
I1
F1.0
g3294
I14
tp6354
a(I1488
I16
F0.75
g4700
I14
tp6355
a(I1507
I2
F1.0
S'excellent'
p6356
I14
tp6357
a(I1524
I6
F0.5
g3301
I14
tp6358
a(I1524
I6
F0.875
g4469
I14
tp6359
a(I1555
I1
F1.0
g4707
I14
tp6360
a(I1573
I11
F0.875
S'awesome'
p6361
I14
tp6362
a(I1574
I1
F0.625
S'interested'
p6363
I14
tp6364
a(I1574
I7
F-1.0
g5070
I14
tp6365
a(I1580
I0
F0.875
g4716
I14
tp6366
a(I1631
I1
F0.875
S'awesome'
p6367
I14
tp6368
a(I1631
I2
F-0.875
S'poor'
p6369
I14
tp6370
a(I1633
I0
F1.0
S'best'
p6371
I14
tp6372
a(I1633
I1
F-0.375
S'same'
p6373
I14
tp6374
a(I1647
I5
F1.0
g3305
I14
tp6375
a(I1651
I12
F1.0
g4744
I14
tp6376
a(I1670
I6
F0.875
g1947
I14
tp6377
a(I1682
I1
F1.0
g2130
I14
tp6378
a(I1699
I28
I0
S'cool'
p6379
I14
tp6380
a(I1710
I1
F1.0
S'excellent'
p6381
I14
tp6382
a(I1710
I6
F1.0
g3314
I14
tp6383
a(I1710
I10
F1.0
g2263
I14
tp6384
a(I1710
I10
F1.0
S'best'
p6385
I14
tp6386
a(I1713
I2
F0.875
g3316
I14
tp6387
a(I1731
I2
F1.0
g4766
I14
tp6388
a(I1731
I7
F1.0
g4768
I14
tp6389
a(I1732
I2
F1.0
g3320
I14
tp6390
a(I1737
I1
F1.0
g3322
I14
tp6391
a(I1738
I1
F0.875
S'important'
p6392
I14
tp6393
a(I1765
I0
F1.0
g3324
I14
tp6394
a(I1808
I0
F0.875
g6064
I14
tp6395
a(I1808
I4
F0.75
S'primary'
p6396
I14
tp6397
a(I1808
I18
F1.0
g3326
I14
tp6398
a(I1809
I1
F1.0
g3328
I14
tp6399
a(I1809
I1
F1.0
g3330
I14
tp6400
a(I1809
I1
I0
g3332
I14
tp6401
a(I1809
I7
F1.0
g3334
I14
tp6402
a(I1839
I7
F-0.625
S'other'
p6403
I14
tp6404
a(I1840
I0
F-1.0
S'bad'
p6405
I14
tp6406
as(S'very'
p6407
S'good'
p6408
S'battery'
p6409
tp6410
(lp6411
(I177
I0
F1.0
g3620
I0
tp6412
a(I501
I6
F1.0
g3638
I0
tp6413
a(I679
I1
F1.0
g4133
I0
tp6414
a(I879
I0
F1.0
S'good'
p6415
I0
tp6416
a(I905
I7
F1.0
S'good'
p6417
I0
tp6418
a(I965
I2
F-0.875
g3654
I0
tp6419
a(I970
I1
F-0.625
g3658
I0
tp6420
a(I1154
I3
I0
S'useful'
p6421
I0
tp6422
a(I1214
I0
F0.875
g3690
I0
tp6423
a(I1215
I0
F1.0
g2555
I0
tp6424
a(I1216
I3
F-0.5
S'extra'
p6425
I0
tp6426
a(I1323
I0
F1.0
g2557
I0
tp6427
a(I1352
I18
F-0.625
S'last'
p6428
I0
tp6429
a(I1361
I4
F1.0
g3696
I0
tp6430
a(I1406
I6
F1.0
S'good'
p6431
I0
tp6432
a(I1549
I1
F1.0
g3712
I0
tp6433
a(I1682
I1
F1.0
g4185
I0
tp6434
a(I1710
I0
F1.0
g3724
I0
tp6435
a(I1843
I4
F0.625
S'stealthy'
p6436
I0
tp6437
a(I18
I12
F1.0
g3889
I1
tp6438
a(I65
I0
F0.875
S'great'
p6439
I1
tp6440
a(I87
I1
F1.0
g3614
I1
tp6441
a(I141
I1
F1.0
g3616
I1
tp6442
a(I145
I14
F0.5
S'touch'
p6443
I1
tp6444
a(I161
I2
F1.0
S'good'
p6445
I1
tp6446
a(I177
I0
F1.0
g3620
I1
tp6447
a(I180
I1
F1.0
S'good'
p6448
I1
tp6449
a(I246
I1
F1.0
g3622
I1
tp6450
a(I352
I16
F1.0
g3628
I1
tp6451
a(I381
I4
F-0.875
S'poor'
p6452
I1
tp6453
a(I381
I5
F1.0
g4125
I1
tp6454
a(I444
I0
F1.0
g4127
I1
tp6455
a(I501
I6
F1.0
g3638
I1
tp6456
a(I502
I4
F1.0
S'good'
p6457
I1
tp6458
a(I612
I2
F1.0
g3646
I1
tp6459
a(I658
I4
F1.0
S'good'
p6460
I1
tp6461
a(I674
I8
F1.0
S'good'
p6462
I1
tp6463
a(I679
I1
F1.0
g4133
I1
tp6464
a(I791
I0
F1.0
g3648
I1
tp6465
a(I818
I2
F1.0
g4137
I1
tp6466
a(I822
I1
F1.0
g3650
I1
tp6467
a(I860
I1
F1.0
g4139
I1
tp6468
a(I879
I0
F1.0
g6415
I1
tp6469
a(I905
I7
F1.0
g6417
I1
tp6470
a(I965
I2
F-0.875
g3654
I1
tp6471
a(I970
I1
F-0.625
g3658
I1
tp6472
a(I1040
I2
F1.0
g3662
I1
tp6473
a(I1053
I0
F1.0
g3666
I1
tp6474
a(I1058
I8
F1.0
S'good'
p6475
I1
tp6476
a(I1067
I2
F1.0
g3668
I1
tp6477
a(I1067
I22
F1.0
S'good'
p6478
I1
tp6479
a(I1067
I22
F-0.5
S'surfing'
p6480
I1
tp6481
a(I1087
I0
F1.0
S'good'
p6482
I1
tp6483
a(I1090
I1
F1.0
g3672
I1
tp6484
a(I1096
I6
I0
S'handy'
p6485
I1
tp6486
a(I1096
I6
F1.0
S'good'
p6487
I1
tp6488
a(I1103
I0
F0.875
g3674
I1
tp6489
a(I1139
I12
F-0.625
S'last'
p6490
I1
tp6491
a(I1144
I2
F1.0
g3678
I1
tp6492
a(I1154
I3
I0
g6421
I1
tp6493
a(I1156
I5
F1.0
S'good'
p6494
I1
tp6495
a(I1156
I6
F1.0
g3680
I1
tp6496
a(I1161
I3
F1.0
g3682
I1
tp6497
a(I1163
I1
F1.0
g3684
I1
tp6498
a(I1189
I3
F1.0
g4152
I1
tp6499
a(I1201
I5
F1.0
S'good'
p6500
I1
tp6501
a(I1207
I1
F1.0
S'good'
p6502
I1
tp6503
a(I1209
I0
F1.0
g3688
I1
tp6504
a(I1214
I0
F0.875
g3690
I1
tp6505
a(I1215
I0
F1.0
g2555
I1
tp6506
a(I1216
I3
F-0.5
g6425
I1
tp6507
a(I1233
I2
F1.0
S'good'
p6508
I1
tp6509
a(I1233
I2
I0
S'more'
p6510
I1
tp6511
a(I1237
I2
F1.0
S'good'
p6512
I1
tp6513
a(I1256
I3
F1.0
g3693
I1
tp6514
a(I1264
I0
F1.0
g4158
I1
tp6515
a(I1278
I0
F1.0
S'good'
p6516
I1
tp6517
a(I1279
I7
F1.0
g3903
I1
tp6518
a(I1323
I0
F1.0
g2557
I1
tp6519
a(I1338
I1
F1.0
g4163
I1
tp6520
a(I1352
I7
F1.0
g4167
I1
tp6521
a(I1352
I18
F-0.625
g6428
I1
tp6522
a(I1353
I2
F1.0
S'good'
p6523
I1
tp6524
a(I1361
I4
F1.0
g3696
I1
tp6525
a(I1377
I19
F1.0
g4169
I1
tp6526
a(I1379
I2
F1.0
g3698
I1
tp6527
a(I1406
I6
F1.0
g6431
I1
tp6528
a(I1429
I4
F1.0
g3702
I1
tp6529
a(I1483
I4
F1.0
S'good'
p6530
I1
tp6531
a(I1486
I1
F1.0
S'good'
p6532
I1
tp6533
a(I1488
I15
F1.0
S'good'
p6534
I1
tp6535
a(I1492
I1
F1.0
g3708
I1
tp6536
a(I1549
I1
F1.0
g3712
I1
tp6537
a(I1563
I12
F1.0
g3714
I1
tp6538
a(I1573
I14
F1.0
g3718
I1
tp6539
a(I1589
I0
F1.0
S'good'
p6540
I1
tp6541
a(I1613
I3
F1.0
g4179
I1
tp6542
a(I1631
I24
F-1.0
S'bad'
p6543
I1
tp6544
a(I1635
I9
F1.0
S'good'
p6545
I1
tp6546
a(I1647
I13
F0.875
g4183
I1
tp6547
a(I1682
I1
F1.0
g4185
I1
tp6548
a(I1683
I3
F1.0
g4189
I1
tp6549
a(I1685
I0
F0.875
S'great'
p6550
I1
tp6551
a(I1699
I8
F1.0
S'good'
p6552
I1
tp6553
a(I1710
I0
F1.0
g3724
I1
tp6554
a(I1713
I2
F1.0
g3726
I1
tp6555
a(I1722
I1
F1.0
S'good'
p6556
I1
tp6557
a(I1799
I0
F1.0
S'good'
p6558
I1
tp6559
a(I1843
I4
F0.625
g6436
I1
tp6560
as(S'device'
p6561
tp6562
(lp6563
(I0
I0
F1.0
S'best'
p6564
I11
tp6565
a(I0
I0
I0
S'android'
p6566
I11
tp6567
a(I7
I1
I0
S'u'
p6568
I11
tp6569
a(I39
I0
F0.875
S'great'
p6570
I11
tp6571
a(I40
I1
F0.5
S'large'
p6572
I11
tp6573
a(I50
I1
F1.0
S'best'
p6574
I11
tp6575
a(I67
I0
F0.875
S'nice'
p6576
I11
tp6577
a(I67
I3
F0.75
S'promising'
p6578
I11
tp6579
a(I68
I6
F-0.125
S'huge'
p6580
I11
tp6581
a(I132
I7
F0.25
S'able'
p6582
I11
tp6583
a(I132
I9
F0.625
S'graphic'
p6584
I11
tp6585
a(I132
I9
F0.5
S'intensive'
p6586
I11
tp6587
a(I132
I10
F-0.5
S'negligible'
p6588
I11
tp6589
a(I178
I4
F-0.625
S'seamless'
p6590
I11
tp6591
a(I185
I22
I0
S'clear'
p6592
I11
tp6593
a(I199
I0
F0.875
S'great'
p6594
I11
tp6595
a(I201
I13
F0.625
S'smooth'
p6596
I11
tp6597
a(I230
I1
F-0.5
S'long'
p6598
I11
tp6599
a(I238
I0
F-0.5
S'heavy'
p6600
I11
tp6601
a(I447
I2
F0.875
S'happy'
p6602
I11
tp6603
a(I488
I1
F1.0
S'good'
p6604
I11
tp6605
a(I502
I2
F0.75
S'wonderful'
p6606
I11
tp6607
a(I502
I2
F0.75
S'gorgeous'
p6608
I11
tp6609
a(I539
I1
I0
S'android'
p6610
I11
tp6611
a(I676
I9
F-0.25
S'i'
p6612
I11
tp6613
a(I757
I0
F0.875
S'great'
p6614
I11
tp6615
a(I758
I11
F1.0
S'good'
p6616
I11
tp6617
a(I758
I14
I0
S'inch'
p6618
I11
tp6619
a(I822
I27
F-0.625
S'other'
p6620
I11
tp6621
a(I856
I1
F0.5
S'large'
p6622
I11
tp6623
a(I956
I0
F-0.625
S'other'
p6624
I11
tp6625
a(I996
I2
F-0.75
S'defective'
p6626
I11
tp6627
a(I996
I3
F-0.625
S'new'
p6628
I11
tp6629
a(I996
I3
F0.75
S'perfect'
p6630
I11
tp6631
a(I997
I1
F-0.75
S'defective'
p6632
I11
tp6633
a(I997
I3
F0.875
S'awesome'
p6634
I11
tp6635
a(I1096
I25
F1.0
S'best'
p6636
I11
tp6637
a(I1190
I1
F1.0
S'good'
p6638
I11
tp6639
a(I1440
I0
F0.875
S'great'
p6640
I11
tp6641
a(I1531
I0
F1.0
S'good'
p6642
I11
tp6643
a(I1531
I0
F-0.625
S'new'
p6644
I11
tp6645
a(I1563
I6
F-0.625
S'blank'
p6646
I11
tp6647
a(I1646
I0
F1.0
S'good'
p6648
I11
tp6649
a(I1646
I0
I0
S'most'
p6650
I11
tp6651
a(I1646
I1
I0
S'headphones'
p6652
I11
tp6653
a(I1726
I9
F0.625
S'smooth'
p6654
I11
tp6655
a(I1726
I9
F1.0
S'good'
p6656
I11
tp6657
a(I1730
I10
F0.75
S'wonderful'
p6658
I11
tp6659
a(I1772
I12
I0
S'inch'
p6660
I11
tp6661
a(I1772
I12
F1.0
S'good'
p6662
I11
tp6663
as(S'awesome'
p6664
tp6665
(lp6666
(I71
I0
F0.5
S'touch'
p6667
I6
tp6668
a(I979
I12
I0
S'specs'
p6669
I6
tp6670
a(I1117
I6
I0
S'screen'
p6671
I6
tp6672
a(I1391
I4
F1.0
S'good'
p6673
I6
tp6674
a(I1533
I2
F0.375
S'satisfied'
p6675
I6
tp6676
a(I1533
I2
F-0.5
S'backup'
p6677
I6
tp6678
as(S'bloat'
p6679
S'ware'
p6680
tp6681
(lp6682
(I321
I1
I0
S'many'
p6683
I0
tp6684
as(S'review'
p6685
tp6686
(lp6687
(I28
I1
F0.25
S'helpful'
p6688
I8
tp6689
a(I67
I2
F0.5
S'detailed'
p6690
I8
tp6691
a(I83
I0
I0
S'useful'
p6692
I8
tp6693
a(I105
I1
I0
S's'
p6694
I8
tp6695
a(I113
I5
I0
S'most'
p6696
I8
tp6697
a(I199
I5
F0.75
S'honest'
p6698
I8
tp6699
a(I207
I0
F0.75
S'complete'
p6700
I8
tp6701
a(I450
I14
F0.75
S'due'
p6702
I8
tp6703
a(I450
I14
F-0.25
S'latest'
p6704
I8
tp6705
a(I668
I0
F0.375
S'full'
p6706
I8
tp6707
a(I888
I13
F-0.625
S'other'
p6708
I8
tp6709
a(I1010
I16
F0.5
S'true'
p6710
I8
tp6711
a(I1361
I5
I0
S'initial'
p6712
I8
tp6713
a(I1652
I13
F-0.5
S'unbiased'
p6714
I8
tp6715
a(I1672
I6
F-0.25
S'late'
p6716
I8
tp6717
as.